 SQLiteWinRTFS

 Timestamp is 595538e0 (Thu Jun 29 11:29:04 2017)

 Preferred load address is 10000000

 Start         Length     Name                   Class
 0001:00000000 0003cf6dH .textbss                DATA
 0002:00000000 00008c0aH .text$di                CODE
 0002:00008c10 00073450H .text$mn                CODE
 0002:0007c060 0000a0e0H .text$x                 CODE
 0002:00086140 00001160H .text$yd                CODE
 0003:00000000 00000104H .CRT$XCA                DATA
 0003:00000104 00000104H .CRT$XCL                DATA
 0003:00000208 00000139H .CRT$XCU                DATA
 0003:00000344 00000104H .CRT$XCZ                DATA
 0003:00000448 00000104H .CRT$XIA                DATA
 0003:0000054c 00000104H .CRT$XIAA               DATA
 0003:00000650 00000104H .CRT$XIC                DATA
 0003:00000754 00000104H .CRT$XIY                DATA
 0003:00000858 00000104H .CRT$XIZ                DATA
 0003:00000960 000062beH .rdata                  DATA
 0003:00006c20 000001a8H .rdata$debug            DATA
 0003:00006dc8 000047b7H .rdata$r                DATA
 0003:0000b580 00000104H .rtc$IAA                DATA
 0003:0000b684 00000126H .rtc$IMZ                DATA
 0003:0000b7ac 00000104H .rtc$IZZ                DATA
 0003:0000b8b0 00000104H .rtc$TAA                DATA
 0003:0000b9b4 00000126H .rtc$TMZ                DATA
 0003:0000badc 00000104H .rtc$TZZ                DATA
 0003:0000bbe0 00008d12H .xdata$x                DATA
 0003:00014900 0000018dH .edata                  DATA
 0004:00000000 00001b29H .data                   DATA
 0004:00001b30 00004996H .data$r                 DATA
 0004:000064c8 000004b0H .bss                    DATA
 0005:00000000 00000558H .idata$5                DATA
 0005:00000558 000000b4H .idata$2                DATA
 0005:0000060c 00000014H .idata$3                DATA
 0005:00000620 00000558H .idata$4                DATA
 0005:00000b78 0000236bH .idata$6                DATA
 0006:00000000 00000104H minATL$__a              DATA
 0006:00000104 00000104H minATL$__m              DATA
 0006:00000208 00000104H minATL$__r              DATA
 0006:0000030c 00000104H minATL$__z              DATA

  Address         Publics by Value              Rva+Base       Lib:Object

 0000:00000000       ___guard_flags             00000000     <absolute>
 0000:00000000       __except_list              00000000     <absolute>
 0000:00000000       ___guard_fids_table        00000000     <absolute>
 0000:00000000       ___safe_se_handler_count   00000000     <absolute>
 0000:00000000       ___guard_fids_count        00000000     <absolute>
 0000:00000000       ___safe_se_handler_table   00000000     <absolute>
 0000:00009876       __fltused                  00009876     <absolute>
 0000:00009876       __ldused                   00009876     <absolute>
 0000:00000000       ___ImageBase               10000000     <linker-defined>
 0001:00000000       __enc$textbss$begin        10001000     <linker-defined>
 0001:0003cf6d       __enc$textbss$end          1003df6d     <linker-defined>
 0002:00008c10       ?__abi_winrt_cast_use_helper@@YAP$AAVObject@Platform@@_NPAXABU_GUID@@PAU__abi_IUnknown@@@Z 10046c10 f i pch.obj
 0002:00008c80       ??$_Allocate@D@std@@YAPADIPAD@Z 10046c80 f i pch.obj
 0002:00008d10       ??$_Allocate@U_Container_proxy@std@@@std@@YAPAU_Container_proxy@0@IPAU10@@Z 10046d10 f i pch.obj
 0002:00008db0       ??$_Debug_pointer@D@std@@YAXPBDPB_WI@Z 10046db0 f i pch.obj
 0002:00008e20       ??$addressof@D@std@@YAPADAAD@Z 10046e20 f i pch.obj
 0002:00008e60       ??$construct@PADAAPAD@?$_Wrap_alloc@V?$allocator@D@std@@@std@@QAEXPAPADAAPAD@Z 10046e60 f i pch.obj
 0002:00008ed0       ??$construct@PADAAPAD@?$allocator@D@std@@QAEXPAPADAAPAD@Z 10046ed0 f i pch.obj
 0002:00008fd0       ??$construct@PADAAPAD@?$allocator_traits@V?$allocator@D@std@@@std@@SAXAAV?$allocator@D@1@PAPADAAPAD@Z 10046fd0 f i pch.obj
 0002:00009030       ??$construct@U_Container_proxy@std@@U12@@?$allocator@U_Container_proxy@std@@@std@@QAEXPAU_Container_proxy@1@$$QAU21@@Z 10047030 f i pch.obj
 0002:00009140       ??$destroy@PAD@?$_Wrap_alloc@V?$allocator@D@std@@@std@@QAEXPAPAD@Z 10047140 f i pch.obj
 0002:000091a0       ??$destroy@PAD@?$allocator@D@std@@QAEXPAPAD@Z 100471a0 f i pch.obj
 0002:000091e0       ??$destroy@PAD@?$allocator_traits@V?$allocator@D@std@@@std@@SAXAAV?$allocator@D@1@PAPAD@Z 100471e0 f i pch.obj
 0002:00009230       ??$destroy@U_Container_proxy@std@@@?$allocator@U_Container_proxy@std@@@std@@QAEXPAU_Container_proxy@1@@Z 10047230 f i pch.obj
 0002:00009270       ??$forward@AAPAD@std@@YAAAPADAAPAD@Z 10047270 f i pch.obj
 0002:000092b0       ??$forward@U_Container_proxy@std@@@std@@YA$$QAU_Container_proxy@0@AAU10@@Z 100472b0 f i pch.obj
 0002:000092f0       ??0?$_String_alloc@$0A@U?$_String_base_types@DV?$allocator@D@std@@@std@@@std@@QAE@ABV?$allocator@D@1@@Z 100472f0 f i pch.obj
 0002:000093a0       ??0?$_String_val@U?$_Simple_types@D@std@@@std@@QAE@XZ 100473a0 f i pch.obj
 0002:00009420       ??0?$_Wrap_alloc@V?$allocator@D@std@@@std@@QAE@XZ 10047420 f i pch.obj
 0002:00009480       ??0?$allocator@D@std@@QAE@XZ 10047480 f i pch.obj
 0002:000094c0       ??0?$allocator@U_Container_proxy@std@@@std@@QAE@XZ 100474c0 f i pch.obj
 0002:00009500       ??0?$basic_string@DU?$char_traits@D@std@@V?$allocator@D@2@@std@@QAE@PBD@Z 10047500 f i pch.obj
 0002:000095d0       ??0Guid@Platform@@QAA@IGGEEEEEEEE@Z 100475d0 f i pch.obj
 0002:00009690       ??0_Container_proxy@std@@QAE@XZ 10047690 f i pch.obj
 0002:000096e0       ??0_Generic_error_category@std@@QAE@XZ 100476e0 f i pch.obj
 0002:00009740       ??0_Ignore@std@@QAE@XZ     10047740 f i pch.obj
 0002:00009780       ??0_Iostream_error_category@std@@QAE@XZ 10047780 f i pch.obj
 0002:000097e0       ??0_System_error_category@std@@QAE@XZ 100477e0 f i pch.obj
 0002:00009840       ??0error_category@std@@QAE@XZ 10047840 f i pch.obj
 0002:00009890       ??0error_condition@std@@QAE@HABVerror_category@1@@Z 10047890 f i pch.obj
 0002:000098e0       ??1?$_String_alloc@$0A@U?$_String_base_types@DV?$allocator@D@std@@@std@@@std@@QAE@XZ 100478e0 f i pch.obj
 0002:00009940       ??1?$_String_val@U?$_Simple_types@D@std@@@std@@QAE@XZ 10047940 f i pch.obj
 0002:000099a0       ??1_Generic_error_category@std@@UAE@XZ 100479a0 f i pch.obj
 0002:000099f0       ??1_Iostream_error_category@std@@UAE@XZ 100479f0 f i pch.obj
 0002:00009a40       ??1_System_error_category@std@@UAE@XZ 10047a40 f i pch.obj
 0002:00009a90       ??1error_category@std@@UAE@XZ 10047a90 f i pch.obj
 0002:00009ad0       ??1location@Concurrency@@QAE@XZ 10047ad0 f i pch.obj
 0002:00009b10       ??2@YAPAXIPAX@Z            10047b10 f i pch.obj
 0002:00009b50       ??3@YAXPAX0@Z              10047b50 f i pch.obj
 0002:00009b80       ??8error_category@std@@QBE_NABV01@@Z 10047b80 f i pch.obj
 0002:00009bf0       ??8error_condition@std@@QBE_NABV01@@Z 10047bf0 f i pch.obj
 0002:00009ca0       ??_Elocation@Concurrency@@QAEPAXI@Z 10047ca0 f i pch.obj
 0002:00009d60       ??_G_Generic_error_category@std@@UAEPAXI@Z 10047d60 f i pch.obj
 0002:00009d60       ??_E_Generic_error_category@std@@UAEPAXI@Z 10047d60 f i pch.obj
 0002:00009dd0       ??_G_Iostream_error_category@std@@UAEPAXI@Z 10047dd0 f i pch.obj
 0002:00009dd0       ??_E_Iostream_error_category@std@@UAEPAXI@Z 10047dd0 f i pch.obj
 0002:00009e40       ??_G_System_error_category@std@@UAEPAXI@Z 10047e40 f i pch.obj
 0002:00009e40       ??_E_System_error_category@std@@UAEPAXI@Z 10047e40 f i pch.obj
 0002:00009eb0       ??_Eerror_category@std@@UAEPAXI@Z 10047eb0 f i pch.obj
 0002:00009eb0       ??_Gerror_category@std@@UAEPAXI@Z 10047eb0 f i pch.obj
 0002:00009f20       ?_Alloc_proxy@?$_String_alloc@$0A@U?$_String_base_types@DV?$allocator@D@std@@@std@@@std@@QAEXXZ 10047f20 f i pch.obj
 0002:0000a010       ?_Copy@?$basic_string@DU?$char_traits@D@std@@V?$allocator@D@2@@std@@QAEXII@Z 10048010 f i pch.obj
 0002:0000a2e0       ?_Eos@?$basic_string@DU?$char_traits@D@std@@V?$allocator@D@2@@std@@QAEXI@Z 100482e0 f i pch.obj
 0002:0000a360       ?_Free_proxy@?$_String_alloc@$0A@U?$_String_base_types@DV?$allocator@D@std@@@std@@@std@@QAEXXZ 10048360 f i pch.obj
 0002:0000a450       ?_Getal@?$_String_alloc@$0A@U?$_String_base_types@DV?$allocator@D@std@@@std@@@std@@QBE?AU?$_Wrap_alloc@V?$allocator@D@std@@@2@XZ 10048450 f i pch.obj
 0002:0000a4b0       ?_Grow@?$basic_string@DU?$char_traits@D@std@@V?$allocator@D@2@@std@@QAE_NI_N@Z 100484b0 f i pch.obj
 0002:0000a5d0       ?_Inside@?$basic_string@DU?$char_traits@D@std@@V?$allocator@D@2@@std@@QAE_NPBD@Z 100485d0 f i pch.obj
 0002:0000a650       ?_Myptr@?$_String_val@U?$_Simple_types@D@std@@@std@@QAEPADXZ 10048650 f i pch.obj
 0002:0000a6e0       ?_Myptr@?$_String_val@U?$_Simple_types@D@std@@@std@@QBEPBDXZ 100486e0 f i pch.obj
 0002:0000a770       ?_Tidy@?$basic_string@DU?$char_traits@D@std@@V?$allocator@D@2@@std@@QAEX_NI@Z 10048770 f i pch.obj
 0002:0000a880       ?_Xlen@?$basic_string@DU?$char_traits@D@std@@V?$allocator@D@2@@std@@QBEXXZ 10048880 f i pch.obj
 0002:0000a8e0       ?_Xran@?$basic_string@DU?$char_traits@D@std@@V?$allocator@D@2@@std@@QBEXXZ 100488e0 f i pch.obj
 0002:0000a940       ?__abi_ThrowIfFailed@@YAXJ@Z 10048940 f i pch.obj
 0002:0000a9a0       ?__abi_WinRTraiseException@@YGXJ@Z 100489a0 f i pch.obj
 0002:0000ac60       ?__abi_winrt_cast_to@@YAP$AAVObject@Platform@@_NP$AAV12@ABU_GUID@@@Z 10048c60 f i pch.obj
 0002:0000ad60       ?allocate@?$_Wrap_alloc@V?$allocator@D@std@@@std@@QAEPADI@Z 10048d60 f i pch.obj
 0002:0000adc0       ?allocate@?$allocator@D@std@@QAEPADI@Z 10048dc0 f i pch.obj
 0002:0000ae20       ?allocate@?$allocator@U_Container_proxy@std@@@std@@QAEPAU_Container_proxy@2@I@Z 10048e20 f i pch.obj
 0002:0000ae80       ?assign@?$basic_string@DU?$char_traits@D@std@@V?$allocator@D@2@@std@@QAEAAV12@ABV12@II@Z 10048e80 f i pch.obj
 0002:0000af90       ?assign@?$basic_string@DU?$char_traits@D@std@@V?$allocator@D@2@@std@@QAEAAV12@PBD@Z 10048f90 f i pch.obj
 0002:0000b020       ?assign@?$basic_string@DU?$char_traits@D@std@@V?$allocator@D@2@@std@@QAEAAV12@PBDI@Z 10049020 f i pch.obj
 0002:0000b120       ?assign@?$char_traits@D@std@@SAXAADABD@Z 10049120 f i pch.obj
 0002:0000b160       ?category@error_code@std@@QBEABVerror_category@2@XZ 10049160 f i pch.obj
 0002:0000b1a0       ?category@error_condition@std@@QBEABVerror_category@2@XZ 100491a0 f i pch.obj
 0002:0000b1e0       ?copy@?$char_traits@D@std@@SAPADPADPBDI@Z 100491e0 f i pch.obj
 0002:0000b260       ?deallocate@?$_Wrap_alloc@V?$allocator@D@std@@@std@@QAEXPADI@Z 10049260 f i pch.obj
 0002:0000b2c0       ?deallocate@?$allocator@D@std@@QAEXPADI@Z 100492c0 f i pch.obj
 0002:0000b320       ?deallocate@?$allocator@U_Container_proxy@std@@@std@@QAEXPAU_Container_proxy@2@I@Z 10049320 f i pch.obj
 0002:0000b380       ?default_error_condition@_System_error_category@std@@UBE?AVerror_condition@2@H@Z 10049380 f i pch.obj
 0002:0000b430       ?default_error_condition@error_category@std@@UBE?AVerror_condition@2@H@Z 10049430 f i pch.obj
 0002:0000b490       ?equivalent@error_category@std@@UBE_NABVerror_code@2@H@Z 10049490 f i pch.obj
 0002:0000b530       ?equivalent@error_category@std@@UBE_NHABVerror_condition@2@@Z 10049530 f i pch.obj
 0002:0000b5b0       ?erase@?$basic_string@DU?$char_traits@D@std@@V?$allocator@D@2@@std@@QAEAAV12@I@Z 100495b0 f i pch.obj
 0002:0000b630       ?erase@?$basic_string@DU?$char_traits@D@std@@V?$allocator@D@2@@std@@QAEAAV12@II@Z 10049630 f i pch.obj
 0002:0000b710       ?generic_category@std@@YAABVerror_category@1@XZ 10049710 f i pch.obj
 0002:0000b750       ?length@?$char_traits@D@std@@SAIPBD@Z 10049750 f i pch.obj
 0002:0000b7d0       ?max_size@?$_Wrap_alloc@V?$allocator@D@std@@@std@@QBEIXZ 100497d0 f i pch.obj
 0002:0000b830       ?max_size@?$allocator@D@std@@QBEIXZ 10049830 f i pch.obj
 0002:0000b870       ?max_size@?$allocator_traits@V?$allocator@D@std@@@std@@SAIABV?$allocator@D@2@@Z 10049870 f i pch.obj
 0002:0000b8c0       ?max_size@?$basic_string@DU?$char_traits@D@std@@V?$allocator@D@2@@std@@QBEIXZ 100498c0 f i pch.obj
 0002:0000b960       ?message@_Generic_error_category@std@@UBE?AV?$basic_string@DU?$char_traits@D@std@@V?$allocator@D@2@@2@H@Z 10049960 f i pch.obj
 0002:0000ba20       ?message@_Iostream_error_category@std@@UBE?AV?$basic_string@DU?$char_traits@D@std@@V?$allocator@D@2@@2@H@Z 10049a20 f i pch.obj
 0002:0000bae0       ?message@_System_error_category@std@@UBE?AV?$basic_string@DU?$char_traits@D@std@@V?$allocator@D@2@@2@H@Z 10049ae0 f i pch.obj
 0002:0000bba0       ?move@?$char_traits@D@std@@SAPADPADPBDI@Z 10049ba0 f i pch.obj
 0002:0000bc30       ?name@_Generic_error_category@std@@UBEPBDXZ 10049c30 f i pch.obj
 0002:0000bc70       ?name@_Iostream_error_category@std@@UBEPBDXZ 10049c70 f i pch.obj
 0002:0000bcb0       ?name@_System_error_category@std@@UBEPBDXZ 10049cb0 f i pch.obj
 0002:0000bcf0       ?size@?$basic_string@DU?$char_traits@D@std@@V?$allocator@D@2@@std@@QBEIXZ 10049cf0 f i pch.obj
 0002:0000bd30       ?system_category@std@@YAABVerror_category@1@XZ 10049d30 f i pch.obj
 0002:0000bd70       ?value@error_code@std@@QBEHXZ 10049d70 f i pch.obj
 0002:0000bdb0       ?value@error_condition@std@@QBEHXZ 10049db0 f i pch.obj
 0002:0000bdf0       _hypot                     10049df0 f i pch.obj
 0002:0000be70       ?CreateFactory@__WinRTVFSActivationFactory@SQLiteWinRTExtensions@@SGJPAIPAU__abi___classObjectEntry@@AAVGuid@Platform@@PAPAU__abi_IUnknown@@@Z 10049e70 f i SQLiteWinRTExtensions.obj
 0002:0000bfd0       ?GetTargetClassName@__WinRTVFSActivationFactory@SQLiteWinRTExtensions@@SGPB_WXZ 10049fd0 f i SQLiteWinRTExtensions.obj
 0002:0000c010       ??0WinRTVFS@SQLiteWinRTExtensions@@Q$AAA@XZ 1004a010 f i SQLiteWinRTExtensions.obj
 0002:0000c0b0       ??0__WinRTVFSActivationFactory@SQLiteWinRTExtensions@@Q$AAA@XZ 1004a0b0 f i SQLiteWinRTExtensions.obj
 0002:0000c140       ??0__abi_FTMWeakRefData@@QAE@P$AAVObject@Platform@@@Z 1004a140 f i SQLiteWinRTExtensions.obj
 0002:0000c1d0       ?ActivateInstance@?QIActivationFactory@Details@Platform@@__WinRTVFSActivationFactory@SQLiteWinRTExtensions@@U$AAAP$AAVObject@3@XZ 1004a1d0 f i SQLiteWinRTExtensions.obj
 0002:0000c2d2       ?ActivateInstance@?QIActivationFactory@Details@Platform@@__WinRTVFSActivationFactory@SQLiteWinRTExtensions@@W7$AAAP$AAVObject@3@XZ 1004a2d2 f i SQLiteWinRTExtensions.obj
 0002:0000c2e0       ?Decrement@__abi_FTMWeakRefData@@QCGKXZ 1004a2e0 f i SQLiteWinRTExtensions.obj
 0002:0000c3f0       ?DecrementStrongReference@ControlBlock@Details@Platform@@AAGKXZ 1004a3f0 f i SQLiteWinRTExtensions.obj
 0002:0000c450       ?Equals@Guid@Platform@@QAA_NABU_GUID@@@Z 1004a450 f i SQLiteWinRTExtensions.obj
 0002:0000c550       ?GetFreeThreadedMarshaler@__abi_FTMWeakRefData@@QAEPAV1@XZ 1004a550 f i SQLiteWinRTExtensions.obj
 0002:0000c5a0       ?GetRefcount@ControlBlock@Details@Platform@@AAGJXZ 1004a5a0 f i SQLiteWinRTExtensions.obj
 0002:0000c5e0       ?GetWeakReference@?QIWeakReferenceSource@Details@Platform@@WinRTVFS@SQLiteWinRTExtensions@@U$AAAP$AAUIWeakReference@23@XZ 1004a5e0 f i SQLiteWinRTExtensions.obj
 0002:0000c6ae       ?GetWeakReference@?QIWeakReferenceSource@Details@Platform@@WinRTVFS@SQLiteWinRTExtensions@@W7$AAAP$AAUIWeakReference@23@XZ 1004a6ae f i SQLiteWinRTExtensions.obj
 0002:0000c6c0       ?GetWeakReference@__abi_FTMWeakRefData@@QAEP$AAUIWeakReference@Details@Platform@@XZ 1004a6c0 f i SQLiteWinRTExtensions.obj
 0002:0000c720       ?Increment@__abi_FTMWeakRefData@@QCGKXZ 1004a720 f i SQLiteWinRTExtensions.obj
 0002:0000c7a0       ?IncrementStrongReference@ControlBlock@Details@Platform@@AAGKXZ 1004a7a0 f i SQLiteWinRTExtensions.obj
 0002:0000c7f0       ?Initialize@?Q__IWinRTVFSStatics@SQLiteWinRTExtensions@@__WinRTVFSActivationFactory@2@U$AAA_N_N@Z 1004a7f0 f i SQLiteWinRTExtensions.obj
 0002:0000c840       ?Initialize@WinRTVFS@SQLiteWinRTExtensions@@SA_N_N@Z 1004a840 f i SQLiteWinRTExtensions.obj
 0002:0000ca40       ?PlacementFree@Heap@Details@Platform@@SAXPAX0@Z 1004aa40 f i SQLiteWinRTExtensions.obj
 0002:0000ca70       ?ReleaseControlBlock@__abi_FTMWeakRefData@@QAEXXZ 1004aa70 f i SQLiteWinRTExtensions.obj
 0002:0000cae0       ?__abi_AddRef@?QObject@Platform@@WinRTVFS@SQLiteWinRTExtensions@@U$AAGKXZ 1004aae0 f i SQLiteWinRTExtensions.obj
 0002:0000cb37       ?__abi_AddRef@?QObject@Platform@@WinRTVFS@SQLiteWinRTExtensions@@W3$AAGKXZ 1004ab37 f i SQLiteWinRTExtensions.obj
 0002:0000cb43       ?__abi_AddRef@?QObject@Platform@@WinRTVFS@SQLiteWinRTExtensions@@W7$AAGKXZ 1004ab43 f i SQLiteWinRTExtensions.obj
 0002:0000cb4f       ?__abi_AddRef@?QObject@Platform@@WinRTVFS@SQLiteWinRTExtensions@@WM@$AAGKXZ 1004ab4f f i SQLiteWinRTExtensions.obj
 0002:0000cb60       ?__abi_AddRef@?QObject@Platform@@__WinRTVFSActivationFactory@SQLiteWinRTExtensions@@U$AAGKXZ 1004ab60 f i SQLiteWinRTExtensions.obj
 0002:0000cbb7       ?__abi_AddRef@?QObject@Platform@@__WinRTVFSActivationFactory@SQLiteWinRTExtensions@@W3$AAGKXZ 1004abb7 f i SQLiteWinRTExtensions.obj
 0002:0000cbc3       ?__abi_AddRef@?QObject@Platform@@__WinRTVFSActivationFactory@SQLiteWinRTExtensions@@W7$AAGKXZ 1004abc3 f i SQLiteWinRTExtensions.obj
 0002:0000cbd0       ?__abi_GetIids@?QObject@Platform@@WinRTVFS@SQLiteWinRTExtensions@@U$AAGJPAKPAPAVGuid@2@@Z 1004abd0 f i SQLiteWinRTExtensions.obj
 0002:0000cd0b       ?__abi_GetIids@?QObject@Platform@@WinRTVFS@SQLiteWinRTExtensions@@W3$AAGJPAKPAPAVGuid@2@@Z 1004ad0b f i SQLiteWinRTExtensions.obj
 0002:0000cd17       ?__abi_GetIids@?QObject@Platform@@WinRTVFS@SQLiteWinRTExtensions@@WM@$AAGJPAKPAPAVGuid@2@@Z 1004ad17 f i SQLiteWinRTExtensions.obj
 0002:0000cd30       ?__abi_GetIids@?QObject@Platform@@__WinRTVFSActivationFactory@SQLiteWinRTExtensions@@U$AAGJPAKPAPAVGuid@2@@Z 1004ad30 f i SQLiteWinRTExtensions.obj
 0002:0000ce6b       ?__abi_GetIids@?QObject@Platform@@__WinRTVFSActivationFactory@SQLiteWinRTExtensions@@W3$AAGJPAKPAPAVGuid@2@@Z 1004ae6b f i SQLiteWinRTExtensions.obj
 0002:0000ce77       ?__abi_GetIids@?QObject@Platform@@__WinRTVFSActivationFactory@SQLiteWinRTExtensions@@W7$AAGJPAKPAPAVGuid@2@@Z 1004ae77 f i SQLiteWinRTExtensions.obj
 0002:0000ce90       ?__abi_GetRuntimeClassName@?QObject@Platform@@WinRTVFS@SQLiteWinRTExtensions@@U$AAGJPAPAUHSTRING__@@@Z 1004ae90 f i SQLiteWinRTExtensions.obj
 0002:0000cee5       ?__abi_GetRuntimeClassName@?QObject@Platform@@WinRTVFS@SQLiteWinRTExtensions@@W3$AAGJPAPAUHSTRING__@@@Z 1004aee5 f i SQLiteWinRTExtensions.obj
 0002:0000cef1       ?__abi_GetRuntimeClassName@?QObject@Platform@@WinRTVFS@SQLiteWinRTExtensions@@WM@$AAGJPAPAUHSTRING__@@@Z 1004aef1 f i SQLiteWinRTExtensions.obj
 0002:0000cf00       ?__abi_GetRuntimeClassName@?QObject@Platform@@__WinRTVFSActivationFactory@SQLiteWinRTExtensions@@U$AAGJPAPAUHSTRING__@@@Z 1004af00 f i SQLiteWinRTExtensions.obj
 0002:0000cf55       ?__abi_GetRuntimeClassName@?QObject@Platform@@__WinRTVFSActivationFactory@SQLiteWinRTExtensions@@W3$AAGJPAPAUHSTRING__@@@Z 1004af55 f i SQLiteWinRTExtensions.obj
 0002:0000cf61       ?__abi_GetRuntimeClassName@?QObject@Platform@@__WinRTVFSActivationFactory@SQLiteWinRTExtensions@@W7$AAGJPAPAUHSTRING__@@@Z 1004af61 f i SQLiteWinRTExtensions.obj
 0002:0000cf70       ?__abi_GetTrustLevel@?QObject@Platform@@WinRTVFS@SQLiteWinRTExtensions@@U$AAGJPAW4__abi_TrustLevel@@@Z 1004af70 f i SQLiteWinRTExtensions.obj
 0002:0000cfae       ?__abi_GetTrustLevel@?QObject@Platform@@WinRTVFS@SQLiteWinRTExtensions@@W3$AAGJPAW4__abi_TrustLevel@@@Z 1004afae f i SQLiteWinRTExtensions.obj
 0002:0000cfba       ?__abi_GetTrustLevel@?QObject@Platform@@WinRTVFS@SQLiteWinRTExtensions@@WM@$AAGJPAW4__abi_TrustLevel@@@Z 1004afba f i SQLiteWinRTExtensions.obj
 0002:0000cfd0       ?__abi_GetTrustLevel@?QObject@Platform@@__WinRTVFSActivationFactory@SQLiteWinRTExtensions@@U$AAGJPAW4__abi_TrustLevel@@@Z 1004afd0 f i SQLiteWinRTExtensions.obj
 0002:0000d00e       ?__abi_GetTrustLevel@?QObject@Platform@@__WinRTVFSActivationFactory@SQLiteWinRTExtensions@@W3$AAGJPAW4__abi_TrustLevel@@@Z 1004b00e f i SQLiteWinRTExtensions.obj
 0002:0000d01a       ?__abi_GetTrustLevel@?QObject@Platform@@__WinRTVFSActivationFactory@SQLiteWinRTExtensions@@W7$AAGJPAW4__abi_TrustLevel@@@Z 1004b01a f i SQLiteWinRTExtensions.obj
 0002:0000d030       ?__abi_Platform_Details_IActivationFactory____abi_ActivateInstance@?QIActivationFactory@Details@Platform@@__WinRTVFSActivationFactory@SQLiteWinRTExtensions@@U$AAGJPAP$AAVObject@3@@Z 1004b030 f i SQLiteWinRTExtensions.obj
 0002:0000d144       ?__abi_Platform_Details_IActivationFactory____abi_ActivateInstance@?QIActivationFactory@Details@Platform@@__WinRTVFSActivationFactory@SQLiteWinRTExtensions@@W7$AAGJPAP$AAVObject@3@@Z 1004b144 f i SQLiteWinRTExtensions.obj
 0002:0000d150       ?__abi_Platform_Details_IWeakReferenceSource____abi_GetWeakReference@?QIWeakReferenceSource@Details@Platform@@WinRTVFS@SQLiteWinRTExtensions@@U$AAGJPAP$AAUIWeakReference@23@@Z 1004b150 f i SQLiteWinRTExtensions.obj
 0002:0000d24d       ?__abi_Platform_Details_IWeakReferenceSource____abi_GetWeakReference@?QIWeakReferenceSource@Details@Platform@@WinRTVFS@SQLiteWinRTExtensions@@W7$AAGJPAP$AAUIWeakReference@23@@Z 1004b24d f i SQLiteWinRTExtensions.obj
 0002:0000d260       ?__abi_QueryInterface@?QObject@Platform@@WinRTVFS@SQLiteWinRTExtensions@@U$AAGJAAVGuid@2@PAPAX@Z 1004b260 f i SQLiteWinRTExtensions.obj
 0002:0000d405       ?__abi_QueryInterface@?QObject@Platform@@WinRTVFS@SQLiteWinRTExtensions@@W3$AAGJAAVGuid@2@PAPAX@Z 1004b405 f i SQLiteWinRTExtensions.obj
 0002:0000d411       ?__abi_QueryInterface@?QObject@Platform@@WinRTVFS@SQLiteWinRTExtensions@@W7$AAGJAAVGuid@2@PAPAX@Z 1004b411 f i SQLiteWinRTExtensions.obj
 0002:0000d41d       ?__abi_QueryInterface@?QObject@Platform@@WinRTVFS@SQLiteWinRTExtensions@@WM@$AAGJAAVGuid@2@PAPAX@Z 1004b41d f i SQLiteWinRTExtensions.obj
 0002:0000d430       ?__abi_QueryInterface@?QObject@Platform@@__WinRTVFSActivationFactory@SQLiteWinRTExtensions@@U$AAGJAAVGuid@2@PAPAX@Z 1004b430 f i SQLiteWinRTExtensions.obj
 0002:0000d5d5       ?__abi_QueryInterface@?QObject@Platform@@__WinRTVFSActivationFactory@SQLiteWinRTExtensions@@W3$AAGJAAVGuid@2@PAPAX@Z 1004b5d5 f i SQLiteWinRTExtensions.obj
 0002:0000d5e1       ?__abi_QueryInterface@?QObject@Platform@@__WinRTVFSActivationFactory@SQLiteWinRTExtensions@@W7$AAGJAAVGuid@2@PAPAX@Z 1004b5e1 f i SQLiteWinRTExtensions.obj
 0002:0000d5f0       ?__abi_QueryInterface@__abi_FTMWeakRefData@@QAGJAAVGuid@Platform@@PAPAX@Z 1004b5f0 f i SQLiteWinRTExtensions.obj
 0002:0000d770       ?__abi_Release@?QObject@Platform@@WinRTVFS@SQLiteWinRTExtensions@@U$AAGKXZ 1004b770 f i SQLiteWinRTExtensions.obj
 0002:0000d7dc       ?__abi_Release@?QObject@Platform@@WinRTVFS@SQLiteWinRTExtensions@@W3$AAGKXZ 1004b7dc f i SQLiteWinRTExtensions.obj
 0002:0000d7e8       ?__abi_Release@?QObject@Platform@@WinRTVFS@SQLiteWinRTExtensions@@W7$AAGKXZ 1004b7e8 f i SQLiteWinRTExtensions.obj
 0002:0000d7f4       ?__abi_Release@?QObject@Platform@@WinRTVFS@SQLiteWinRTExtensions@@WM@$AAGKXZ 1004b7f4 f i SQLiteWinRTExtensions.obj
 0002:0000d800       ?__abi_Release@?QObject@Platform@@__WinRTVFSActivationFactory@SQLiteWinRTExtensions@@U$AAGKXZ 1004b800 f i SQLiteWinRTExtensions.obj
 0002:0000d86c       ?__abi_Release@?QObject@Platform@@__WinRTVFSActivationFactory@SQLiteWinRTExtensions@@W3$AAGKXZ 1004b86c f i SQLiteWinRTExtensions.obj
 0002:0000d878       ?__abi_Release@?QObject@Platform@@__WinRTVFSActivationFactory@SQLiteWinRTExtensions@@W7$AAGKXZ 1004b878 f i SQLiteWinRTExtensions.obj
 0002:0000d890       ?__abi_Release@ControlBlock@Details@Platform@@UAGKXZ 1004b890 f i SQLiteWinRTExtensions.obj
 0002:0000d920       ?__abi_SQLiteWinRTExtensions___IWinRTVFSStatics____abi_Initialize@?Q__IWinRTVFSStatics@SQLiteWinRTExtensions@@__WinRTVFSActivationFactory@2@U$AAGJ_NPA_N@Z 1004b920 f i SQLiteWinRTExtensions.obj
 0002:0000da40       ?__abi_winrt_ptr_ctor@@YAPAXQ$ADVObject@Platform@@@Z 1004ba40 f i SQLiteWinRTExtensions.obj
 0002:0000dab0       ?__abi_winrt_ptr_dtor@@YAXQ$ADVObject@Platform@@@Z 1004bab0 f i SQLiteWinRTExtensions.obj
 0002:0000db20       ?<Dispose>@IDisposable@Platform@@U$AAAXXZ 1004bb20 f i WinRTVFS.obj
 0002:0000db90       ??$?0$$$V@?$_Ref_count_obj@U?$_Task_completion_event_impl@E@details@Concurrency@@@std@@QAE@XZ 1004bb90 f i WinRTVFS.obj
 0002:0000dca0       ??$?0AAP$AAVException@Platform@@V_TaskCreationCallstack@details@Concurrency@@@?$_Ref_count_obj@U_ExceptionHolder@details@Concurrency@@@std@@QAE@AAP$AAVException@Platform@@$$QAV_TaskCreationCallstack@details@Concurrency@@@Z 1004bca0 f i WinRTVFS.obj
 0002:0000ddd0       ??$?0AAPAV_CancellationTokenState@details@Concurrency@@AAUscheduler_ptr@2@@?$_Ref_count_obj@U?$_Task_impl@E@details@Concurrency@@@std@@QAE@AAPAV_CancellationTokenState@details@Concurrency@@AAUscheduler_ptr@4@@Z 1004bdd0 f i WinRTVFS.obj
 0002:0000df50       ??$?0AAPAV_CancellationTokenState@details@Concurrency@@AAUscheduler_ptr@2@@?$_Ref_count_obj@U?$_Task_impl@I@details@Concurrency@@@std@@QAE@AAPAV_CancellationTokenState@details@Concurrency@@AAUscheduler_ptr@4@@Z 1004bf50 f i WinRTVFS.obj
 0002:0000e0d0       ??$?0AAPAV_CancellationTokenState@details@Concurrency@@AAUscheduler_ptr@2@@?$_Ref_count_obj@U?$_Task_impl@P$AAUIBuffer@Streams@Storage@Windows@@@details@Concurrency@@@std@@QAE@AAPAV_CancellationTokenState@details@Concurrency@@AAUscheduler_ptr@4@@Z 1004c0d0 f i WinRTVFS.obj
 0002:0000e250       ??$?0AAPAV_CancellationTokenState@details@Concurrency@@AAUscheduler_ptr@2@@?$_Ref_count_obj@U?$_Task_impl@P$AAUIRandomAccessStream@Streams@Storage@Windows@@@details@Concurrency@@@std@@QAE@AAPAV_CancellationTokenState@details@Concurrency@@AAUscheduler_ptr@4@@Z 1004c250 f i WinRTVFS.obj
 0002:0000e3d0       ??$?0AAPAV_CancellationTokenState@details@Concurrency@@AAUscheduler_ptr@2@@?$_Ref_count_obj@U?$_Task_impl@P$AAVStorageFile@Storage@Windows@@@details@Concurrency@@@std@@QAE@AAPAV_CancellationTokenState@details@Concurrency@@AAUscheduler_ptr@4@@Z 1004c3d0 f i WinRTVFS.obj
 0002:0000e550       ??$?0AAPAV_CancellationTokenState@details@Concurrency@@AAUscheduler_ptr@2@@?$_Ref_count_obj@U?$_Task_impl@P$AAVStorageFolder@Storage@Windows@@@details@Concurrency@@@std@@QAE@AAPAV_CancellationTokenState@details@Concurrency@@AAUscheduler_ptr@4@@Z 1004c550 f i WinRTVFS.obj
 0002:0000e6d0       ??$?0AAPAV_CancellationTokenState@details@Concurrency@@AAUscheduler_ptr@2@@?$_Ref_count_obj@U?$_Task_impl@_N@details@Concurrency@@@std@@QAE@AAPAV_CancellationTokenState@details@Concurrency@@AAUscheduler_ptr@4@@Z 1004c6d0 f i WinRTVFS.obj
 0002:0000e850       ??$?0AAU?$_Callable_obj@V<lambda_02d862f9cfc639ff7c37ca52d43e6a8c>@@$0A@@std@@@?$_Callable_obj@V<lambda_02d862f9cfc639ff7c37ca52d43e6a8c>@@$0A@@std@@QAE@AAU01@@Z 1004c850 f i WinRTVFS.obj
 0002:0000e8c0       ??$?0AAU?$_Callable_obj@V<lambda_095a938ce4c5765dcc6b67f548aeb9c7>@@$0A@@std@@@?$_Callable_obj@V<lambda_095a938ce4c5765dcc6b67f548aeb9c7>@@$0A@@std@@QAE@AAU01@@Z 1004c8c0 f i WinRTVFS.obj
 0002:0000e930       ??$?0AAU?$_Callable_obj@V<lambda_0b7f78ec4ced38495cec46e0d346e0b9>@@$0A@@std@@@?$_Callable_obj@V<lambda_0b7f78ec4ced38495cec46e0d346e0b9>@@$0A@@std@@QAE@AAU01@@Z 1004c930 f i WinRTVFS.obj
 0002:0000e9a0       ??$?0AAU?$_Callable_obj@V<lambda_0fe479da16d43edb8e9a254c493d643e>@@$0A@@std@@@?$_Callable_obj@V<lambda_0fe479da16d43edb8e9a254c493d643e>@@$0A@@std@@QAE@AAU01@@Z 1004c9a0 f i WinRTVFS.obj
 0002:0000ea10       ??$?0AAU?$_Callable_obj@V<lambda_1a93da980d6fe77644a4eefc4e1ad756>@@$0A@@std@@@?$_Callable_obj@V<lambda_1a93da980d6fe77644a4eefc4e1ad756>@@$0A@@std@@QAE@AAU01@@Z 1004ca10 f i WinRTVFS.obj
 0002:0000ea80       ??$?0AAU?$_Callable_obj@V<lambda_295bc5f846209cba149a5e74d0d63a72>@@$0A@@std@@@?$_Callable_obj@V<lambda_295bc5f846209cba149a5e74d0d63a72>@@$0A@@std@@QAE@AAU01@@Z 1004ca80 f i WinRTVFS.obj
 0002:0000eaf0       ??$?0AAU?$_Callable_obj@V<lambda_364e75aa895e992ae8821732ca646aa2>@@$0A@@std@@@?$_Callable_obj@V<lambda_364e75aa895e992ae8821732ca646aa2>@@$0A@@std@@QAE@AAU01@@Z 1004caf0 f i WinRTVFS.obj
 0002:0000eb60       ??$?0AAU?$_Callable_obj@V<lambda_39cde079c01d1b5b9307ff255a1ccdd9>@@$0A@@std@@@?$_Callable_obj@V<lambda_39cde079c01d1b5b9307ff255a1ccdd9>@@$0A@@std@@QAE@AAU01@@Z 1004cb60 f i WinRTVFS.obj
 0002:0000ebd0       ??$?0AAU?$_Callable_obj@V<lambda_528650821c608ced6534641e311542a5>@@$0A@@std@@@?$_Callable_obj@V<lambda_528650821c608ced6534641e311542a5>@@$0A@@std@@QAE@AAU01@@Z 1004cbd0 f i WinRTVFS.obj
 0002:0000ec40       ??$?0AAU?$_Callable_obj@V<lambda_579ccd68d569251046038e8620afec85>@@$0A@@std@@@?$_Callable_obj@V<lambda_579ccd68d569251046038e8620afec85>@@$0A@@std@@QAE@AAU01@@Z 1004cc40 f i WinRTVFS.obj
 0002:0000ecb0       ??$?0AAU?$_Callable_obj@V<lambda_9fc58f08a03183e50e06176727aeb396>@@$0A@@std@@@?$_Callable_obj@V<lambda_9fc58f08a03183e50e06176727aeb396>@@$0A@@std@@QAE@AAU01@@Z 1004ccb0 f i WinRTVFS.obj
 0002:0000ed20       ??$?0AAU?$_Callable_obj@V<lambda_a66b3ee15e662226a0b0b15ae647d32f>@@$0A@@std@@@?$_Callable_obj@V<lambda_a66b3ee15e662226a0b0b15ae647d32f>@@$0A@@std@@QAE@AAU01@@Z 1004cd20 f i WinRTVFS.obj
 0002:0000ed90       ??$?0AAU?$_Callable_obj@V<lambda_c1a554f2383dae03f169289aed8c4103>@@$0A@@std@@@?$_Callable_obj@V<lambda_c1a554f2383dae03f169289aed8c4103>@@$0A@@std@@QAE@AAU01@@Z 1004cd90 f i WinRTVFS.obj
 0002:0000ee00       ??$?0AAU?$_Callable_obj@V<lambda_c28a53003ed51cdfe295a7d756f98c2f>@@$0A@@std@@@?$_Callable_obj@V<lambda_c28a53003ed51cdfe295a7d756f98c2f>@@$0A@@std@@QAE@AAU01@@Z 1004ce00 f i WinRTVFS.obj
 0002:0000ee70       ??$?0AAU?$_Callable_obj@V<lambda_e7ef5f1e4e1eca0ae8efc6086cf9f417>@@$0A@@std@@@?$_Callable_obj@V<lambda_e7ef5f1e4e1eca0ae8efc6086cf9f417>@@$0A@@std@@QAE@AAU01@@Z 1004ce70 f i WinRTVFS.obj
 0002:0000eee0       ??$?0ABV<lambda_9fc58f08a03183e50e06176727aeb396>@@@?$_Callable_obj@V<lambda_9fc58f08a03183e50e06176727aeb396>@@$0A@@std@@QAE@ABV<lambda_9fc58f08a03183e50e06176727aeb396>@@@Z 1004cee0 f i WinRTVFS.obj
 0002:0000ef50       ??$?0ABV<lambda_9fc58f08a03183e50e06176727aeb396>@@@?$_Func_impl@U?$_Callable_obj@V<lambda_9fc58f08a03183e50e06176727aeb396>@@$0A@@std@@V?$allocator@V?$_Func_class@X$$$V@std@@@2@X$$$V@std@@QAE@ABV<lambda_9fc58f08a03183e50e06176727aeb396>@@ABV?$allocator@V?$_Func_impl@U?$_Callable_obj@V<lambda_9fc58f08a03183e50e06176727aeb396>@@$0A@@std@@V?$allocator@V?$_Func_class@X$$$V@std@@@2@X$$$V@std@@@1@@Z 1004cf50 f i WinRTVFS.obj
 0002:0000f030       ??$?0ABVexception_ptr@std@@V_TaskCreationCallstack@details@Concurrency@@@?$_Ref_count_obj@U_ExceptionHolder@details@Concurrency@@@std@@QAE@ABVexception_ptr@1@$$QAV_TaskCreationCallstack@details@Concurrency@@@Z 1004d030 f i WinRTVFS.obj
 0002:0000f160       ??$?0P$AAU?$IAsyncOperation@P$AAUIRandomAccessStream@Streams@Storage@Windows@@@Foundation@Windows@@@?$task@P$AAUIRandomAccessStream@Streams@Storage@Windows@@@Concurrency@@QAE@P$AAU?$IAsyncOperation@P$AAUIRandomAccessStream@Streams@Storage@Windows@@@Foundation@Windows@@ABVtask_options@1@@Z 1004d160 f i WinRTVFS.obj
 0002:0000f450       ??$?0P$AAU?$IAsyncOperation@P$AAVStorageFile@Storage@Windows@@@Foundation@Windows@@@?$task@P$AAVStorageFile@Storage@Windows@@@Concurrency@@QAE@P$AAU?$IAsyncOperation@P$AAVStorageFile@Storage@Windows@@@Foundation@Windows@@ABVtask_options@1@@Z 1004d450 f i WinRTVFS.obj
 0002:0000f740       ??$?0P$AAU?$IAsyncOperation@P$AAVStorageFolder@Storage@Windows@@@Foundation@Windows@@@?$task@P$AAVStorageFolder@Storage@Windows@@@Concurrency@@QAE@P$AAU?$IAsyncOperation@P$AAVStorageFolder@Storage@Windows@@@Foundation@Windows@@ABVtask_options@1@@Z 1004d740 f i WinRTVFS.obj
 0002:0000fa30       ??$?0P$AAU?$IAsyncOperation@_N@Foundation@Windows@@@?$task@_N@Concurrency@@QAE@P$AAU?$IAsyncOperation@_N@Foundation@Windows@@ABVtask_options@1@@Z 1004da30 f i WinRTVFS.obj
 0002:0000fd20       ??$?0P$AAU?$IAsyncOperationWithProgress@II@Foundation@Windows@@@?$task@I@Concurrency@@QAE@P$AAU?$IAsyncOperationWithProgress@II@Foundation@Windows@@ABVtask_options@1@@Z 1004dd20 f i WinRTVFS.obj
 0002:00010010       ??$?0P$AAU?$IAsyncOperationWithProgress@P$AAUIBuffer@Streams@Storage@Windows@@I@Foundation@Windows@@@?$task@P$AAUIBuffer@Streams@Storage@Windows@@@Concurrency@@QAE@P$AAU?$IAsyncOperationWithProgress@P$AAUIBuffer@Streams@Storage@Windows@@I@Foundation@Windows@@ABVtask_options@1@@Z 1004e010 f i WinRTVFS.obj
 0002:00010300       ??$?0P$AAUIAsyncAction@Foundation@Windows@@@?$task@X@Concurrency@@QAE@P$AAUIAsyncAction@Foundation@Windows@@ABVtask_options@1@@Z 1004e300 f i WinRTVFS.obj
 0002:000105f0       ??$?0PAV?$message@H@Concurrency@@@?$allocator@D@std@@QAE@ABV?$allocator@PAV?$message@H@Concurrency@@@1@@Z 1004e5f0 f i WinRTVFS.obj
 0002:00010630       ??$?0U?$_Callable_obj@V<lambda_02d862f9cfc639ff7c37ca52d43e6a8c>@@$0A@@std@@@?$_Callable_obj@V<lambda_02d862f9cfc639ff7c37ca52d43e6a8c>@@$0A@@std@@QAE@$$QAU01@@Z 1004e630 f i WinRTVFS.obj
 0002:000106a0       ??$?0U?$_Callable_obj@V<lambda_095a938ce4c5765dcc6b67f548aeb9c7>@@$0A@@std@@@?$_Callable_obj@V<lambda_095a938ce4c5765dcc6b67f548aeb9c7>@@$0A@@std@@QAE@$$QAU01@@Z 1004e6a0 f i WinRTVFS.obj
 0002:00010710       ??$?0U?$_Callable_obj@V<lambda_0b7f78ec4ced38495cec46e0d346e0b9>@@$0A@@std@@@?$_Callable_obj@V<lambda_0b7f78ec4ced38495cec46e0d346e0b9>@@$0A@@std@@QAE@$$QAU01@@Z 1004e710 f i WinRTVFS.obj
 0002:00010780       ??$?0U?$_Callable_obj@V<lambda_0fe479da16d43edb8e9a254c493d643e>@@$0A@@std@@@?$_Callable_obj@V<lambda_0fe479da16d43edb8e9a254c493d643e>@@$0A@@std@@QAE@$$QAU01@@Z 1004e780 f i WinRTVFS.obj
 0002:000107f0       ??$?0U?$_Callable_obj@V<lambda_1a93da980d6fe77644a4eefc4e1ad756>@@$0A@@std@@@?$_Callable_obj@V<lambda_1a93da980d6fe77644a4eefc4e1ad756>@@$0A@@std@@QAE@$$QAU01@@Z 1004e7f0 f i WinRTVFS.obj
 0002:00010860       ??$?0U?$_Callable_obj@V<lambda_295bc5f846209cba149a5e74d0d63a72>@@$0A@@std@@@?$_Callable_obj@V<lambda_295bc5f846209cba149a5e74d0d63a72>@@$0A@@std@@QAE@$$QAU01@@Z 1004e860 f i WinRTVFS.obj
 0002:000108d0       ??$?0U?$_Callable_obj@V<lambda_364e75aa895e992ae8821732ca646aa2>@@$0A@@std@@@?$_Callable_obj@V<lambda_364e75aa895e992ae8821732ca646aa2>@@$0A@@std@@QAE@$$QAU01@@Z 1004e8d0 f i WinRTVFS.obj
 0002:00010940       ??$?0U?$_Callable_obj@V<lambda_39cde079c01d1b5b9307ff255a1ccdd9>@@$0A@@std@@@?$_Callable_obj@V<lambda_39cde079c01d1b5b9307ff255a1ccdd9>@@$0A@@std@@QAE@$$QAU01@@Z 1004e940 f i WinRTVFS.obj
 0002:000109b0       ??$?0U?$_Callable_obj@V<lambda_528650821c608ced6534641e311542a5>@@$0A@@std@@@?$_Callable_obj@V<lambda_528650821c608ced6534641e311542a5>@@$0A@@std@@QAE@$$QAU01@@Z 1004e9b0 f i WinRTVFS.obj
 0002:00010a20       ??$?0U?$_Callable_obj@V<lambda_579ccd68d569251046038e8620afec85>@@$0A@@std@@@?$_Callable_obj@V<lambda_579ccd68d569251046038e8620afec85>@@$0A@@std@@QAE@$$QAU01@@Z 1004ea20 f i WinRTVFS.obj
 0002:00010a90       ??$?0U?$_Callable_obj@V<lambda_9fc58f08a03183e50e06176727aeb396>@@$0A@@std@@@?$_Callable_obj@V<lambda_9fc58f08a03183e50e06176727aeb396>@@$0A@@std@@QAE@$$QAU01@@Z 1004ea90 f i WinRTVFS.obj
 0002:00010b00       ??$?0U?$_Callable_obj@V<lambda_a66b3ee15e662226a0b0b15ae647d32f>@@$0A@@std@@@?$_Callable_obj@V<lambda_a66b3ee15e662226a0b0b15ae647d32f>@@$0A@@std@@QAE@$$QAU01@@Z 1004eb00 f i WinRTVFS.obj
 0002:00010b70       ??$?0U?$_Callable_obj@V<lambda_c1a554f2383dae03f169289aed8c4103>@@$0A@@std@@@?$_Callable_obj@V<lambda_c1a554f2383dae03f169289aed8c4103>@@$0A@@std@@QAE@$$QAU01@@Z 1004eb70 f i WinRTVFS.obj
 0002:00010be0       ??$?0U?$_Callable_obj@V<lambda_c28a53003ed51cdfe295a7d756f98c2f>@@$0A@@std@@@?$_Callable_obj@V<lambda_c28a53003ed51cdfe295a7d756f98c2f>@@$0A@@std@@QAE@$$QAU01@@Z 1004ebe0 f i WinRTVFS.obj
 0002:00010c50       ??$?0U?$_Callable_obj@V<lambda_e7ef5f1e4e1eca0ae8efc6086cf9f417>@@$0A@@std@@@?$_Callable_obj@V<lambda_e7ef5f1e4e1eca0ae8efc6086cf9f417>@@$0A@@std@@QAE@$$QAU01@@Z 1004ec50 f i WinRTVFS.obj
 0002:00010cc0       ??$?0U?$_Task_impl@E@details@Concurrency@@X@?$shared_ptr@U_Task_impl_base@details@Concurrency@@@std@@QAE@ABV?$shared_ptr@U?$_Task_impl@E@details@Concurrency@@@1@@Z 1004ecc0 f i WinRTVFS.obj
 0002:00010d30       ??$?0U?$_Task_impl@E@details@Concurrency@@X@?$weak_ptr@U_Task_impl_base@details@Concurrency@@@std@@QAE@ABV?$shared_ptr@U?$_Task_impl@E@details@Concurrency@@@1@@Z 1004ed30 f i WinRTVFS.obj
 0002:00010da0       ??$?0U?$_Task_impl@I@details@Concurrency@@X@?$weak_ptr@U_Task_impl_base@details@Concurrency@@@std@@QAE@ABV?$shared_ptr@U?$_Task_impl@I@details@Concurrency@@@1@@Z 1004eda0 f i WinRTVFS.obj
 0002:00010e10       ??$?0U?$_Task_impl@P$AAUIBuffer@Streams@Storage@Windows@@@details@Concurrency@@X@?$weak_ptr@U_Task_impl_base@details@Concurrency@@@std@@QAE@ABV?$shared_ptr@U?$_Task_impl@P$AAUIBuffer@Streams@Storage@Windows@@@details@Concurrency@@@1@@Z 1004ee10 f i WinRTVFS.obj
 0002:00010e80       ??$?0U?$_Task_impl@P$AAUIRandomAccessStream@Streams@Storage@Windows@@@details@Concurrency@@X@?$weak_ptr@U_Task_impl_base@details@Concurrency@@@std@@QAE@ABV?$shared_ptr@U?$_Task_impl@P$AAUIRandomAccessStream@Streams@Storage@Windows@@@details@Concurrency@@@1@@Z 1004ee80 f i WinRTVFS.obj
 0002:00010ef0       ??$?0U?$_Task_impl@P$AAVStorageFile@Storage@Windows@@@details@Concurrency@@X@?$weak_ptr@U_Task_impl_base@details@Concurrency@@@std@@QAE@ABV?$shared_ptr@U?$_Task_impl@P$AAVStorageFile@Storage@Windows@@@details@Concurrency@@@1@@Z 1004eef0 f i WinRTVFS.obj
 0002:00010f60       ??$?0U?$_Task_impl@P$AAVStorageFolder@Storage@Windows@@@details@Concurrency@@X@?$weak_ptr@U_Task_impl_base@details@Concurrency@@@std@@QAE@ABV?$shared_ptr@U?$_Task_impl@P$AAVStorageFolder@Storage@Windows@@@details@Concurrency@@@1@@Z 1004ef60 f i WinRTVFS.obj
 0002:00010fd0       ??$?0U?$_Task_impl@_N@details@Concurrency@@X@?$weak_ptr@U_Task_impl_base@details@Concurrency@@@std@@QAE@ABV?$shared_ptr@U?$_Task_impl@_N@details@Concurrency@@@1@@Z 1004efd0 f i WinRTVFS.obj
 0002:00011040       ??$?0UIUnknown@@@?$ComPtr@UIUnknown@@@WRL@Microsoft@@QAE@PAUIUnknown@@@Z 1004f040 f i WinRTVFS.obj
 0002:000110a0       ??$?0U_Task_impl_base@details@Concurrency@@@?$shared_ptr@U_Task_impl_base@details@Concurrency@@@std@@QAE@ABV?$weak_ptr@U_Task_impl_base@details@Concurrency@@@1@_N@Z 1004f0a0 f i WinRTVFS.obj
 0002:00011110       ??$?0V<lambda_02d862f9cfc639ff7c37ca52d43e6a8c>@@@?$_Callable_obj@V<lambda_02d862f9cfc639ff7c37ca52d43e6a8c>@@$0A@@std@@QAE@$$QAV<lambda_02d862f9cfc639ff7c37ca52d43e6a8c>@@@Z 1004f110 f i WinRTVFS.obj
 0002:00011180       ??$?0V<lambda_02d862f9cfc639ff7c37ca52d43e6a8c>@@@?$function@$$A6AXXZ@std@@QAE@$$QAV<lambda_02d862f9cfc639ff7c37ca52d43e6a8c>@@@Z 1004f180 f i WinRTVFS.obj
 0002:00011240       ??$?0V<lambda_06940b0a4178dd98f799c96a43aa5761>@@@AsyncActionCompletedHandler@Foundation@Windows@@Q$AAA@V<lambda_06940b0a4178dd98f799c96a43aa5761>@@W4CallbackContext@Platform@@_N@Z 1004f240 f i WinRTVFS.obj
 0002:000113e0       ??$?0V<lambda_095a938ce4c5765dcc6b67f548aeb9c7>@@@?$_Callable_obj@V<lambda_095a938ce4c5765dcc6b67f548aeb9c7>@@$0A@@std@@QAE@$$QAV<lambda_095a938ce4c5765dcc6b67f548aeb9c7>@@@Z 1004f3e0 f i WinRTVFS.obj
 0002:00011450       ??$?0V<lambda_095a938ce4c5765dcc6b67f548aeb9c7>@@@?$function@$$A6AXXZ@std@@QAE@$$QAV<lambda_095a938ce4c5765dcc6b67f548aeb9c7>@@@Z 1004f450 f i WinRTVFS.obj
 0002:00011510       ??$?0V<lambda_0b7f78ec4ced38495cec46e0d346e0b9>@@@?$_Callable_obj@V<lambda_0b7f78ec4ced38495cec46e0d346e0b9>@@$0A@@std@@QAE@$$QAV<lambda_0b7f78ec4ced38495cec46e0d346e0b9>@@@Z 1004f510 f i WinRTVFS.obj
 0002:00011580       ??$?0V<lambda_0b7f78ec4ced38495cec46e0d346e0b9>@@@?$function@$$A6AXXZ@std@@QAE@$$QAV<lambda_0b7f78ec4ced38495cec46e0d346e0b9>@@@Z 1004f580 f i WinRTVFS.obj
 0002:00011640       ??$?0V<lambda_0fe479da16d43edb8e9a254c493d643e>@@@?$_Callable_obj@V<lambda_0fe479da16d43edb8e9a254c493d643e>@@$0A@@std@@QAE@$$QAV<lambda_0fe479da16d43edb8e9a254c493d643e>@@@Z 1004f640 f i WinRTVFS.obj
 0002:000116b0       ??$?0V<lambda_0fe479da16d43edb8e9a254c493d643e>@@@?$function@$$A6AXXZ@std@@QAE@$$QAV<lambda_0fe479da16d43edb8e9a254c493d643e>@@@Z 1004f6b0 f i WinRTVFS.obj
 0002:00011770       ??$?0V<lambda_1a93da980d6fe77644a4eefc4e1ad756>@@@?$_Callable_obj@V<lambda_1a93da980d6fe77644a4eefc4e1ad756>@@$0A@@std@@QAE@$$QAV<lambda_1a93da980d6fe77644a4eefc4e1ad756>@@@Z 1004f770 f i WinRTVFS.obj
 0002:000117e0       ??$?0V<lambda_1a93da980d6fe77644a4eefc4e1ad756>@@@?$function@$$A6AXABH@Z@std@@QAE@$$QAV<lambda_1a93da980d6fe77644a4eefc4e1ad756>@@@Z 1004f7e0 f i WinRTVFS.obj
 0002:000118a0       ??$?0V<lambda_295bc5f846209cba149a5e74d0d63a72>@@@?$_Callable_obj@V<lambda_295bc5f846209cba149a5e74d0d63a72>@@$0A@@std@@QAE@$$QAV<lambda_295bc5f846209cba149a5e74d0d63a72>@@@Z 1004f8a0 f i WinRTVFS.obj
 0002:00011910       ??$?0V<lambda_295bc5f846209cba149a5e74d0d63a72>@@@?$function@$$A6AXPAV?$message@H@Concurrency@@@Z@std@@QAE@$$QAV<lambda_295bc5f846209cba149a5e74d0d63a72>@@@Z 1004f910 f i WinRTVFS.obj
 0002:000119d0       ??$?0V<lambda_364e75aa895e992ae8821732ca646aa2>@@@?$_Callable_obj@V<lambda_364e75aa895e992ae8821732ca646aa2>@@$0A@@std@@QAE@$$QAV<lambda_364e75aa895e992ae8821732ca646aa2>@@@Z 1004f9d0 f i WinRTVFS.obj
 0002:00011a40       ??$?0V<lambda_364e75aa895e992ae8821732ca646aa2>@@@?$function@$$A6AXXZ@std@@QAE@$$QAV<lambda_364e75aa895e992ae8821732ca646aa2>@@@Z 1004fa40 f i WinRTVFS.obj
 0002:00011b00       ??$?0V<lambda_39cde079c01d1b5b9307ff255a1ccdd9>@@@?$_Callable_obj@V<lambda_39cde079c01d1b5b9307ff255a1ccdd9>@@$0A@@std@@QAE@$$QAV<lambda_39cde079c01d1b5b9307ff255a1ccdd9>@@@Z 1004fb00 f i WinRTVFS.obj
 0002:00011b70       ??$?0V<lambda_39cde079c01d1b5b9307ff255a1ccdd9>@@@?$function@$$A6AEE@Z@std@@QAE@$$QAV<lambda_39cde079c01d1b5b9307ff255a1ccdd9>@@@Z 1004fb70 f i WinRTVFS.obj
 0002:00011c30       ??$?0V<lambda_3e0d823744565aaa3c572230ef0680e7>@@@?$AsyncOperationWithProgressCompletedHandler@P$AAUIBuffer@Streams@Storage@Windows@@I@Foundation@Windows@@Q$AAA@V<lambda_3e0d823744565aaa3c572230ef0680e7>@@W4CallbackContext@Platform@@_N@Z 1004fc30 f i WinRTVFS.obj
 0002:00011dd0       ??$?0V<lambda_50a95a3b918e2a131c7de197f9d43680>@@@?$AsyncOperationCompletedHandler@I@Foundation@Windows@@Q$AAA@V<lambda_50a95a3b918e2a131c7de197f9d43680>@@W4CallbackContext@Platform@@_N@Z 1004fdd0 f i WinRTVFS.obj
 0002:00011f70       ??$?0V<lambda_528650821c608ced6534641e311542a5>@@@?$_Callable_obj@V<lambda_528650821c608ced6534641e311542a5>@@$0A@@std@@QAE@$$QAV<lambda_528650821c608ced6534641e311542a5>@@@Z 1004ff70 f i WinRTVFS.obj
 0002:00011fe0       ??$?0V<lambda_528650821c608ced6534641e311542a5>@@@?$function@$$A6AXXZ@std@@QAE@$$QAV<lambda_528650821c608ced6534641e311542a5>@@@Z 1004ffe0 f i WinRTVFS.obj
 0002:000120a0       ??$?0V<lambda_579ccd68d569251046038e8620afec85>@@@?$_Callable_obj@V<lambda_579ccd68d569251046038e8620afec85>@@$0A@@std@@QAE@$$QAV<lambda_579ccd68d569251046038e8620afec85>@@@Z 100500a0 f i WinRTVFS.obj
 0002:00012110       ??$?0V<lambda_579ccd68d569251046038e8620afec85>@@@?$function@$$A6AXPAV?$message@H@Concurrency@@@Z@std@@QAE@$$QAV<lambda_579ccd68d569251046038e8620afec85>@@@Z 10050110 f i WinRTVFS.obj
 0002:000121d0       ??$?0V<lambda_58b35b2c39cebe76475502e8be1fa050>@@@?$AsyncOperationCompletedHandler@P$AAUIRandomAccessStream@Streams@Storage@Windows@@@Foundation@Windows@@Q$AAA@V<lambda_58b35b2c39cebe76475502e8be1fa050>@@W4CallbackContext@Platform@@_N@Z 100501d0 f i WinRTVFS.obj
 0002:00012370       ??$?0V<lambda_78c8bde34479949ab00939bfc3c21b9e>@@@?$AsyncOperationCompletedHandler@_N@Foundation@Windows@@Q$AAA@V<lambda_78c8bde34479949ab00939bfc3c21b9e>@@W4CallbackContext@Platform@@_N@Z 10050370 f i WinRTVFS.obj
 0002:00012510       ??$?0V<lambda_7a641106db6b220fc1bd53009e5e1b6e>@@@?$AsyncOperationWithProgressCompletedHandler@II@Foundation@Windows@@Q$AAA@V<lambda_7a641106db6b220fc1bd53009e5e1b6e>@@W4CallbackContext@Platform@@_N@Z 10050510 f i WinRTVFS.obj
 0002:000126b0       ??$?0V<lambda_8b35f48eeaabe3dd7cb14b365c80a64b>@@@?$AsyncOperationCompletedHandler@P$AAUIBuffer@Streams@Storage@Windows@@@Foundation@Windows@@Q$AAA@V<lambda_8b35f48eeaabe3dd7cb14b365c80a64b>@@W4CallbackContext@Platform@@_N@Z 100506b0 f i WinRTVFS.obj
 0002:00012850       ??$?0V<lambda_9fc58f08a03183e50e06176727aeb396>@@@?$function@$$A6AXXZ@std@@QAE@ABV<lambda_9fc58f08a03183e50e06176727aeb396>@@@Z 10050850 f i WinRTVFS.obj
 0002:00012900       ??$?0V<lambda_a66b3ee15e662226a0b0b15ae647d32f>@@@?$_Callable_obj@V<lambda_a66b3ee15e662226a0b0b15ae647d32f>@@$0A@@std@@QAE@$$QAV<lambda_a66b3ee15e662226a0b0b15ae647d32f>@@@Z 10050900 f i WinRTVFS.obj
 0002:00012970       ??$?0V<lambda_a66b3ee15e662226a0b0b15ae647d32f>@@@?$function@$$A6AXXZ@std@@QAE@$$QAV<lambda_a66b3ee15e662226a0b0b15ae647d32f>@@@Z 10050970 f i WinRTVFS.obj
 0002:00012a30       ??$?0V<lambda_b5ec294d64b7ae7d96b9bd52c133d46d>@@@?$AsyncOperationCompletedHandler@E@Foundation@Windows@@Q$AAA@V<lambda_b5ec294d64b7ae7d96b9bd52c133d46d>@@W4CallbackContext@Platform@@_N@Z 10050a30 f i WinRTVFS.obj
 0002:00012bd0       ??$?0V<lambda_c124a470bc399dc48f76de2d0d06ac02>@@@?$AsyncOperationCompletedHandler@P$AAVStorageFolder@Storage@Windows@@@Foundation@Windows@@Q$AAA@V<lambda_c124a470bc399dc48f76de2d0d06ac02>@@W4CallbackContext@Platform@@_N@Z 10050bd0 f i WinRTVFS.obj
 0002:00012d70       ??$?0V<lambda_c1a554f2383dae03f169289aed8c4103>@@@?$_Callable_obj@V<lambda_c1a554f2383dae03f169289aed8c4103>@@$0A@@std@@QAE@$$QAV<lambda_c1a554f2383dae03f169289aed8c4103>@@@Z 10050d70 f i WinRTVFS.obj
 0002:00012de0       ??$?0V<lambda_c1a554f2383dae03f169289aed8c4103>@@@?$function@$$A6AXXZ@std@@QAE@$$QAV<lambda_c1a554f2383dae03f169289aed8c4103>@@@Z 10050de0 f i WinRTVFS.obj
 0002:00012ea0       ??$?0V<lambda_c28a53003ed51cdfe295a7d756f98c2f>@@@?$_Callable_obj@V<lambda_c28a53003ed51cdfe295a7d756f98c2f>@@$0A@@std@@QAE@$$QAV<lambda_c28a53003ed51cdfe295a7d756f98c2f>@@@Z 10050ea0 f i WinRTVFS.obj
 0002:00012f10       ??$?0V<lambda_c28a53003ed51cdfe295a7d756f98c2f>@@@?$function@$$A6AXPAV?$message@H@Concurrency@@@Z@std@@QAE@$$QAV<lambda_c28a53003ed51cdfe295a7d756f98c2f>@@@Z 10050f10 f i WinRTVFS.obj
 0002:00012fd0       ??$?0V<lambda_e7ef5f1e4e1eca0ae8efc6086cf9f417>@@@?$_Callable_obj@V<lambda_e7ef5f1e4e1eca0ae8efc6086cf9f417>@@$0A@@std@@QAE@$$QAV<lambda_e7ef5f1e4e1eca0ae8efc6086cf9f417>@@@Z 10050fd0 f i WinRTVFS.obj
 0002:00013040       ??$?0V<lambda_e7ef5f1e4e1eca0ae8efc6086cf9f417>@@@?$function@$$A6AXXZ@std@@QAE@$$QAV<lambda_e7ef5f1e4e1eca0ae8efc6086cf9f417>@@@Z 10051040 f i WinRTVFS.obj
 0002:00013100       ??$?0V<lambda_f0a7c2b0a64e3b533e4acd91ff29d36c>@@@?$AsyncOperationCompletedHandler@P$AAVStorageFile@Storage@Windows@@@Foundation@Windows@@Q$AAA@V<lambda_f0a7c2b0a64e3b533e4acd91ff29d36c>@@W4CallbackContext@Platform@@_N@Z 10051100 f i WinRTVFS.obj
 0002:000132a0       ??$?0V?$_Func_class@EE@std@@@?$allocator@V?$_Func_impl@U?$_Callable_obj@V<lambda_39cde079c01d1b5b9307ff255a1ccdd9>@@$0A@@std@@V?$allocator@V?$_Func_class@EE@std@@@2@EE@std@@@std@@QAE@ABV?$allocator@V?$_Func_class@EE@std@@@1@@Z 100512a0 f i WinRTVFS.obj
 0002:000132e0       ??$?0V?$_Func_class@X$$$V@std@@@?$allocator@V?$_Func_impl@U?$_Callable_obj@V<lambda_02d862f9cfc639ff7c37ca52d43e6a8c>@@$0A@@std@@V?$allocator@V?$_Func_class@X$$$V@std@@@2@X$$$V@std@@@std@@QAE@ABV?$allocator@V?$_Func_class@X$$$V@std@@@1@@Z 100512e0 f i WinRTVFS.obj
 0002:00013320       ??$?0V?$_Func_class@X$$$V@std@@@?$allocator@V?$_Func_impl@U?$_Callable_obj@V<lambda_095a938ce4c5765dcc6b67f548aeb9c7>@@$0A@@std@@V?$allocator@V?$_Func_class@X$$$V@std@@@2@X$$$V@std@@@std@@QAE@ABV?$allocator@V?$_Func_class@X$$$V@std@@@1@@Z 10051320 f i WinRTVFS.obj
 0002:00013360       ??$?0V?$_Func_class@X$$$V@std@@@?$allocator@V?$_Func_impl@U?$_Callable_obj@V<lambda_0b7f78ec4ced38495cec46e0d346e0b9>@@$0A@@std@@V?$allocator@V?$_Func_class@X$$$V@std@@@2@X$$$V@std@@@std@@QAE@ABV?$allocator@V?$_Func_class@X$$$V@std@@@1@@Z 10051360 f i WinRTVFS.obj
 0002:000133a0       ??$?0V?$_Func_class@X$$$V@std@@@?$allocator@V?$_Func_impl@U?$_Callable_obj@V<lambda_0fe479da16d43edb8e9a254c493d643e>@@$0A@@std@@V?$allocator@V?$_Func_class@X$$$V@std@@@2@X$$$V@std@@@std@@QAE@ABV?$allocator@V?$_Func_class@X$$$V@std@@@1@@Z 100513a0 f i WinRTVFS.obj
 0002:000133e0       ??$?0V?$_Func_class@X$$$V@std@@@?$allocator@V?$_Func_impl@U?$_Callable_obj@V<lambda_364e75aa895e992ae8821732ca646aa2>@@$0A@@std@@V?$allocator@V?$_Func_class@X$$$V@std@@@2@X$$$V@std@@@std@@QAE@ABV?$allocator@V?$_Func_class@X$$$V@std@@@1@@Z 100513e0 f i WinRTVFS.obj
 0002:00013420       ??$?0V?$_Func_class@X$$$V@std@@@?$allocator@V?$_Func_impl@U?$_Callable_obj@V<lambda_528650821c608ced6534641e311542a5>@@$0A@@std@@V?$allocator@V?$_Func_class@X$$$V@std@@@2@X$$$V@std@@@std@@QAE@ABV?$allocator@V?$_Func_class@X$$$V@std@@@1@@Z 10051420 f i WinRTVFS.obj
 0002:00013460       ??$?0V?$_Func_class@X$$$V@std@@@?$allocator@V?$_Func_impl@U?$_Callable_obj@V<lambda_9fc58f08a03183e50e06176727aeb396>@@$0A@@std@@V?$allocator@V?$_Func_class@X$$$V@std@@@2@X$$$V@std@@@std@@QAE@ABV?$allocator@V?$_Func_class@X$$$V@std@@@1@@Z 10051460 f i WinRTVFS.obj
 0002:000134a0       ??$?0V?$_Func_class@X$$$V@std@@@?$allocator@V?$_Func_impl@U?$_Callable_obj@V<lambda_a66b3ee15e662226a0b0b15ae647d32f>@@$0A@@std@@V?$allocator@V?$_Func_class@X$$$V@std@@@2@X$$$V@std@@@std@@QAE@ABV?$allocator@V?$_Func_class@X$$$V@std@@@1@@Z 100514a0 f i WinRTVFS.obj
 0002:000134e0       ??$?0V?$_Func_class@X$$$V@std@@@?$allocator@V?$_Func_impl@U?$_Callable_obj@V<lambda_c1a554f2383dae03f169289aed8c4103>@@$0A@@std@@V?$allocator@V?$_Func_class@X$$$V@std@@@2@X$$$V@std@@@std@@QAE@ABV?$allocator@V?$_Func_class@X$$$V@std@@@1@@Z 100514e0 f i WinRTVFS.obj
 0002:00013520       ??$?0V?$_Func_class@X$$$V@std@@@?$allocator@V?$_Func_impl@U?$_Callable_obj@V<lambda_e7ef5f1e4e1eca0ae8efc6086cf9f417>@@$0A@@std@@V?$allocator@V?$_Func_class@X$$$V@std@@@2@X$$$V@std@@@std@@QAE@ABV?$allocator@V?$_Func_class@X$$$V@std@@@1@@Z 10051520 f i WinRTVFS.obj
 0002:00013560       ??$?0V?$_Func_class@XABH@std@@@?$allocator@V?$_Func_impl@U?$_Callable_obj@V<lambda_1a93da980d6fe77644a4eefc4e1ad756>@@$0A@@std@@V?$allocator@V?$_Func_class@XABH@std@@@2@XABH@std@@@std@@QAE@ABV?$allocator@V?$_Func_class@XABH@std@@@1@@Z 10051560 f i WinRTVFS.obj
 0002:000135a0       ??$?0V?$_Func_class@XPAV?$message@H@Concurrency@@@std@@@?$allocator@V?$_Func_impl@U?$_Callable_obj@V<lambda_295bc5f846209cba149a5e74d0d63a72>@@$0A@@std@@V?$allocator@V?$_Func_class@XPAV?$message@H@Concurrency@@@std@@@2@XPAV?$message@H@Concurrency@@@std@@@std@@QAE@ABV?$allocator@V?$_Func_class@XPAV?$message@H@Concurrency@@@std@@@1@@Z 100515a0 f i WinRTVFS.obj
 0002:000135e0       ??$?0V?$_Func_class@XPAV?$message@H@Concurrency@@@std@@@?$allocator@V?$_Func_impl@U?$_Callable_obj@V<lambda_579ccd68d569251046038e8620afec85>@@$0A@@std@@V?$allocator@V?$_Func_class@XPAV?$message@H@Concurrency@@@std@@@2@XPAV?$message@H@Concurrency@@@std@@@std@@QAE@ABV?$allocator@V?$_Func_class@XPAV?$message@H@Concurrency@@@std@@@1@@Z 100515e0 f i WinRTVFS.obj
 0002:00013620       ??$?0V?$_Func_class@XPAV?$message@H@Concurrency@@@std@@@?$allocator@V?$_Func_impl@U?$_Callable_obj@V<lambda_c28a53003ed51cdfe295a7d756f98c2f>@@$0A@@std@@V?$allocator@V?$_Func_class@XPAV?$message@H@Concurrency@@@std@@@2@XPAV?$message@H@Concurrency@@@std@@@std@@QAE@ABV?$allocator@V?$_Func_class@XPAV?$message@H@Concurrency@@@std@@@1@@Z 10051620 f i WinRTVFS.obj
 0002:00013660       ??$?0V?$task_completion_event@X@Concurrency@@@?$task@X@Concurrency@@QAE@V?$task_completion_event@X@1@ABVtask_options@1@@Z 10051660 f i WinRTVFS.obj
 0002:00013980       ??$?8$$A6AXPAV?$message@H@Concurrency@@@Z@std@@YA_NABV?$function@$$A6AXPAV?$message@H@Concurrency@@@Z@0@$$T@Z 10051980 f i WinRTVFS.obj
 0002:00013a00       ??$?8$$A6AXXZ@std@@YA_NABV?$function@$$A6AXXZ@0@$$T@Z 10051a00 f i WinRTVFS.obj
 0002:00013a80       ??$?8PAXPAX@std@@YA_NABV?$allocator@PAX@0@0@Z 10051a80 f i WinRTVFS.obj
 0002:00013ab0       ??$?8UIUnknown@@@WRL@Microsoft@@YA_NABV?$ComPtr@UIUnknown@@@01@$$T@Z 10051ab0 f i WinRTVFS.obj
 0002:00013b20       ??$?8U_ExceptionHolder@details@Concurrency@@@std@@YA_NABV?$shared_ptr@U_ExceptionHolder@details@Concurrency@@@0@$$T@Z 10051b20 f i WinRTVFS.obj
 0002:00013b90       ??$?8U_Task_impl_base@details@Concurrency@@@std@@YA_NABV?$shared_ptr@U_Task_impl_base@details@Concurrency@@@0@$$T@Z 10051b90 f i WinRTVFS.obj
 0002:00013c00       ??$?8V?$allocator@PAX@std@@V01@@std@@YA_NABU?$_Wrap_alloc@V?$allocator@PAX@std@@@0@0@Z 10051c00 f i WinRTVFS.obj
 0002:00013c70       ??$?8V?$allocator@V?$shared_ptr@U?$_Task_impl@E@details@Concurrency@@@std@@@std@@V01@@std@@YA_NABU?$_Wrap_alloc@V?$allocator@V?$shared_ptr@U?$_Task_impl@E@details@Concurrency@@@std@@@std@@@0@0@Z 10051c70 f i WinRTVFS.obj
 0002:00013ce0       ??$?8V?$shared_ptr@U?$_Task_impl@E@details@Concurrency@@@std@@V01@@std@@YA_NABV?$allocator@V?$shared_ptr@U?$_Task_impl@E@details@Concurrency@@@std@@@0@0@Z 10051ce0 f i WinRTVFS.obj
 0002:00013d10       ??$?9$$A6AXXZ@std@@YA_NABV?$function@$$A6AXXZ@0@$$T@Z 10051d10 f i WinRTVFS.obj
 0002:00013d90       ??$?9U_ExceptionHolder@details@Concurrency@@@std@@YA_NABV?$shared_ptr@U_ExceptionHolder@details@Concurrency@@@0@$$T@Z 10051d90 f i WinRTVFS.obj
 0002:00013e10       ??$?9U_Task_impl_base@details@Concurrency@@@std@@YA_NABV?$shared_ptr@U_Task_impl_base@details@Concurrency@@@0@$$T@Z 10051e10 f i WinRTVFS.obj
 0002:00013e90       ??$?9V?$allocator@PAX@std@@V01@@std@@YA_NABU?$_Wrap_alloc@V?$allocator@PAX@std@@@0@0@Z 10051e90 f i WinRTVFS.obj
 0002:00013f10       ??$GetProxy@U?$IAsyncOperationWithProgress@II@Foundation@Windows@@@Details@Platform@@YAJP$AAU?$IAsyncOperationWithProgress@II@Foundation@Windows@@PAUIUnknown@@PAP$AAU234@@Z 10051f10 f i WinRTVFS.obj
 0002:00013f80       ??$GetProxy@U?$IAsyncOperationWithProgress@P$AAUIBuffer@Streams@Storage@Windows@@I@Foundation@Windows@@@Details@Platform@@YAJP$AAU?$IAsyncOperationWithProgress@P$AAUIBuffer@Streams@Storage@Windows@@I@Foundation@Windows@@PAUIUnknown@@PAP$AAU234@@Z 10051f80 f i WinRTVFS.obj
 0002:00013ff0       ??$GetProxy@UIAsyncAction@Foundation@Windows@@@Details@Platform@@YAJP$AAUIAsyncAction@Foundation@Windows@@PAUIUnknown@@PAP$AAU234@@Z 10051ff0 f i WinRTVFS.obj
 0002:00014060       ??$GetProxy@UIBuffer@Streams@Storage@Windows@@@Details@Platform@@YAJP$AAUIBuffer@Streams@Storage@Windows@@PAUIUnknown@@PAP$AAU2345@@Z 10052060 f i WinRTVFS.obj
 0002:000140d0       ??$GetProxy@UIRandomAccessStream@Streams@Storage@Windows@@@Details@Platform@@YAJP$AAUIRandomAccessStream@Streams@Storage@Windows@@PAUIUnknown@@PAP$AAU2345@@Z 100520d0 f i WinRTVFS.obj
 0002:00014140       ??$IID_PPV_ARGS_Helper@V?$ComPtr@UIBufferByteAccess@Streams@Storage@Windows@@@WRL@Microsoft@@@@YAPAPAXV?$ComPtrRef@V?$ComPtr@UIBufferByteAccess@Streams@Storage@Windows@@@WRL@Microsoft@@@Details@WRL@Microsoft@@@Z 10052140 f i WinRTVFS.obj
 0002:00014190       ??$ReleaseInContext@UIUnknown@@@Details@Platform@@YAJPAUIUnknown@@0@Z 10052190 f i WinRTVFS.obj
 0002:000141f0       ??$_Allocate@PAX@std@@YAPAPAXIPAPAX@Z 100521f0 f i WinRTVFS.obj
 0002:00014290       ??$_Allocate@V?$_Func_impl@U?$_Callable_obj@V<lambda_02d862f9cfc639ff7c37ca52d43e6a8c>@@$0A@@std@@V?$allocator@V?$_Func_class@X$$$V@std@@@2@X$$$V@std@@@std@@YAPAV?$_Func_impl@U?$_Callable_obj@V<lambda_02d862f9cfc639ff7c37ca52d43e6a8c>@@$0A@@std@@V?$allocator@V?$_Func_class@X$$$V@std@@@2@X$$$V@0@IPAV10@@Z 10052290 f i WinRTVFS.obj
 0002:00014320       ??$_Allocate@V?$_Func_impl@U?$_Callable_obj@V<lambda_095a938ce4c5765dcc6b67f548aeb9c7>@@$0A@@std@@V?$allocator@V?$_Func_class@X$$$V@std@@@2@X$$$V@std@@@std@@YAPAV?$_Func_impl@U?$_Callable_obj@V<lambda_095a938ce4c5765dcc6b67f548aeb9c7>@@$0A@@std@@V?$allocator@V?$_Func_class@X$$$V@std@@@2@X$$$V@0@IPAV10@@Z 10052320 f i WinRTVFS.obj
 0002:000143b0       ??$_Allocate@V?$_Func_impl@U?$_Callable_obj@V<lambda_0b7f78ec4ced38495cec46e0d346e0b9>@@$0A@@std@@V?$allocator@V?$_Func_class@X$$$V@std@@@2@X$$$V@std@@@std@@YAPAV?$_Func_impl@U?$_Callable_obj@V<lambda_0b7f78ec4ced38495cec46e0d346e0b9>@@$0A@@std@@V?$allocator@V?$_Func_class@X$$$V@std@@@2@X$$$V@0@IPAV10@@Z 100523b0 f i WinRTVFS.obj
 0002:00014440       ??$_Allocate@V?$_Func_impl@U?$_Callable_obj@V<lambda_0fe479da16d43edb8e9a254c493d643e>@@$0A@@std@@V?$allocator@V?$_Func_class@X$$$V@std@@@2@X$$$V@std@@@std@@YAPAV?$_Func_impl@U?$_Callable_obj@V<lambda_0fe479da16d43edb8e9a254c493d643e>@@$0A@@std@@V?$allocator@V?$_Func_class@X$$$V@std@@@2@X$$$V@0@IPAV10@@Z 10052440 f i WinRTVFS.obj
 0002:000144d0       ??$_Allocate@V?$_Func_impl@U?$_Callable_obj@V<lambda_1a93da980d6fe77644a4eefc4e1ad756>@@$0A@@std@@V?$allocator@V?$_Func_class@XABH@std@@@2@XABH@std@@@std@@YAPAV?$_Func_impl@U?$_Callable_obj@V<lambda_1a93da980d6fe77644a4eefc4e1ad756>@@$0A@@std@@V?$allocator@V?$_Func_class@XABH@std@@@2@XABH@0@IPAV10@@Z 100524d0 f i WinRTVFS.obj
 0002:00014570       ??$_Allocate@V?$_Func_impl@U?$_Callable_obj@V<lambda_295bc5f846209cba149a5e74d0d63a72>@@$0A@@std@@V?$allocator@V?$_Func_class@XPAV?$message@H@Concurrency@@@std@@@2@XPAV?$message@H@Concurrency@@@std@@@std@@YAPAV?$_Func_impl@U?$_Callable_obj@V<lambda_295bc5f846209cba149a5e74d0d63a72>@@$0A@@std@@V?$allocator@V?$_Func_class@XPAV?$message@H@Concurrency@@@std@@@2@XPAV?$message@H@Concurrency@@@0@IPAV10@@Z 10052570 f i WinRTVFS.obj
 0002:00014600       ??$_Allocate@V?$_Func_impl@U?$_Callable_obj@V<lambda_364e75aa895e992ae8821732ca646aa2>@@$0A@@std@@V?$allocator@V?$_Func_class@X$$$V@std@@@2@X$$$V@std@@@std@@YAPAV?$_Func_impl@U?$_Callable_obj@V<lambda_364e75aa895e992ae8821732ca646aa2>@@$0A@@std@@V?$allocator@V?$_Func_class@X$$$V@std@@@2@X$$$V@0@IPAV10@@Z 10052600 f i WinRTVFS.obj
 0002:00014690       ??$_Allocate@V?$_Func_impl@U?$_Callable_obj@V<lambda_39cde079c01d1b5b9307ff255a1ccdd9>@@$0A@@std@@V?$allocator@V?$_Func_class@EE@std@@@2@EE@std@@@std@@YAPAV?$_Func_impl@U?$_Callable_obj@V<lambda_39cde079c01d1b5b9307ff255a1ccdd9>@@$0A@@std@@V?$allocator@V?$_Func_class@EE@std@@@2@EE@0@IPAV10@@Z 10052690 f i WinRTVFS.obj
 0002:00014720       ??$_Allocate@V?$_Func_impl@U?$_Callable_obj@V<lambda_528650821c608ced6534641e311542a5>@@$0A@@std@@V?$allocator@V?$_Func_class@X$$$V@std@@@2@X$$$V@std@@@std@@YAPAV?$_Func_impl@U?$_Callable_obj@V<lambda_528650821c608ced6534641e311542a5>@@$0A@@std@@V?$allocator@V?$_Func_class@X$$$V@std@@@2@X$$$V@0@IPAV10@@Z 10052720 f i WinRTVFS.obj
 0002:000147b0       ??$_Allocate@V?$_Func_impl@U?$_Callable_obj@V<lambda_579ccd68d569251046038e8620afec85>@@$0A@@std@@V?$allocator@V?$_Func_class@XPAV?$message@H@Concurrency@@@std@@@2@XPAV?$message@H@Concurrency@@@std@@@std@@YAPAV?$_Func_impl@U?$_Callable_obj@V<lambda_579ccd68d569251046038e8620afec85>@@$0A@@std@@V?$allocator@V?$_Func_class@XPAV?$message@H@Concurrency@@@std@@@2@XPAV?$message@H@Concurrency@@@0@IPAV10@@Z 100527b0 f i WinRTVFS.obj
 0002:00014840       ??$_Allocate@V?$_Func_impl@U?$_Callable_obj@V<lambda_9fc58f08a03183e50e06176727aeb396>@@$0A@@std@@V?$allocator@V?$_Func_class@X$$$V@std@@@2@X$$$V@std@@@std@@YAPAV?$_Func_impl@U?$_Callable_obj@V<lambda_9fc58f08a03183e50e06176727aeb396>@@$0A@@std@@V?$allocator@V?$_Func_class@X$$$V@std@@@2@X$$$V@0@IPAV10@@Z 10052840 f i WinRTVFS.obj
 0002:000148e0       ??$_Allocate@V?$_Func_impl@U?$_Callable_obj@V<lambda_a66b3ee15e662226a0b0b15ae647d32f>@@$0A@@std@@V?$allocator@V?$_Func_class@X$$$V@std@@@2@X$$$V@std@@@std@@YAPAV?$_Func_impl@U?$_Callable_obj@V<lambda_a66b3ee15e662226a0b0b15ae647d32f>@@$0A@@std@@V?$allocator@V?$_Func_class@X$$$V@std@@@2@X$$$V@0@IPAV10@@Z 100528e0 f i WinRTVFS.obj
 0002:00014970       ??$_Allocate@V?$_Func_impl@U?$_Callable_obj@V<lambda_c1a554f2383dae03f169289aed8c4103>@@$0A@@std@@V?$allocator@V?$_Func_class@X$$$V@std@@@2@X$$$V@std@@@std@@YAPAV?$_Func_impl@U?$_Callable_obj@V<lambda_c1a554f2383dae03f169289aed8c4103>@@$0A@@std@@V?$allocator@V?$_Func_class@X$$$V@std@@@2@X$$$V@0@IPAV10@@Z 10052970 f i WinRTVFS.obj
 0002:00014a00       ??$_Allocate@V?$_Func_impl@U?$_Callable_obj@V<lambda_c28a53003ed51cdfe295a7d756f98c2f>@@$0A@@std@@V?$allocator@V?$_Func_class@XPAV?$message@H@Concurrency@@@std@@@2@XPAV?$message@H@Concurrency@@@std@@@std@@YAPAV?$_Func_impl@U?$_Callable_obj@V<lambda_c28a53003ed51cdfe295a7d756f98c2f>@@$0A@@std@@V?$allocator@V?$_Func_class@XPAV?$message@H@Concurrency@@@std@@@2@XPAV?$message@H@Concurrency@@@0@IPAV10@@Z 10052a00 f i WinRTVFS.obj
 0002:00014a90       ??$_Allocate@V?$_Func_impl@U?$_Callable_obj@V<lambda_e7ef5f1e4e1eca0ae8efc6086cf9f417>@@$0A@@std@@V?$allocator@V?$_Func_class@X$$$V@std@@@2@X$$$V@std@@@std@@YAPAV?$_Func_impl@U?$_Callable_obj@V<lambda_e7ef5f1e4e1eca0ae8efc6086cf9f417>@@$0A@@std@@V?$allocator@V?$_Func_class@X$$$V@std@@@2@X$$$V@0@IPAV10@@Z 10052a90 f i WinRTVFS.obj
 0002:00014b20       ??$_Allocate@V?$shared_ptr@U?$_Task_impl@E@details@Concurrency@@@std@@@std@@YAPAV?$shared_ptr@U?$_Task_impl@E@details@Concurrency@@@0@IPAV10@@Z 10052b20 f i WinRTVFS.obj
 0002:00014bc0       ??$_ApplyX@EE@?$_Callable_obj@V<lambda_39cde079c01d1b5b9307ff255a1ccdd9>@@$0A@@std@@QAEE$$QAE@Z 10052bc0 f i WinRTVFS.obj
 0002:00014c30       ??$_ApplyX@X$$$V@?$_Callable_obj@V<lambda_02d862f9cfc639ff7c37ca52d43e6a8c>@@$0A@@std@@QAEXXZ 10052c30 f i WinRTVFS.obj
 0002:00014c90       ??$_ApplyX@X$$$V@?$_Callable_obj@V<lambda_095a938ce4c5765dcc6b67f548aeb9c7>@@$0A@@std@@QAEXXZ 10052c90 f i WinRTVFS.obj
 0002:00014cf0       ??$_ApplyX@X$$$V@?$_Callable_obj@V<lambda_0b7f78ec4ced38495cec46e0d346e0b9>@@$0A@@std@@QAEXXZ 10052cf0 f i WinRTVFS.obj
 0002:00014d50       ??$_ApplyX@X$$$V@?$_Callable_obj@V<lambda_0fe479da16d43edb8e9a254c493d643e>@@$0A@@std@@QAEXXZ 10052d50 f i WinRTVFS.obj
 0002:00014db0       ??$_ApplyX@X$$$V@?$_Callable_obj@V<lambda_364e75aa895e992ae8821732ca646aa2>@@$0A@@std@@QAEXXZ 10052db0 f i WinRTVFS.obj
 0002:00014e10       ??$_ApplyX@X$$$V@?$_Callable_obj@V<lambda_528650821c608ced6534641e311542a5>@@$0A@@std@@QAEXXZ 10052e10 f i WinRTVFS.obj
 0002:00014e70       ??$_ApplyX@X$$$V@?$_Callable_obj@V<lambda_9fc58f08a03183e50e06176727aeb396>@@$0A@@std@@QAEXXZ 10052e70 f i WinRTVFS.obj
 0002:00014ed0       ??$_ApplyX@X$$$V@?$_Callable_obj@V<lambda_a66b3ee15e662226a0b0b15ae647d32f>@@$0A@@std@@QAEXXZ 10052ed0 f i WinRTVFS.obj
 0002:00014f30       ??$_ApplyX@X$$$V@?$_Callable_obj@V<lambda_c1a554f2383dae03f169289aed8c4103>@@$0A@@std@@QAEXXZ 10052f30 f i WinRTVFS.obj
 0002:00014f90       ??$_ApplyX@X$$$V@?$_Callable_obj@V<lambda_e7ef5f1e4e1eca0ae8efc6086cf9f417>@@$0A@@std@@QAEXXZ 10052f90 f i WinRTVFS.obj
 0002:00014ff0       ??$_ApplyX@XABH@?$_Callable_obj@V<lambda_1a93da980d6fe77644a4eefc4e1ad756>@@$0A@@std@@QAEXABH@Z 10052ff0 f i WinRTVFS.obj
 0002:00015060       ??$_ApplyX@XPAV?$message@H@Concurrency@@@?$_Callable_obj@V<lambda_295bc5f846209cba149a5e74d0d63a72>@@$0A@@std@@QAEX$$QAPAV?$message@H@Concurrency@@@Z 10053060 f i WinRTVFS.obj
 0002:000150d0       ??$_ApplyX@XPAV?$message@H@Concurrency@@@?$_Callable_obj@V<lambda_579ccd68d569251046038e8620afec85>@@$0A@@std@@QAEX$$QAPAV?$message@H@Concurrency@@@Z 100530d0 f i WinRTVFS.obj
 0002:00015140       ??$_ApplyX@XPAV?$message@H@Concurrency@@@?$_Callable_obj@V<lambda_c28a53003ed51cdfe295a7d756f98c2f>@@$0A@@std@@QAEX$$QAPAV?$message@H@Concurrency@@@Z 10053140 f i WinRTVFS.obj
 0002:000151b0       ??$_AsyncInit@EE@_Task_impl_base@details@Concurrency@@SAXABV?$shared_ptr@U?$_Task_impl@E@details@Concurrency@@@std@@P$AAU?$IAsyncOperation@E@Foundation@Windows@@@Z 100531b0 f i WinRTVFS.obj
 0002:00015300       ??$_AsyncInit@II@_Task_impl_base@details@Concurrency@@SAXABV?$shared_ptr@U?$_Task_impl@I@details@Concurrency@@@std@@P$AAU?$IAsyncOperation@I@Foundation@Windows@@@Z 10053300 f i WinRTVFS.obj
 0002:00015450       ??$_AsyncInit@P$AAUIBuffer@Streams@Storage@Windows@@P$AAU1234@@_Task_impl_base@details@Concurrency@@SAXABV?$shared_ptr@U?$_Task_impl@P$AAUIBuffer@Streams@Storage@Windows@@@details@Concurrency@@@std@@P$AAU?$IAsyncOperation@P$AAUIBuffer@Streams@Storage@Windows@@@Foundation@Windows@@@Z 10053450 f i WinRTVFS.obj
 0002:000155a0       ??$_AsyncInit@P$AAUIRandomAccessStream@Streams@Storage@Windows@@P$AAU1234@@_Task_impl_base@details@Concurrency@@SAXABV?$shared_ptr@U?$_Task_impl@P$AAUIRandomAccessStream@Streams@Storage@Windows@@@details@Concurrency@@@std@@P$AAU?$IAsyncOperation@P$AAUIRandomAccessStream@Streams@Storage@Windows@@@Foundation@Windows@@@Z 100535a0 f i WinRTVFS.obj
 0002:000156f0       ??$_AsyncInit@P$AAVStorageFile@Storage@Windows@@P$AAV123@@_Task_impl_base@details@Concurrency@@SAXABV?$shared_ptr@U?$_Task_impl@P$AAVStorageFile@Storage@Windows@@@details@Concurrency@@@std@@P$AAU?$IAsyncOperation@P$AAVStorageFile@Storage@Windows@@@Foundation@Windows@@@Z 100536f0 f i WinRTVFS.obj
 0002:00015840       ??$_AsyncInit@P$AAVStorageFolder@Storage@Windows@@P$AAV123@@_Task_impl_base@details@Concurrency@@SAXABV?$shared_ptr@U?$_Task_impl@P$AAVStorageFolder@Storage@Windows@@@details@Concurrency@@@std@@P$AAU?$IAsyncOperation@P$AAVStorageFolder@Storage@Windows@@@Foundation@Windows@@@Z 10053840 f i WinRTVFS.obj
 0002:00015990       ??$_AsyncInit@_N_N@_Task_impl_base@details@Concurrency@@SAXABV?$shared_ptr@U?$_Task_impl@_N@details@Concurrency@@@std@@P$AAU?$IAsyncOperation@_N@Foundation@Windows@@@Z 10053990 f i WinRTVFS.obj
 0002:00015ae0       ??$_Copy_impl@PAPAXPAPAX@std@@YAPAPAXPAPAX00@Z 10053ae0 f i WinRTVFS.obj
 0002:00015b60       ??$_Copy_impl@PAPAXPAPAX@std@@YAPAPAXPAPAX00U_Scalar_ptr_iterator_tag@0@@Z 10053b60 f i WinRTVFS.obj
 0002:00015bf0       ??$_Debug_pointer@PAX@std@@YAXPAPAXPB_WI@Z 10053bf0 f i WinRTVFS.obj
 0002:00015c60       ??$_Debug_pointer@PAX@std@@YAXPBQAXPB_WI@Z 10053c60 f i WinRTVFS.obj
 0002:00015cd0       ??$_Debug_pointer@V?$shared_ptr@U?$_Task_impl@E@details@Concurrency@@@std@@@std@@YAXPAV?$shared_ptr@U?$_Task_impl@E@details@Concurrency@@@0@PB_WI@Z 10053cd0 f i WinRTVFS.obj
 0002:00015d40       ??$_Debug_range2@PAPAX@std@@YAXPAPAX0PB_WIUrandom_access_iterator_tag@0@@Z 10053d40 f i WinRTVFS.obj
 0002:00015df0       ??$_Debug_range2@PAV?$shared_ptr@U?$_Task_impl@E@details@Concurrency@@@std@@@std@@YAXPAV?$shared_ptr@U?$_Task_impl@E@details@Concurrency@@@0@0PB_WIUrandom_access_iterator_tag@0@@Z 10053df0 f i WinRTVFS.obj
 0002:00015ea0       ??$_Debug_range2@PBQAX@std@@YAXPBQAX0PB_WIUrandom_access_iterator_tag@0@@Z 10053ea0 f i WinRTVFS.obj
 0002:00015f50       ??$_Debug_range@PAPAX@std@@YAXPAPAX0PB_WI@Z 10053f50 f i WinRTVFS.obj
 0002:00015fd0       ??$_Debug_range@PAV?$shared_ptr@U?$_Task_impl@E@details@Concurrency@@@std@@@std@@YAXPAV?$shared_ptr@U?$_Task_impl@E@details@Concurrency@@@0@0PB_WI@Z 10053fd0 f i WinRTVFS.obj
 0002:00016050       ??$_Debug_range@PBQAX@std@@YAXPBQAX0PB_WI@Z 10054050 f i WinRTVFS.obj
 0002:000160d0       ??$_Destroy_range@U?$_Wrap_alloc@V?$allocator@PAX@std@@@std@@@std@@YAXPAPAX0AAU?$_Wrap_alloc@V?$allocator@PAX@std@@@0@@Z 100540d0 f i WinRTVFS.obj
 0002:00016150       ??$_Destroy_range@U?$_Wrap_alloc@V?$allocator@PAX@std@@@std@@@std@@YAXPAPAX0AAU?$_Wrap_alloc@V?$allocator@PAX@std@@@0@U_Scalar_ptr_iterator_tag@0@@Z 10054150 f i WinRTVFS.obj
 0002:00016180       ??$_Destroy_range@U?$_Wrap_alloc@V?$allocator@V?$shared_ptr@U?$_Task_impl@E@details@Concurrency@@@std@@@std@@@std@@@std@@YAXPAV?$shared_ptr@U?$_Task_impl@E@details@Concurrency@@@0@0AAU?$_Wrap_alloc@V?$allocator@V?$shared_ptr@U?$_Task_impl@E@details@Concurrency@@@std@@@std@@@0@@Z 10054180 f i WinRTVFS.obj
 0002:00016200       ??$_Destroy_range@U?$_Wrap_alloc@V?$allocator@V?$shared_ptr@U?$_Task_impl@E@details@Concurrency@@@std@@@std@@@std@@@std@@YAXPAV?$shared_ptr@U?$_Task_impl@E@details@Concurrency@@@0@0AAU?$_Wrap_alloc@V?$allocator@V?$shared_ptr@U?$_Task_impl@E@details@Concurrency@@@std@@@std@@@0@U_Nonscalar_ptr_iterator_tag@0@@Z 10054200 f i WinRTVFS.obj
 0002:00016270       ??$_Do_alloc@V?$_Func_impl@U?$_Callable_obj@V<lambda_02d862f9cfc639ff7c37ca52d43e6a8c>@@$0A@@std@@V?$allocator@V?$_Func_class@X$$$V@std@@@2@X$$$V@std@@V<lambda_02d862f9cfc639ff7c37ca52d43e6a8c>@@V?$allocator@V?$_Func_class@X$$$V@std@@@2@@?$_Func_class@X$$$V@std@@AAEX$$QAV<lambda_02d862f9cfc639ff7c37ca52d43e6a8c>@@V?$allocator@V?$_Func_class@X$$$V@std@@@1@@Z 10054270 f i WinRTVFS.obj
 0002:000164e0       ??$_Do_alloc@V?$_Func_impl@U?$_Callable_obj@V<lambda_095a938ce4c5765dcc6b67f548aeb9c7>@@$0A@@std@@V?$allocator@V?$_Func_class@X$$$V@std@@@2@X$$$V@std@@V<lambda_095a938ce4c5765dcc6b67f548aeb9c7>@@V?$allocator@V?$_Func_class@X$$$V@std@@@2@@?$_Func_class@X$$$V@std@@AAEX$$QAV<lambda_095a938ce4c5765dcc6b67f548aeb9c7>@@V?$allocator@V?$_Func_class@X$$$V@std@@@1@@Z 100544e0 f i WinRTVFS.obj
 0002:00016750       ??$_Do_alloc@V?$_Func_impl@U?$_Callable_obj@V<lambda_0b7f78ec4ced38495cec46e0d346e0b9>@@$0A@@std@@V?$allocator@V?$_Func_class@X$$$V@std@@@2@X$$$V@std@@V<lambda_0b7f78ec4ced38495cec46e0d346e0b9>@@V?$allocator@V?$_Func_class@X$$$V@std@@@2@@?$_Func_class@X$$$V@std@@AAEX$$QAV<lambda_0b7f78ec4ced38495cec46e0d346e0b9>@@V?$allocator@V?$_Func_class@X$$$V@std@@@1@@Z 10054750 f i WinRTVFS.obj
 0002:000169c0       ??$_Do_alloc@V?$_Func_impl@U?$_Callable_obj@V<lambda_0fe479da16d43edb8e9a254c493d643e>@@$0A@@std@@V?$allocator@V?$_Func_class@X$$$V@std@@@2@X$$$V@std@@V<lambda_0fe479da16d43edb8e9a254c493d643e>@@V?$allocator@V?$_Func_class@X$$$V@std@@@2@@?$_Func_class@X$$$V@std@@AAEX$$QAV<lambda_0fe479da16d43edb8e9a254c493d643e>@@V?$allocator@V?$_Func_class@X$$$V@std@@@1@@Z 100549c0 f i WinRTVFS.obj
 0002:00016c30       ??$_Do_alloc@V?$_Func_impl@U?$_Callable_obj@V<lambda_1a93da980d6fe77644a4eefc4e1ad756>@@$0A@@std@@V?$allocator@V?$_Func_class@XABH@std@@@2@XABH@std@@V<lambda_1a93da980d6fe77644a4eefc4e1ad756>@@V?$allocator@V?$_Func_class@XABH@std@@@2@@?$_Func_class@XABH@std@@AAEX$$QAV<lambda_1a93da980d6fe77644a4eefc4e1ad756>@@V?$allocator@V?$_Func_class@XABH@std@@@1@@Z 10054c30 f i WinRTVFS.obj
 0002:00016ea0       ??$_Do_alloc@V?$_Func_impl@U?$_Callable_obj@V<lambda_295bc5f846209cba149a5e74d0d63a72>@@$0A@@std@@V?$allocator@V?$_Func_class@XPAV?$message@H@Concurrency@@@std@@@2@XPAV?$message@H@Concurrency@@@std@@V<lambda_295bc5f846209cba149a5e74d0d63a72>@@V?$allocator@V?$_Func_class@XPAV?$message@H@Concurrency@@@std@@@2@@?$_Func_class@XPAV?$message@H@Concurrency@@@std@@AAEX$$QAV<lambda_295bc5f846209cba149a5e74d0d63a72>@@V?$allocator@V?$_Func_class@XPAV?$message@H@Concurrency@@@std@@@1@@Z 10054ea0 f i WinRTVFS.obj
 0002:00017110       ??$_Do_alloc@V?$_Func_impl@U?$_Callable_obj@V<lambda_364e75aa895e992ae8821732ca646aa2>@@$0A@@std@@V?$allocator@V?$_Func_class@X$$$V@std@@@2@X$$$V@std@@V<lambda_364e75aa895e992ae8821732ca646aa2>@@V?$allocator@V?$_Func_class@X$$$V@std@@@2@@?$_Func_class@X$$$V@std@@AAEX$$QAV<lambda_364e75aa895e992ae8821732ca646aa2>@@V?$allocator@V?$_Func_class@X$$$V@std@@@1@@Z 10055110 f i WinRTVFS.obj
 0002:00017380       ??$_Do_alloc@V?$_Func_impl@U?$_Callable_obj@V<lambda_39cde079c01d1b5b9307ff255a1ccdd9>@@$0A@@std@@V?$allocator@V?$_Func_class@EE@std@@@2@EE@std@@V<lambda_39cde079c01d1b5b9307ff255a1ccdd9>@@V?$allocator@V?$_Func_class@EE@std@@@2@@?$_Func_class@EE@std@@AAEX$$QAV<lambda_39cde079c01d1b5b9307ff255a1ccdd9>@@V?$allocator@V?$_Func_class@EE@std@@@1@@Z 10055380 f i WinRTVFS.obj
 0002:000175f0       ??$_Do_alloc@V?$_Func_impl@U?$_Callable_obj@V<lambda_528650821c608ced6534641e311542a5>@@$0A@@std@@V?$allocator@V?$_Func_class@X$$$V@std@@@2@X$$$V@std@@V<lambda_528650821c608ced6534641e311542a5>@@V?$allocator@V?$_Func_class@X$$$V@std@@@2@@?$_Func_class@X$$$V@std@@AAEX$$QAV<lambda_528650821c608ced6534641e311542a5>@@V?$allocator@V?$_Func_class@X$$$V@std@@@1@@Z 100555f0 f i WinRTVFS.obj
 0002:00017860       ??$_Do_alloc@V?$_Func_impl@U?$_Callable_obj@V<lambda_579ccd68d569251046038e8620afec85>@@$0A@@std@@V?$allocator@V?$_Func_class@XPAV?$message@H@Concurrency@@@std@@@2@XPAV?$message@H@Concurrency@@@std@@V<lambda_579ccd68d569251046038e8620afec85>@@V?$allocator@V?$_Func_class@XPAV?$message@H@Concurrency@@@std@@@2@@?$_Func_class@XPAV?$message@H@Concurrency@@@std@@AAEX$$QAV<lambda_579ccd68d569251046038e8620afec85>@@V?$allocator@V?$_Func_class@XPAV?$message@H@Concurrency@@@std@@@1@@Z 10055860 f i WinRTVFS.obj
 0002:00017ad0       ??$_Do_alloc@V?$_Func_impl@U?$_Callable_obj@V<lambda_9fc58f08a03183e50e06176727aeb396>@@$0A@@std@@V?$allocator@V?$_Func_class@X$$$V@std@@@2@X$$$V@std@@ABV<lambda_9fc58f08a03183e50e06176727aeb396>@@V?$allocator@V?$_Func_class@X$$$V@std@@@2@@?$_Func_class@X$$$V@std@@AAEXABV<lambda_9fc58f08a03183e50e06176727aeb396>@@V?$allocator@V?$_Func_class@X$$$V@std@@@1@@Z 10055ad0 f i WinRTVFS.obj
 0002:00017d40       ??$_Do_alloc@V?$_Func_impl@U?$_Callable_obj@V<lambda_a66b3ee15e662226a0b0b15ae647d32f>@@$0A@@std@@V?$allocator@V?$_Func_class@X$$$V@std@@@2@X$$$V@std@@V<lambda_a66b3ee15e662226a0b0b15ae647d32f>@@V?$allocator@V?$_Func_class@X$$$V@std@@@2@@?$_Func_class@X$$$V@std@@AAEX$$QAV<lambda_a66b3ee15e662226a0b0b15ae647d32f>@@V?$allocator@V?$_Func_class@X$$$V@std@@@1@@Z 10055d40 f i WinRTVFS.obj
 0002:00017fb0       ??$_Do_alloc@V?$_Func_impl@U?$_Callable_obj@V<lambda_c1a554f2383dae03f169289aed8c4103>@@$0A@@std@@V?$allocator@V?$_Func_class@X$$$V@std@@@2@X$$$V@std@@V<lambda_c1a554f2383dae03f169289aed8c4103>@@V?$allocator@V?$_Func_class@X$$$V@std@@@2@@?$_Func_class@X$$$V@std@@AAEX$$QAV<lambda_c1a554f2383dae03f169289aed8c4103>@@V?$allocator@V?$_Func_class@X$$$V@std@@@1@@Z 10055fb0 f i WinRTVFS.obj
 0002:00018220       ??$_Do_alloc@V?$_Func_impl@U?$_Callable_obj@V<lambda_c28a53003ed51cdfe295a7d756f98c2f>@@$0A@@std@@V?$allocator@V?$_Func_class@XPAV?$message@H@Concurrency@@@std@@@2@XPAV?$message@H@Concurrency@@@std@@V<lambda_c28a53003ed51cdfe295a7d756f98c2f>@@V?$allocator@V?$_Func_class@XPAV?$message@H@Concurrency@@@std@@@2@@?$_Func_class@XPAV?$message@H@Concurrency@@@std@@AAEX$$QAV<lambda_c28a53003ed51cdfe295a7d756f98c2f>@@V?$allocator@V?$_Func_class@XPAV?$message@H@Concurrency@@@std@@@1@@Z 10056220 f i WinRTVFS.obj
 0002:00018490       ??$_Do_alloc@V?$_Func_impl@U?$_Callable_obj@V<lambda_e7ef5f1e4e1eca0ae8efc6086cf9f417>@@$0A@@std@@V?$allocator@V?$_Func_class@X$$$V@std@@@2@X$$$V@std@@V<lambda_e7ef5f1e4e1eca0ae8efc6086cf9f417>@@V?$allocator@V?$_Func_class@X$$$V@std@@@2@@?$_Func_class@X$$$V@std@@AAEX$$QAV<lambda_e7ef5f1e4e1eca0ae8efc6086cf9f417>@@V?$allocator@V?$_Func_class@X$$$V@std@@@1@@Z 10056490 f i WinRTVFS.obj
 0002:00018700       ??$_Fill_n@PAPAXIPAX@std@@YAPAPAXPAPAXIABQAX@Z 10056700 f i WinRTVFS.obj
 0002:00018770       ??$_InvokeBridge@U_TaskProcHandle@details@Concurrency@@@_UnrealizedChore@details@Concurrency@@KAXPAX@Z 10056770 f i WinRTVFS.obj
 0002:000187c0       ??$_IsCallable@P$AAU?$IAsyncOperation@P$AAUIRandomAccessStream@Streams@Storage@Windows@@@Foundation@Windows@@@details@Concurrency@@YA?AU?$integral_constant@_N$0A@@std@@P$AAU?$IAsyncOperation@P$AAUIRandomAccessStream@Streams@Storage@Windows@@@Foundation@Windows@@ZZ 100567c0 f i WinRTVFS.obj
 0002:00018810       ??$_IsCallable@P$AAU?$IAsyncOperation@P$AAVStorageFile@Storage@Windows@@@Foundation@Windows@@@details@Concurrency@@YA?AU?$integral_constant@_N$0A@@std@@P$AAU?$IAsyncOperation@P$AAVStorageFile@Storage@Windows@@@Foundation@Windows@@ZZ 10056810 f i WinRTVFS.obj
 0002:00018860       ??$_IsCallable@P$AAU?$IAsyncOperation@P$AAVStorageFolder@Storage@Windows@@@Foundation@Windows@@@details@Concurrency@@YA?AU?$integral_constant@_N$0A@@std@@P$AAU?$IAsyncOperation@P$AAVStorageFolder@Storage@Windows@@@Foundation@Windows@@ZZ 10056860 f i WinRTVFS.obj
 0002:000188b0       ??$_IsCallable@P$AAU?$IAsyncOperation@_N@Foundation@Windows@@@details@Concurrency@@YA?AU?$integral_constant@_N$0A@@std@@P$AAU?$IAsyncOperation@_N@Foundation@Windows@@ZZ 100568b0 f i WinRTVFS.obj
 0002:00018900       ??$_IsCallable@P$AAU?$IAsyncOperationWithProgress@II@Foundation@Windows@@@details@Concurrency@@YA?AU?$integral_constant@_N$0A@@std@@P$AAU?$IAsyncOperationWithProgress@II@Foundation@Windows@@ZZ 10056900 f i WinRTVFS.obj
 0002:00018950       ??$_IsCallable@P$AAU?$IAsyncOperationWithProgress@P$AAUIBuffer@Streams@Storage@Windows@@I@Foundation@Windows@@@details@Concurrency@@YA?AU?$integral_constant@_N$0A@@std@@P$AAU?$IAsyncOperationWithProgress@P$AAUIBuffer@Streams@Storage@Windows@@I@Foundation@Windows@@ZZ 10056950 f i WinRTVFS.obj
 0002:000189a0       ??$_IsCallable@P$AAUIAsyncAction@Foundation@Windows@@@details@Concurrency@@YA?AU?$integral_constant@_N$0A@@std@@P$AAUIAsyncAction@Foundation@Windows@@ZZ 100569a0 f i WinRTVFS.obj
 0002:000189f0       ??$_IsCallable@V?$task_completion_event@X@Concurrency@@@details@Concurrency@@YA?AU?$integral_constant@_N$0A@@std@@V?$task_completion_event@X@1@ZZ 100569f0 f i WinRTVFS.obj
 0002:00018a60       ??$_Iter_cat@PAPAX@std@@YA?AUrandom_access_iterator_tag@0@ABQAPAX@Z 10056a60 f i WinRTVFS.obj
 0002:00018ae0       ??$_Iter_cat@PAV?$shared_ptr@U?$_Task_impl@E@details@Concurrency@@@std@@@std@@YA?AUrandom_access_iterator_tag@0@ABQAV?$shared_ptr@U?$_Task_impl@E@details@Concurrency@@@0@@Z 10056ae0 f i WinRTVFS.obj
 0002:00018b60       ??$_Iter_cat@PBQAX@std@@YA?AUrandom_access_iterator_tag@0@ABQBQAX@Z 10056b60 f i WinRTVFS.obj
 0002:00018be0       ??$_LogWorkItemAndInvokeUserLambda@V?$function@$$A6AEE@Z@std@@E@?$_ContinuationTaskHandle@XXV<lambda_9fc58f08a03183e50e06176727aeb396>@@U?$integral_constant@_N$0A@@std@@U_TypeSelectorNoAsync@details@Concurrency@@@?$task@E@Concurrency@@QBEE$$QAV?$function@$$A6AEE@Z@std@@$$QAE@Z 10056be0 f i WinRTVFS.obj
 0002:00018d20       ??$_Move@AAK@std@@YA$$QAKAAK@Z 10056d20 f i WinRTVFS.obj
 0002:00018d60       ??$_Move@AAP$AAUIBuffer@Streams@Storage@Windows@@@std@@YA$$QAP$AAUIBuffer@Streams@Storage@Windows@@AAP$AAU1234@@Z 10056d60 f i WinRTVFS.obj
 0002:00018da0       ??$_Move@AAP$AAUIRandomAccessStream@Streams@Storage@Windows@@@std@@YA$$QAP$AAUIRandomAccessStream@Streams@Storage@Windows@@AAP$AAU1234@@Z 10056da0 f i WinRTVFS.obj
 0002:00018de0       ??$_Move@AAPAU?$_Task_completion_event_impl@E@details@Concurrency@@@std@@YA$$QAPAU?$_Task_completion_event_impl@E@details@Concurrency@@AAPAU123@@Z 10056de0 f i WinRTVFS.obj
 0002:00018e20       ??$_Move@AAPAU?$_Task_impl@E@details@Concurrency@@@std@@YA$$QAPAU?$_Task_impl@E@details@Concurrency@@AAPAU123@@Z 10056e20 f i WinRTVFS.obj
 0002:00018e60       ??$_Move@AAPAU?$_Task_impl@I@details@Concurrency@@@std@@YA$$QAPAU?$_Task_impl@I@details@Concurrency@@AAPAU123@@Z 10056e60 f i WinRTVFS.obj
 0002:00018ea0       ??$_Move@AAPAU?$_Task_impl@P$AAUIBuffer@Streams@Storage@Windows@@@details@Concurrency@@@std@@YA$$QAPAU?$_Task_impl@P$AAUIBuffer@Streams@Storage@Windows@@@details@Concurrency@@AAPAU123@@Z 10056ea0 f i WinRTVFS.obj
 0002:00018ee0       ??$_Move@AAPAU?$_Task_impl@P$AAUIRandomAccessStream@Streams@Storage@Windows@@@details@Concurrency@@@std@@YA$$QAPAU?$_Task_impl@P$AAUIRandomAccessStream@Streams@Storage@Windows@@@details@Concurrency@@AAPAU123@@Z 10056ee0 f i WinRTVFS.obj
 0002:00018f20       ??$_Move@AAPAU?$_Task_impl@P$AAVStorageFile@Storage@Windows@@@details@Concurrency@@@std@@YA$$QAPAU?$_Task_impl@P$AAVStorageFile@Storage@Windows@@@details@Concurrency@@AAPAU123@@Z 10056f20 f i WinRTVFS.obj
 0002:00018f60       ??$_Move@AAPAU?$_Task_impl@P$AAVStorageFolder@Storage@Windows@@@details@Concurrency@@@std@@YA$$QAPAU?$_Task_impl@P$AAVStorageFolder@Storage@Windows@@@details@Concurrency@@AAPAU123@@Z 10056f60 f i WinRTVFS.obj
 0002:00018fa0       ??$_Move@AAPAU?$_Task_impl@_N@details@Concurrency@@@std@@YA$$QAPAU?$_Task_impl@_N@details@Concurrency@@AAPAU123@@Z 10056fa0 f i WinRTVFS.obj
 0002:00018fe0       ??$_Move@AAPAU_Container_proxy@std@@@std@@YA$$QAPAU_Container_proxy@0@AAPAU10@@Z 10056fe0 f i WinRTVFS.obj
 0002:00019020       ??$_Move@AAPAU_ExceptionHolder@details@Concurrency@@@std@@YA$$QAPAU_ExceptionHolder@details@Concurrency@@AAPAU123@@Z 10057020 f i WinRTVFS.obj
 0002:00019060       ??$_Move@AAPAUscheduler_interface@Concurrency@@@std@@YA$$QAPAUscheduler_interface@Concurrency@@AAPAU12@@Z 10057060 f i WinRTVFS.obj
 0002:000190a0       ??$_Move@AAPAV?$shared_ptr@U?$_Task_impl@E@details@Concurrency@@@std@@@std@@YA$$QAPAV?$shared_ptr@U?$_Task_impl@E@details@Concurrency@@@0@AAPAV10@@Z 100570a0 f i WinRTVFS.obj
 0002:000190e0       ??$_Move@AAPAV_Ref_count_base@std@@@std@@YA$$QAPAV_Ref_count_base@0@AAPAV10@@Z 100570e0 f i WinRTVFS.obj
 0002:00019120       ??$_Move@AAV?$ComPtr@UIUnknown@@@WRL@Microsoft@@@std@@YA$$QAV?$ComPtr@UIUnknown@@@WRL@Microsoft@@AAV123@@Z 10057120 f i WinRTVFS.obj
 0002:00019160       ??$_Move@AAW4AgileState@?$Agile@P$AAUIBuffer@Streams@Storage@Windows@@$00@Platform@@@std@@YA$$QAW4AgileState@?$Agile@P$AAUIBuffer@Streams@Storage@Windows@@$00@Platform@@AAW4123@@Z 10057160 f i WinRTVFS.obj
 0002:000191a0       ??$_Move@AAW4AgileState@?$Agile@P$AAUIRandomAccessStream@Streams@Storage@Windows@@$00@Platform@@@std@@YA$$QAW4AgileState@?$Agile@P$AAUIRandomAccessStream@Streams@Storage@Windows@@$00@Platform@@AAW4123@@Z 100571a0 f i WinRTVFS.obj
 0002:000191e0       ??$_Ptr_cat@PAXPAX@std@@YA?AU_Scalar_ptr_iterator_tag@0@PAPAX0@Z 100571e0 f i WinRTVFS.obj
 0002:00019250       ??$_Ptr_cat@PAXPAX@std@@YA?AU_Scalar_ptr_iterator_tag@0@PBQAXPAPAX@Z 10057250 f i WinRTVFS.obj
 0002:000192c0       ??$_Ptr_cat@V?$shared_ptr@U?$_Task_impl@E@details@Concurrency@@@std@@V12@@std@@YA?AU_Nonscalar_ptr_iterator_tag@0@PAV?$shared_ptr@U?$_Task_impl@E@details@Concurrency@@@0@0@Z 100572c0 f i WinRTVFS.obj
 0002:00019330       ??$_Rechecked@PAPAXPAPAX@std@@YAAAPAPAXAAPAPAXPAPAX@Z 10057330 f i WinRTVFS.obj
 0002:00019370       ??$_Rechecked@PAV?$shared_ptr@U?$_Task_impl@E@details@Concurrency@@@std@@PAV12@@std@@YAAAPAV?$shared_ptr@U?$_Task_impl@E@details@Concurrency@@@0@AAPAV10@PAV10@@Z 10057370 f i WinRTVFS.obj
 0002:000193b0       ??$_Reset@ABV<lambda_9fc58f08a03183e50e06176727aeb396>@@@?$_Func_class@X$$$V@std@@IAEXABV<lambda_9fc58f08a03183e50e06176727aeb396>@@@Z 100573b0 f i WinRTVFS.obj
 0002:00019420       ??$_Reset@U?$_Task_completion_event_impl@E@details@Concurrency@@@?$_Ptr_base@U?$_Task_completion_event_impl@E@details@Concurrency@@@std@@QAEXABV01@@Z 10057420 f i WinRTVFS.obj
 0002:00019490       ??$_Reset@U?$_Task_impl@E@details@Concurrency@@@?$_Ptr_base@U?$_Task_impl@E@details@Concurrency@@@std@@QAEXABV01@@Z 10057490 f i WinRTVFS.obj
 0002:00019500       ??$_Reset@U?$_Task_impl@E@details@Concurrency@@@?$_Ptr_base@U_Task_impl_base@details@Concurrency@@@std@@QAEXABV?$_Ptr_base@U?$_Task_impl@E@details@Concurrency@@@1@@Z 10057500 f i WinRTVFS.obj
 0002:00019570       ??$_Reset@U?$_Task_impl@I@details@Concurrency@@@?$_Ptr_base@U?$_Task_impl@I@details@Concurrency@@@std@@QAEXABV01@@Z 10057570 f i WinRTVFS.obj
 0002:000195e0       ??$_Reset@U?$_Task_impl@P$AAUIBuffer@Streams@Storage@Windows@@@details@Concurrency@@@?$_Ptr_base@U?$_Task_impl@P$AAUIBuffer@Streams@Storage@Windows@@@details@Concurrency@@@std@@QAEXABV01@@Z 100575e0 f i WinRTVFS.obj
 0002:00019650       ??$_Reset@U?$_Task_impl@P$AAUIRandomAccessStream@Streams@Storage@Windows@@@details@Concurrency@@@?$_Ptr_base@U?$_Task_impl@P$AAUIRandomAccessStream@Streams@Storage@Windows@@@details@Concurrency@@@std@@QAEXABV01@@Z 10057650 f i WinRTVFS.obj
 0002:000196c0       ??$_Reset@U?$_Task_impl@P$AAVStorageFile@Storage@Windows@@@details@Concurrency@@@?$_Ptr_base@U?$_Task_impl@P$AAVStorageFile@Storage@Windows@@@details@Concurrency@@@std@@QAEXABV01@@Z 100576c0 f i WinRTVFS.obj
 0002:00019730       ??$_Reset@U?$_Task_impl@P$AAVStorageFolder@Storage@Windows@@@details@Concurrency@@@?$_Ptr_base@U?$_Task_impl@P$AAVStorageFolder@Storage@Windows@@@details@Concurrency@@@std@@QAEXABV01@@Z 10057730 f i WinRTVFS.obj
 0002:000197a0       ??$_Reset@U?$_Task_impl@_N@details@Concurrency@@@?$_Ptr_base@U?$_Task_impl@_N@details@Concurrency@@@std@@QAEXABV01@@Z 100577a0 f i WinRTVFS.obj
 0002:00019810       ??$_Reset@U_ExceptionHolder@details@Concurrency@@@?$_Ptr_base@U_ExceptionHolder@details@Concurrency@@@std@@QAEXABV01@@Z 10057810 f i WinRTVFS.obj
 0002:00019880       ??$_Reset@U_Task_impl_base@details@Concurrency@@@?$_Ptr_base@U_Task_impl_base@details@Concurrency@@@std@@QAEXABV01@@Z 10057880 f i WinRTVFS.obj
 0002:000198f0       ??$_Reset@U_Task_impl_base@details@Concurrency@@@?$_Ptr_base@U_Task_impl_base@details@Concurrency@@@std@@QAEXABV01@_N@Z 100578f0 f i WinRTVFS.obj
 0002:00019960       ??$_Reset@Uscheduler_interface@Concurrency@@@?$_Ptr_base@Uscheduler_interface@Concurrency@@@std@@QAEXABV01@@Z 10057960 f i WinRTVFS.obj
 0002:000199d0       ??$_Reset@V<lambda_02d862f9cfc639ff7c37ca52d43e6a8c>@@@?$_Func_class@X$$$V@std@@IAEX$$QAV<lambda_02d862f9cfc639ff7c37ca52d43e6a8c>@@@Z 100579d0 f i WinRTVFS.obj
 0002:00019a40       ??$_Reset@V<lambda_095a938ce4c5765dcc6b67f548aeb9c7>@@@?$_Func_class@X$$$V@std@@IAEX$$QAV<lambda_095a938ce4c5765dcc6b67f548aeb9c7>@@@Z 10057a40 f i WinRTVFS.obj
 0002:00019ab0       ??$_Reset@V<lambda_0b7f78ec4ced38495cec46e0d346e0b9>@@@?$_Func_class@X$$$V@std@@IAEX$$QAV<lambda_0b7f78ec4ced38495cec46e0d346e0b9>@@@Z 10057ab0 f i WinRTVFS.obj
 0002:00019b20       ??$_Reset@V<lambda_0fe479da16d43edb8e9a254c493d643e>@@@?$_Func_class@X$$$V@std@@IAEX$$QAV<lambda_0fe479da16d43edb8e9a254c493d643e>@@@Z 10057b20 f i WinRTVFS.obj
 0002:00019b90       ??$_Reset@V<lambda_1a93da980d6fe77644a4eefc4e1ad756>@@@?$_Func_class@XABH@std@@IAEX$$QAV<lambda_1a93da980d6fe77644a4eefc4e1ad756>@@@Z 10057b90 f i WinRTVFS.obj
 0002:00019c00       ??$_Reset@V<lambda_295bc5f846209cba149a5e74d0d63a72>@@@?$_Func_class@XPAV?$message@H@Concurrency@@@std@@IAEX$$QAV<lambda_295bc5f846209cba149a5e74d0d63a72>@@@Z 10057c00 f i WinRTVFS.obj
 0002:00019c70       ??$_Reset@V<lambda_364e75aa895e992ae8821732ca646aa2>@@@?$_Func_class@X$$$V@std@@IAEX$$QAV<lambda_364e75aa895e992ae8821732ca646aa2>@@@Z 10057c70 f i WinRTVFS.obj
 0002:00019ce0       ??$_Reset@V<lambda_39cde079c01d1b5b9307ff255a1ccdd9>@@@?$_Func_class@EE@std@@IAEX$$QAV<lambda_39cde079c01d1b5b9307ff255a1ccdd9>@@@Z 10057ce0 f i WinRTVFS.obj
 0002:00019d50       ??$_Reset@V<lambda_528650821c608ced6534641e311542a5>@@@?$_Func_class@X$$$V@std@@IAEX$$QAV<lambda_528650821c608ced6534641e311542a5>@@@Z 10057d50 f i WinRTVFS.obj
 0002:00019dc0       ??$_Reset@V<lambda_579ccd68d569251046038e8620afec85>@@@?$_Func_class@XPAV?$message@H@Concurrency@@@std@@IAEX$$QAV<lambda_579ccd68d569251046038e8620afec85>@@@Z 10057dc0 f i WinRTVFS.obj
 0002:00019e30       ??$_Reset@V<lambda_a66b3ee15e662226a0b0b15ae647d32f>@@@?$_Func_class@X$$$V@std@@IAEX$$QAV<lambda_a66b3ee15e662226a0b0b15ae647d32f>@@@Z 10057e30 f i WinRTVFS.obj
 0002:00019ea0       ??$_Reset@V<lambda_c1a554f2383dae03f169289aed8c4103>@@@?$_Func_class@X$$$V@std@@IAEX$$QAV<lambda_c1a554f2383dae03f169289aed8c4103>@@@Z 10057ea0 f i WinRTVFS.obj
 0002:00019f10       ??$_Reset@V<lambda_c28a53003ed51cdfe295a7d756f98c2f>@@@?$_Func_class@XPAV?$message@H@Concurrency@@@std@@IAEX$$QAV<lambda_c28a53003ed51cdfe295a7d756f98c2f>@@@Z 10057f10 f i WinRTVFS.obj
 0002:00019f80       ??$_Reset@V<lambda_e7ef5f1e4e1eca0ae8efc6086cf9f417>@@@?$_Func_class@X$$$V@std@@IAEX$$QAV<lambda_e7ef5f1e4e1eca0ae8efc6086cf9f417>@@@Z 10057f80 f i WinRTVFS.obj
 0002:00019ff0       ??$_Reset_alloc@ABV<lambda_9fc58f08a03183e50e06176727aeb396>@@V?$allocator@V?$_Func_class@X$$$V@std@@@std@@@?$_Func_class@X$$$V@std@@IAEXABV<lambda_9fc58f08a03183e50e06176727aeb396>@@V?$allocator@V?$_Func_class@X$$$V@std@@@1@@Z 10057ff0 f i WinRTVFS.obj
 0002:0001a060       ??$_Reset_alloc@V<lambda_02d862f9cfc639ff7c37ca52d43e6a8c>@@V?$allocator@V?$_Func_class@X$$$V@std@@@std@@@?$_Func_class@X$$$V@std@@IAEX$$QAV<lambda_02d862f9cfc639ff7c37ca52d43e6a8c>@@V?$allocator@V?$_Func_class@X$$$V@std@@@1@@Z 10058060 f i WinRTVFS.obj
 0002:0001a0d0       ??$_Reset_alloc@V<lambda_095a938ce4c5765dcc6b67f548aeb9c7>@@V?$allocator@V?$_Func_class@X$$$V@std@@@std@@@?$_Func_class@X$$$V@std@@IAEX$$QAV<lambda_095a938ce4c5765dcc6b67f548aeb9c7>@@V?$allocator@V?$_Func_class@X$$$V@std@@@1@@Z 100580d0 f i WinRTVFS.obj
 0002:0001a140       ??$_Reset_alloc@V<lambda_0b7f78ec4ced38495cec46e0d346e0b9>@@V?$allocator@V?$_Func_class@X$$$V@std@@@std@@@?$_Func_class@X$$$V@std@@IAEX$$QAV<lambda_0b7f78ec4ced38495cec46e0d346e0b9>@@V?$allocator@V?$_Func_class@X$$$V@std@@@1@@Z 10058140 f i WinRTVFS.obj
 0002:0001a1b0       ??$_Reset_alloc@V<lambda_0fe479da16d43edb8e9a254c493d643e>@@V?$allocator@V?$_Func_class@X$$$V@std@@@std@@@?$_Func_class@X$$$V@std@@IAEX$$QAV<lambda_0fe479da16d43edb8e9a254c493d643e>@@V?$allocator@V?$_Func_class@X$$$V@std@@@1@@Z 100581b0 f i WinRTVFS.obj
 0002:0001a220       ??$_Reset_alloc@V<lambda_1a93da980d6fe77644a4eefc4e1ad756>@@V?$allocator@V?$_Func_class@XABH@std@@@std@@@?$_Func_class@XABH@std@@IAEX$$QAV<lambda_1a93da980d6fe77644a4eefc4e1ad756>@@V?$allocator@V?$_Func_class@XABH@std@@@1@@Z 10058220 f i WinRTVFS.obj
 0002:0001a290       ??$_Reset_alloc@V<lambda_295bc5f846209cba149a5e74d0d63a72>@@V?$allocator@V?$_Func_class@XPAV?$message@H@Concurrency@@@std@@@std@@@?$_Func_class@XPAV?$message@H@Concurrency@@@std@@IAEX$$QAV<lambda_295bc5f846209cba149a5e74d0d63a72>@@V?$allocator@V?$_Func_class@XPAV?$message@H@Concurrency@@@std@@@1@@Z 10058290 f i WinRTVFS.obj
 0002:0001a300       ??$_Reset_alloc@V<lambda_364e75aa895e992ae8821732ca646aa2>@@V?$allocator@V?$_Func_class@X$$$V@std@@@std@@@?$_Func_class@X$$$V@std@@IAEX$$QAV<lambda_364e75aa895e992ae8821732ca646aa2>@@V?$allocator@V?$_Func_class@X$$$V@std@@@1@@Z 10058300 f i WinRTVFS.obj
 0002:0001a370       ??$_Reset_alloc@V<lambda_39cde079c01d1b5b9307ff255a1ccdd9>@@V?$allocator@V?$_Func_class@EE@std@@@std@@@?$_Func_class@EE@std@@IAEX$$QAV<lambda_39cde079c01d1b5b9307ff255a1ccdd9>@@V?$allocator@V?$_Func_class@EE@std@@@1@@Z 10058370 f i WinRTVFS.obj
 0002:0001a3e0       ??$_Reset_alloc@V<lambda_528650821c608ced6534641e311542a5>@@V?$allocator@V?$_Func_class@X$$$V@std@@@std@@@?$_Func_class@X$$$V@std@@IAEX$$QAV<lambda_528650821c608ced6534641e311542a5>@@V?$allocator@V?$_Func_class@X$$$V@std@@@1@@Z 100583e0 f i WinRTVFS.obj
 0002:0001a450       ??$_Reset_alloc@V<lambda_579ccd68d569251046038e8620afec85>@@V?$allocator@V?$_Func_class@XPAV?$message@H@Concurrency@@@std@@@std@@@?$_Func_class@XPAV?$message@H@Concurrency@@@std@@IAEX$$QAV<lambda_579ccd68d569251046038e8620afec85>@@V?$allocator@V?$_Func_class@XPAV?$message@H@Concurrency@@@std@@@1@@Z 10058450 f i WinRTVFS.obj
 0002:0001a4c0       ??$_Reset_alloc@V<lambda_a66b3ee15e662226a0b0b15ae647d32f>@@V?$allocator@V?$_Func_class@X$$$V@std@@@std@@@?$_Func_class@X$$$V@std@@IAEX$$QAV<lambda_a66b3ee15e662226a0b0b15ae647d32f>@@V?$allocator@V?$_Func_class@X$$$V@std@@@1@@Z 100584c0 f i WinRTVFS.obj
 0002:0001a530       ??$_Reset_alloc@V<lambda_c1a554f2383dae03f169289aed8c4103>@@V?$allocator@V?$_Func_class@X$$$V@std@@@std@@@?$_Func_class@X$$$V@std@@IAEX$$QAV<lambda_c1a554f2383dae03f169289aed8c4103>@@V?$allocator@V?$_Func_class@X$$$V@std@@@1@@Z 10058530 f i WinRTVFS.obj
 0002:0001a5a0       ??$_Reset_alloc@V<lambda_c28a53003ed51cdfe295a7d756f98c2f>@@V?$allocator@V?$_Func_class@XPAV?$message@H@Concurrency@@@std@@@std@@@?$_Func_class@XPAV?$message@H@Concurrency@@@std@@IAEX$$QAV<lambda_c28a53003ed51cdfe295a7d756f98c2f>@@V?$allocator@V?$_Func_class@XPAV?$message@H@Concurrency@@@std@@@1@@Z 100585a0 f i WinRTVFS.obj
 0002:0001a610       ??$_Reset_alloc@V<lambda_e7ef5f1e4e1eca0ae8efc6086cf9f417>@@V?$allocator@V?$_Func_class@X$$$V@std@@@std@@@?$_Func_class@X$$$V@std@@IAEX$$QAV<lambda_e7ef5f1e4e1eca0ae8efc6086cf9f417>@@V?$allocator@V?$_Func_class@X$$$V@std@@@1@@Z 10058610 f i WinRTVFS.obj
 0002:0001a680       ??$_Resetp0@U?$_Task_completion_event_impl@E@details@Concurrency@@@?$shared_ptr@U?$_Task_completion_event_impl@E@details@Concurrency@@@std@@QAEXPAU?$_Task_completion_event_impl@E@details@Concurrency@@PAV_Ref_count_base@1@@Z 10058680 f i WinRTVFS.obj
 0002:0001a6f0       ??$_Resetp0@U?$_Task_impl@E@details@Concurrency@@@?$shared_ptr@U?$_Task_impl@E@details@Concurrency@@@std@@QAEXPAU?$_Task_impl@E@details@Concurrency@@PAV_Ref_count_base@1@@Z 100586f0 f i WinRTVFS.obj
 0002:0001a760       ??$_Resetp0@U?$_Task_impl@I@details@Concurrency@@@?$shared_ptr@U?$_Task_impl@I@details@Concurrency@@@std@@QAEXPAU?$_Task_impl@I@details@Concurrency@@PAV_Ref_count_base@1@@Z 10058760 f i WinRTVFS.obj
 0002:0001a7d0       ??$_Resetp0@U?$_Task_impl@P$AAUIBuffer@Streams@Storage@Windows@@@details@Concurrency@@@?$shared_ptr@U?$_Task_impl@P$AAUIBuffer@Streams@Storage@Windows@@@details@Concurrency@@@std@@QAEXPAU?$_Task_impl@P$AAUIBuffer@Streams@Storage@Windows@@@details@Concurrency@@PAV_Ref_count_base@1@@Z 100587d0 f i WinRTVFS.obj
 0002:0001a840       ??$_Resetp0@U?$_Task_impl@P$AAUIRandomAccessStream@Streams@Storage@Windows@@@details@Concurrency@@@?$shared_ptr@U?$_Task_impl@P$AAUIRandomAccessStream@Streams@Storage@Windows@@@details@Concurrency@@@std@@QAEXPAU?$_Task_impl@P$AAUIRandomAccessStream@Streams@Storage@Windows@@@details@Concurrency@@PAV_Ref_count_base@1@@Z 10058840 f i WinRTVFS.obj
 0002:0001a8b0       ??$_Resetp0@U?$_Task_impl@P$AAVStorageFile@Storage@Windows@@@details@Concurrency@@@?$shared_ptr@U?$_Task_impl@P$AAVStorageFile@Storage@Windows@@@details@Concurrency@@@std@@QAEXPAU?$_Task_impl@P$AAVStorageFile@Storage@Windows@@@details@Concurrency@@PAV_Ref_count_base@1@@Z 100588b0 f i WinRTVFS.obj
 0002:0001a920       ??$_Resetp0@U?$_Task_impl@P$AAVStorageFolder@Storage@Windows@@@details@Concurrency@@@?$shared_ptr@U?$_Task_impl@P$AAVStorageFolder@Storage@Windows@@@details@Concurrency@@@std@@QAEXPAU?$_Task_impl@P$AAVStorageFolder@Storage@Windows@@@details@Concurrency@@PAV_Ref_count_base@1@@Z 10058920 f i WinRTVFS.obj
 0002:0001a990       ??$_Resetp0@U?$_Task_impl@_N@details@Concurrency@@@?$shared_ptr@U?$_Task_impl@_N@details@Concurrency@@@std@@QAEXPAU?$_Task_impl@_N@details@Concurrency@@PAV_Ref_count_base@1@@Z 10058990 f i WinRTVFS.obj
 0002:0001aa00       ??$_Resetp0@U_ExceptionHolder@details@Concurrency@@@?$shared_ptr@U_ExceptionHolder@details@Concurrency@@@std@@QAEXPAU_ExceptionHolder@details@Concurrency@@PAV_Ref_count_base@1@@Z 10058a00 f i WinRTVFS.obj
 0002:0001aa70       ??$_Resetw@U?$_Task_impl@E@details@Concurrency@@@?$_Ptr_base@U_Task_impl_base@details@Concurrency@@@std@@QAEXABV?$_Ptr_base@U?$_Task_impl@E@details@Concurrency@@@1@@Z 10058a70 f i WinRTVFS.obj
 0002:0001aae0       ??$_Resetw@U?$_Task_impl@E@details@Concurrency@@@?$_Ptr_base@U_Task_impl_base@details@Concurrency@@@std@@QAEXPAU?$_Task_impl@E@details@Concurrency@@PAV_Ref_count_base@1@@Z 10058ae0 f i WinRTVFS.obj
 0002:0001ab70       ??$_Resetw@U?$_Task_impl@I@details@Concurrency@@@?$_Ptr_base@U_Task_impl_base@details@Concurrency@@@std@@QAEXABV?$_Ptr_base@U?$_Task_impl@I@details@Concurrency@@@1@@Z 10058b70 f i WinRTVFS.obj
 0002:0001abe0       ??$_Resetw@U?$_Task_impl@I@details@Concurrency@@@?$_Ptr_base@U_Task_impl_base@details@Concurrency@@@std@@QAEXPAU?$_Task_impl@I@details@Concurrency@@PAV_Ref_count_base@1@@Z 10058be0 f i WinRTVFS.obj
 0002:0001ac70       ??$_Resetw@U?$_Task_impl@P$AAUIBuffer@Streams@Storage@Windows@@@details@Concurrency@@@?$_Ptr_base@U_Task_impl_base@details@Concurrency@@@std@@QAEXABV?$_Ptr_base@U?$_Task_impl@P$AAUIBuffer@Streams@Storage@Windows@@@details@Concurrency@@@1@@Z 10058c70 f i WinRTVFS.obj
 0002:0001ace0       ??$_Resetw@U?$_Task_impl@P$AAUIBuffer@Streams@Storage@Windows@@@details@Concurrency@@@?$_Ptr_base@U_Task_impl_base@details@Concurrency@@@std@@QAEXPAU?$_Task_impl@P$AAUIBuffer@Streams@Storage@Windows@@@details@Concurrency@@PAV_Ref_count_base@1@@Z 10058ce0 f i WinRTVFS.obj
 0002:0001ad70       ??$_Resetw@U?$_Task_impl@P$AAUIRandomAccessStream@Streams@Storage@Windows@@@details@Concurrency@@@?$_Ptr_base@U_Task_impl_base@details@Concurrency@@@std@@QAEXABV?$_Ptr_base@U?$_Task_impl@P$AAUIRandomAccessStream@Streams@Storage@Windows@@@details@Concurrency@@@1@@Z 10058d70 f i WinRTVFS.obj
 0002:0001ade0       ??$_Resetw@U?$_Task_impl@P$AAUIRandomAccessStream@Streams@Storage@Windows@@@details@Concurrency@@@?$_Ptr_base@U_Task_impl_base@details@Concurrency@@@std@@QAEXPAU?$_Task_impl@P$AAUIRandomAccessStream@Streams@Storage@Windows@@@details@Concurrency@@PAV_Ref_count_base@1@@Z 10058de0 f i WinRTVFS.obj
 0002:0001ae70       ??$_Resetw@U?$_Task_impl@P$AAVStorageFile@Storage@Windows@@@details@Concurrency@@@?$_Ptr_base@U_Task_impl_base@details@Concurrency@@@std@@QAEXABV?$_Ptr_base@U?$_Task_impl@P$AAVStorageFile@Storage@Windows@@@details@Concurrency@@@1@@Z 10058e70 f i WinRTVFS.obj
 0002:0001aee0       ??$_Resetw@U?$_Task_impl@P$AAVStorageFile@Storage@Windows@@@details@Concurrency@@@?$_Ptr_base@U_Task_impl_base@details@Concurrency@@@std@@QAEXPAU?$_Task_impl@P$AAVStorageFile@Storage@Windows@@@details@Concurrency@@PAV_Ref_count_base@1@@Z 10058ee0 f i WinRTVFS.obj
 0002:0001af70       ??$_Resetw@U?$_Task_impl@P$AAVStorageFolder@Storage@Windows@@@details@Concurrency@@@?$_Ptr_base@U_Task_impl_base@details@Concurrency@@@std@@QAEXABV?$_Ptr_base@U?$_Task_impl@P$AAVStorageFolder@Storage@Windows@@@details@Concurrency@@@1@@Z 10058f70 f i WinRTVFS.obj
 0002:0001afe0       ??$_Resetw@U?$_Task_impl@P$AAVStorageFolder@Storage@Windows@@@details@Concurrency@@@?$_Ptr_base@U_Task_impl_base@details@Concurrency@@@std@@QAEXPAU?$_Task_impl@P$AAVStorageFolder@Storage@Windows@@@details@Concurrency@@PAV_Ref_count_base@1@@Z 10058fe0 f i WinRTVFS.obj
 0002:0001b070       ??$_Resetw@U?$_Task_impl@_N@details@Concurrency@@@?$_Ptr_base@U_Task_impl_base@details@Concurrency@@@std@@QAEXABV?$_Ptr_base@U?$_Task_impl@_N@details@Concurrency@@@1@@Z 10059070 f i WinRTVFS.obj
 0002:0001b0e0       ??$_Resetw@U?$_Task_impl@_N@details@Concurrency@@@?$_Ptr_base@U_Task_impl_base@details@Concurrency@@@std@@QAEXPAU?$_Task_impl@_N@details@Concurrency@@PAV_Ref_count_base@1@@Z 100590e0 f i WinRTVFS.obj
 0002:0001b170       ??$_Resetw@U_Task_impl_base@details@Concurrency@@@?$_Ptr_base@U_Task_impl_base@details@Concurrency@@@std@@QAEXABV01@@Z 10059170 f i WinRTVFS.obj
 0002:0001b1e0       ??$_Resetw@U_Task_impl_base@details@Concurrency@@@?$_Ptr_base@U_Task_impl_base@details@Concurrency@@@std@@QAEXPAU_Task_impl_base@details@Concurrency@@PAV_Ref_count_base@1@@Z 100591e0 f i WinRTVFS.obj
 0002:0001b270       ??$_Swap_adl@PAU_Container_proxy@std@@@std@@YAXAAPAU_Container_proxy@0@0@Z 10059270 f i WinRTVFS.obj
 0002:0001b2d0       ??$_Swap_adl@PAV?$shared_ptr@U?$_Task_impl@E@details@Concurrency@@@std@@@std@@YAXAAPAV?$shared_ptr@U?$_Task_impl@E@details@Concurrency@@@0@0@Z 100592d0 f i WinRTVFS.obj
 0002:0001b330       ??$_TaskInitMaybeFunctor@P$AAU?$IAsyncOperation@P$AAUIRandomAccessStream@Streams@Storage@Windows@@@Foundation@Windows@@@?$task@P$AAUIRandomAccessStream@Streams@Storage@Windows@@@Concurrency@@AAEXAAP$AAU?$IAsyncOperation@P$AAUIRandomAccessStream@Streams@Storage@Windows@@@Foundation@Windows@@U?$integral_constant@_N$0A@@std@@@Z 10059330 f i WinRTVFS.obj
 0002:0001b390       ??$_TaskInitMaybeFunctor@P$AAU?$IAsyncOperation@P$AAVStorageFile@Storage@Windows@@@Foundation@Windows@@@?$task@P$AAVStorageFile@Storage@Windows@@@Concurrency@@AAEXAAP$AAU?$IAsyncOperation@P$AAVStorageFile@Storage@Windows@@@Foundation@Windows@@U?$integral_constant@_N$0A@@std@@@Z 10059390 f i WinRTVFS.obj
 0002:0001b3f0       ??$_TaskInitMaybeFunctor@P$AAU?$IAsyncOperation@P$AAVStorageFolder@Storage@Windows@@@Foundation@Windows@@@?$task@P$AAVStorageFolder@Storage@Windows@@@Concurrency@@AAEXAAP$AAU?$IAsyncOperation@P$AAVStorageFolder@Storage@Windows@@@Foundation@Windows@@U?$integral_constant@_N$0A@@std@@@Z 100593f0 f i WinRTVFS.obj
 0002:0001b450       ??$_TaskInitMaybeFunctor@P$AAU?$IAsyncOperation@_N@Foundation@Windows@@@?$task@_N@Concurrency@@AAEXAAP$AAU?$IAsyncOperation@_N@Foundation@Windows@@U?$integral_constant@_N$0A@@std@@@Z 10059450 f i WinRTVFS.obj
 0002:0001b4b0       ??$_TaskInitMaybeFunctor@P$AAU?$IAsyncOperationWithProgress@II@Foundation@Windows@@@?$task@I@Concurrency@@AAEXAAP$AAU?$IAsyncOperationWithProgress@II@Foundation@Windows@@U?$integral_constant@_N$0A@@std@@@Z 100594b0 f i WinRTVFS.obj
 0002:0001b510       ??$_TaskInitMaybeFunctor@P$AAU?$IAsyncOperationWithProgress@P$AAUIBuffer@Streams@Storage@Windows@@I@Foundation@Windows@@@?$task@P$AAUIBuffer@Streams@Storage@Windows@@@Concurrency@@AAEXAAP$AAU?$IAsyncOperationWithProgress@P$AAUIBuffer@Streams@Storage@Windows@@I@Foundation@Windows@@U?$integral_constant@_N$0A@@std@@@Z 10059510 f i WinRTVFS.obj
 0002:0001b570       ??$_TaskInitMaybeFunctor@P$AAUIAsyncAction@Foundation@Windows@@@?$task@X@Concurrency@@AAEXAAP$AAUIAsyncAction@Foundation@Windows@@U?$integral_constant@_N$0A@@std@@@Z 10059570 f i WinRTVFS.obj
 0002:0001b5d0       ??$_TaskInitMaybeFunctor@V?$task_completion_event@X@Concurrency@@@?$task@X@Concurrency@@AAEXAAV?$task_completion_event@X@1@U?$integral_constant@_N$0A@@std@@@Z 100595d0 f i WinRTVFS.obj
 0002:0001b630       ??$_TaskInitNoFunctor@I@?$task@I@Concurrency@@AAEXP$AAU?$IAsyncOperationWithProgress@II@Foundation@Windows@@@Z 10059630 f i WinRTVFS.obj
 0002:0001b760       ??$_TaskInitNoFunctor@I@?$task@P$AAUIBuffer@Streams@Storage@Windows@@@Concurrency@@AAEXP$AAU?$IAsyncOperationWithProgress@P$AAUIBuffer@Streams@Storage@Windows@@I@Foundation@Windows@@@Z 10059760 f i WinRTVFS.obj
 0002:0001b890       ??$_Test_callable@$$CBV<lambda_9fc58f08a03183e50e06176727aeb396>@@@std@@YA_NABV<lambda_9fc58f08a03183e50e06176727aeb396>@@@Z 10059890 f i WinRTVFS.obj
 0002:0001b8f0       ??$_Test_callable@$$CBV<lambda_9fc58f08a03183e50e06176727aeb396>@@@std@@YA_NABV<lambda_9fc58f08a03183e50e06176727aeb396>@@U?$integral_constant@_N$0A@@0@@Z 100598f0 f i WinRTVFS.obj
 0002:0001b920       ??$_Test_callable@V<lambda_02d862f9cfc639ff7c37ca52d43e6a8c>@@@std@@YA_NAAV<lambda_02d862f9cfc639ff7c37ca52d43e6a8c>@@@Z 10059920 f i WinRTVFS.obj
 0002:0001b980       ??$_Test_callable@V<lambda_02d862f9cfc639ff7c37ca52d43e6a8c>@@@std@@YA_NAAV<lambda_02d862f9cfc639ff7c37ca52d43e6a8c>@@U?$integral_constant@_N$0A@@0@@Z 10059980 f i WinRTVFS.obj
 0002:0001b9b0       ??$_Test_callable@V<lambda_095a938ce4c5765dcc6b67f548aeb9c7>@@@std@@YA_NAAV<lambda_095a938ce4c5765dcc6b67f548aeb9c7>@@@Z 100599b0 f i WinRTVFS.obj
 0002:0001ba10       ??$_Test_callable@V<lambda_095a938ce4c5765dcc6b67f548aeb9c7>@@@std@@YA_NAAV<lambda_095a938ce4c5765dcc6b67f548aeb9c7>@@U?$integral_constant@_N$0A@@0@@Z 10059a10 f i WinRTVFS.obj
 0002:0001ba40       ??$_Test_callable@V<lambda_0b7f78ec4ced38495cec46e0d346e0b9>@@@std@@YA_NAAV<lambda_0b7f78ec4ced38495cec46e0d346e0b9>@@@Z 10059a40 f i WinRTVFS.obj
 0002:0001baa0       ??$_Test_callable@V<lambda_0b7f78ec4ced38495cec46e0d346e0b9>@@@std@@YA_NAAV<lambda_0b7f78ec4ced38495cec46e0d346e0b9>@@U?$integral_constant@_N$0A@@0@@Z 10059aa0 f i WinRTVFS.obj
 0002:0001bad0       ??$_Test_callable@V<lambda_0fe479da16d43edb8e9a254c493d643e>@@@std@@YA_NAAV<lambda_0fe479da16d43edb8e9a254c493d643e>@@@Z 10059ad0 f i WinRTVFS.obj
 0002:0001bb30       ??$_Test_callable@V<lambda_0fe479da16d43edb8e9a254c493d643e>@@@std@@YA_NAAV<lambda_0fe479da16d43edb8e9a254c493d643e>@@U?$integral_constant@_N$0A@@0@@Z 10059b30 f i WinRTVFS.obj
 0002:0001bb60       ??$_Test_callable@V<lambda_1a93da980d6fe77644a4eefc4e1ad756>@@@std@@YA_NAAV<lambda_1a93da980d6fe77644a4eefc4e1ad756>@@@Z 10059b60 f i WinRTVFS.obj
 0002:0001bbc0       ??$_Test_callable@V<lambda_1a93da980d6fe77644a4eefc4e1ad756>@@@std@@YA_NAAV<lambda_1a93da980d6fe77644a4eefc4e1ad756>@@U?$integral_constant@_N$0A@@0@@Z 10059bc0 f i WinRTVFS.obj
 0002:0001bbf0       ??$_Test_callable@V<lambda_295bc5f846209cba149a5e74d0d63a72>@@@std@@YA_NAAV<lambda_295bc5f846209cba149a5e74d0d63a72>@@@Z 10059bf0 f i WinRTVFS.obj
 0002:0001bc50       ??$_Test_callable@V<lambda_295bc5f846209cba149a5e74d0d63a72>@@@std@@YA_NAAV<lambda_295bc5f846209cba149a5e74d0d63a72>@@U?$integral_constant@_N$0A@@0@@Z 10059c50 f i WinRTVFS.obj
 0002:0001bc80       ??$_Test_callable@V<lambda_364e75aa895e992ae8821732ca646aa2>@@@std@@YA_NAAV<lambda_364e75aa895e992ae8821732ca646aa2>@@@Z 10059c80 f i WinRTVFS.obj
 0002:0001bce0       ??$_Test_callable@V<lambda_364e75aa895e992ae8821732ca646aa2>@@@std@@YA_NAAV<lambda_364e75aa895e992ae8821732ca646aa2>@@U?$integral_constant@_N$0A@@0@@Z 10059ce0 f i WinRTVFS.obj
 0002:0001bd10       ??$_Test_callable@V<lambda_39cde079c01d1b5b9307ff255a1ccdd9>@@@std@@YA_NAAV<lambda_39cde079c01d1b5b9307ff255a1ccdd9>@@@Z 10059d10 f i WinRTVFS.obj
 0002:0001bd70       ??$_Test_callable@V<lambda_39cde079c01d1b5b9307ff255a1ccdd9>@@@std@@YA_NAAV<lambda_39cde079c01d1b5b9307ff255a1ccdd9>@@U?$integral_constant@_N$0A@@0@@Z 10059d70 f i WinRTVFS.obj
 0002:0001bda0       ??$_Test_callable@V<lambda_528650821c608ced6534641e311542a5>@@@std@@YA_NAAV<lambda_528650821c608ced6534641e311542a5>@@@Z 10059da0 f i WinRTVFS.obj
 0002:0001be00       ??$_Test_callable@V<lambda_528650821c608ced6534641e311542a5>@@@std@@YA_NAAV<lambda_528650821c608ced6534641e311542a5>@@U?$integral_constant@_N$0A@@0@@Z 10059e00 f i WinRTVFS.obj
 0002:0001be30       ??$_Test_callable@V<lambda_579ccd68d569251046038e8620afec85>@@@std@@YA_NAAV<lambda_579ccd68d569251046038e8620afec85>@@@Z 10059e30 f i WinRTVFS.obj
 0002:0001be90       ??$_Test_callable@V<lambda_579ccd68d569251046038e8620afec85>@@@std@@YA_NAAV<lambda_579ccd68d569251046038e8620afec85>@@U?$integral_constant@_N$0A@@0@@Z 10059e90 f i WinRTVFS.obj
 0002:0001bec0       ??$_Test_callable@V<lambda_a66b3ee15e662226a0b0b15ae647d32f>@@@std@@YA_NAAV<lambda_a66b3ee15e662226a0b0b15ae647d32f>@@@Z 10059ec0 f i WinRTVFS.obj
 0002:0001bf20       ??$_Test_callable@V<lambda_a66b3ee15e662226a0b0b15ae647d32f>@@@std@@YA_NAAV<lambda_a66b3ee15e662226a0b0b15ae647d32f>@@U?$integral_constant@_N$0A@@0@@Z 10059f20 f i WinRTVFS.obj
 0002:0001bf50       ??$_Test_callable@V<lambda_c1a554f2383dae03f169289aed8c4103>@@@std@@YA_NAAV<lambda_c1a554f2383dae03f169289aed8c4103>@@@Z 10059f50 f i WinRTVFS.obj
 0002:0001bfb0       ??$_Test_callable@V<lambda_c1a554f2383dae03f169289aed8c4103>@@@std@@YA_NAAV<lambda_c1a554f2383dae03f169289aed8c4103>@@U?$integral_constant@_N$0A@@0@@Z 10059fb0 f i WinRTVFS.obj
 0002:0001bfe0       ??$_Test_callable@V<lambda_c28a53003ed51cdfe295a7d756f98c2f>@@@std@@YA_NAAV<lambda_c28a53003ed51cdfe295a7d756f98c2f>@@@Z 10059fe0 f i WinRTVFS.obj
 0002:0001c040       ??$_Test_callable@V<lambda_c28a53003ed51cdfe295a7d756f98c2f>@@@std@@YA_NAAV<lambda_c28a53003ed51cdfe295a7d756f98c2f>@@U?$integral_constant@_N$0A@@0@@Z 1005a040 f i WinRTVFS.obj
 0002:0001c070       ??$_Test_callable@V<lambda_e7ef5f1e4e1eca0ae8efc6086cf9f417>@@@std@@YA_NAAV<lambda_e7ef5f1e4e1eca0ae8efc6086cf9f417>@@@Z 1005a070 f i WinRTVFS.obj
 0002:0001c0d0       ??$_Test_callable@V<lambda_e7ef5f1e4e1eca0ae8efc6086cf9f417>@@@std@@YA_NAAV<lambda_e7ef5f1e4e1eca0ae8efc6086cf9f417>@@U?$integral_constant@_N$0A@@0@@Z 1005a0d0 f i WinRTVFS.obj
 0002:0001c100       ??$_ThenImpl@XV<lambda_9fc58f08a03183e50e06176727aeb396>@@@?$task@E@Concurrency@@ABE?AV?$task@X@1@ABV<lambda_9fc58f08a03183e50e06176727aeb396>@@ABVtask_options@1@@Z 1005a100 f i WinRTVFS.obj
 0002:0001c680       ??$_ThenImpl@XV<lambda_9fc58f08a03183e50e06176727aeb396>@@@?$task@E@Concurrency@@ABE?AV?$task@X@1@ABV<lambda_9fc58f08a03183e50e06176727aeb396>@@PAV_CancellationTokenState@details@1@ABVtask_continuation_context@1@Uscheduler_ptr@1@V_TaskCreationCallstack@51@W4_TaskInliningMode@51@@Z 1005a680 f i WinRTVFS.obj
 0002:0001c9b0       ??$_Trace_agents_get_id@V?$ISource@H@Concurrency@@@details@Concurrency@@YA_JPAV?$ISource@H@1@@Z 1005a9b0 f i WinRTVFS.obj
 0002:0001c9f0       ??$_Trace_agents_get_id@V?$ordered_message_processor@H@Concurrency@@@details@Concurrency@@YA_JPAV?$ordered_message_processor@H@1@@Z 1005a9f0 f i WinRTVFS.obj
 0002:0001ca30       ??$_Trace_agents_get_id@V?$source_block@V?$single_link_registry@V?$ITarget@H@Concurrency@@@Concurrency@@V?$ordered_message_processor@H@2@@Concurrency@@@details@Concurrency@@YA_JPAV?$source_block@V?$single_link_registry@V?$ITarget@H@Concurrency@@@Concurrency@@V?$ordered_message_processor@H@2@@1@@Z 1005aa30 f i WinRTVFS.obj
 0002:0001ca70       ??$_Trace_agents_get_id@V?$target_block@V?$multi_link_registry@V?$ISource@H@Concurrency@@@Concurrency@@V?$ordered_message_processor@H@2@@Concurrency@@@details@Concurrency@@YA_JPAV?$target_block@V?$multi_link_registry@V?$ISource@H@Concurrency@@@Concurrency@@V?$ordered_message_processor@H@2@@1@@Z 1005aa70 f i WinRTVFS.obj
 0002:0001cab0       ??$_Ucopy@PAPAX@?$vector@PAXV?$allocator@PAX@std@@@std@@IAEPAPAXPAPAX00@Z 1005aab0 f i WinRTVFS.obj
 0002:0001cb80       ??$_Ucopy@V?$_Vector_const_iterator@V?$_Vector_val@U?$_Simple_types@PAX@std@@@std@@@std@@@?$vector@PAXV?$allocator@PAX@std@@@std@@IAEPAPAXV?$_Vector_const_iterator@V?$_Vector_val@U?$_Simple_types@PAX@std@@@std@@@1@0PAPAX@Z 1005ab80 f i WinRTVFS.obj
 0002:0001cd10       ??$_Umove@PAPAX@?$vector@PAXV?$allocator@PAX@std@@@std@@IAEPAPAXPAPAX00@Z 1005ad10 f i WinRTVFS.obj
 0002:0001cde0       ??$_Umove@PAV?$shared_ptr@U?$_Task_impl@E@details@Concurrency@@@std@@@?$vector@V?$shared_ptr@U?$_Task_impl@E@details@Concurrency@@@std@@V?$allocator@V?$shared_ptr@U?$_Task_impl@E@details@Concurrency@@@std@@@2@@std@@IAEPAV?$shared_ptr@U?$_Task_impl@E@details@Concurrency@@@1@PAV21@00@Z 1005ade0 f i WinRTVFS.obj
 0002:0001ceb0       ??$_Unchecked@PAPAX@std@@YAPAPAXPAPAX@Z 1005aeb0 f i WinRTVFS.obj
 0002:0001cef0       ??$_Unchecked@PAV?$shared_ptr@U?$_Task_impl@E@details@Concurrency@@@std@@@std@@YAPAV?$shared_ptr@U?$_Task_impl@E@details@Concurrency@@@0@PAV10@@Z 1005aef0 f i WinRTVFS.obj
 0002:0001cf30       ??$_Unchecked@V?$_Vector_val@U?$_Simple_types@PAX@std@@@std@@@std@@YAPBQAXV?$_Vector_const_iterator@V?$_Vector_val@U?$_Simple_types@PAX@std@@@std@@@0@@Z 1005af30 f i WinRTVFS.obj
 0002:0001cfe0       ??$_Uninit_copy@PAPAXPAPAXU?$_Wrap_alloc@V?$allocator@PAX@std@@@std@@@std@@YAPAPAXPAPAX00AAU?$_Wrap_alloc@V?$allocator@PAX@std@@@0@@Z 1005afe0 f i WinRTVFS.obj
 0002:0001d070       ??$_Uninit_copy@PAXPAX@std@@YAPAPAXPAPAX00AAU?$_Wrap_alloc@V?$allocator@PAX@std@@@0@U_Scalar_ptr_iterator_tag@0@@Z 1005b070 f i WinRTVFS.obj
 0002:0001d130       ??$_Uninit_copy@PBQAXPAPAXU?$_Wrap_alloc@V?$allocator@PAX@std@@@std@@@std@@YAPAPAXPBQAX0PAPAXAAU?$_Wrap_alloc@V?$allocator@PAX@std@@@0@@Z 1005b130 f i WinRTVFS.obj
 0002:0001d1c0       ??$_Uninit_copy@QAXPAX@std@@YAPAPAXPBQAX0PAPAXAAU?$_Wrap_alloc@V?$allocator@PAX@std@@@0@U_Scalar_ptr_iterator_tag@0@@Z 1005b1c0 f i WinRTVFS.obj
 0002:0001d280       ??$_Uninit_def_fill_n@PAXIPAX@std@@YAXPAPAXIAAU?$_Wrap_alloc@V?$allocator@PAX@std@@@0@0U_Scalar_ptr_iterator_tag@0@@Z 1005b280 f i WinRTVFS.obj
 0002:0001d2f0       ??$_Uninit_move@PAPAXPAPAXU?$_Wrap_alloc@V?$allocator@PAX@std@@@std@@@std@@YAPAPAXPAPAX00AAU?$_Wrap_alloc@V?$allocator@PAX@std@@@0@@Z 1005b2f0 f i WinRTVFS.obj
 0002:0001d390       ??$_Uninit_move@PAV?$shared_ptr@U?$_Task_impl@E@details@Concurrency@@@std@@PAV12@U?$_Wrap_alloc@V?$allocator@V?$shared_ptr@U?$_Task_impl@E@details@Concurrency@@@std@@@std@@@2@@std@@YAPAV?$shared_ptr@U?$_Task_impl@E@details@Concurrency@@@0@PAV10@00AAU?$_Wrap_alloc@V?$allocator@V?$shared_ptr@U?$_Task_impl@E@details@Concurrency@@@std@@@std@@@0@@Z 1005b390 f i WinRTVFS.obj
 0002:0001d430       ??$_Uninit_move@PAV?$shared_ptr@U?$_Task_impl@E@details@Concurrency@@@std@@PAV12@V?$allocator@V?$shared_ptr@U?$_Task_impl@E@details@Concurrency@@@std@@@2@V12@@std@@YAPAV?$shared_ptr@U?$_Task_impl@E@details@Concurrency@@@0@PAV10@00AAU?$_Wrap_alloc@V?$allocator@V?$shared_ptr@U?$_Task_impl@E@details@Concurrency@@@std@@@std@@@0@0U_Nonscalar_ptr_iterator_tag@0@@Z 1005b430 f i WinRTVFS.obj
 0002:0001d590       ??$_Uninit_move@PAXPAXPAX@std@@YAPAPAXPAPAX00AAU?$_Wrap_alloc@V?$allocator@PAX@std@@@0@0U_Scalar_ptr_iterator_tag@0@@Z 1005b590 f i WinRTVFS.obj
 0002:0001d650       ??$_Uninitialized_copy@PAPAXPAPAXU?$_Wrap_alloc@V?$allocator@PAX@std@@@std@@@std@@YAPAPAXPAPAX00AAU?$_Wrap_alloc@V?$allocator@PAX@std@@@0@@Z 1005b650 f i WinRTVFS.obj
 0002:0001d6f0       ??$_Uninitialized_copy@V?$_Vector_const_iterator@V?$_Vector_val@U?$_Simple_types@PAX@std@@@std@@@std@@PAPAXU?$_Wrap_alloc@V?$allocator@PAX@std@@@2@@std@@YAPAPAXV?$_Vector_const_iterator@V?$_Vector_val@U?$_Simple_types@PAX@std@@@std@@@0@0PAPAXAAU?$_Wrap_alloc@V?$allocator@PAX@std@@@0@@Z 1005b6f0 f i WinRTVFS.obj
 0002:0001d860       ??$_Uninitialized_default_fill_n@PAPAXIU?$_Wrap_alloc@V?$allocator@PAX@std@@@std@@@std@@YAXPAPAXIAAU?$_Wrap_alloc@V?$allocator@PAX@std@@@0@@Z 1005b860 f i WinRTVFS.obj
 0002:0001d8f0       ??$_Uninitialized_move@PAPAXPAPAXU?$_Wrap_alloc@V?$allocator@PAX@std@@@std@@@std@@YAPAPAXPAPAX00AAU?$_Wrap_alloc@V?$allocator@PAX@std@@@0@@Z 1005b8f0 f i WinRTVFS.obj
 0002:0001d990       ??$_Uninitialized_move@PAV?$shared_ptr@U?$_Task_impl@E@details@Concurrency@@@std@@PAV12@U?$_Wrap_alloc@V?$allocator@V?$shared_ptr@U?$_Task_impl@E@details@Concurrency@@@std@@@std@@@2@@std@@YAPAV?$shared_ptr@U?$_Task_impl@E@details@Concurrency@@@0@PAV10@00AAU?$_Wrap_alloc@V?$allocator@V?$shared_ptr@U?$_Task_impl@E@details@Concurrency@@@std@@@std@@@0@@Z 1005b990 f i WinRTVFS.obj
 0002:0001da30       ??$_Val_type@PAPAX@std@@YAPAPAXPAPAX@Z 1005ba30 f i WinRTVFS.obj
 0002:0001da60       ??$_Val_type@PAV?$shared_ptr@U?$_Task_impl@E@details@Concurrency@@@std@@@std@@YAPAV?$shared_ptr@U?$_Task_impl@E@details@Concurrency@@@0@PAV10@@Z 1005ba60 f i WinRTVFS.obj
 0002:0001da90       ??$_ValidateTaskConstructorArgs@IP$AAU?$IAsyncOperationWithProgress@II@Foundation@Windows@@@details@Concurrency@@YAXP$AAU?$IAsyncOperationWithProgress@II@Foundation@Windows@@@Z 1005ba90 f i WinRTVFS.obj
 0002:0001dac0       ??$_ValidateTaskConstructorArgs@P$AAUIBuffer@Streams@Storage@Windows@@P$AAU?$IAsyncOperationWithProgress@P$AAUIBuffer@Streams@Storage@Windows@@I@Foundation@4@@details@Concurrency@@YAXP$AAU?$IAsyncOperationWithProgress@P$AAUIBuffer@Streams@Storage@Windows@@I@Foundation@Windows@@@Z 1005bac0 f i WinRTVFS.obj
 0002:0001daf0       ??$_ValidateTaskConstructorArgs@P$AAUIRandomAccessStream@Streams@Storage@Windows@@P$AAU?$IAsyncOperation@P$AAUIRandomAccessStream@Streams@Storage@Windows@@@Foundation@4@@details@Concurrency@@YAXP$AAU?$IAsyncOperation@P$AAUIRandomAccessStream@Streams@Storage@Windows@@@Foundation@Windows@@@Z 1005baf0 f i WinRTVFS.obj
 0002:0001db20       ??$_ValidateTaskConstructorArgs@P$AAVStorageFile@Storage@Windows@@P$AAU?$IAsyncOperation@P$AAVStorageFile@Storage@Windows@@@Foundation@3@@details@Concurrency@@YAXP$AAU?$IAsyncOperation@P$AAVStorageFile@Storage@Windows@@@Foundation@Windows@@@Z 1005bb20 f i WinRTVFS.obj
 0002:0001db50       ??$_ValidateTaskConstructorArgs@P$AAVStorageFolder@Storage@Windows@@P$AAU?$IAsyncOperation@P$AAVStorageFolder@Storage@Windows@@@Foundation@3@@details@Concurrency@@YAXP$AAU?$IAsyncOperation@P$AAVStorageFolder@Storage@Windows@@@Foundation@Windows@@@Z 1005bb50 f i WinRTVFS.obj
 0002:0001db80       ??$_ValidateTaskConstructorArgs@XP$AAUIAsyncAction@Foundation@Windows@@@details@Concurrency@@YAXP$AAUIAsyncAction@Foundation@Windows@@@Z 1005bb80 f i WinRTVFS.obj
 0002:0001dbb0       ??$_ValidateTaskConstructorArgs@XV?$task_completion_event@X@Concurrency@@@details@Concurrency@@YAXV?$task_completion_event@X@1@@Z 1005bbb0 f i WinRTVFS.obj
 0002:0001dc00       ??$_ValidateTaskConstructorArgs@_NP$AAU?$IAsyncOperation@_N@Foundation@Windows@@@details@Concurrency@@YAXP$AAU?$IAsyncOperation@_N@Foundation@Windows@@@Z 1005bc00 f i WinRTVFS.obj
 0002:0001dc30       ??$__abi_winrt_ptrto_delegate_assign@V?$AsyncOperationCompletedHandler@E@Foundation@Windows@@@@YAPAXPAPAXP$ADV?$AsyncOperationCompletedHandler@E@Foundation@Windows@@@Z 1005bc30 f i WinRTVFS.obj
 0002:0001dc90       ??$__abi_winrt_ptrto_delegate_assign@V?$AsyncOperationCompletedHandler@I@Foundation@Windows@@@@YAPAXPAPAXP$ADV?$AsyncOperationCompletedHandler@I@Foundation@Windows@@@Z 1005bc90 f i WinRTVFS.obj
 0002:0001dcf0       ??$__abi_winrt_ptrto_delegate_assign@V?$AsyncOperationCompletedHandler@P$AAUIBuffer@Streams@Storage@Windows@@@Foundation@Windows@@@@YAPAXPAPAXP$ADV?$AsyncOperationCompletedHandler@P$AAUIBuffer@Streams@Storage@Windows@@@Foundation@Windows@@@Z 1005bcf0 f i WinRTVFS.obj
 0002:0001dd50       ??$__abi_winrt_ptrto_delegate_ctor@V?$AsyncOperationCompletedHandler@E@Foundation@Windows@@@@YAPAXP$ADV?$AsyncOperationCompletedHandler@E@Foundation@Windows@@@Z 1005bd50 f i WinRTVFS.obj
 0002:0001dda0       ??$__abi_winrt_ptrto_delegate_ctor@V?$AsyncOperationCompletedHandler@I@Foundation@Windows@@@@YAPAXP$ADV?$AsyncOperationCompletedHandler@I@Foundation@Windows@@@Z 1005bda0 f i WinRTVFS.obj
 0002:0001ddf0       ??$__abi_winrt_ptrto_delegate_ctor@V?$AsyncOperationCompletedHandler@P$AAUIBuffer@Streams@Storage@Windows@@@Foundation@Windows@@@@YAPAXP$ADV?$AsyncOperationCompletedHandler@P$AAUIBuffer@Streams@Storage@Windows@@@Foundation@Windows@@@Z 1005bdf0 f i WinRTVFS.obj
 0002:0001de40       ??$__abi_winrt_ptrto_delegate_dtor@V?$AsyncOperationCompletedHandler@E@Foundation@Windows@@@@YAXP$ADV?$AsyncOperationCompletedHandler@E@Foundation@Windows@@@Z 1005be40 f i WinRTVFS.obj
 0002:0001de90       ??$__abi_winrt_ptrto_delegate_dtor@V?$AsyncOperationCompletedHandler@I@Foundation@Windows@@@@YAXP$ADV?$AsyncOperationCompletedHandler@I@Foundation@Windows@@@Z 1005be90 f i WinRTVFS.obj
 0002:0001dee0       ??$__abi_winrt_ptrto_delegate_dtor@V?$AsyncOperationCompletedHandler@P$AAUIBuffer@Streams@Storage@Windows@@@Foundation@Windows@@@@YAXP$ADV?$AsyncOperationCompletedHandler@P$AAUIBuffer@Streams@Storage@Windows@@@Foundation@Windows@@@Z 1005bee0 f i WinRTVFS.obj
 0002:0001df30       ??$__abi_winrt_ptrto_delegate_dtor@V?$AsyncOperationCompletedHandler@P$AAUIRandomAccessStream@Streams@Storage@Windows@@@Foundation@Windows@@@@YAXP$ADV?$AsyncOperationCompletedHandler@P$AAUIRandomAccessStream@Streams@Storage@Windows@@@Foundation@Windows@@@Z 1005bf30 f i WinRTVFS.obj
 0002:0001df80       ??$__abi_winrt_ptrto_delegate_dtor@V?$AsyncOperationCompletedHandler@P$AAVStorageFile@Storage@Windows@@@Foundation@Windows@@@@YAXP$ADV?$AsyncOperationCompletedHandler@P$AAVStorageFile@Storage@Windows@@@Foundation@Windows@@@Z 1005bf80 f i WinRTVFS.obj
 0002:0001dfd0       ??$__abi_winrt_ptrto_delegate_dtor@V?$AsyncOperationCompletedHandler@P$AAVStorageFolder@Storage@Windows@@@Foundation@Windows@@@@YAXP$ADV?$AsyncOperationCompletedHandler@P$AAVStorageFolder@Storage@Windows@@@Foundation@Windows@@@Z 1005bfd0 f i WinRTVFS.obj
 0002:0001e020       ??$__abi_winrt_ptrto_delegate_dtor@V?$AsyncOperationCompletedHandler@_N@Foundation@Windows@@@@YAXP$ADV?$AsyncOperationCompletedHandler@_N@Foundation@Windows@@@Z 1005c020 f i WinRTVFS.obj
 0002:0001e070       ??$__abi_winrt_ptrto_delegate_dtor@V?$AsyncOperationWithProgressCompletedHandler@II@Foundation@Windows@@@@YAXP$ADV?$AsyncOperationWithProgressCompletedHandler@II@Foundation@Windows@@@Z 1005c070 f i WinRTVFS.obj
 0002:0001e0c0       ??$__abi_winrt_ptrto_delegate_dtor@V?$AsyncOperationWithProgressCompletedHandler@P$AAUIBuffer@Streams@Storage@Windows@@I@Foundation@Windows@@@@YAXP$ADV?$AsyncOperationWithProgressCompletedHandler@P$AAUIBuffer@Streams@Storage@Windows@@I@Foundation@Windows@@@Z 1005c0c0 f i WinRTVFS.obj
 0002:0001e110       ??$__abi_winrt_ptrto_delegate_dtor@VAsyncActionCompletedHandler@Foundation@Windows@@@@YAXP$ADVAsyncActionCompletedHandler@Foundation@Windows@@@Z 1005c110 f i WinRTVFS.obj
 0002:0001e160       ??$__winrt_Empty_Struct@VHResult@Foundation@Windows@@@@YA?AVHResult@Foundation@Windows@@XZ 1005c160 f i WinRTVFS.obj
 0002:0001e210       ??$addressof@$$CBV?$shared_ptr@U?$_Task_impl@E@details@Concurrency@@@std@@@std@@YAPBV?$shared_ptr@U?$_Task_impl@E@details@Concurrency@@@0@ABV10@@Z 1005c210 f i WinRTVFS.obj
 0002:0001e250       ??$atomic_compare_exchange@J@details@Concurrency@@YAJAAU?$atomic@J@std@@JJ@Z 1005c250 f i WinRTVFS.obj
 0002:0001e310       ??$atomic_exchange@J@details@Concurrency@@YAJAAU?$atomic@J@std@@J@Z 1005c310 f i WinRTVFS.obj
 0002:0001e360       ??$construct@U_Container_proxy@std@@U12@@?$_Wrap_alloc@V?$allocator@U_Container_proxy@std@@@std@@@std@@QAEXPAU_Container_proxy@1@$$QAU21@@Z 1005c360 f i WinRTVFS.obj
 0002:0001e3d0       ??$construct@U_Container_proxy@std@@U12@@?$allocator_traits@V?$allocator@U_Container_proxy@std@@@std@@@std@@SAXAAV?$allocator@U_Container_proxy@std@@@1@PAU_Container_proxy@1@$$QAU31@@Z 1005c3d0 f i WinRTVFS.obj
 0002:0001e430       ??$construct@V?$shared_ptr@U?$_Task_impl@E@details@Concurrency@@@std@@AAV12@@?$_Wrap_alloc@V?$allocator@V?$shared_ptr@U?$_Task_impl@E@details@Concurrency@@@std@@@std@@@std@@QAEXPAV?$shared_ptr@U?$_Task_impl@E@details@Concurrency@@@1@AAV21@@Z 1005c430 f i WinRTVFS.obj
 0002:0001e4a0       ??$construct@V?$shared_ptr@U?$_Task_impl@E@details@Concurrency@@@std@@AAV12@@?$allocator@V?$shared_ptr@U?$_Task_impl@E@details@Concurrency@@@std@@@std@@QAEXPAV?$shared_ptr@U?$_Task_impl@E@details@Concurrency@@@1@AAV21@@Z 1005c4a0 f i WinRTVFS.obj
 0002:0001e5a0       ??$construct@V?$shared_ptr@U?$_Task_impl@E@details@Concurrency@@@std@@AAV12@@?$allocator_traits@V?$allocator@V?$shared_ptr@U?$_Task_impl@E@details@Concurrency@@@std@@@std@@@std@@SAXAAV?$allocator@V?$shared_ptr@U?$_Task_impl@E@details@Concurrency@@@std@@@1@PAV?$shared_ptr@U?$_Task_impl@E@details@Concurrency@@@1@AAV31@@Z 1005c5a0 f i WinRTVFS.obj
 0002:0001e600       ??$construct@V?$shared_ptr@U?$_Task_impl@E@details@Concurrency@@@std@@ABV12@@?$_Wrap_alloc@V?$allocator@V?$shared_ptr@U?$_Task_impl@E@details@Concurrency@@@std@@@std@@@std@@QAEXPAV?$shared_ptr@U?$_Task_impl@E@details@Concurrency@@@1@ABV21@@Z 1005c600 f i WinRTVFS.obj
 0002:0001e670       ??$construct@V?$shared_ptr@U?$_Task_impl@E@details@Concurrency@@@std@@ABV12@@?$allocator_traits@V?$allocator@V?$shared_ptr@U?$_Task_impl@E@details@Concurrency@@@std@@@std@@@std@@SAXAAV?$allocator@V?$shared_ptr@U?$_Task_impl@E@details@Concurrency@@@std@@@1@PAV?$shared_ptr@U?$_Task_impl@E@details@Concurrency@@@1@ABV31@@Z 1005c670 f i WinRTVFS.obj
 0002:0001e6d0       ??$construct@V?$shared_ptr@U?$_Task_impl@E@details@Concurrency@@@std@@V12@@?$_Wrap_alloc@V?$allocator@V?$shared_ptr@U?$_Task_impl@E@details@Concurrency@@@std@@@std@@@std@@QAEXPAV?$shared_ptr@U?$_Task_impl@E@details@Concurrency@@@1@$$QAV21@@Z 1005c6d0 f i WinRTVFS.obj
 0002:0001e740       ??$construct@V?$shared_ptr@U?$_Task_impl@E@details@Concurrency@@@std@@V12@@?$allocator@V?$shared_ptr@U?$_Task_impl@E@details@Concurrency@@@std@@@std@@QAEXPAV?$shared_ptr@U?$_Task_impl@E@details@Concurrency@@@1@$$QAV21@@Z 1005c740 f i WinRTVFS.obj
 0002:0001e840       ??$construct@V?$shared_ptr@U?$_Task_impl@E@details@Concurrency@@@std@@V12@@?$allocator_traits@V?$allocator@V?$shared_ptr@U?$_Task_impl@E@details@Concurrency@@@std@@@std@@@std@@SAXAAV?$allocator@V?$shared_ptr@U?$_Task_impl@E@details@Concurrency@@@std@@@1@PAV?$shared_ptr@U?$_Task_impl@E@details@Concurrency@@@1@$$QAV31@@Z 1005c840 f i WinRTVFS.obj
 0002:0001e8a0       ??$create_task@P$AAU?$IAsyncOperation@P$AAUIRandomAccessStream@Streams@Storage@Windows@@@Foundation@Windows@@@Concurrency@@YA?AV?$task@P$AAUIRandomAccessStream@Streams@Storage@Windows@@@0@P$AAU?$IAsyncOperation@P$AAUIRandomAccessStream@Streams@Storage@Windows@@@Foundation@Windows@@Vtask_options@0@@Z 1005c8a0 f i WinRTVFS.obj
 0002:0001ea50       ??$create_task@P$AAU?$IAsyncOperation@P$AAVStorageFile@Storage@Windows@@@Foundation@Windows@@@Concurrency@@YA?AV?$task@P$AAVStorageFile@Storage@Windows@@@0@P$AAU?$IAsyncOperation@P$AAVStorageFile@Storage@Windows@@@Foundation@Windows@@Vtask_options@0@@Z 1005ca50 f i WinRTVFS.obj
 0002:0001ec00       ??$create_task@P$AAU?$IAsyncOperation@P$AAVStorageFolder@Storage@Windows@@@Foundation@Windows@@@Concurrency@@YA?AV?$task@P$AAVStorageFolder@Storage@Windows@@@0@P$AAU?$IAsyncOperation@P$AAVStorageFolder@Storage@Windows@@@Foundation@Windows@@Vtask_options@0@@Z 1005cc00 f i WinRTVFS.obj
 0002:0001edb0       ??$create_task@P$AAU?$IAsyncOperation@_N@Foundation@Windows@@@Concurrency@@YA?AV?$task@_N@0@P$AAU?$IAsyncOperation@_N@Foundation@Windows@@Vtask_options@0@@Z 1005cdb0 f i WinRTVFS.obj
 0002:0001ef60       ??$create_task@P$AAU?$IAsyncOperationWithProgress@II@Foundation@Windows@@@Concurrency@@YA?AV?$task@I@0@P$AAU?$IAsyncOperationWithProgress@II@Foundation@Windows@@Vtask_options@0@@Z 1005cf60 f i WinRTVFS.obj
 0002:0001f110       ??$create_task@P$AAU?$IAsyncOperationWithProgress@P$AAUIBuffer@Streams@Storage@Windows@@I@Foundation@Windows@@@Concurrency@@YA?AV?$task@P$AAUIBuffer@Streams@Storage@Windows@@@0@P$AAU?$IAsyncOperationWithProgress@P$AAUIBuffer@Streams@Storage@Windows@@I@Foundation@Windows@@Vtask_options@0@@Z 1005d110 f i WinRTVFS.obj
 0002:0001f2c0       ??$create_task@P$AAUIAsyncAction@Foundation@Windows@@@Concurrency@@YA?AV?$task@X@0@P$AAUIAsyncAction@Foundation@Windows@@Vtask_options@0@@Z 1005d2c0 f i WinRTVFS.obj
 0002:0001f470       ??$destroy@U_Container_proxy@std@@@?$_Wrap_alloc@V?$allocator@U_Container_proxy@std@@@std@@@std@@QAEXPAU_Container_proxy@1@@Z 1005d470 f i WinRTVFS.obj
 0002:0001f4d0       ??$destroy@U_Container_proxy@std@@@?$allocator_traits@V?$allocator@U_Container_proxy@std@@@std@@@std@@SAXAAV?$allocator@U_Container_proxy@std@@@1@PAU_Container_proxy@1@@Z 1005d4d0 f i WinRTVFS.obj
 0002:0001f520       ??$destroy@V?$_Func_impl@U?$_Callable_obj@V<lambda_02d862f9cfc639ff7c37ca52d43e6a8c>@@$0A@@std@@V?$allocator@V?$_Func_class@X$$$V@std@@@2@X$$$V@std@@@?$allocator@V?$_Func_impl@U?$_Callable_obj@V<lambda_02d862f9cfc639ff7c37ca52d43e6a8c>@@$0A@@std@@V?$allocator@V?$_Func_class@X$$$V@std@@@2@X$$$V@std@@@std@@QAEXPAV?$_Func_impl@U?$_Callable_obj@V<lambda_02d862f9cfc639ff7c37ca52d43e6a8c>@@$0A@@std@@V?$allocator@V?$_Func_class@X$$$V@std@@@2@X$$$V@1@@Z 1005d520 f i WinRTVFS.obj
 0002:0001f590       ??$destroy@V?$_Func_impl@U?$_Callable_obj@V<lambda_095a938ce4c5765dcc6b67f548aeb9c7>@@$0A@@std@@V?$allocator@V?$_Func_class@X$$$V@std@@@2@X$$$V@std@@@?$allocator@V?$_Func_impl@U?$_Callable_obj@V<lambda_095a938ce4c5765dcc6b67f548aeb9c7>@@$0A@@std@@V?$allocator@V?$_Func_class@X$$$V@std@@@2@X$$$V@std@@@std@@QAEXPAV?$_Func_impl@U?$_Callable_obj@V<lambda_095a938ce4c5765dcc6b67f548aeb9c7>@@$0A@@std@@V?$allocator@V?$_Func_class@X$$$V@std@@@2@X$$$V@1@@Z 1005d590 f i WinRTVFS.obj
 0002:0001f600       ??$destroy@V?$_Func_impl@U?$_Callable_obj@V<lambda_0b7f78ec4ced38495cec46e0d346e0b9>@@$0A@@std@@V?$allocator@V?$_Func_class@X$$$V@std@@@2@X$$$V@std@@@?$allocator@V?$_Func_impl@U?$_Callable_obj@V<lambda_0b7f78ec4ced38495cec46e0d346e0b9>@@$0A@@std@@V?$allocator@V?$_Func_class@X$$$V@std@@@2@X$$$V@std@@@std@@QAEXPAV?$_Func_impl@U?$_Callable_obj@V<lambda_0b7f78ec4ced38495cec46e0d346e0b9>@@$0A@@std@@V?$allocator@V?$_Func_class@X$$$V@std@@@2@X$$$V@1@@Z 1005d600 f i WinRTVFS.obj
 0002:0001f670       ??$destroy@V?$_Func_impl@U?$_Callable_obj@V<lambda_0fe479da16d43edb8e9a254c493d643e>@@$0A@@std@@V?$allocator@V?$_Func_class@X$$$V@std@@@2@X$$$V@std@@@?$allocator@V?$_Func_impl@U?$_Callable_obj@V<lambda_0fe479da16d43edb8e9a254c493d643e>@@$0A@@std@@V?$allocator@V?$_Func_class@X$$$V@std@@@2@X$$$V@std@@@std@@QAEXPAV?$_Func_impl@U?$_Callable_obj@V<lambda_0fe479da16d43edb8e9a254c493d643e>@@$0A@@std@@V?$allocator@V?$_Func_class@X$$$V@std@@@2@X$$$V@1@@Z 1005d670 f i WinRTVFS.obj
 0002:0001f6e0       ??$destroy@V?$_Func_impl@U?$_Callable_obj@V<lambda_1a93da980d6fe77644a4eefc4e1ad756>@@$0A@@std@@V?$allocator@V?$_Func_class@XABH@std@@@2@XABH@std@@@?$allocator@V?$_Func_impl@U?$_Callable_obj@V<lambda_1a93da980d6fe77644a4eefc4e1ad756>@@$0A@@std@@V?$allocator@V?$_Func_class@XABH@std@@@2@XABH@std@@@std@@QAEXPAV?$_Func_impl@U?$_Callable_obj@V<lambda_1a93da980d6fe77644a4eefc4e1ad756>@@$0A@@std@@V?$allocator@V?$_Func_class@XABH@std@@@2@XABH@1@@Z 1005d6e0 f i WinRTVFS.obj
 0002:0001f750       ??$destroy@V?$_Func_impl@U?$_Callable_obj@V<lambda_295bc5f846209cba149a5e74d0d63a72>@@$0A@@std@@V?$allocator@V?$_Func_class@XPAV?$message@H@Concurrency@@@std@@@2@XPAV?$message@H@Concurrency@@@std@@@?$allocator@V?$_Func_impl@U?$_Callable_obj@V<lambda_295bc5f846209cba149a5e74d0d63a72>@@$0A@@std@@V?$allocator@V?$_Func_class@XPAV?$message@H@Concurrency@@@std@@@2@XPAV?$message@H@Concurrency@@@std@@@std@@QAEXPAV?$_Func_impl@U?$_Callable_obj@V<lambda_295bc5f846209cba149a5e74d0d63a72>@@$0A@@std@@V?$allocator@V?$_Func_class@XPAV?$message@H@Concurrency@@@std@@@2@XPAV?$message@H@Concurrency@@@1@@Z 1005d750 f i WinRTVFS.obj
 0002:0001f7c0       ??$destroy@V?$_Func_impl@U?$_Callable_obj@V<lambda_364e75aa895e992ae8821732ca646aa2>@@$0A@@std@@V?$allocator@V?$_Func_class@X$$$V@std@@@2@X$$$V@std@@@?$allocator@V?$_Func_impl@U?$_Callable_obj@V<lambda_364e75aa895e992ae8821732ca646aa2>@@$0A@@std@@V?$allocator@V?$_Func_class@X$$$V@std@@@2@X$$$V@std@@@std@@QAEXPAV?$_Func_impl@U?$_Callable_obj@V<lambda_364e75aa895e992ae8821732ca646aa2>@@$0A@@std@@V?$allocator@V?$_Func_class@X$$$V@std@@@2@X$$$V@1@@Z 1005d7c0 f i WinRTVFS.obj
 0002:0001f830       ??$destroy@V?$_Func_impl@U?$_Callable_obj@V<lambda_39cde079c01d1b5b9307ff255a1ccdd9>@@$0A@@std@@V?$allocator@V?$_Func_class@EE@std@@@2@EE@std@@@?$allocator@V?$_Func_impl@U?$_Callable_obj@V<lambda_39cde079c01d1b5b9307ff255a1ccdd9>@@$0A@@std@@V?$allocator@V?$_Func_class@EE@std@@@2@EE@std@@@std@@QAEXPAV?$_Func_impl@U?$_Callable_obj@V<lambda_39cde079c01d1b5b9307ff255a1ccdd9>@@$0A@@std@@V?$allocator@V?$_Func_class@EE@std@@@2@EE@1@@Z 1005d830 f i WinRTVFS.obj
 0002:0001f8a0       ??$destroy@V?$_Func_impl@U?$_Callable_obj@V<lambda_528650821c608ced6534641e311542a5>@@$0A@@std@@V?$allocator@V?$_Func_class@X$$$V@std@@@2@X$$$V@std@@@?$allocator@V?$_Func_impl@U?$_Callable_obj@V<lambda_528650821c608ced6534641e311542a5>@@$0A@@std@@V?$allocator@V?$_Func_class@X$$$V@std@@@2@X$$$V@std@@@std@@QAEXPAV?$_Func_impl@U?$_Callable_obj@V<lambda_528650821c608ced6534641e311542a5>@@$0A@@std@@V?$allocator@V?$_Func_class@X$$$V@std@@@2@X$$$V@1@@Z 1005d8a0 f i WinRTVFS.obj
 0002:0001f910       ??$destroy@V?$_Func_impl@U?$_Callable_obj@V<lambda_579ccd68d569251046038e8620afec85>@@$0A@@std@@V?$allocator@V?$_Func_class@XPAV?$message@H@Concurrency@@@std@@@2@XPAV?$message@H@Concurrency@@@std@@@?$allocator@V?$_Func_impl@U?$_Callable_obj@V<lambda_579ccd68d569251046038e8620afec85>@@$0A@@std@@V?$allocator@V?$_Func_class@XPAV?$message@H@Concurrency@@@std@@@2@XPAV?$message@H@Concurrency@@@std@@@std@@QAEXPAV?$_Func_impl@U?$_Callable_obj@V<lambda_579ccd68d569251046038e8620afec85>@@$0A@@std@@V?$allocator@V?$_Func_class@XPAV?$message@H@Concurrency@@@std@@@2@XPAV?$message@H@Concurrency@@@1@@Z 1005d910 f i WinRTVFS.obj
 0002:0001f980       ??$destroy@V?$_Func_impl@U?$_Callable_obj@V<lambda_9fc58f08a03183e50e06176727aeb396>@@$0A@@std@@V?$allocator@V?$_Func_class@X$$$V@std@@@2@X$$$V@std@@@?$allocator@V?$_Func_impl@U?$_Callable_obj@V<lambda_9fc58f08a03183e50e06176727aeb396>@@$0A@@std@@V?$allocator@V?$_Func_class@X$$$V@std@@@2@X$$$V@std@@@std@@QAEXPAV?$_Func_impl@U?$_Callable_obj@V<lambda_9fc58f08a03183e50e06176727aeb396>@@$0A@@std@@V?$allocator@V?$_Func_class@X$$$V@std@@@2@X$$$V@1@@Z 1005d980 f i WinRTVFS.obj
 0002:0001f9f0       ??$destroy@V?$_Func_impl@U?$_Callable_obj@V<lambda_a66b3ee15e662226a0b0b15ae647d32f>@@$0A@@std@@V?$allocator@V?$_Func_class@X$$$V@std@@@2@X$$$V@std@@@?$allocator@V?$_Func_impl@U?$_Callable_obj@V<lambda_a66b3ee15e662226a0b0b15ae647d32f>@@$0A@@std@@V?$allocator@V?$_Func_class@X$$$V@std@@@2@X$$$V@std@@@std@@QAEXPAV?$_Func_impl@U?$_Callable_obj@V<lambda_a66b3ee15e662226a0b0b15ae647d32f>@@$0A@@std@@V?$allocator@V?$_Func_class@X$$$V@std@@@2@X$$$V@1@@Z 1005d9f0 f i WinRTVFS.obj
 0002:0001fa60       ??$destroy@V?$_Func_impl@U?$_Callable_obj@V<lambda_c1a554f2383dae03f169289aed8c4103>@@$0A@@std@@V?$allocator@V?$_Func_class@X$$$V@std@@@2@X$$$V@std@@@?$allocator@V?$_Func_impl@U?$_Callable_obj@V<lambda_c1a554f2383dae03f169289aed8c4103>@@$0A@@std@@V?$allocator@V?$_Func_class@X$$$V@std@@@2@X$$$V@std@@@std@@QAEXPAV?$_Func_impl@U?$_Callable_obj@V<lambda_c1a554f2383dae03f169289aed8c4103>@@$0A@@std@@V?$allocator@V?$_Func_class@X$$$V@std@@@2@X$$$V@1@@Z 1005da60 f i WinRTVFS.obj
 0002:0001fad0       ??$destroy@V?$_Func_impl@U?$_Callable_obj@V<lambda_c28a53003ed51cdfe295a7d756f98c2f>@@$0A@@std@@V?$allocator@V?$_Func_class@XPAV?$message@H@Concurrency@@@std@@@2@XPAV?$message@H@Concurrency@@@std@@@?$allocator@V?$_Func_impl@U?$_Callable_obj@V<lambda_c28a53003ed51cdfe295a7d756f98c2f>@@$0A@@std@@V?$allocator@V?$_Func_class@XPAV?$message@H@Concurrency@@@std@@@2@XPAV?$message@H@Concurrency@@@std@@@std@@QAEXPAV?$_Func_impl@U?$_Callable_obj@V<lambda_c28a53003ed51cdfe295a7d756f98c2f>@@$0A@@std@@V?$allocator@V?$_Func_class@XPAV?$message@H@Concurrency@@@std@@@2@XPAV?$message@H@Concurrency@@@1@@Z 1005dad0 f i WinRTVFS.obj
 0002:0001fb40       ??$destroy@V?$_Func_impl@U?$_Callable_obj@V<lambda_e7ef5f1e4e1eca0ae8efc6086cf9f417>@@$0A@@std@@V?$allocator@V?$_Func_class@X$$$V@std@@@2@X$$$V@std@@@?$allocator@V?$_Func_impl@U?$_Callable_obj@V<lambda_e7ef5f1e4e1eca0ae8efc6086cf9f417>@@$0A@@std@@V?$allocator@V?$_Func_class@X$$$V@std@@@2@X$$$V@std@@@std@@QAEXPAV?$_Func_impl@U?$_Callable_obj@V<lambda_e7ef5f1e4e1eca0ae8efc6086cf9f417>@@$0A@@std@@V?$allocator@V?$_Func_class@X$$$V@std@@@2@X$$$V@1@@Z 1005db40 f i WinRTVFS.obj
 0002:0001fbb0       ??$destroy@V?$shared_ptr@U?$_Task_impl@E@details@Concurrency@@@std@@@?$_Wrap_alloc@V?$allocator@V?$shared_ptr@U?$_Task_impl@E@details@Concurrency@@@std@@@std@@@std@@QAEXPAV?$shared_ptr@U?$_Task_impl@E@details@Concurrency@@@1@@Z 1005dbb0 f i WinRTVFS.obj
 0002:0001fc10       ??$destroy@V?$shared_ptr@U?$_Task_impl@E@details@Concurrency@@@std@@@?$allocator@V?$shared_ptr@U?$_Task_impl@E@details@Concurrency@@@std@@@std@@QAEXPAV?$shared_ptr@U?$_Task_impl@E@details@Concurrency@@@1@@Z 1005dc10 f i WinRTVFS.obj
 0002:0001fc70       ??$destroy@V?$shared_ptr@U?$_Task_impl@E@details@Concurrency@@@std@@@?$allocator_traits@V?$allocator@V?$shared_ptr@U?$_Task_impl@E@details@Concurrency@@@std@@@std@@@std@@SAXAAV?$allocator@V?$shared_ptr@U?$_Task_impl@E@details@Concurrency@@@std@@@1@PAV?$shared_ptr@U?$_Task_impl@E@details@Concurrency@@@1@@Z 1005dc70 f i WinRTVFS.obj
 0002:0001fcc0       ??$forward@AAP$AAVException@Platform@@@std@@YAAAP$AAVException@Platform@@AAP$AAV12@@Z 1005dcc0 f i WinRTVFS.obj
 0002:0001fd00       ??$forward@AAPAV_CancellationTokenState@details@Concurrency@@@std@@YAAAPAV_CancellationTokenState@details@Concurrency@@AAPAV123@@Z 1005dd00 f i WinRTVFS.obj
 0002:0001fd40       ??$forward@AAU?$_Callable_obj@V<lambda_02d862f9cfc639ff7c37ca52d43e6a8c>@@$0A@@std@@@std@@YAAAU?$_Callable_obj@V<lambda_02d862f9cfc639ff7c37ca52d43e6a8c>@@$0A@@0@AAU10@@Z 1005dd40 f i WinRTVFS.obj
 0002:0001fd80       ??$forward@AAU?$_Callable_obj@V<lambda_095a938ce4c5765dcc6b67f548aeb9c7>@@$0A@@std@@@std@@YAAAU?$_Callable_obj@V<lambda_095a938ce4c5765dcc6b67f548aeb9c7>@@$0A@@0@AAU10@@Z 1005dd80 f i WinRTVFS.obj
 0002:0001fdc0       ??$forward@AAU?$_Callable_obj@V<lambda_0b7f78ec4ced38495cec46e0d346e0b9>@@$0A@@std@@@std@@YAAAU?$_Callable_obj@V<lambda_0b7f78ec4ced38495cec46e0d346e0b9>@@$0A@@0@AAU10@@Z 1005ddc0 f i WinRTVFS.obj
 0002:0001fe00       ??$forward@AAU?$_Callable_obj@V<lambda_0fe479da16d43edb8e9a254c493d643e>@@$0A@@std@@@std@@YAAAU?$_Callable_obj@V<lambda_0fe479da16d43edb8e9a254c493d643e>@@$0A@@0@AAU10@@Z 1005de00 f i WinRTVFS.obj
 0002:0001fe40       ??$forward@AAU?$_Callable_obj@V<lambda_1a93da980d6fe77644a4eefc4e1ad756>@@$0A@@std@@@std@@YAAAU?$_Callable_obj@V<lambda_1a93da980d6fe77644a4eefc4e1ad756>@@$0A@@0@AAU10@@Z 1005de40 f i WinRTVFS.obj
 0002:0001fe80       ??$forward@AAU?$_Callable_obj@V<lambda_295bc5f846209cba149a5e74d0d63a72>@@$0A@@std@@@std@@YAAAU?$_Callable_obj@V<lambda_295bc5f846209cba149a5e74d0d63a72>@@$0A@@0@AAU10@@Z 1005de80 f i WinRTVFS.obj
 0002:0001fec0       ??$forward@AAU?$_Callable_obj@V<lambda_364e75aa895e992ae8821732ca646aa2>@@$0A@@std@@@std@@YAAAU?$_Callable_obj@V<lambda_364e75aa895e992ae8821732ca646aa2>@@$0A@@0@AAU10@@Z 1005dec0 f i WinRTVFS.obj
 0002:0001ff00       ??$forward@AAU?$_Callable_obj@V<lambda_39cde079c01d1b5b9307ff255a1ccdd9>@@$0A@@std@@@std@@YAAAU?$_Callable_obj@V<lambda_39cde079c01d1b5b9307ff255a1ccdd9>@@$0A@@0@AAU10@@Z 1005df00 f i WinRTVFS.obj
 0002:0001ff40       ??$forward@AAU?$_Callable_obj@V<lambda_528650821c608ced6534641e311542a5>@@$0A@@std@@@std@@YAAAU?$_Callable_obj@V<lambda_528650821c608ced6534641e311542a5>@@$0A@@0@AAU10@@Z 1005df40 f i WinRTVFS.obj
 0002:0001ff80       ??$forward@AAU?$_Callable_obj@V<lambda_579ccd68d569251046038e8620afec85>@@$0A@@std@@@std@@YAAAU?$_Callable_obj@V<lambda_579ccd68d569251046038e8620afec85>@@$0A@@0@AAU10@@Z 1005df80 f i WinRTVFS.obj
 0002:0001ffc0       ??$forward@AAU?$_Callable_obj@V<lambda_9fc58f08a03183e50e06176727aeb396>@@$0A@@std@@@std@@YAAAU?$_Callable_obj@V<lambda_9fc58f08a03183e50e06176727aeb396>@@$0A@@0@AAU10@@Z 1005dfc0 f i WinRTVFS.obj
 0002:00020000       ??$forward@AAU?$_Callable_obj@V<lambda_a66b3ee15e662226a0b0b15ae647d32f>@@$0A@@std@@@std@@YAAAU?$_Callable_obj@V<lambda_a66b3ee15e662226a0b0b15ae647d32f>@@$0A@@0@AAU10@@Z 1005e000 f i WinRTVFS.obj
 0002:00020040       ??$forward@AAU?$_Callable_obj@V<lambda_c1a554f2383dae03f169289aed8c4103>@@$0A@@std@@@std@@YAAAU?$_Callable_obj@V<lambda_c1a554f2383dae03f169289aed8c4103>@@$0A@@0@AAU10@@Z 1005e040 f i WinRTVFS.obj
 0002:00020080       ??$forward@AAU?$_Callable_obj@V<lambda_c28a53003ed51cdfe295a7d756f98c2f>@@$0A@@std@@@std@@YAAAU?$_Callable_obj@V<lambda_c28a53003ed51cdfe295a7d756f98c2f>@@$0A@@0@AAU10@@Z 1005e080 f i WinRTVFS.obj
 0002:000200c0       ??$forward@AAU?$_Callable_obj@V<lambda_e7ef5f1e4e1eca0ae8efc6086cf9f417>@@$0A@@std@@@std@@YAAAU?$_Callable_obj@V<lambda_e7ef5f1e4e1eca0ae8efc6086cf9f417>@@$0A@@0@AAU10@@Z 1005e0c0 f i WinRTVFS.obj
 0002:00020100       ??$forward@AAUscheduler_ptr@Concurrency@@@std@@YAAAUscheduler_ptr@Concurrency@@AAU12@@Z 1005e100 f i WinRTVFS.obj
 0002:00020140       ??$forward@AAV?$shared_ptr@U?$_Task_impl@E@details@Concurrency@@@std@@@std@@YAAAV?$shared_ptr@U?$_Task_impl@E@details@Concurrency@@@0@AAV10@@Z 1005e140 f i WinRTVFS.obj
 0002:00020180       ??$forward@ABH@std@@YAABHABH@Z 1005e180 f i WinRTVFS.obj
 0002:000201c0       ??$forward@ABV<lambda_9fc58f08a03183e50e06176727aeb396>@@@std@@YAABV<lambda_9fc58f08a03183e50e06176727aeb396>@@ABV1@@Z 1005e1c0 f i WinRTVFS.obj
 0002:00020200       ??$forward@ABV?$shared_ptr@U?$_Task_impl@E@details@Concurrency@@@std@@@std@@YAABV?$shared_ptr@U?$_Task_impl@E@details@Concurrency@@@0@ABV10@@Z 1005e200 f i WinRTVFS.obj
 0002:00020240       ??$forward@ABVexception_ptr@std@@@std@@YAABVexception_ptr@0@ABV10@@Z 1005e240 f i WinRTVFS.obj
 0002:00020280       ??$forward@E@std@@YA$$QAEAAE@Z 1005e280 f i WinRTVFS.obj
 0002:000202c0       ??$forward@PAV?$message@H@Concurrency@@@std@@YA$$QAPAV?$message@H@Concurrency@@AAPAV12@@Z 1005e2c0 f i WinRTVFS.obj
 0002:00020300       ??$forward@U?$_Callable_obj@V<lambda_02d862f9cfc639ff7c37ca52d43e6a8c>@@$0A@@std@@@std@@YA$$QAU?$_Callable_obj@V<lambda_02d862f9cfc639ff7c37ca52d43e6a8c>@@$0A@@0@AAU10@@Z 1005e300 f i WinRTVFS.obj
 0002:00020340       ??$forward@U?$_Callable_obj@V<lambda_095a938ce4c5765dcc6b67f548aeb9c7>@@$0A@@std@@@std@@YA$$QAU?$_Callable_obj@V<lambda_095a938ce4c5765dcc6b67f548aeb9c7>@@$0A@@0@AAU10@@Z 1005e340 f i WinRTVFS.obj
 0002:00020380       ??$forward@U?$_Callable_obj@V<lambda_0b7f78ec4ced38495cec46e0d346e0b9>@@$0A@@std@@@std@@YA$$QAU?$_Callable_obj@V<lambda_0b7f78ec4ced38495cec46e0d346e0b9>@@$0A@@0@AAU10@@Z 1005e380 f i WinRTVFS.obj
 0002:000203c0       ??$forward@U?$_Callable_obj@V<lambda_0fe479da16d43edb8e9a254c493d643e>@@$0A@@std@@@std@@YA$$QAU?$_Callable_obj@V<lambda_0fe479da16d43edb8e9a254c493d643e>@@$0A@@0@AAU10@@Z 1005e3c0 f i WinRTVFS.obj
 0002:00020400       ??$forward@U?$_Callable_obj@V<lambda_1a93da980d6fe77644a4eefc4e1ad756>@@$0A@@std@@@std@@YA$$QAU?$_Callable_obj@V<lambda_1a93da980d6fe77644a4eefc4e1ad756>@@$0A@@0@AAU10@@Z 1005e400 f i WinRTVFS.obj
 0002:00020440       ??$forward@U?$_Callable_obj@V<lambda_295bc5f846209cba149a5e74d0d63a72>@@$0A@@std@@@std@@YA$$QAU?$_Callable_obj@V<lambda_295bc5f846209cba149a5e74d0d63a72>@@$0A@@0@AAU10@@Z 1005e440 f i WinRTVFS.obj
 0002:00020480       ??$forward@U?$_Callable_obj@V<lambda_364e75aa895e992ae8821732ca646aa2>@@$0A@@std@@@std@@YA$$QAU?$_Callable_obj@V<lambda_364e75aa895e992ae8821732ca646aa2>@@$0A@@0@AAU10@@Z 1005e480 f i WinRTVFS.obj
 0002:000204c0       ??$forward@U?$_Callable_obj@V<lambda_39cde079c01d1b5b9307ff255a1ccdd9>@@$0A@@std@@@std@@YA$$QAU?$_Callable_obj@V<lambda_39cde079c01d1b5b9307ff255a1ccdd9>@@$0A@@0@AAU10@@Z 1005e4c0 f i WinRTVFS.obj
 0002:00020500       ??$forward@U?$_Callable_obj@V<lambda_528650821c608ced6534641e311542a5>@@$0A@@std@@@std@@YA$$QAU?$_Callable_obj@V<lambda_528650821c608ced6534641e311542a5>@@$0A@@0@AAU10@@Z 1005e500 f i WinRTVFS.obj
 0002:00020540       ??$forward@U?$_Callable_obj@V<lambda_579ccd68d569251046038e8620afec85>@@$0A@@std@@@std@@YA$$QAU?$_Callable_obj@V<lambda_579ccd68d569251046038e8620afec85>@@$0A@@0@AAU10@@Z 1005e540 f i WinRTVFS.obj
 0002:00020580       ??$forward@U?$_Callable_obj@V<lambda_9fc58f08a03183e50e06176727aeb396>@@$0A@@std@@@std@@YA$$QAU?$_Callable_obj@V<lambda_9fc58f08a03183e50e06176727aeb396>@@$0A@@0@AAU10@@Z 1005e580 f i WinRTVFS.obj
 0002:000205c0       ??$forward@U?$_Callable_obj@V<lambda_a66b3ee15e662226a0b0b15ae647d32f>@@$0A@@std@@@std@@YA$$QAU?$_Callable_obj@V<lambda_a66b3ee15e662226a0b0b15ae647d32f>@@$0A@@0@AAU10@@Z 1005e5c0 f i WinRTVFS.obj
 0002:00020600       ??$forward@U?$_Callable_obj@V<lambda_c1a554f2383dae03f169289aed8c4103>@@$0A@@std@@@std@@YA$$QAU?$_Callable_obj@V<lambda_c1a554f2383dae03f169289aed8c4103>@@$0A@@0@AAU10@@Z 1005e600 f i WinRTVFS.obj
 0002:00020640       ??$forward@U?$_Callable_obj@V<lambda_c28a53003ed51cdfe295a7d756f98c2f>@@$0A@@std@@@std@@YA$$QAU?$_Callable_obj@V<lambda_c28a53003ed51cdfe295a7d756f98c2f>@@$0A@@0@AAU10@@Z 1005e640 f i WinRTVFS.obj
 0002:00020680       ??$forward@U?$_Callable_obj@V<lambda_e7ef5f1e4e1eca0ae8efc6086cf9f417>@@$0A@@std@@@std@@YA$$QAU?$_Callable_obj@V<lambda_e7ef5f1e4e1eca0ae8efc6086cf9f417>@@$0A@@0@AAU10@@Z 1005e680 f i WinRTVFS.obj
 0002:000206c0       ??$forward@V<lambda_02d862f9cfc639ff7c37ca52d43e6a8c>@@@std@@YA$$QAV<lambda_02d862f9cfc639ff7c37ca52d43e6a8c>@@AAV1@@Z 1005e6c0 f i WinRTVFS.obj
 0002:00020700       ??$forward@V<lambda_095a938ce4c5765dcc6b67f548aeb9c7>@@@std@@YA$$QAV<lambda_095a938ce4c5765dcc6b67f548aeb9c7>@@AAV1@@Z 1005e700 f i WinRTVFS.obj
 0002:00020740       ??$forward@V<lambda_0b7f78ec4ced38495cec46e0d346e0b9>@@@std@@YA$$QAV<lambda_0b7f78ec4ced38495cec46e0d346e0b9>@@AAV1@@Z 1005e740 f i WinRTVFS.obj
 0002:00020780       ??$forward@V<lambda_0fe479da16d43edb8e9a254c493d643e>@@@std@@YA$$QAV<lambda_0fe479da16d43edb8e9a254c493d643e>@@AAV1@@Z 1005e780 f i WinRTVFS.obj
 0002:000207c0       ??$forward@V<lambda_1a93da980d6fe77644a4eefc4e1ad756>@@@std@@YA$$QAV<lambda_1a93da980d6fe77644a4eefc4e1ad756>@@AAV1@@Z 1005e7c0 f i WinRTVFS.obj
 0002:00020800       ??$forward@V<lambda_295bc5f846209cba149a5e74d0d63a72>@@@std@@YA$$QAV<lambda_295bc5f846209cba149a5e74d0d63a72>@@AAV1@@Z 1005e800 f i WinRTVFS.obj
 0002:00020840       ??$forward@V<lambda_364e75aa895e992ae8821732ca646aa2>@@@std@@YA$$QAV<lambda_364e75aa895e992ae8821732ca646aa2>@@AAV1@@Z 1005e840 f i WinRTVFS.obj
 0002:00020880       ??$forward@V<lambda_39cde079c01d1b5b9307ff255a1ccdd9>@@@std@@YA$$QAV<lambda_39cde079c01d1b5b9307ff255a1ccdd9>@@AAV1@@Z 1005e880 f i WinRTVFS.obj
 0002:000208c0       ??$forward@V<lambda_528650821c608ced6534641e311542a5>@@@std@@YA$$QAV<lambda_528650821c608ced6534641e311542a5>@@AAV1@@Z 1005e8c0 f i WinRTVFS.obj
 0002:00020900       ??$forward@V<lambda_579ccd68d569251046038e8620afec85>@@@std@@YA$$QAV<lambda_579ccd68d569251046038e8620afec85>@@AAV1@@Z 1005e900 f i WinRTVFS.obj
 0002:00020940       ??$forward@V<lambda_a66b3ee15e662226a0b0b15ae647d32f>@@@std@@YA$$QAV<lambda_a66b3ee15e662226a0b0b15ae647d32f>@@AAV1@@Z 1005e940 f i WinRTVFS.obj
 0002:00020980       ??$forward@V<lambda_c1a554f2383dae03f169289aed8c4103>@@@std@@YA$$QAV<lambda_c1a554f2383dae03f169289aed8c4103>@@AAV1@@Z 1005e980 f i WinRTVFS.obj
 0002:000209c0       ??$forward@V<lambda_c28a53003ed51cdfe295a7d756f98c2f>@@@std@@YA$$QAV<lambda_c28a53003ed51cdfe295a7d756f98c2f>@@AAV1@@Z 1005e9c0 f i WinRTVFS.obj
 0002:00020a00       ??$forward@V<lambda_e7ef5f1e4e1eca0ae8efc6086cf9f417>@@@std@@YA$$QAV<lambda_e7ef5f1e4e1eca0ae8efc6086cf9f417>@@AAV1@@Z 1005ea00 f i WinRTVFS.obj
 0002:00020a40       ??$forward@V?$_Ptr_base@U?$_Task_completion_event_impl@E@details@Concurrency@@@std@@@std@@YA$$QAV?$_Ptr_base@U?$_Task_completion_event_impl@E@details@Concurrency@@@0@AAV10@@Z 1005ea40 f i WinRTVFS.obj
 0002:00020a80       ??$forward@V?$_Ptr_base@U?$_Task_impl@E@details@Concurrency@@@std@@@std@@YA$$QAV?$_Ptr_base@U?$_Task_impl@E@details@Concurrency@@@0@AAV10@@Z 1005ea80 f i WinRTVFS.obj
 0002:00020ac0       ??$forward@V?$_Ptr_base@U?$_Task_impl@I@details@Concurrency@@@std@@@std@@YA$$QAV?$_Ptr_base@U?$_Task_impl@I@details@Concurrency@@@0@AAV10@@Z 1005eac0 f i WinRTVFS.obj
 0002:00020b00       ??$forward@V?$_Ptr_base@U?$_Task_impl@P$AAUIBuffer@Streams@Storage@Windows@@@details@Concurrency@@@std@@@std@@YA$$QAV?$_Ptr_base@U?$_Task_impl@P$AAUIBuffer@Streams@Storage@Windows@@@details@Concurrency@@@0@AAV10@@Z 1005eb00 f i WinRTVFS.obj
 0002:00020b40       ??$forward@V?$_Ptr_base@U?$_Task_impl@P$AAUIRandomAccessStream@Streams@Storage@Windows@@@details@Concurrency@@@std@@@std@@YA$$QAV?$_Ptr_base@U?$_Task_impl@P$AAUIRandomAccessStream@Streams@Storage@Windows@@@details@Concurrency@@@0@AAV10@@Z 1005eb40 f i WinRTVFS.obj
 0002:00020b80       ??$forward@V?$_Ptr_base@U?$_Task_impl@P$AAVStorageFile@Storage@Windows@@@details@Concurrency@@@std@@@std@@YA$$QAV?$_Ptr_base@U?$_Task_impl@P$AAVStorageFile@Storage@Windows@@@details@Concurrency@@@0@AAV10@@Z 1005eb80 f i WinRTVFS.obj
 0002:00020bc0       ??$forward@V?$_Ptr_base@U?$_Task_impl@P$AAVStorageFolder@Storage@Windows@@@details@Concurrency@@@std@@@std@@YA$$QAV?$_Ptr_base@U?$_Task_impl@P$AAVStorageFolder@Storage@Windows@@@details@Concurrency@@@0@AAV10@@Z 1005ebc0 f i WinRTVFS.obj
 0002:00020c00       ??$forward@V?$_Ptr_base@U?$_Task_impl@_N@details@Concurrency@@@std@@@std@@YA$$QAV?$_Ptr_base@U?$_Task_impl@_N@details@Concurrency@@@0@AAV10@@Z 1005ec00 f i WinRTVFS.obj
 0002:00020c40       ??$forward@V?$_Ptr_base@U_ExceptionHolder@details@Concurrency@@@std@@@std@@YA$$QAV?$_Ptr_base@U_ExceptionHolder@details@Concurrency@@@0@AAV10@@Z 1005ec40 f i WinRTVFS.obj
 0002:00020c80       ??$forward@V?$_Ptr_base@Uscheduler_interface@Concurrency@@@std@@@std@@YA$$QAV?$_Ptr_base@Uscheduler_interface@Concurrency@@@0@AAV10@@Z 1005ec80 f i WinRTVFS.obj
 0002:00020cc0       ??$forward@V?$shared_ptr@U?$_Task_completion_event_impl@E@details@Concurrency@@@std@@@std@@YA$$QAV?$shared_ptr@U?$_Task_completion_event_impl@E@details@Concurrency@@@0@AAV10@@Z 1005ecc0 f i WinRTVFS.obj
 0002:00020d00       ??$forward@V?$shared_ptr@U?$_Task_impl@E@details@Concurrency@@@std@@@std@@YA$$QAV?$shared_ptr@U?$_Task_impl@E@details@Concurrency@@@0@AAV10@@Z 1005ed00 f i WinRTVFS.obj
 0002:00020d40       ??$forward@V?$shared_ptr@U?$_Task_impl@I@details@Concurrency@@@std@@@std@@YA$$QAV?$shared_ptr@U?$_Task_impl@I@details@Concurrency@@@0@AAV10@@Z 1005ed40 f i WinRTVFS.obj
 0002:00020d80       ??$forward@V?$shared_ptr@U?$_Task_impl@P$AAUIBuffer@Streams@Storage@Windows@@@details@Concurrency@@@std@@@std@@YA$$QAV?$shared_ptr@U?$_Task_impl@P$AAUIBuffer@Streams@Storage@Windows@@@details@Concurrency@@@0@AAV10@@Z 1005ed80 f i WinRTVFS.obj
 0002:00020dc0       ??$forward@V?$shared_ptr@U?$_Task_impl@P$AAUIRandomAccessStream@Streams@Storage@Windows@@@details@Concurrency@@@std@@@std@@YA$$QAV?$shared_ptr@U?$_Task_impl@P$AAUIRandomAccessStream@Streams@Storage@Windows@@@details@Concurrency@@@0@AAV10@@Z 1005edc0 f i WinRTVFS.obj
 0002:00020e00       ??$forward@V?$shared_ptr@U?$_Task_impl@P$AAVStorageFile@Storage@Windows@@@details@Concurrency@@@std@@@std@@YA$$QAV?$shared_ptr@U?$_Task_impl@P$AAVStorageFile@Storage@Windows@@@details@Concurrency@@@0@AAV10@@Z 1005ee00 f i WinRTVFS.obj
 0002:00020e40       ??$forward@V?$shared_ptr@U?$_Task_impl@P$AAVStorageFolder@Storage@Windows@@@details@Concurrency@@@std@@@std@@YA$$QAV?$shared_ptr@U?$_Task_impl@P$AAVStorageFolder@Storage@Windows@@@details@Concurrency@@@0@AAV10@@Z 1005ee40 f i WinRTVFS.obj
 0002:00020e80       ??$forward@V?$shared_ptr@U?$_Task_impl@_N@details@Concurrency@@@std@@@std@@YA$$QAV?$shared_ptr@U?$_Task_impl@_N@details@Concurrency@@@0@AAV10@@Z 1005ee80 f i WinRTVFS.obj
 0002:00020ec0       ??$forward@V?$shared_ptr@U_ExceptionHolder@details@Concurrency@@@std@@@std@@YA$$QAV?$shared_ptr@U_ExceptionHolder@details@Concurrency@@@0@AAV10@@Z 1005eec0 f i WinRTVFS.obj
 0002:00020f00       ??$forward@V?$shared_ptr@Uscheduler_interface@Concurrency@@@std@@@std@@YA$$QAV?$shared_ptr@Uscheduler_interface@Concurrency@@@0@AAV10@@Z 1005ef00 f i WinRTVFS.obj
 0002:00020f40       ??$forward@V_TaskCreationCallstack@details@Concurrency@@@std@@YA$$QAV_TaskCreationCallstack@details@Concurrency@@AAV123@@Z 1005ef40 f i WinRTVFS.obj
 0002:00020f80       ??$make_shared@U?$_Task_completion_event_impl@E@details@Concurrency@@$$$V@std@@YA?AV?$shared_ptr@U?$_Task_completion_event_impl@E@details@Concurrency@@@0@XZ 1005ef80 f i WinRTVFS.obj
 0002:00021130       ??$make_shared@U?$_Task_impl@E@details@Concurrency@@AAPAV_CancellationTokenState@23@AAUscheduler_ptr@3@@std@@YA?AV?$shared_ptr@U?$_Task_impl@E@details@Concurrency@@@0@AAPAV_CancellationTokenState@details@Concurrency@@AAUscheduler_ptr@4@@Z 1005f130 f i WinRTVFS.obj
 0002:00021300       ??$make_shared@U?$_Task_impl@I@details@Concurrency@@AAPAV_CancellationTokenState@23@AAUscheduler_ptr@3@@std@@YA?AV?$shared_ptr@U?$_Task_impl@I@details@Concurrency@@@0@AAPAV_CancellationTokenState@details@Concurrency@@AAUscheduler_ptr@4@@Z 1005f300 f i WinRTVFS.obj
 0002:000214d0       ??$make_shared@U?$_Task_impl@P$AAUIBuffer@Streams@Storage@Windows@@@details@Concurrency@@AAPAV_CancellationTokenState@23@AAUscheduler_ptr@3@@std@@YA?AV?$shared_ptr@U?$_Task_impl@P$AAUIBuffer@Streams@Storage@Windows@@@details@Concurrency@@@0@AAPAV_CancellationTokenState@details@Concurrency@@AAUscheduler_ptr@4@@Z 1005f4d0 f i WinRTVFS.obj
 0002:000216a0       ??$make_shared@U?$_Task_impl@P$AAUIRandomAccessStream@Streams@Storage@Windows@@@details@Concurrency@@AAPAV_CancellationTokenState@23@AAUscheduler_ptr@3@@std@@YA?AV?$shared_ptr@U?$_Task_impl@P$AAUIRandomAccessStream@Streams@Storage@Windows@@@details@Concurrency@@@0@AAPAV_CancellationTokenState@details@Concurrency@@AAUscheduler_ptr@4@@Z 1005f6a0 f i WinRTVFS.obj
 0002:00021870       ??$make_shared@U?$_Task_impl@P$AAVStorageFile@Storage@Windows@@@details@Concurrency@@AAPAV_CancellationTokenState@23@AAUscheduler_ptr@3@@std@@YA?AV?$shared_ptr@U?$_Task_impl@P$AAVStorageFile@Storage@Windows@@@details@Concurrency@@@0@AAPAV_CancellationTokenState@details@Concurrency@@AAUscheduler_ptr@4@@Z 1005f870 f i WinRTVFS.obj
 0002:00021a40       ??$make_shared@U?$_Task_impl@P$AAVStorageFolder@Storage@Windows@@@details@Concurrency@@AAPAV_CancellationTokenState@23@AAUscheduler_ptr@3@@std@@YA?AV?$shared_ptr@U?$_Task_impl@P$AAVStorageFolder@Storage@Windows@@@details@Concurrency@@@0@AAPAV_CancellationTokenState@details@Concurrency@@AAUscheduler_ptr@4@@Z 1005fa40 f i WinRTVFS.obj
 0002:00021c10       ??$make_shared@U?$_Task_impl@_N@details@Concurrency@@AAPAV_CancellationTokenState@23@AAUscheduler_ptr@3@@std@@YA?AV?$shared_ptr@U?$_Task_impl@_N@details@Concurrency@@@0@AAPAV_CancellationTokenState@details@Concurrency@@AAUscheduler_ptr@4@@Z 1005fc10 f i WinRTVFS.obj
 0002:00021de0       ??$make_shared@U_ExceptionHolder@details@Concurrency@@AAP$AAVException@Platform@@V_TaskCreationCallstack@23@@std@@YA?AV?$shared_ptr@U_ExceptionHolder@details@Concurrency@@@0@AAP$AAVException@Platform@@$$QAV_TaskCreationCallstack@details@Concurrency@@@Z 1005fde0 f i WinRTVFS.obj
 0002:00021fb0       ??$make_shared@U_ExceptionHolder@details@Concurrency@@ABVexception_ptr@std@@V_TaskCreationCallstack@23@@std@@YA?AV?$shared_ptr@U_ExceptionHolder@details@Concurrency@@@0@ABVexception_ptr@0@$$QAV_TaskCreationCallstack@details@Concurrency@@@Z 1005ffb0 f i WinRTVFS.obj
 0002:00022180       ??$move@AAPAV?$message@H@Concurrency@@@std@@YA$$QAPAV?$message@H@Concurrency@@AAPAV12@@Z 10060180 f i WinRTVFS.obj
 0002:000221c0       ??$move@AAV?$_Func_impl@U?$_Callable_obj@V<lambda_02d862f9cfc639ff7c37ca52d43e6a8c>@@$0A@@std@@V?$allocator@V?$_Func_class@X$$$V@std@@@2@X$$$V@std@@@std@@YA$$QAV?$_Func_impl@U?$_Callable_obj@V<lambda_02d862f9cfc639ff7c37ca52d43e6a8c>@@$0A@@std@@V?$allocator@V?$_Func_class@X$$$V@std@@@2@X$$$V@0@AAV10@@Z 100601c0 f i WinRTVFS.obj
 0002:00022200       ??$move@AAV?$_Func_impl@U?$_Callable_obj@V<lambda_095a938ce4c5765dcc6b67f548aeb9c7>@@$0A@@std@@V?$allocator@V?$_Func_class@X$$$V@std@@@2@X$$$V@std@@@std@@YA$$QAV?$_Func_impl@U?$_Callable_obj@V<lambda_095a938ce4c5765dcc6b67f548aeb9c7>@@$0A@@std@@V?$allocator@V?$_Func_class@X$$$V@std@@@2@X$$$V@0@AAV10@@Z 10060200 f i WinRTVFS.obj
 0002:00022240       ??$move@AAV?$_Func_impl@U?$_Callable_obj@V<lambda_0b7f78ec4ced38495cec46e0d346e0b9>@@$0A@@std@@V?$allocator@V?$_Func_class@X$$$V@std@@@2@X$$$V@std@@@std@@YA$$QAV?$_Func_impl@U?$_Callable_obj@V<lambda_0b7f78ec4ced38495cec46e0d346e0b9>@@$0A@@std@@V?$allocator@V?$_Func_class@X$$$V@std@@@2@X$$$V@0@AAV10@@Z 10060240 f i WinRTVFS.obj
 0002:00022280       ??$move@AAV?$_Func_impl@U?$_Callable_obj@V<lambda_0fe479da16d43edb8e9a254c493d643e>@@$0A@@std@@V?$allocator@V?$_Func_class@X$$$V@std@@@2@X$$$V@std@@@std@@YA$$QAV?$_Func_impl@U?$_Callable_obj@V<lambda_0fe479da16d43edb8e9a254c493d643e>@@$0A@@std@@V?$allocator@V?$_Func_class@X$$$V@std@@@2@X$$$V@0@AAV10@@Z 10060280 f i WinRTVFS.obj
 0002:000222c0       ??$move@AAV?$_Func_impl@U?$_Callable_obj@V<lambda_1a93da980d6fe77644a4eefc4e1ad756>@@$0A@@std@@V?$allocator@V?$_Func_class@XABH@std@@@2@XABH@std@@@std@@YA$$QAV?$_Func_impl@U?$_Callable_obj@V<lambda_1a93da980d6fe77644a4eefc4e1ad756>@@$0A@@std@@V?$allocator@V?$_Func_class@XABH@std@@@2@XABH@0@AAV10@@Z 100602c0 f i WinRTVFS.obj
 0002:00022300       ??$move@AAV?$_Func_impl@U?$_Callable_obj@V<lambda_295bc5f846209cba149a5e74d0d63a72>@@$0A@@std@@V?$allocator@V?$_Func_class@XPAV?$message@H@Concurrency@@@std@@@2@XPAV?$message@H@Concurrency@@@std@@@std@@YA$$QAV?$_Func_impl@U?$_Callable_obj@V<lambda_295bc5f846209cba149a5e74d0d63a72>@@$0A@@std@@V?$allocator@V?$_Func_class@XPAV?$message@H@Concurrency@@@std@@@2@XPAV?$message@H@Concurrency@@@0@AAV10@@Z 10060300 f i WinRTVFS.obj
 0002:00022340       ??$move@AAV?$_Func_impl@U?$_Callable_obj@V<lambda_364e75aa895e992ae8821732ca646aa2>@@$0A@@std@@V?$allocator@V?$_Func_class@X$$$V@std@@@2@X$$$V@std@@@std@@YA$$QAV?$_Func_impl@U?$_Callable_obj@V<lambda_364e75aa895e992ae8821732ca646aa2>@@$0A@@std@@V?$allocator@V?$_Func_class@X$$$V@std@@@2@X$$$V@0@AAV10@@Z 10060340 f i WinRTVFS.obj
 0002:00022380       ??$move@AAV?$_Func_impl@U?$_Callable_obj@V<lambda_39cde079c01d1b5b9307ff255a1ccdd9>@@$0A@@std@@V?$allocator@V?$_Func_class@EE@std@@@2@EE@std@@@std@@YA$$QAV?$_Func_impl@U?$_Callable_obj@V<lambda_39cde079c01d1b5b9307ff255a1ccdd9>@@$0A@@std@@V?$allocator@V?$_Func_class@EE@std@@@2@EE@0@AAV10@@Z 10060380 f i WinRTVFS.obj
 0002:000223c0       ??$move@AAV?$_Func_impl@U?$_Callable_obj@V<lambda_528650821c608ced6534641e311542a5>@@$0A@@std@@V?$allocator@V?$_Func_class@X$$$V@std@@@2@X$$$V@std@@@std@@YA$$QAV?$_Func_impl@U?$_Callable_obj@V<lambda_528650821c608ced6534641e311542a5>@@$0A@@std@@V?$allocator@V?$_Func_class@X$$$V@std@@@2@X$$$V@0@AAV10@@Z 100603c0 f i WinRTVFS.obj
 0002:00022400       ??$move@AAV?$_Func_impl@U?$_Callable_obj@V<lambda_579ccd68d569251046038e8620afec85>@@$0A@@std@@V?$allocator@V?$_Func_class@XPAV?$message@H@Concurrency@@@std@@@2@XPAV?$message@H@Concurrency@@@std@@@std@@YA$$QAV?$_Func_impl@U?$_Callable_obj@V<lambda_579ccd68d569251046038e8620afec85>@@$0A@@std@@V?$allocator@V?$_Func_class@XPAV?$message@H@Concurrency@@@std@@@2@XPAV?$message@H@Concurrency@@@0@AAV10@@Z 10060400 f i WinRTVFS.obj
 0002:00022440       ??$move@AAV?$_Func_impl@U?$_Callable_obj@V<lambda_9fc58f08a03183e50e06176727aeb396>@@$0A@@std@@V?$allocator@V?$_Func_class@X$$$V@std@@@2@X$$$V@std@@@std@@YA$$QAV?$_Func_impl@U?$_Callable_obj@V<lambda_9fc58f08a03183e50e06176727aeb396>@@$0A@@std@@V?$allocator@V?$_Func_class@X$$$V@std@@@2@X$$$V@0@AAV10@@Z 10060440 f i WinRTVFS.obj
 0002:00022480       ??$move@AAV?$_Func_impl@U?$_Callable_obj@V<lambda_a66b3ee15e662226a0b0b15ae647d32f>@@$0A@@std@@V?$allocator@V?$_Func_class@X$$$V@std@@@2@X$$$V@std@@@std@@YA$$QAV?$_Func_impl@U?$_Callable_obj@V<lambda_a66b3ee15e662226a0b0b15ae647d32f>@@$0A@@std@@V?$allocator@V?$_Func_class@X$$$V@std@@@2@X$$$V@0@AAV10@@Z 10060480 f i WinRTVFS.obj
 0002:000224c0       ??$move@AAV?$_Func_impl@U?$_Callable_obj@V<lambda_c1a554f2383dae03f169289aed8c4103>@@$0A@@std@@V?$allocator@V?$_Func_class@X$$$V@std@@@2@X$$$V@std@@@std@@YA$$QAV?$_Func_impl@U?$_Callable_obj@V<lambda_c1a554f2383dae03f169289aed8c4103>@@$0A@@std@@V?$allocator@V?$_Func_class@X$$$V@std@@@2@X$$$V@0@AAV10@@Z 100604c0 f i WinRTVFS.obj
 0002:00022500       ??$move@AAV?$_Func_impl@U?$_Callable_obj@V<lambda_c28a53003ed51cdfe295a7d756f98c2f>@@$0A@@std@@V?$allocator@V?$_Func_class@XPAV?$message@H@Concurrency@@@std@@@2@XPAV?$message@H@Concurrency@@@std@@@std@@YA$$QAV?$_Func_impl@U?$_Callable_obj@V<lambda_c28a53003ed51cdfe295a7d756f98c2f>@@$0A@@std@@V?$allocator@V?$_Func_class@XPAV?$message@H@Concurrency@@@std@@@2@XPAV?$message@H@Concurrency@@@0@AAV10@@Z 10060500 f i WinRTVFS.obj
 0002:00022540       ??$move@AAV?$_Func_impl@U?$_Callable_obj@V<lambda_e7ef5f1e4e1eca0ae8efc6086cf9f417>@@$0A@@std@@V?$allocator@V?$_Func_class@X$$$V@std@@@2@X$$$V@std@@@std@@YA$$QAV?$_Func_impl@U?$_Callable_obj@V<lambda_e7ef5f1e4e1eca0ae8efc6086cf9f417>@@$0A@@std@@V?$allocator@V?$_Func_class@X$$$V@std@@@2@X$$$V@0@AAV10@@Z 10060540 f i WinRTVFS.obj
 0002:00022580       ??$move@AAV?$shared_ptr@U?$_Task_impl@E@details@Concurrency@@@std@@@std@@YA$$QAV?$shared_ptr@U?$_Task_impl@E@details@Concurrency@@@0@AAV10@@Z 10060580 f i WinRTVFS.obj
 0002:000225c0       ??$move@AAV?$shared_ptr@U?$_Task_impl@I@details@Concurrency@@@std@@@std@@YA$$QAV?$shared_ptr@U?$_Task_impl@I@details@Concurrency@@@0@AAV10@@Z 100605c0 f i WinRTVFS.obj
 0002:00022600       ??$move@AAV?$shared_ptr@U?$_Task_impl@P$AAUIBuffer@Streams@Storage@Windows@@@details@Concurrency@@@std@@@std@@YA$$QAV?$shared_ptr@U?$_Task_impl@P$AAUIBuffer@Streams@Storage@Windows@@@details@Concurrency@@@0@AAV10@@Z 10060600 f i WinRTVFS.obj
 0002:00022640       ??$move@AAV?$shared_ptr@U?$_Task_impl@P$AAUIRandomAccessStream@Streams@Storage@Windows@@@details@Concurrency@@@std@@@std@@YA$$QAV?$shared_ptr@U?$_Task_impl@P$AAUIRandomAccessStream@Streams@Storage@Windows@@@details@Concurrency@@@0@AAV10@@Z 10060640 f i WinRTVFS.obj
 0002:00022680       ??$move@AAV?$shared_ptr@U?$_Task_impl@P$AAVStorageFile@Storage@Windows@@@details@Concurrency@@@std@@@std@@YA$$QAV?$shared_ptr@U?$_Task_impl@P$AAVStorageFile@Storage@Windows@@@details@Concurrency@@@0@AAV10@@Z 10060680 f i WinRTVFS.obj
 0002:000226c0       ??$move@AAV?$shared_ptr@U?$_Task_impl@P$AAVStorageFolder@Storage@Windows@@@details@Concurrency@@@std@@@std@@YA$$QAV?$shared_ptr@U?$_Task_impl@P$AAVStorageFolder@Storage@Windows@@@details@Concurrency@@@0@AAV10@@Z 100606c0 f i WinRTVFS.obj
 0002:00022700       ??$move@AAV?$shared_ptr@U?$_Task_impl@_N@details@Concurrency@@@std@@@std@@YA$$QAV?$shared_ptr@U?$_Task_impl@_N@details@Concurrency@@@0@AAV10@@Z 10060700 f i WinRTVFS.obj
 0002:00022740       ??$move@AAV?$shared_ptr@Uscheduler_interface@Concurrency@@@std@@@std@@YA$$QAV?$shared_ptr@Uscheduler_interface@Concurrency@@@0@AAV10@@Z 10060740 f i WinRTVFS.obj
 0002:00022780       ??$move@AAV?$task@E@Concurrency@@@std@@YA$$QAV?$task@E@Concurrency@@AAV12@@Z 10060780 f i WinRTVFS.obj
 0002:000227c0       ??$swap@K@std@@YAXAAK0@Z   100607c0 f i WinRTVFS.obj
 0002:000228a0       ??$swap@P$AAUIBuffer@Streams@Storage@Windows@@@std@@YAXAAP$AAUIBuffer@Streams@Storage@Windows@@0@Z 100608a0 f i WinRTVFS.obj
 0002:000229e0       ??$swap@P$AAUIRandomAccessStream@Streams@Storage@Windows@@@std@@YAXAAP$AAUIRandomAccessStream@Streams@Storage@Windows@@0@Z 100609e0 f i WinRTVFS.obj
 0002:00022b20       ??$swap@PAU?$_Task_completion_event_impl@E@details@Concurrency@@@std@@YAXAAPAU?$_Task_completion_event_impl@E@details@Concurrency@@0@Z 10060b20 f i WinRTVFS.obj
 0002:00022c00       ??$swap@PAU?$_Task_impl@E@details@Concurrency@@@std@@YAXAAPAU?$_Task_impl@E@details@Concurrency@@0@Z 10060c00 f i WinRTVFS.obj
 0002:00022ce0       ??$swap@PAU?$_Task_impl@I@details@Concurrency@@@std@@YAXAAPAU?$_Task_impl@I@details@Concurrency@@0@Z 10060ce0 f i WinRTVFS.obj
 0002:00022dc0       ??$swap@PAU?$_Task_impl@P$AAUIBuffer@Streams@Storage@Windows@@@details@Concurrency@@@std@@YAXAAPAU?$_Task_impl@P$AAUIBuffer@Streams@Storage@Windows@@@details@Concurrency@@0@Z 10060dc0 f i WinRTVFS.obj
 0002:00022ea0       ??$swap@PAU?$_Task_impl@P$AAUIRandomAccessStream@Streams@Storage@Windows@@@details@Concurrency@@@std@@YAXAAPAU?$_Task_impl@P$AAUIRandomAccessStream@Streams@Storage@Windows@@@details@Concurrency@@0@Z 10060ea0 f i WinRTVFS.obj
 0002:00022f80       ??$swap@PAU?$_Task_impl@P$AAVStorageFile@Storage@Windows@@@details@Concurrency@@@std@@YAXAAPAU?$_Task_impl@P$AAVStorageFile@Storage@Windows@@@details@Concurrency@@0@Z 10060f80 f i WinRTVFS.obj
 0002:00023060       ??$swap@PAU?$_Task_impl@P$AAVStorageFolder@Storage@Windows@@@details@Concurrency@@@std@@YAXAAPAU?$_Task_impl@P$AAVStorageFolder@Storage@Windows@@@details@Concurrency@@0@Z 10061060 f i WinRTVFS.obj
 0002:00023140       ??$swap@PAU?$_Task_impl@_N@details@Concurrency@@@std@@YAXAAPAU?$_Task_impl@_N@details@Concurrency@@0@Z 10061140 f i WinRTVFS.obj
 0002:00023220       ??$swap@PAU_Container_proxy@std@@@std@@YAXAAPAU_Container_proxy@0@0@Z 10061220 f i WinRTVFS.obj
 0002:00023300       ??$swap@PAU_ExceptionHolder@details@Concurrency@@@std@@YAXAAPAU_ExceptionHolder@details@Concurrency@@0@Z 10061300 f i WinRTVFS.obj
 0002:000233e0       ??$swap@PAUscheduler_interface@Concurrency@@@std@@YAXAAPAUscheduler_interface@Concurrency@@0@Z 100613e0 f i WinRTVFS.obj
 0002:000234c0       ??$swap@PAV?$shared_ptr@U?$_Task_impl@E@details@Concurrency@@@std@@@std@@YAXAAPAV?$shared_ptr@U?$_Task_impl@E@details@Concurrency@@@0@0@Z 100614c0 f i WinRTVFS.obj
 0002:000235a0       ??$swap@PAV_Ref_count_base@std@@@std@@YAXAAPAV_Ref_count_base@0@0@Z 100615a0 f i WinRTVFS.obj
 0002:00023680       ??$swap@V?$ComPtr@UIUnknown@@@WRL@Microsoft@@@std@@YAXAAV?$ComPtr@UIUnknown@@@WRL@Microsoft@@0@Z 10061680 f i WinRTVFS.obj
 0002:00023780       ??$swap@W4AgileState@?$Agile@P$AAUIBuffer@Streams@Storage@Windows@@$00@Platform@@@std@@YAXAAW4AgileState@?$Agile@P$AAUIBuffer@Streams@Storage@Windows@@$00@Platform@@0@Z 10061780 f i WinRTVFS.obj
 0002:00023860       ??$swap@W4AgileState@?$Agile@P$AAUIRandomAccessStream@Streams@Storage@Windows@@$00@Platform@@@std@@YAXAAW4AgileState@?$Agile@P$AAUIRandomAccessStream@Streams@Storage@Windows@@$00@Platform@@0@Z 10061860 f i WinRTVFS.obj
 0002:00023940       ??$then@V<lambda_9fc58f08a03183e50e06176727aeb396>@@@?$task@X@Concurrency@@QBE?AV01@ABV<lambda_9fc58f08a03183e50e06176727aeb396>@@Vtask_options@1@@Z 10061940 f i WinRTVFS.obj
 0002:00024920       ??0?$Agile@P$AAU?$IAsyncOperationWithProgress@II@Foundation@Windows@@$00@Platform@@QAE@P$AAU?$IAsyncOperationWithProgress@II@Foundation@Windows@@@Z 10062920 f i WinRTVFS.obj
 0002:000249b0       ??0?$Agile@P$AAU?$IAsyncOperationWithProgress@P$AAUIBuffer@Streams@Storage@Windows@@I@Foundation@Windows@@$00@Platform@@QAE@P$AAU?$IAsyncOperationWithProgress@P$AAUIBuffer@Streams@Storage@Windows@@I@Foundation@Windows@@@Z 100629b0 f i WinRTVFS.obj
 0002:00024a40       ??0?$Agile@P$AAUIAsyncAction@Foundation@Windows@@$00@Platform@@QAE@P$AAUIAsyncAction@Foundation@Windows@@@Z 10062a40 f i WinRTVFS.obj
 0002:00024ad0       ??0?$Agile@P$AAUIBuffer@Streams@Storage@Windows@@$00@Platform@@QAE@P$AAUIBuffer@Streams@Storage@Windows@@@Z 10062ad0 f i WinRTVFS.obj
 0002:00024b60       ??0?$Agile@P$AAUIBuffer@Streams@Storage@Windows@@$00@Platform@@QAE@XZ 10062b60 f i WinRTVFS.obj
 0002:00024be0       ??0?$Agile@P$AAUIRandomAccessStream@Streams@Storage@Windows@@$00@Platform@@QAE@P$AAUIRandomAccessStream@Streams@Storage@Windows@@@Z 10062be0 f i WinRTVFS.obj
 0002:00024c70       ??0?$Agile@P$AAUIRandomAccessStream@Streams@Storage@Windows@@$00@Platform@@QAE@XZ 10062c70 f i WinRTVFS.obj
 0002:00024cf0       ??0?$Agile@P$AAVStorageFile@Storage@Windows@@$0A@@Platform@@QAE@XZ 10062cf0 f i WinRTVFS.obj
 0002:00024d40       ??0?$Agile@P$AAVStorageFolder@Storage@Windows@@$0A@@Platform@@QAE@XZ 10062d40 f i WinRTVFS.obj
 0002:00024d90       ??0?$ComPtr@UIAgileObject@@@WRL@Microsoft@@QAE@XZ 10062d90 f i WinRTVFS.obj
 0002:00024de0       ??0?$ComPtr@UIBufferByteAccess@Streams@Storage@Windows@@@WRL@Microsoft@@QAE@XZ 10062de0 f i WinRTVFS.obj
 0002:00024e30       ??0?$ComPtr@UIUnknown@@@WRL@Microsoft@@QAE@$$QAV012@@Z 10062e30 f i WinRTVFS.obj
 0002:00024ea0       ??0?$ComPtr@UIUnknown@@@WRL@Microsoft@@QAE@XZ 10062ea0 f i WinRTVFS.obj
 0002:00024ef0       ??0?$ComPtrRef@V?$ComPtr@UIAgileObject@@@WRL@Microsoft@@@Details@WRL@Microsoft@@QAE@PAV?$ComPtr@UIAgileObject@@@23@@Z 10062ef0 f i WinRTVFS.obj
 0002:00024f40       ??0?$ComPtrRef@V?$ComPtr@UIBufferByteAccess@Streams@Storage@Windows@@@WRL@Microsoft@@@Details@WRL@Microsoft@@QAE@PAV?$ComPtr@UIBufferByteAccess@Streams@Storage@Windows@@@23@@Z 10062f40 f i WinRTVFS.obj
 0002:00024f90       ??0?$ISource@H@Concurrency@@QAE@XZ 10062f90 f i WinRTVFS.obj
 0002:00024fe0       ??0?$ITarget@H@Concurrency@@QAE@XZ 10062fe0 f i WinRTVFS.obj
 0002:00025030       ??0?$_AsyncInfoImpl@P$AAU?$IAsyncOperationWithProgress@II@Foundation@Windows@@V?$AsyncOperationWithProgressCompletedHandler@II@23@I@details@Concurrency@@Q$AAA@P$AAU?$IAsyncOperationWithProgress@II@Foundation@Windows@@@Z 10063030 f i WinRTVFS.obj
 0002:000250e0       ??0?$_AsyncInfoImpl@P$AAU?$IAsyncOperationWithProgress@P$AAUIBuffer@Streams@Storage@Windows@@I@Foundation@Windows@@V?$AsyncOperationWithProgressCompletedHandler@P$AAUIBuffer@Streams@Storage@Windows@@I@23@P$AAUIBuffer@Streams@Storage@3@@details@Concurrency@@Q$AAA@P$AAU?$IAsyncOperationWithProgress@P$AAUIBuffer@Streams@Storage@Windows@@I@Foundation@Windows@@@Z 100630e0 f i WinRTVFS.obj
 0002:00025190       ??0?$_AsyncInfoImpl@P$AAUIAsyncAction@Foundation@Windows@@VAsyncActionCompletedHandler@23@E@details@Concurrency@@Q$AAA@P$AAUIAsyncAction@Foundation@Windows@@@Z 10063190 f i WinRTVFS.obj
 0002:00025240       ??0?$_AutoDeleter@U_TaskProcHandle@details@Concurrency@@@details@Concurrency@@QAE@PAU_TaskProcHandle@12@@Z 10063240 f i WinRTVFS.obj
 0002:00025290       ??0?$_Callable_base@V<lambda_02d862f9cfc639ff7c37ca52d43e6a8c>@@$0A@@std@@QAE@ABV<lambda_02d862f9cfc639ff7c37ca52d43e6a8c>@@@Z 10063290 f i WinRTVFS.obj
 0002:000252e0       ??0?$_Callable_base@V<lambda_095a938ce4c5765dcc6b67f548aeb9c7>@@$0A@@std@@QAE@ABV<lambda_095a938ce4c5765dcc6b67f548aeb9c7>@@@Z 100632e0 f i WinRTVFS.obj
 0002:00025330       ??0?$_Callable_base@V<lambda_0b7f78ec4ced38495cec46e0d346e0b9>@@$0A@@std@@QAE@ABV<lambda_0b7f78ec4ced38495cec46e0d346e0b9>@@@Z 10063330 f i WinRTVFS.obj
 0002:00025380       ??0?$_Callable_base@V<lambda_0fe479da16d43edb8e9a254c493d643e>@@$0A@@std@@QAE@ABV<lambda_0fe479da16d43edb8e9a254c493d643e>@@@Z 10063380 f i WinRTVFS.obj
 0002:000253d0       ??0?$_Callable_base@V<lambda_1a93da980d6fe77644a4eefc4e1ad756>@@$0A@@std@@QAE@ABU01@@Z 100633d0 f i WinRTVFS.obj
 0002:00025430       ??0?$_Callable_base@V<lambda_1a93da980d6fe77644a4eefc4e1ad756>@@$0A@@std@@QAE@ABV<lambda_1a93da980d6fe77644a4eefc4e1ad756>@@@Z 10063430 f i WinRTVFS.obj
 0002:00025490       ??0?$_Callable_base@V<lambda_295bc5f846209cba149a5e74d0d63a72>@@$0A@@std@@QAE@ABV<lambda_295bc5f846209cba149a5e74d0d63a72>@@@Z 10063490 f i WinRTVFS.obj
 0002:000254e0       ??0?$_Callable_base@V<lambda_364e75aa895e992ae8821732ca646aa2>@@$0A@@std@@QAE@ABV<lambda_364e75aa895e992ae8821732ca646aa2>@@@Z 100634e0 f i WinRTVFS.obj
 0002:00025530       ??0?$_Callable_base@V<lambda_39cde079c01d1b5b9307ff255a1ccdd9>@@$0A@@std@@QAE@ABU01@@Z 10063530 f i WinRTVFS.obj
 0002:00025590       ??0?$_Callable_base@V<lambda_39cde079c01d1b5b9307ff255a1ccdd9>@@$0A@@std@@QAE@ABV<lambda_39cde079c01d1b5b9307ff255a1ccdd9>@@@Z 10063590 f i WinRTVFS.obj
 0002:000255f0       ??0?$_Callable_base@V<lambda_528650821c608ced6534641e311542a5>@@$0A@@std@@QAE@ABV<lambda_528650821c608ced6534641e311542a5>@@@Z 100635f0 f i WinRTVFS.obj
 0002:00025640       ??0?$_Callable_base@V<lambda_579ccd68d569251046038e8620afec85>@@$0A@@std@@QAE@ABV<lambda_579ccd68d569251046038e8620afec85>@@@Z 10063640 f i WinRTVFS.obj
 0002:00025690       ??0?$_Callable_base@V<lambda_9fc58f08a03183e50e06176727aeb396>@@$0A@@std@@QAE@ABV<lambda_9fc58f08a03183e50e06176727aeb396>@@@Z 10063690 f i WinRTVFS.obj
 0002:000256e0       ??0?$_Callable_base@V<lambda_a66b3ee15e662226a0b0b15ae647d32f>@@$0A@@std@@QAE@ABV<lambda_a66b3ee15e662226a0b0b15ae647d32f>@@@Z 100636e0 f i WinRTVFS.obj
 0002:00025730       ??0?$_Callable_base@V<lambda_c1a554f2383dae03f169289aed8c4103>@@$0A@@std@@QAE@ABV<lambda_c1a554f2383dae03f169289aed8c4103>@@@Z 10063730 f i WinRTVFS.obj
 0002:00025780       ??0?$_Callable_base@V<lambda_c28a53003ed51cdfe295a7d756f98c2f>@@$0A@@std@@QAE@ABV<lambda_c28a53003ed51cdfe295a7d756f98c2f>@@@Z 10063780 f i WinRTVFS.obj
 0002:000257d0       ??0?$_Callable_base@V<lambda_e7ef5f1e4e1eca0ae8efc6086cf9f417>@@$0A@@std@@QAE@ABU01@@Z 100637d0 f i WinRTVFS.obj
 0002:00025830       ??0?$_Callable_base@V<lambda_e7ef5f1e4e1eca0ae8efc6086cf9f417>@@$0A@@std@@QAE@ABV<lambda_e7ef5f1e4e1eca0ae8efc6086cf9f417>@@@Z 10063830 f i WinRTVFS.obj
 0002:00025890       ??0?$_CancellationTokenCallback@V<lambda_17cb9174022a2677ccd4c777403439ce>@@@details@Concurrency@@QAE@ABV<lambda_17cb9174022a2677ccd4c777403439ce>@@@Z 10063890 f i WinRTVFS.obj
 0002:00025910       ??0?$_ContinuationTaskHandle@XXV<lambda_9fc58f08a03183e50e06176727aeb396>@@U?$integral_constant@_N$0A@@std@@U_TypeSelectorNoAsync@details@Concurrency@@@?$task@E@Concurrency@@QAE@ABV?$shared_ptr@U?$_Task_impl@E@details@Concurrency@@@std@@0ABV<lambda_9fc58f08a03183e50e06176727aeb396>@@ABVtask_continuation_context@2@W4_TaskInliningMode@details@2@@Z 10063910 f i WinRTVFS.obj
 0002:00025a40       ??0?$_Dynamic_array@PAV?$ISource@H@Concurrency@@@details@Concurrency@@QAE@XZ 10063a40 f i WinRTVFS.obj
 0002:00025aa0       ??0?$_Func_base@EE@std@@QAE@XZ 10063aa0 f i WinRTVFS.obj
 0002:00025af0       ??0?$_Func_base@X$$$V@std@@QAE@XZ 10063af0 f i WinRTVFS.obj
 0002:00025b40       ??0?$_Func_base@XABH@std@@QAE@XZ 10063b40 f i WinRTVFS.obj
 0002:00025b90       ??0?$_Func_base@XPAV?$message@H@Concurrency@@@std@@QAE@XZ 10063b90 f i WinRTVFS.obj
 0002:00025be0       ??0?$_Func_class@EE@std@@QAE@XZ 10063be0 f i WinRTVFS.obj
 0002:00025c30       ??0?$_Func_class@X$$$V@std@@QAE@XZ 10063c30 f i WinRTVFS.obj
 0002:00025c80       ??0?$_Func_class@XABH@std@@QAE@XZ 10063c80 f i WinRTVFS.obj
 0002:00025cd0       ??0?$_Func_class@XPAV?$message@H@Concurrency@@@std@@QAE@XZ 10063cd0 f i WinRTVFS.obj
 0002:00025d20       ??0?$_Func_impl@U?$_Callable_obj@V<lambda_02d862f9cfc639ff7c37ca52d43e6a8c>@@$0A@@std@@V?$allocator@V?$_Func_class@X$$$V@std@@@2@X$$$V@std@@QAE@$$QAV01@@Z 10063d20 f i WinRTVFS.obj
 0002:00025e00       ??0?$_Func_impl@U?$_Callable_obj@V<lambda_02d862f9cfc639ff7c37ca52d43e6a8c>@@$0A@@std@@V?$allocator@V?$_Func_class@X$$$V@std@@@2@X$$$V@std@@QAE@$$QAV<lambda_02d862f9cfc639ff7c37ca52d43e6a8c>@@ABV?$allocator@V?$_Func_impl@U?$_Callable_obj@V<lambda_02d862f9cfc639ff7c37ca52d43e6a8c>@@$0A@@std@@V?$allocator@V?$_Func_class@X$$$V@std@@@2@X$$$V@std@@@1@@Z 10063e00 f i WinRTVFS.obj
 0002:00025ee0       ??0?$_Func_impl@U?$_Callable_obj@V<lambda_02d862f9cfc639ff7c37ca52d43e6a8c>@@$0A@@std@@V?$allocator@V?$_Func_class@X$$$V@std@@@2@X$$$V@std@@QAE@AAV01@@Z 10063ee0 f i WinRTVFS.obj
 0002:00025fc0       ??0?$_Func_impl@U?$_Callable_obj@V<lambda_095a938ce4c5765dcc6b67f548aeb9c7>@@$0A@@std@@V?$allocator@V?$_Func_class@X$$$V@std@@@2@X$$$V@std@@QAE@$$QAV01@@Z 10063fc0 f i WinRTVFS.obj
 0002:000260a0       ??0?$_Func_impl@U?$_Callable_obj@V<lambda_095a938ce4c5765dcc6b67f548aeb9c7>@@$0A@@std@@V?$allocator@V?$_Func_class@X$$$V@std@@@2@X$$$V@std@@QAE@$$QAV<lambda_095a938ce4c5765dcc6b67f548aeb9c7>@@ABV?$allocator@V?$_Func_impl@U?$_Callable_obj@V<lambda_095a938ce4c5765dcc6b67f548aeb9c7>@@$0A@@std@@V?$allocator@V?$_Func_class@X$$$V@std@@@2@X$$$V@std@@@1@@Z 100640a0 f i WinRTVFS.obj
 0002:00026180       ??0?$_Func_impl@U?$_Callable_obj@V<lambda_095a938ce4c5765dcc6b67f548aeb9c7>@@$0A@@std@@V?$allocator@V?$_Func_class@X$$$V@std@@@2@X$$$V@std@@QAE@AAV01@@Z 10064180 f i WinRTVFS.obj
 0002:00026260       ??0?$_Func_impl@U?$_Callable_obj@V<lambda_0b7f78ec4ced38495cec46e0d346e0b9>@@$0A@@std@@V?$allocator@V?$_Func_class@X$$$V@std@@@2@X$$$V@std@@QAE@$$QAV01@@Z 10064260 f i WinRTVFS.obj
 0002:00026340       ??0?$_Func_impl@U?$_Callable_obj@V<lambda_0b7f78ec4ced38495cec46e0d346e0b9>@@$0A@@std@@V?$allocator@V?$_Func_class@X$$$V@std@@@2@X$$$V@std@@QAE@$$QAV<lambda_0b7f78ec4ced38495cec46e0d346e0b9>@@ABV?$allocator@V?$_Func_impl@U?$_Callable_obj@V<lambda_0b7f78ec4ced38495cec46e0d346e0b9>@@$0A@@std@@V?$allocator@V?$_Func_class@X$$$V@std@@@2@X$$$V@std@@@1@@Z 10064340 f i WinRTVFS.obj
 0002:00026420       ??0?$_Func_impl@U?$_Callable_obj@V<lambda_0b7f78ec4ced38495cec46e0d346e0b9>@@$0A@@std@@V?$allocator@V?$_Func_class@X$$$V@std@@@2@X$$$V@std@@QAE@AAV01@@Z 10064420 f i WinRTVFS.obj
 0002:00026500       ??0?$_Func_impl@U?$_Callable_obj@V<lambda_0fe479da16d43edb8e9a254c493d643e>@@$0A@@std@@V?$allocator@V?$_Func_class@X$$$V@std@@@2@X$$$V@std@@QAE@$$QAV01@@Z 10064500 f i WinRTVFS.obj
 0002:000265e0       ??0?$_Func_impl@U?$_Callable_obj@V<lambda_0fe479da16d43edb8e9a254c493d643e>@@$0A@@std@@V?$allocator@V?$_Func_class@X$$$V@std@@@2@X$$$V@std@@QAE@$$QAV<lambda_0fe479da16d43edb8e9a254c493d643e>@@ABV?$allocator@V?$_Func_impl@U?$_Callable_obj@V<lambda_0fe479da16d43edb8e9a254c493d643e>@@$0A@@std@@V?$allocator@V?$_Func_class@X$$$V@std@@@2@X$$$V@std@@@1@@Z 100645e0 f i WinRTVFS.obj
 0002:000266c0       ??0?$_Func_impl@U?$_Callable_obj@V<lambda_0fe479da16d43edb8e9a254c493d643e>@@$0A@@std@@V?$allocator@V?$_Func_class@X$$$V@std@@@2@X$$$V@std@@QAE@AAV01@@Z 100646c0 f i WinRTVFS.obj
 0002:000267a0       ??0?$_Func_impl@U?$_Callable_obj@V<lambda_1a93da980d6fe77644a4eefc4e1ad756>@@$0A@@std@@V?$allocator@V?$_Func_class@XABH@std@@@2@XABH@std@@QAE@$$QAV01@@Z 100647a0 f i WinRTVFS.obj
 0002:00026880       ??0?$_Func_impl@U?$_Callable_obj@V<lambda_1a93da980d6fe77644a4eefc4e1ad756>@@$0A@@std@@V?$allocator@V?$_Func_class@XABH@std@@@2@XABH@std@@QAE@$$QAV<lambda_1a93da980d6fe77644a4eefc4e1ad756>@@ABV?$allocator@V?$_Func_impl@U?$_Callable_obj@V<lambda_1a93da980d6fe77644a4eefc4e1ad756>@@$0A@@std@@V?$allocator@V?$_Func_class@XABH@std@@@2@XABH@std@@@1@@Z 10064880 f i WinRTVFS.obj
 0002:00026960       ??0?$_Func_impl@U?$_Callable_obj@V<lambda_1a93da980d6fe77644a4eefc4e1ad756>@@$0A@@std@@V?$allocator@V?$_Func_class@XABH@std@@@2@XABH@std@@QAE@AAV01@@Z 10064960 f i WinRTVFS.obj
 0002:00026a40       ??0?$_Func_impl@U?$_Callable_obj@V<lambda_295bc5f846209cba149a5e74d0d63a72>@@$0A@@std@@V?$allocator@V?$_Func_class@XPAV?$message@H@Concurrency@@@std@@@2@XPAV?$message@H@Concurrency@@@std@@QAE@$$QAV01@@Z 10064a40 f i WinRTVFS.obj
 0002:00026b20       ??0?$_Func_impl@U?$_Callable_obj@V<lambda_295bc5f846209cba149a5e74d0d63a72>@@$0A@@std@@V?$allocator@V?$_Func_class@XPAV?$message@H@Concurrency@@@std@@@2@XPAV?$message@H@Concurrency@@@std@@QAE@$$QAV<lambda_295bc5f846209cba149a5e74d0d63a72>@@ABV?$allocator@V?$_Func_impl@U?$_Callable_obj@V<lambda_295bc5f846209cba149a5e74d0d63a72>@@$0A@@std@@V?$allocator@V?$_Func_class@XPAV?$message@H@Concurrency@@@std@@@2@XPAV?$message@H@Concurrency@@@std@@@1@@Z 10064b20 f i WinRTVFS.obj
 0002:00026c00       ??0?$_Func_impl@U?$_Callable_obj@V<lambda_295bc5f846209cba149a5e74d0d63a72>@@$0A@@std@@V?$allocator@V?$_Func_class@XPAV?$message@H@Concurrency@@@std@@@2@XPAV?$message@H@Concurrency@@@std@@QAE@AAV01@@Z 10064c00 f i WinRTVFS.obj
 0002:00026ce0       ??0?$_Func_impl@U?$_Callable_obj@V<lambda_364e75aa895e992ae8821732ca646aa2>@@$0A@@std@@V?$allocator@V?$_Func_class@X$$$V@std@@@2@X$$$V@std@@QAE@$$QAV01@@Z 10064ce0 f i WinRTVFS.obj
 0002:00026dc0       ??0?$_Func_impl@U?$_Callable_obj@V<lambda_364e75aa895e992ae8821732ca646aa2>@@$0A@@std@@V?$allocator@V?$_Func_class@X$$$V@std@@@2@X$$$V@std@@QAE@$$QAV<lambda_364e75aa895e992ae8821732ca646aa2>@@ABV?$allocator@V?$_Func_impl@U?$_Callable_obj@V<lambda_364e75aa895e992ae8821732ca646aa2>@@$0A@@std@@V?$allocator@V?$_Func_class@X$$$V@std@@@2@X$$$V@std@@@1@@Z 10064dc0 f i WinRTVFS.obj
 0002:00026ea0       ??0?$_Func_impl@U?$_Callable_obj@V<lambda_364e75aa895e992ae8821732ca646aa2>@@$0A@@std@@V?$allocator@V?$_Func_class@X$$$V@std@@@2@X$$$V@std@@QAE@AAV01@@Z 10064ea0 f i WinRTVFS.obj
 0002:00026f80       ??0?$_Func_impl@U?$_Callable_obj@V<lambda_39cde079c01d1b5b9307ff255a1ccdd9>@@$0A@@std@@V?$allocator@V?$_Func_class@EE@std@@@2@EE@std@@QAE@$$QAV01@@Z 10064f80 f i WinRTVFS.obj
 0002:00027060       ??0?$_Func_impl@U?$_Callable_obj@V<lambda_39cde079c01d1b5b9307ff255a1ccdd9>@@$0A@@std@@V?$allocator@V?$_Func_class@EE@std@@@2@EE@std@@QAE@$$QAV<lambda_39cde079c01d1b5b9307ff255a1ccdd9>@@ABV?$allocator@V?$_Func_impl@U?$_Callable_obj@V<lambda_39cde079c01d1b5b9307ff255a1ccdd9>@@$0A@@std@@V?$allocator@V?$_Func_class@EE@std@@@2@EE@std@@@1@@Z 10065060 f i WinRTVFS.obj
 0002:00027140       ??0?$_Func_impl@U?$_Callable_obj@V<lambda_39cde079c01d1b5b9307ff255a1ccdd9>@@$0A@@std@@V?$allocator@V?$_Func_class@EE@std@@@2@EE@std@@QAE@AAV01@@Z 10065140 f i WinRTVFS.obj
 0002:00027220       ??0?$_Func_impl@U?$_Callable_obj@V<lambda_528650821c608ced6534641e311542a5>@@$0A@@std@@V?$allocator@V?$_Func_class@X$$$V@std@@@2@X$$$V@std@@QAE@$$QAV01@@Z 10065220 f i WinRTVFS.obj
 0002:00027300       ??0?$_Func_impl@U?$_Callable_obj@V<lambda_528650821c608ced6534641e311542a5>@@$0A@@std@@V?$allocator@V?$_Func_class@X$$$V@std@@@2@X$$$V@std@@QAE@$$QAV<lambda_528650821c608ced6534641e311542a5>@@ABV?$allocator@V?$_Func_impl@U?$_Callable_obj@V<lambda_528650821c608ced6534641e311542a5>@@$0A@@std@@V?$allocator@V?$_Func_class@X$$$V@std@@@2@X$$$V@std@@@1@@Z 10065300 f i WinRTVFS.obj
 0002:000273e0       ??0?$_Func_impl@U?$_Callable_obj@V<lambda_528650821c608ced6534641e311542a5>@@$0A@@std@@V?$allocator@V?$_Func_class@X$$$V@std@@@2@X$$$V@std@@QAE@AAV01@@Z 100653e0 f i WinRTVFS.obj
 0002:000274c0       ??0?$_Func_impl@U?$_Callable_obj@V<lambda_579ccd68d569251046038e8620afec85>@@$0A@@std@@V?$allocator@V?$_Func_class@XPAV?$message@H@Concurrency@@@std@@@2@XPAV?$message@H@Concurrency@@@std@@QAE@$$QAV01@@Z 100654c0 f i WinRTVFS.obj
 0002:000275a0       ??0?$_Func_impl@U?$_Callable_obj@V<lambda_579ccd68d569251046038e8620afec85>@@$0A@@std@@V?$allocator@V?$_Func_class@XPAV?$message@H@Concurrency@@@std@@@2@XPAV?$message@H@Concurrency@@@std@@QAE@$$QAV<lambda_579ccd68d569251046038e8620afec85>@@ABV?$allocator@V?$_Func_impl@U?$_Callable_obj@V<lambda_579ccd68d569251046038e8620afec85>@@$0A@@std@@V?$allocator@V?$_Func_class@XPAV?$message@H@Concurrency@@@std@@@2@XPAV?$message@H@Concurrency@@@std@@@1@@Z 100655a0 f i WinRTVFS.obj
 0002:00027680       ??0?$_Func_impl@U?$_Callable_obj@V<lambda_579ccd68d569251046038e8620afec85>@@$0A@@std@@V?$allocator@V?$_Func_class@XPAV?$message@H@Concurrency@@@std@@@2@XPAV?$message@H@Concurrency@@@std@@QAE@AAV01@@Z 10065680 f i WinRTVFS.obj
 0002:00027760       ??0?$_Func_impl@U?$_Callable_obj@V<lambda_9fc58f08a03183e50e06176727aeb396>@@$0A@@std@@V?$allocator@V?$_Func_class@X$$$V@std@@@2@X$$$V@std@@QAE@$$QAV01@@Z 10065760 f i WinRTVFS.obj
 0002:00027840       ??0?$_Func_impl@U?$_Callable_obj@V<lambda_9fc58f08a03183e50e06176727aeb396>@@$0A@@std@@V?$allocator@V?$_Func_class@X$$$V@std@@@2@X$$$V@std@@QAE@AAV01@@Z 10065840 f i WinRTVFS.obj
 0002:00027920       ??0?$_Func_impl@U?$_Callable_obj@V<lambda_a66b3ee15e662226a0b0b15ae647d32f>@@$0A@@std@@V?$allocator@V?$_Func_class@X$$$V@std@@@2@X$$$V@std@@QAE@$$QAV01@@Z 10065920 f i WinRTVFS.obj
 0002:00027a00       ??0?$_Func_impl@U?$_Callable_obj@V<lambda_a66b3ee15e662226a0b0b15ae647d32f>@@$0A@@std@@V?$allocator@V?$_Func_class@X$$$V@std@@@2@X$$$V@std@@QAE@$$QAV<lambda_a66b3ee15e662226a0b0b15ae647d32f>@@ABV?$allocator@V?$_Func_impl@U?$_Callable_obj@V<lambda_a66b3ee15e662226a0b0b15ae647d32f>@@$0A@@std@@V?$allocator@V?$_Func_class@X$$$V@std@@@2@X$$$V@std@@@1@@Z 10065a00 f i WinRTVFS.obj
 0002:00027ae0       ??0?$_Func_impl@U?$_Callable_obj@V<lambda_a66b3ee15e662226a0b0b15ae647d32f>@@$0A@@std@@V?$allocator@V?$_Func_class@X$$$V@std@@@2@X$$$V@std@@QAE@AAV01@@Z 10065ae0 f i WinRTVFS.obj
 0002:00027bc0       ??0?$_Func_impl@U?$_Callable_obj@V<lambda_c1a554f2383dae03f169289aed8c4103>@@$0A@@std@@V?$allocator@V?$_Func_class@X$$$V@std@@@2@X$$$V@std@@QAE@$$QAV01@@Z 10065bc0 f i WinRTVFS.obj
 0002:00027ca0       ??0?$_Func_impl@U?$_Callable_obj@V<lambda_c1a554f2383dae03f169289aed8c4103>@@$0A@@std@@V?$allocator@V?$_Func_class@X$$$V@std@@@2@X$$$V@std@@QAE@$$QAV<lambda_c1a554f2383dae03f169289aed8c4103>@@ABV?$allocator@V?$_Func_impl@U?$_Callable_obj@V<lambda_c1a554f2383dae03f169289aed8c4103>@@$0A@@std@@V?$allocator@V?$_Func_class@X$$$V@std@@@2@X$$$V@std@@@1@@Z 10065ca0 f i WinRTVFS.obj
 0002:00027d80       ??0?$_Func_impl@U?$_Callable_obj@V<lambda_c1a554f2383dae03f169289aed8c4103>@@$0A@@std@@V?$allocator@V?$_Func_class@X$$$V@std@@@2@X$$$V@std@@QAE@AAV01@@Z 10065d80 f i WinRTVFS.obj
 0002:00027e60       ??0?$_Func_impl@U?$_Callable_obj@V<lambda_c28a53003ed51cdfe295a7d756f98c2f>@@$0A@@std@@V?$allocator@V?$_Func_class@XPAV?$message@H@Concurrency@@@std@@@2@XPAV?$message@H@Concurrency@@@std@@QAE@$$QAV01@@Z 10065e60 f i WinRTVFS.obj
 0002:00027f40       ??0?$_Func_impl@U?$_Callable_obj@V<lambda_c28a53003ed51cdfe295a7d756f98c2f>@@$0A@@std@@V?$allocator@V?$_Func_class@XPAV?$message@H@Concurrency@@@std@@@2@XPAV?$message@H@Concurrency@@@std@@QAE@$$QAV<lambda_c28a53003ed51cdfe295a7d756f98c2f>@@ABV?$allocator@V?$_Func_impl@U?$_Callable_obj@V<lambda_c28a53003ed51cdfe295a7d756f98c2f>@@$0A@@std@@V?$allocator@V?$_Func_class@XPAV?$message@H@Concurrency@@@std@@@2@XPAV?$message@H@Concurrency@@@std@@@1@@Z 10065f40 f i WinRTVFS.obj
 0002:00028020       ??0?$_Func_impl@U?$_Callable_obj@V<lambda_c28a53003ed51cdfe295a7d756f98c2f>@@$0A@@std@@V?$allocator@V?$_Func_class@XPAV?$message@H@Concurrency@@@std@@@2@XPAV?$message@H@Concurrency@@@std@@QAE@AAV01@@Z 10066020 f i WinRTVFS.obj
 0002:00028100       ??0?$_Func_impl@U?$_Callable_obj@V<lambda_e7ef5f1e4e1eca0ae8efc6086cf9f417>@@$0A@@std@@V?$allocator@V?$_Func_class@X$$$V@std@@@2@X$$$V@std@@QAE@$$QAV01@@Z 10066100 f i WinRTVFS.obj
 0002:000281e0       ??0?$_Func_impl@U?$_Callable_obj@V<lambda_e7ef5f1e4e1eca0ae8efc6086cf9f417>@@$0A@@std@@V?$allocator@V?$_Func_class@X$$$V@std@@@2@X$$$V@std@@QAE@$$QAV<lambda_e7ef5f1e4e1eca0ae8efc6086cf9f417>@@ABV?$allocator@V?$_Func_impl@U?$_Callable_obj@V<lambda_e7ef5f1e4e1eca0ae8efc6086cf9f417>@@$0A@@std@@V?$allocator@V?$_Func_class@X$$$V@std@@@2@X$$$V@std@@@1@@Z 100661e0 f i WinRTVFS.obj
 0002:000282c0       ??0?$_Func_impl@U?$_Callable_obj@V<lambda_e7ef5f1e4e1eca0ae8efc6086cf9f417>@@$0A@@std@@V?$allocator@V?$_Func_class@X$$$V@std@@@2@X$$$V@std@@QAE@AAV01@@Z 100662c0 f i WinRTVFS.obj
 0002:000283a0       ??0?$_IAsyncOperationWithProgressToAsyncOperationConverter@II@details@Concurrency@@Q$AAA@P$AAU?$IAsyncOperationWithProgress@II@Foundation@Windows@@@Z 100663a0 f i WinRTVFS.obj
 0002:00028470       ??0?$_IAsyncOperationWithProgressToAsyncOperationConverter@P$AAUIBuffer@Streams@Storage@Windows@@I@details@Concurrency@@Q$AAA@P$AAU?$IAsyncOperationWithProgress@P$AAUIBuffer@Streams@Storage@Windows@@I@Foundation@Windows@@@Z 10066470 f i WinRTVFS.obj
 0002:00028540       ??0?$_Iterator012@Urandom_access_iterator_tag@std@@PAXHPBQAXABQAXU_Iterator_base12@2@@std@@QAE@ABU01@@Z 10066540 f i WinRTVFS.obj
 0002:000285a0       ??0?$_Iterator012@Urandom_access_iterator_tag@std@@PAXHPBQAXABQAXU_Iterator_base12@2@@std@@QAE@XZ 100665a0 f i WinRTVFS.obj
 0002:00028600       ??0?$_Iterator012@Urandom_access_iterator_tag@std@@V?$shared_ptr@U?$_Task_impl@E@details@Concurrency@@@2@HPBV32@ABV32@U_Iterator_base12@2@@std@@QAE@XZ 10066600 f i WinRTVFS.obj
 0002:00028660       ??0?$_Network_link_iterator@V?$ISource@H@Concurrency@@@Concurrency@@QAE@ABV01@@Z 10066660 f i WinRTVFS.obj
 0002:000286c0       ??0?$_Network_link_iterator@V?$ISource@H@Concurrency@@@Concurrency@@QAE@PAV?$network_link_registry@V?$ISource@H@Concurrency@@@1@I@Z 100666c0 f i WinRTVFS.obj
 0002:00028760       ??0?$_Network_link_iterator@V?$ITarget@H@Concurrency@@@Concurrency@@QAE@PAV?$network_link_registry@V?$ITarget@H@Concurrency@@@1@I@Z 10066760 f i WinRTVFS.obj
 0002:00028800       ??0?$_PPLTaskHandle@EU?$_ContinuationTaskHandle@XXV<lambda_9fc58f08a03183e50e06176727aeb396>@@U?$integral_constant@_N$0A@@std@@U_TypeSelectorNoAsync@details@Concurrency@@@?$task@E@Concurrency@@U_ContinuationTaskHandleBase@details@3@@details@Concurrency@@QAE@ABV?$shared_ptr@U?$_Task_impl@E@details@Concurrency@@@std@@@Z 10066800 f i WinRTVFS.obj
 0002:00028880       ??0?$_Ptr_base@U?$_Task_completion_event_impl@E@details@Concurrency@@@std@@QAE@$$QAV01@@Z 10066880 f i WinRTVFS.obj
 0002:00028900       ??0?$_Ptr_base@U?$_Task_completion_event_impl@E@details@Concurrency@@@std@@QAE@XZ 10066900 f i WinRTVFS.obj
 0002:00028950       ??0?$_Ptr_base@U?$_Task_impl@E@details@Concurrency@@@std@@QAE@$$QAV01@@Z 10066950 f i WinRTVFS.obj
 0002:000289d0       ??0?$_Ptr_base@U?$_Task_impl@E@details@Concurrency@@@std@@QAE@XZ 100669d0 f i WinRTVFS.obj
 0002:00028a20       ??0?$_Ptr_base@U?$_Task_impl@I@details@Concurrency@@@std@@QAE@$$QAV01@@Z 10066a20 f i WinRTVFS.obj
 0002:00028aa0       ??0?$_Ptr_base@U?$_Task_impl@I@details@Concurrency@@@std@@QAE@XZ 10066aa0 f i WinRTVFS.obj
 0002:00028af0       ??0?$_Ptr_base@U?$_Task_impl@P$AAUIBuffer@Streams@Storage@Windows@@@details@Concurrency@@@std@@QAE@$$QAV01@@Z 10066af0 f i WinRTVFS.obj
 0002:00028b70       ??0?$_Ptr_base@U?$_Task_impl@P$AAUIBuffer@Streams@Storage@Windows@@@details@Concurrency@@@std@@QAE@XZ 10066b70 f i WinRTVFS.obj
 0002:00028bc0       ??0?$_Ptr_base@U?$_Task_impl@P$AAUIRandomAccessStream@Streams@Storage@Windows@@@details@Concurrency@@@std@@QAE@$$QAV01@@Z 10066bc0 f i WinRTVFS.obj
 0002:00028c40       ??0?$_Ptr_base@U?$_Task_impl@P$AAUIRandomAccessStream@Streams@Storage@Windows@@@details@Concurrency@@@std@@QAE@XZ 10066c40 f i WinRTVFS.obj
 0002:00028c90       ??0?$_Ptr_base@U?$_Task_impl@P$AAVStorageFile@Storage@Windows@@@details@Concurrency@@@std@@QAE@$$QAV01@@Z 10066c90 f i WinRTVFS.obj
 0002:00028d10       ??0?$_Ptr_base@U?$_Task_impl@P$AAVStorageFile@Storage@Windows@@@details@Concurrency@@@std@@QAE@XZ 10066d10 f i WinRTVFS.obj
 0002:00028d60       ??0?$_Ptr_base@U?$_Task_impl@P$AAVStorageFolder@Storage@Windows@@@details@Concurrency@@@std@@QAE@$$QAV01@@Z 10066d60 f i WinRTVFS.obj
 0002:00028de0       ??0?$_Ptr_base@U?$_Task_impl@P$AAVStorageFolder@Storage@Windows@@@details@Concurrency@@@std@@QAE@XZ 10066de0 f i WinRTVFS.obj
 0002:00028e30       ??0?$_Ptr_base@U?$_Task_impl@_N@details@Concurrency@@@std@@QAE@$$QAV01@@Z 10066e30 f i WinRTVFS.obj
 0002:00028eb0       ??0?$_Ptr_base@U?$_Task_impl@_N@details@Concurrency@@@std@@QAE@XZ 10066eb0 f i WinRTVFS.obj
 0002:00028f00       ??0?$_Ptr_base@U_ExceptionHolder@details@Concurrency@@@std@@QAE@$$QAV01@@Z 10066f00 f i WinRTVFS.obj
 0002:00028f80       ??0?$_Ptr_base@U_ExceptionHolder@details@Concurrency@@@std@@QAE@XZ 10066f80 f i WinRTVFS.obj
 0002:00028fd0       ??0?$_Ptr_base@U_Task_impl_base@details@Concurrency@@@std@@QAE@XZ 10066fd0 f i WinRTVFS.obj
 0002:00029020       ??0?$_Ptr_base@Uscheduler_interface@Concurrency@@@std@@QAE@$$QAV01@@Z 10067020 f i WinRTVFS.obj
 0002:000290a0       ??0?$_Ptr_base@Uscheduler_interface@Concurrency@@@std@@QAE@XZ 100670a0 f i WinRTVFS.obj
 0002:000290f0       ??0?$_ResultHolder@P$AAUIBuffer@Streams@Storage@Windows@@@details@Concurrency@@QAE@XZ 100670f0 f i WinRTVFS.obj
 0002:00029150       ??0?$_ResultHolder@P$AAUIRandomAccessStream@Streams@Storage@Windows@@@details@Concurrency@@QAE@XZ 10067150 f i WinRTVFS.obj
 0002:000291b0       ??0?$_ResultHolder@P$AAVStorageFile@Storage@Windows@@@details@Concurrency@@QAE@XZ 100671b0 f i WinRTVFS.obj
 0002:00029210       ??0?$_ResultHolder@P$AAVStorageFolder@Storage@Windows@@@details@Concurrency@@QAE@XZ 10067210 f i WinRTVFS.obj
 0002:00029270       ??0?$_Source_link_iterator@V?$multi_link_registry@V?$ISource@H@Concurrency@@@Concurrency@@@Concurrency@@QAE@PAV?$source_link_manager@V?$multi_link_registry@V?$ISource@H@Concurrency@@@Concurrency@@@1@I@Z 10067270 f i WinRTVFS.obj
 0002:00029360       ??0?$_Task_completion_event_impl@E@details@Concurrency@@QAE@XZ 10067360 f i WinRTVFS.obj
 0002:00029440       ??0?$_Task_impl@E@details@Concurrency@@QAE@PAV_CancellationTokenState@12@Uscheduler_ptr@2@@Z 10067440 f i WinRTVFS.obj
 0002:00029550       ??0?$_Task_impl@I@details@Concurrency@@QAE@PAV_CancellationTokenState@12@Uscheduler_ptr@2@@Z 10067550 f i WinRTVFS.obj
 0002:00029660       ??0?$_Task_impl@P$AAUIBuffer@Streams@Storage@Windows@@@details@Concurrency@@QAE@PAV_CancellationTokenState@12@Uscheduler_ptr@2@@Z 10067660 f i WinRTVFS.obj
 0002:00029790       ??0?$_Task_impl@P$AAUIRandomAccessStream@Streams@Storage@Windows@@@details@Concurrency@@QAE@PAV_CancellationTokenState@12@Uscheduler_ptr@2@@Z 10067790 f i WinRTVFS.obj
 0002:000298c0       ??0?$_Task_impl@P$AAVStorageFile@Storage@Windows@@@details@Concurrency@@QAE@PAV_CancellationTokenState@12@Uscheduler_ptr@2@@Z 100678c0 f i WinRTVFS.obj
 0002:000299f0       ??0?$_Task_impl@P$AAVStorageFolder@Storage@Windows@@@details@Concurrency@@QAE@PAV_CancellationTokenState@12@Uscheduler_ptr@2@@Z 100679f0 f i WinRTVFS.obj
 0002:00029b20       ??0?$_Task_impl@_N@details@Concurrency@@QAE@PAV_CancellationTokenState@12@Uscheduler_ptr@2@@Z 10067b20 f i WinRTVFS.obj
 0002:00029c30       ??0?$_Vector_alloc@$0A@U?$_Vec_base_types@PAXV?$allocator@PAX@std@@@std@@@std@@QAE@ABV?$allocator@PAX@1@@Z 10067c30 f i WinRTVFS.obj
 0002:00029ce0       ??0?$_Vector_alloc@$0A@U?$_Vec_base_types@V?$shared_ptr@U?$_Task_impl@E@details@Concurrency@@@std@@V?$allocator@V?$shared_ptr@U?$_Task_impl@E@details@Concurrency@@@std@@@2@@std@@@std@@QAE@ABV?$allocator@V?$shared_ptr@U?$_Task_impl@E@details@Concurrency@@@std@@@1@@Z 10067ce0 f i WinRTVFS.obj
 0002:00029d90       ??0?$_Vector_const_iterator@V?$_Vector_val@U?$_Simple_types@PAX@std@@@std@@@std@@QAE@ABV01@@Z 10067d90 f i WinRTVFS.obj
 0002:00029e00       ??0?$_Vector_const_iterator@V?$_Vector_val@U?$_Simple_types@PAX@std@@@std@@@std@@QAE@PAPAXPBU_Container_base12@1@@Z 10067e00 f i WinRTVFS.obj
 0002:00029ec0       ??0?$_Vector_const_iterator@V?$_Vector_val@U?$_Simple_types@V?$shared_ptr@U?$_Task_impl@E@details@Concurrency@@@std@@@std@@@std@@@std@@QAE@PAV?$shared_ptr@U?$_Task_impl@E@details@Concurrency@@@1@PBU_Container_base12@1@@Z 10067ec0 f i WinRTVFS.obj
 0002:00029f80       ??0?$_Vector_iterator@V?$_Vector_val@U?$_Simple_types@V?$shared_ptr@U?$_Task_impl@E@details@Concurrency@@@std@@@std@@@std@@@std@@QAE@PAV?$shared_ptr@U?$_Task_impl@E@details@Concurrency@@@1@PBU_Container_base12@1@@Z 10067f80 f i WinRTVFS.obj
 0002:00029fe0       ??0?$_Vector_val@U?$_Simple_types@PAX@std@@@std@@QAE@XZ 10067fe0 f i WinRTVFS.obj
 0002:0002a070       ??0?$_Vector_val@U?$_Simple_types@V?$shared_ptr@U?$_Task_impl@E@details@Concurrency@@@std@@@std@@@std@@QAE@XZ 10068070 f i WinRTVFS.obj
 0002:0002a100       ??0?$_Wrap_alloc@V?$allocator@PAX@std@@@std@@QAE@ABV?$allocator@PAX@1@@Z 10068100 f i WinRTVFS.obj
 0002:0002a160       ??0?$_Wrap_alloc@V?$allocator@PAX@std@@@std@@QAE@XZ 10068160 f i WinRTVFS.obj
 0002:0002a1c0       ??0?$_Wrap_alloc@V?$allocator@U_Container_proxy@std@@@std@@@std@@QAE@XZ 100681c0 f i WinRTVFS.obj
 0002:0002a220       ??0?$_Wrap_alloc@V?$allocator@V?$shared_ptr@U?$_Task_impl@E@details@Concurrency@@@std@@@std@@@std@@QAE@XZ 10068220 f i WinRTVFS.obj
 0002:0002a280       ??0?$__abi_FunctorCapture@V<lambda_06940b0a4178dd98f799c96a43aa5761>@@XP$AAUIAsyncAction@Foundation@Windows@@W4AsyncStatus@34@@Details@Platform@@QAE@V<lambda_06940b0a4178dd98f799c96a43aa5761>@@@Z 10068280 f i WinRTVFS.obj
 0002:0002a300       ??0?$__abi_FunctorCapture@V<lambda_3e0d823744565aaa3c572230ef0680e7>@@XP$AAU?$IAsyncOperationWithProgress@P$AAUIBuffer@Streams@Storage@Windows@@I@Foundation@Windows@@W4AsyncStatus@34@@Details@Platform@@QAE@V<lambda_3e0d823744565aaa3c572230ef0680e7>@@@Z 10068300 f i WinRTVFS.obj
 0002:0002a380       ??0?$__abi_FunctorCapture@V<lambda_50a95a3b918e2a131c7de197f9d43680>@@XP$AAU?$IAsyncOperation@I@Foundation@Windows@@W4AsyncStatus@34@@Details@Platform@@QAE@V<lambda_50a95a3b918e2a131c7de197f9d43680>@@@Z 10068380 f i WinRTVFS.obj
 0002:0002a400       ??0?$__abi_FunctorCapture@V<lambda_58b35b2c39cebe76475502e8be1fa050>@@XP$AAU?$IAsyncOperation@P$AAUIRandomAccessStream@Streams@Storage@Windows@@@Foundation@Windows@@W4AsyncStatus@34@@Details@Platform@@QAE@V<lambda_58b35b2c39cebe76475502e8be1fa050>@@@Z 10068400 f i WinRTVFS.obj
 0002:0002a480       ??0?$__abi_FunctorCapture@V<lambda_78c8bde34479949ab00939bfc3c21b9e>@@XP$AAU?$IAsyncOperation@_N@Foundation@Windows@@W4AsyncStatus@34@@Details@Platform@@QAE@V<lambda_78c8bde34479949ab00939bfc3c21b9e>@@@Z 10068480 f i WinRTVFS.obj
 0002:0002a500       ??0?$__abi_FunctorCapture@V<lambda_7a641106db6b220fc1bd53009e5e1b6e>@@XP$AAU?$IAsyncOperationWithProgress@II@Foundation@Windows@@W4AsyncStatus@34@@Details@Platform@@QAE@V<lambda_7a641106db6b220fc1bd53009e5e1b6e>@@@Z 10068500 f i WinRTVFS.obj
 0002:0002a580       ??0?$__abi_FunctorCapture@V<lambda_8b35f48eeaabe3dd7cb14b365c80a64b>@@XP$AAU?$IAsyncOperation@P$AAUIBuffer@Streams@Storage@Windows@@@Foundation@Windows@@W4AsyncStatus@34@@Details@Platform@@QAE@V<lambda_8b35f48eeaabe3dd7cb14b365c80a64b>@@@Z 10068580 f i WinRTVFS.obj
 0002:0002a600       ??0?$__abi_FunctorCapture@V<lambda_b5ec294d64b7ae7d96b9bd52c133d46d>@@XP$AAU?$IAsyncOperation@E@Foundation@Windows@@W4AsyncStatus@34@@Details@Platform@@QAE@V<lambda_b5ec294d64b7ae7d96b9bd52c133d46d>@@@Z 10068600 f i WinRTVFS.obj
 0002:0002a680       ??0?$__abi_FunctorCapture@V<lambda_c124a470bc399dc48f76de2d0d06ac02>@@XP$AAU?$IAsyncOperation@P$AAVStorageFolder@Storage@Windows@@@Foundation@Windows@@W4AsyncStatus@34@@Details@Platform@@QAE@V<lambda_c124a470bc399dc48f76de2d0d06ac02>@@@Z 10068680 f i WinRTVFS.obj
 0002:0002a700       ??0?$__abi_FunctorCapture@V<lambda_f0a7c2b0a64e3b533e4acd91ff29d36c>@@XP$AAU?$IAsyncOperation@P$AAVStorageFile@Storage@Windows@@@Foundation@Windows@@W4AsyncStatus@34@@Details@Platform@@QAE@V<lambda_f0a7c2b0a64e3b533e4acd91ff29d36c>@@@Z 10068700 f i WinRTVFS.obj
 0002:0002a780       ??0?$allocator@PAV?$message@H@Concurrency@@@std@@QAE@XZ 10068780 f i WinRTVFS.obj
 0002:0002a7c0       ??0?$allocator@PAX@std@@QAE@ABV01@@Z 100687c0 f i WinRTVFS.obj
 0002:0002a800       ??0?$allocator@PAX@std@@QAE@XZ 10068800 f i WinRTVFS.obj
 0002:0002a840       ??0?$allocator@V?$_Func_class@EE@std@@@std@@QAE@ABV01@@Z 10068840 f i WinRTVFS.obj
 0002:0002a880       ??0?$allocator@V?$_Func_class@EE@std@@@std@@QAE@XZ 10068880 f i WinRTVFS.obj
 0002:0002a8c0       ??0?$allocator@V?$_Func_class@X$$$V@std@@@std@@QAE@ABV01@@Z 100688c0 f i WinRTVFS.obj
 0002:0002a900       ??0?$allocator@V?$_Func_class@X$$$V@std@@@std@@QAE@XZ 10068900 f i WinRTVFS.obj
 0002:0002a940       ??0?$allocator@V?$_Func_class@XABH@std@@@std@@QAE@ABV01@@Z 10068940 f i WinRTVFS.obj
 0002:0002a980       ??0?$allocator@V?$_Func_class@XABH@std@@@std@@QAE@XZ 10068980 f i WinRTVFS.obj
 0002:0002a9c0       ??0?$allocator@V?$_Func_class@XPAV?$message@H@Concurrency@@@std@@@std@@QAE@ABV01@@Z 100689c0 f i WinRTVFS.obj
 0002:0002aa00       ??0?$allocator@V?$_Func_class@XPAV?$message@H@Concurrency@@@std@@@std@@QAE@XZ 10068a00 f i WinRTVFS.obj
 0002:0002aa40       ??0?$allocator@V?$_Func_impl@U?$_Callable_obj@V<lambda_02d862f9cfc639ff7c37ca52d43e6a8c>@@$0A@@std@@V?$allocator@V?$_Func_class@X$$$V@std@@@2@X$$$V@std@@@std@@QAE@ABV01@@Z 10068a40 f i WinRTVFS.obj
 0002:0002aa80       ??0?$allocator@V?$_Func_impl@U?$_Callable_obj@V<lambda_02d862f9cfc639ff7c37ca52d43e6a8c>@@$0A@@std@@V?$allocator@V?$_Func_class@X$$$V@std@@@2@X$$$V@std@@@std@@QAE@XZ 10068a80 f i WinRTVFS.obj
 0002:0002aac0       ??0?$allocator@V?$_Func_impl@U?$_Callable_obj@V<lambda_095a938ce4c5765dcc6b67f548aeb9c7>@@$0A@@std@@V?$allocator@V?$_Func_class@X$$$V@std@@@2@X$$$V@std@@@std@@QAE@ABV01@@Z 10068ac0 f i WinRTVFS.obj
 0002:0002ab00       ??0?$allocator@V?$_Func_impl@U?$_Callable_obj@V<lambda_095a938ce4c5765dcc6b67f548aeb9c7>@@$0A@@std@@V?$allocator@V?$_Func_class@X$$$V@std@@@2@X$$$V@std@@@std@@QAE@XZ 10068b00 f i WinRTVFS.obj
 0002:0002ab40       ??0?$allocator@V?$_Func_impl@U?$_Callable_obj@V<lambda_0b7f78ec4ced38495cec46e0d346e0b9>@@$0A@@std@@V?$allocator@V?$_Func_class@X$$$V@std@@@2@X$$$V@std@@@std@@QAE@ABV01@@Z 10068b40 f i WinRTVFS.obj
 0002:0002ab80       ??0?$allocator@V?$_Func_impl@U?$_Callable_obj@V<lambda_0b7f78ec4ced38495cec46e0d346e0b9>@@$0A@@std@@V?$allocator@V?$_Func_class@X$$$V@std@@@2@X$$$V@std@@@std@@QAE@XZ 10068b80 f i WinRTVFS.obj
 0002:0002abc0       ??0?$allocator@V?$_Func_impl@U?$_Callable_obj@V<lambda_0fe479da16d43edb8e9a254c493d643e>@@$0A@@std@@V?$allocator@V?$_Func_class@X$$$V@std@@@2@X$$$V@std@@@std@@QAE@ABV01@@Z 10068bc0 f i WinRTVFS.obj
 0002:0002ac00       ??0?$allocator@V?$_Func_impl@U?$_Callable_obj@V<lambda_0fe479da16d43edb8e9a254c493d643e>@@$0A@@std@@V?$allocator@V?$_Func_class@X$$$V@std@@@2@X$$$V@std@@@std@@QAE@XZ 10068c00 f i WinRTVFS.obj
 0002:0002ac40       ??0?$allocator@V?$_Func_impl@U?$_Callable_obj@V<lambda_1a93da980d6fe77644a4eefc4e1ad756>@@$0A@@std@@V?$allocator@V?$_Func_class@XABH@std@@@2@XABH@std@@@std@@QAE@ABV01@@Z 10068c40 f i WinRTVFS.obj
 0002:0002ac80       ??0?$allocator@V?$_Func_impl@U?$_Callable_obj@V<lambda_1a93da980d6fe77644a4eefc4e1ad756>@@$0A@@std@@V?$allocator@V?$_Func_class@XABH@std@@@2@XABH@std@@@std@@QAE@XZ 10068c80 f i WinRTVFS.obj
 0002:0002acc0       ??0?$allocator@V?$_Func_impl@U?$_Callable_obj@V<lambda_295bc5f846209cba149a5e74d0d63a72>@@$0A@@std@@V?$allocator@V?$_Func_class@XPAV?$message@H@Concurrency@@@std@@@2@XPAV?$message@H@Concurrency@@@std@@@std@@QAE@ABV01@@Z 10068cc0 f i WinRTVFS.obj
 0002:0002ad00       ??0?$allocator@V?$_Func_impl@U?$_Callable_obj@V<lambda_295bc5f846209cba149a5e74d0d63a72>@@$0A@@std@@V?$allocator@V?$_Func_class@XPAV?$message@H@Concurrency@@@std@@@2@XPAV?$message@H@Concurrency@@@std@@@std@@QAE@XZ 10068d00 f i WinRTVFS.obj
 0002:0002ad40       ??0?$allocator@V?$_Func_impl@U?$_Callable_obj@V<lambda_364e75aa895e992ae8821732ca646aa2>@@$0A@@std@@V?$allocator@V?$_Func_class@X$$$V@std@@@2@X$$$V@std@@@std@@QAE@ABV01@@Z 10068d40 f i WinRTVFS.obj
 0002:0002ad80       ??0?$allocator@V?$_Func_impl@U?$_Callable_obj@V<lambda_364e75aa895e992ae8821732ca646aa2>@@$0A@@std@@V?$allocator@V?$_Func_class@X$$$V@std@@@2@X$$$V@std@@@std@@QAE@XZ 10068d80 f i WinRTVFS.obj
 0002:0002adc0       ??0?$allocator@V?$_Func_impl@U?$_Callable_obj@V<lambda_39cde079c01d1b5b9307ff255a1ccdd9>@@$0A@@std@@V?$allocator@V?$_Func_class@EE@std@@@2@EE@std@@@std@@QAE@ABV01@@Z 10068dc0 f i WinRTVFS.obj
 0002:0002ae00       ??0?$allocator@V?$_Func_impl@U?$_Callable_obj@V<lambda_39cde079c01d1b5b9307ff255a1ccdd9>@@$0A@@std@@V?$allocator@V?$_Func_class@EE@std@@@2@EE@std@@@std@@QAE@XZ 10068e00 f i WinRTVFS.obj
 0002:0002ae40       ??0?$allocator@V?$_Func_impl@U?$_Callable_obj@V<lambda_528650821c608ced6534641e311542a5>@@$0A@@std@@V?$allocator@V?$_Func_class@X$$$V@std@@@2@X$$$V@std@@@std@@QAE@ABV01@@Z 10068e40 f i WinRTVFS.obj
 0002:0002ae80       ??0?$allocator@V?$_Func_impl@U?$_Callable_obj@V<lambda_528650821c608ced6534641e311542a5>@@$0A@@std@@V?$allocator@V?$_Func_class@X$$$V@std@@@2@X$$$V@std@@@std@@QAE@XZ 10068e80 f i WinRTVFS.obj
 0002:0002aec0       ??0?$allocator@V?$_Func_impl@U?$_Callable_obj@V<lambda_579ccd68d569251046038e8620afec85>@@$0A@@std@@V?$allocator@V?$_Func_class@XPAV?$message@H@Concurrency@@@std@@@2@XPAV?$message@H@Concurrency@@@std@@@std@@QAE@ABV01@@Z 10068ec0 f i WinRTVFS.obj
 0002:0002af00       ??0?$allocator@V?$_Func_impl@U?$_Callable_obj@V<lambda_579ccd68d569251046038e8620afec85>@@$0A@@std@@V?$allocator@V?$_Func_class@XPAV?$message@H@Concurrency@@@std@@@2@XPAV?$message@H@Concurrency@@@std@@@std@@QAE@XZ 10068f00 f i WinRTVFS.obj
 0002:0002af40       ??0?$allocator@V?$_Func_impl@U?$_Callable_obj@V<lambda_9fc58f08a03183e50e06176727aeb396>@@$0A@@std@@V?$allocator@V?$_Func_class@X$$$V@std@@@2@X$$$V@std@@@std@@QAE@ABV01@@Z 10068f40 f i WinRTVFS.obj
 0002:0002af80       ??0?$allocator@V?$_Func_impl@U?$_Callable_obj@V<lambda_9fc58f08a03183e50e06176727aeb396>@@$0A@@std@@V?$allocator@V?$_Func_class@X$$$V@std@@@2@X$$$V@std@@@std@@QAE@XZ 10068f80 f i WinRTVFS.obj
 0002:0002afc0       ??0?$allocator@V?$_Func_impl@U?$_Callable_obj@V<lambda_a66b3ee15e662226a0b0b15ae647d32f>@@$0A@@std@@V?$allocator@V?$_Func_class@X$$$V@std@@@2@X$$$V@std@@@std@@QAE@ABV01@@Z 10068fc0 f i WinRTVFS.obj
 0002:0002b000       ??0?$allocator@V?$_Func_impl@U?$_Callable_obj@V<lambda_a66b3ee15e662226a0b0b15ae647d32f>@@$0A@@std@@V?$allocator@V?$_Func_class@X$$$V@std@@@2@X$$$V@std@@@std@@QAE@XZ 10069000 f i WinRTVFS.obj
 0002:0002b040       ??0?$allocator@V?$_Func_impl@U?$_Callable_obj@V<lambda_c1a554f2383dae03f169289aed8c4103>@@$0A@@std@@V?$allocator@V?$_Func_class@X$$$V@std@@@2@X$$$V@std@@@std@@QAE@ABV01@@Z 10069040 f i WinRTVFS.obj
 0002:0002b080       ??0?$allocator@V?$_Func_impl@U?$_Callable_obj@V<lambda_c1a554f2383dae03f169289aed8c4103>@@$0A@@std@@V?$allocator@V?$_Func_class@X$$$V@std@@@2@X$$$V@std@@@std@@QAE@XZ 10069080 f i WinRTVFS.obj
 0002:0002b0c0       ??0?$allocator@V?$_Func_impl@U?$_Callable_obj@V<lambda_c28a53003ed51cdfe295a7d756f98c2f>@@$0A@@std@@V?$allocator@V?$_Func_class@XPAV?$message@H@Concurrency@@@std@@@2@XPAV?$message@H@Concurrency@@@std@@@std@@QAE@ABV01@@Z 100690c0 f i WinRTVFS.obj
 0002:0002b100       ??0?$allocator@V?$_Func_impl@U?$_Callable_obj@V<lambda_c28a53003ed51cdfe295a7d756f98c2f>@@$0A@@std@@V?$allocator@V?$_Func_class@XPAV?$message@H@Concurrency@@@std@@@2@XPAV?$message@H@Concurrency@@@std@@@std@@QAE@XZ 10069100 f i WinRTVFS.obj
 0002:0002b140       ??0?$allocator@V?$_Func_impl@U?$_Callable_obj@V<lambda_e7ef5f1e4e1eca0ae8efc6086cf9f417>@@$0A@@std@@V?$allocator@V?$_Func_class@X$$$V@std@@@2@X$$$V@std@@@std@@QAE@ABV01@@Z 10069140 f i WinRTVFS.obj
 0002:0002b180       ??0?$allocator@V?$_Func_impl@U?$_Callable_obj@V<lambda_e7ef5f1e4e1eca0ae8efc6086cf9f417>@@$0A@@std@@V?$allocator@V?$_Func_class@X$$$V@std@@@2@X$$$V@std@@@std@@QAE@XZ 10069180 f i WinRTVFS.obj
 0002:0002b1c0       ??0?$allocator@V?$shared_ptr@U?$_Task_impl@E@details@Concurrency@@@std@@@std@@QAE@ABV01@@Z 100691c0 f i WinRTVFS.obj
 0002:0002b200       ??0?$allocator@V?$shared_ptr@U?$_Task_impl@E@details@Concurrency@@@std@@@std@@QAE@XZ 10069200 f i WinRTVFS.obj
 0002:0002b240       ??0?$atomic@J@std@@QAE@J@Z 10069240 f i WinRTVFS.obj
 0002:0002b2a0       ??0?$call@HV?$function@$$A6AXABH@Z@std@@@Concurrency@@QAE@ABV?$function@$$A6AXABH@Z@std@@@Z 100692a0 f i WinRTVFS.obj
 0002:0002b380       ??0?$concurrent_queue@PAV?$message@H@Concurrency@@V?$allocator@PAV?$message@H@Concurrency@@@std@@@Concurrency@@QAE@ABV?$allocator@PAV?$message@H@Concurrency@@@std@@@Z 10069380 f i WinRTVFS.obj
 0002:0002b410       ??0?$function@$$A6AXABH@Z@std@@QAE@ABV01@@Z 10069410 f i WinRTVFS.obj
 0002:0002b4c0       ??0?$function@$$A6AXPAV?$message@H@Concurrency@@@Z@std@@QAE@$$T@Z 100694c0 f i WinRTVFS.obj
 0002:0002b520       ??0?$function@$$A6AXXZ@std@@QAE@$$T@Z 10069520 f i WinRTVFS.obj
 0002:0002b580       ??0?$function@$$A6AXXZ@std@@QAE@ABV01@@Z 10069580 f i WinRTVFS.obj
 0002:0002b630       ??0?$message@H@Concurrency@@QAE@ABH@Z 10069630 f i WinRTVFS.obj
 0002:0002b6d0       ??0?$message_processor@H@Concurrency@@QAE@XZ 100696d0 f i WinRTVFS.obj
 0002:0002b720       ??0?$multi_link_registry@V?$ISource@H@Concurrency@@@Concurrency@@QAE@XZ 10069720 f i WinRTVFS.obj
 0002:0002b7a0       ??0?$network_link_registry@V?$ISource@H@Concurrency@@@Concurrency@@QAE@XZ 100697a0 f i WinRTVFS.obj
 0002:0002b7f0       ??0?$network_link_registry@V?$ITarget@H@Concurrency@@@Concurrency@@QAE@XZ 100697f0 f i WinRTVFS.obj
 0002:0002b840       ??0?$ordered_message_processor@H@Concurrency@@QAE@XZ 10069840 f i WinRTVFS.obj
 0002:0002b990       ??0?$shared_ptr@U?$_Task_completion_event_impl@E@details@Concurrency@@@std@@QAE@$$QAV01@@Z 10069990 f i WinRTVFS.obj
 0002:0002ba00       ??0?$shared_ptr@U?$_Task_completion_event_impl@E@details@Concurrency@@@std@@QAE@ABV01@@Z 10069a00 f i WinRTVFS.obj
 0002:0002ba70       ??0?$shared_ptr@U?$_Task_completion_event_impl@E@details@Concurrency@@@std@@QAE@XZ 10069a70 f i WinRTVFS.obj
 0002:0002bad0       ??0?$shared_ptr@U?$_Task_impl@E@details@Concurrency@@@std@@QAE@$$QAV01@@Z 10069ad0 f i WinRTVFS.obj
 0002:0002bb40       ??0?$shared_ptr@U?$_Task_impl@E@details@Concurrency@@@std@@QAE@$$T@Z 10069b40 f i WinRTVFS.obj
 0002:0002bba0       ??0?$shared_ptr@U?$_Task_impl@E@details@Concurrency@@@std@@QAE@ABV01@@Z 10069ba0 f i WinRTVFS.obj
 0002:0002bc10       ??0?$shared_ptr@U?$_Task_impl@E@details@Concurrency@@@std@@QAE@XZ 10069c10 f i WinRTVFS.obj
 0002:0002bc70       ??0?$shared_ptr@U?$_Task_impl@I@details@Concurrency@@@std@@QAE@$$QAV01@@Z 10069c70 f i WinRTVFS.obj
 0002:0002bce0       ??0?$shared_ptr@U?$_Task_impl@I@details@Concurrency@@@std@@QAE@ABV01@@Z 10069ce0 f i WinRTVFS.obj
 0002:0002bd50       ??0?$shared_ptr@U?$_Task_impl@I@details@Concurrency@@@std@@QAE@XZ 10069d50 f i WinRTVFS.obj
 0002:0002bdb0       ??0?$shared_ptr@U?$_Task_impl@P$AAUIBuffer@Streams@Storage@Windows@@@details@Concurrency@@@std@@QAE@$$QAV01@@Z 10069db0 f i WinRTVFS.obj
 0002:0002be20       ??0?$shared_ptr@U?$_Task_impl@P$AAUIBuffer@Streams@Storage@Windows@@@details@Concurrency@@@std@@QAE@ABV01@@Z 10069e20 f i WinRTVFS.obj
 0002:0002be90       ??0?$shared_ptr@U?$_Task_impl@P$AAUIBuffer@Streams@Storage@Windows@@@details@Concurrency@@@std@@QAE@XZ 10069e90 f i WinRTVFS.obj
 0002:0002bef0       ??0?$shared_ptr@U?$_Task_impl@P$AAUIRandomAccessStream@Streams@Storage@Windows@@@details@Concurrency@@@std@@QAE@$$QAV01@@Z 10069ef0 f i WinRTVFS.obj
 0002:0002bf60       ??0?$shared_ptr@U?$_Task_impl@P$AAUIRandomAccessStream@Streams@Storage@Windows@@@details@Concurrency@@@std@@QAE@ABV01@@Z 10069f60 f i WinRTVFS.obj
 0002:0002bfd0       ??0?$shared_ptr@U?$_Task_impl@P$AAUIRandomAccessStream@Streams@Storage@Windows@@@details@Concurrency@@@std@@QAE@XZ 10069fd0 f i WinRTVFS.obj
 0002:0002c030       ??0?$shared_ptr@U?$_Task_impl@P$AAVStorageFile@Storage@Windows@@@details@Concurrency@@@std@@QAE@$$QAV01@@Z 1006a030 f i WinRTVFS.obj
 0002:0002c0a0       ??0?$shared_ptr@U?$_Task_impl@P$AAVStorageFile@Storage@Windows@@@details@Concurrency@@@std@@QAE@ABV01@@Z 1006a0a0 f i WinRTVFS.obj
 0002:0002c110       ??0?$shared_ptr@U?$_Task_impl@P$AAVStorageFile@Storage@Windows@@@details@Concurrency@@@std@@QAE@XZ 1006a110 f i WinRTVFS.obj
 0002:0002c170       ??0?$shared_ptr@U?$_Task_impl@P$AAVStorageFolder@Storage@Windows@@@details@Concurrency@@@std@@QAE@$$QAV01@@Z 1006a170 f i WinRTVFS.obj
 0002:0002c1e0       ??0?$shared_ptr@U?$_Task_impl@P$AAVStorageFolder@Storage@Windows@@@details@Concurrency@@@std@@QAE@ABV01@@Z 1006a1e0 f i WinRTVFS.obj
 0002:0002c250       ??0?$shared_ptr@U?$_Task_impl@P$AAVStorageFolder@Storage@Windows@@@details@Concurrency@@@std@@QAE@XZ 1006a250 f i WinRTVFS.obj
 0002:0002c2b0       ??0?$shared_ptr@U?$_Task_impl@_N@details@Concurrency@@@std@@QAE@$$QAV01@@Z 1006a2b0 f i WinRTVFS.obj
 0002:0002c320       ??0?$shared_ptr@U?$_Task_impl@_N@details@Concurrency@@@std@@QAE@ABV01@@Z 1006a320 f i WinRTVFS.obj
 0002:0002c390       ??0?$shared_ptr@U?$_Task_impl@_N@details@Concurrency@@@std@@QAE@XZ 1006a390 f i WinRTVFS.obj
 0002:0002c3f0       ??0?$shared_ptr@U_ExceptionHolder@details@Concurrency@@@std@@QAE@$$QAV01@@Z 1006a3f0 f i WinRTVFS.obj
 0002:0002c460       ??0?$shared_ptr@U_ExceptionHolder@details@Concurrency@@@std@@QAE@ABV01@@Z 1006a460 f i WinRTVFS.obj
 0002:0002c4d0       ??0?$shared_ptr@U_ExceptionHolder@details@Concurrency@@@std@@QAE@XZ 1006a4d0 f i WinRTVFS.obj
 0002:0002c530       ??0?$shared_ptr@U_Task_impl_base@details@Concurrency@@@std@@QAE@ABV01@@Z 1006a530 f i WinRTVFS.obj
 0002:0002c5a0       ??0?$shared_ptr@Uscheduler_interface@Concurrency@@@std@@QAE@$$QAV01@@Z 1006a5a0 f i WinRTVFS.obj
 0002:0002c610       ??0?$shared_ptr@Uscheduler_interface@Concurrency@@@std@@QAE@$$T@Z 1006a610 f i WinRTVFS.obj
 0002:0002c670       ??0?$shared_ptr@Uscheduler_interface@Concurrency@@@std@@QAE@ABV01@@Z 1006a670 f i WinRTVFS.obj
 0002:0002c6e0       ??0?$single_link_registry@V?$ITarget@H@Concurrency@@@Concurrency@@QAE@XZ 1006a6e0 f i WinRTVFS.obj
 0002:0002c750       ??0?$source_block@V?$single_link_registry@V?$ITarget@H@Concurrency@@@Concurrency@@V?$ordered_message_processor@H@2@@Concurrency@@QAE@XZ 1006a750 f i WinRTVFS.obj
 0002:0002c8b0       ??0?$source_link_manager@V?$multi_link_registry@V?$ISource@H@Concurrency@@@Concurrency@@@Concurrency@@QAE@XZ 1006a8b0 f i WinRTVFS.obj
 0002:0002c990       ??0?$target_block@V?$multi_link_registry@V?$ISource@H@Concurrency@@@Concurrency@@V?$ordered_message_processor@H@2@@Concurrency@@QAE@XZ 1006a990 f i WinRTVFS.obj
 0002:0002cab0       ??0?$task@E@Concurrency@@QAE@$$QAV01@@Z 1006aab0 f i WinRTVFS.obj
 0002:0002cb20       ??0?$task@E@Concurrency@@QAE@XZ 1006ab20 f i WinRTVFS.obj
 0002:0002cb80       ??0?$task@I@Concurrency@@QAE@$$QAV01@@Z 1006ab80 f i WinRTVFS.obj
 0002:0002cbf0       ??0?$task@P$AAUIBuffer@Streams@Storage@Windows@@@Concurrency@@QAE@$$QAV01@@Z 1006abf0 f i WinRTVFS.obj
 0002:0002cc60       ??0?$task@P$AAUIRandomAccessStream@Streams@Storage@Windows@@@Concurrency@@QAE@$$QAV01@@Z 1006ac60 f i WinRTVFS.obj
 0002:0002ccd0       ??0?$task@P$AAVStorageFile@Storage@Windows@@@Concurrency@@QAE@$$QAV01@@Z 1006acd0 f i WinRTVFS.obj
 0002:0002cd40       ??0?$task@P$AAVStorageFolder@Storage@Windows@@@Concurrency@@QAE@$$QAV01@@Z 1006ad40 f i WinRTVFS.obj
 0002:0002cdb0       ??0?$task@X@Concurrency@@QAE@$$QAV01@@Z 1006adb0 f i WinRTVFS.obj
 0002:0002ce20       ??0?$task@X@Concurrency@@QAE@XZ 1006ae20 f i WinRTVFS.obj
 0002:0002ce80       ??0?$task@_N@Concurrency@@QAE@$$QAV01@@Z 1006ae80 f i WinRTVFS.obj
 0002:0002cef0       ??0?$task_completion_event@E@Concurrency@@QAE@ABV01@@Z 1006aef0 f i WinRTVFS.obj
 0002:0002cf50       ??0?$task_completion_event@E@Concurrency@@QAE@XZ 1006af50 f i WinRTVFS.obj
 0002:0002cfb0       ??0?$task_completion_event@X@Concurrency@@QAE@ABV01@@Z 1006afb0 f i WinRTVFS.obj
 0002:0002d010       ??0?$task_completion_event@X@Concurrency@@QAE@XZ 1006b010 f i WinRTVFS.obj
 0002:0002d070       ??0?$timer@H@Concurrency@@QAE@IABHPAV?$ITarget@H@1@_N@Z 1006b070 f i WinRTVFS.obj
 0002:0002d170       ??0?$vector@PAXV?$allocator@PAX@std@@@std@@QAE@ABV01@@Z 1006b170 f i WinRTVFS.obj
 0002:0002d300       ??0?$vector@PAXV?$allocator@PAX@std@@@std@@QAE@XZ 1006b300 f i WinRTVFS.obj
 0002:0002d370       ??0?$vector@V?$shared_ptr@U?$_Task_impl@E@details@Concurrency@@@std@@V?$allocator@V?$shared_ptr@U?$_Task_impl@E@details@Concurrency@@@std@@@2@@std@@QAE@XZ 1006b370 f i WinRTVFS.obj
 0002:0002d3e0       ??0?$weak_ptr@U_Task_impl_base@details@Concurrency@@@std@@QAE@ABV01@@Z 1006b3e0 f i WinRTVFS.obj
 0002:0002d450       ??0Buffer@Streams@Storage@Windows@@Q$AAA@I@Z 1006b450 f i WinRTVFS.obj
 0002:0002d650       ??0String@Platform@@Q$AAA@PB_WI@Z 1006b650 f i WinRTVFS.obj
 0002:0002d720       ??0_CancellationTokenRegistration@details@Concurrency@@QAE@J@Z 1006b720 f i WinRTVFS.obj
 0002:0002d7b0       ??0_Chore@details@Concurrency@@IAE@XZ 1006b7b0 f i WinRTVFS.obj
 0002:0002d800       ??0_ContextCallback@details@Concurrency@@QAE@$$QAV012@@Z 1006b800 f i WinRTVFS.obj
 0002:0002d860       ??0_ContextCallback@details@Concurrency@@QAE@ABV012@@Z 1006b860 f i WinRTVFS.obj
 0002:0002d8c0       ??0_ContextCallback@details@Concurrency@@QAE@_N@Z 1006b8c0 f i WinRTVFS.obj
 0002:0002d920       ??0_ContinuationTaskHandleBase@details@Concurrency@@QAE@XZ 1006b920 f i WinRTVFS.obj
 0002:0002da00       ??0_Destroyer@?$concurrent_queue@PAV?$message@H@Concurrency@@V?$allocator@PAV?$message@H@Concurrency@@@std@@@Concurrency@@QAE@AAPAV?$message@H@2@@Z 1006ba00 f i WinRTVFS.obj
 0002:0002da50       ??0_ExceptionHolder@details@Concurrency@@QAE@ABVexception_ptr@std@@ABV_TaskCreationCallstack@12@@Z 1006ba50 f i WinRTVFS.obj
 0002:0002db30       ??0_ExceptionHolder@details@Concurrency@@QAE@P$AAVException@Platform@@ABV_TaskCreationCallstack@12@@Z 1006bb30 f i WinRTVFS.obj
 0002:0002dc10       ??0_Holder@_TaskProcThunk@details@Concurrency@@QAE@PAU123@@Z 1006bc10 f i WinRTVFS.obj
 0002:0002dc60       ??0_IAsyncActionToAsyncOperationConverter@details@Concurrency@@Q$AAA@P$AAUIAsyncAction@Foundation@Windows@@@Z 1006bc60 f i WinRTVFS.obj
 0002:0002dd30       ??0_Internal_task_options@details@Concurrency@@QAE@XZ 1006bd30 f i WinRTVFS.obj
 0002:0002dd90       ??0_Iterator_base12@std@@QAE@ABU01@@Z 1006bd90 f i WinRTVFS.obj
 0002:0002de10       ??0_Iterator_base12@std@@QAE@XZ 1006be10 f i WinRTVFS.obj
 0002:0002de60       ??0_RefCounter@details@Concurrency@@IAE@J@Z 1006be60 f i WinRTVFS.obj
 0002:0002df10       ??0_Ref_count_base@std@@IAE@XZ 1006bf10 f i WinRTVFS.obj
 0002:0002df90       ??0_StackGuard@details@Concurrency@@QAE@XZ 1006bf90 f i WinRTVFS.obj
 0002:0002e010       ??0_TaskCollectionImpl@details@Concurrency@@QAE@Uscheduler_ptr@2@@Z 1006c010 f i WinRTVFS.obj
 0002:0002e100       ??0_TaskCreationCallstack@details@Concurrency@@QAE@ABV012@@Z 1006c100 f i WinRTVFS.obj
 0002:0002e170       ??0_TaskCreationCallstack@details@Concurrency@@QAE@XZ 1006c170 f i WinRTVFS.obj
 0002:0002e1e0       ??0_TaskEventLogger@details@Concurrency@@QAE@PAU_Task_impl_base@12@@Z 1006c1e0 f i WinRTVFS.obj
 0002:0002e240       ??0_TaskProcHandle@details@Concurrency@@QAE@XZ 1006c240 f i WinRTVFS.obj
 0002:0002e300       ??0_TaskProcThunk@details@Concurrency@@QAE@ABV?$function@$$A6AXXZ@std@@@Z 1006c300 f i WinRTVFS.obj
 0002:0002e360       ??0_TaskWorkItemRAIILogger@details@Concurrency@@QAE@AAU_TaskEventLogger@12@@Z 1006c360 f i WinRTVFS.obj
 0002:0002e3d0       ??0_Task_impl_base@details@Concurrency@@QAE@PAV_CancellationTokenState@12@Uscheduler_ptr@2@@Z 1006c3d0 f i WinRTVFS.obj
 0002:0002e5c0       ??0_UnrealizedChore@details@Concurrency@@QAE@XZ 1006c5c0 f i WinRTVFS.obj
 0002:0002e630       ??0__abi_CaptureBase@Details@Platform@@QAE@XZ 1006c630 f i WinRTVFS.obj
 0002:0002e680       ??0__abi_CapturePtr@Details@Platform@@QAE@XZ 1006c680 f i WinRTVFS.obj
 0002:0002e6d0       ??0__abi_FTMWeakRefData@@QAE@P$AAVObject@Platform@@W4CallbackContext@2@@Z 1006c6d0 f i WinRTVFS.obj
 0002:0002e770       ??0bad_alloc@std@@QAE@ABV01@@Z 1006c770 f i WinRTVFS.obj
 0002:0002e7f0       ??0bad_alloc@std@@QAE@XZ   1006c7f0 f i WinRTVFS.obj
 0002:0002e880       ??0bad_target@Concurrency@@QAE@ABV01@@Z 1006c880 f i WinRTVFS.obj
 0002:0002e900       ??0bad_weak_ptr@std@@QAE@ABV01@@Z 1006c900 f i WinRTVFS.obj
 0002:0002e980       ??0bad_weak_ptr@std@@QAE@PBD@Z 1006c980 f i WinRTVFS.obj
 0002:0002e9f0       ??0cancellation_token@Concurrency@@AAE@XZ 1006c9f0 f i WinRTVFS.obj
 0002:0002ea40       ??0cancellation_token@Concurrency@@QAE@ABV01@@Z 1006ca40 f i WinRTVFS.obj
 0002:0002eaa0       ??0exception_ptr@std@@QAE@ABV01@@Z 1006caa0 f i WinRTVFS.obj
 0002:0002eb10       ??0exception_ptr@std@@QAE@XZ 1006cb10 f i WinRTVFS.obj
 0002:0002eb80       ??0invalid_argument@std@@QAE@ABV01@@Z 1006cb80 f i WinRTVFS.obj
 0002:0002ebf0       ??0invalid_argument@std@@QAE@PBD@Z 1006cbf0 f i WinRTVFS.obj
 0002:0002ec60       ??0invalid_link_target@Concurrency@@QAE@ABV01@@Z 1006cc60 f i WinRTVFS.obj
 0002:0002ece0       ??0invalid_operation@Concurrency@@QAE@ABV01@@Z 1006cce0 f i WinRTVFS.obj
 0002:0002ed60       ??0logic_error@std@@QAE@ABV01@@Z 1006cd60 f i WinRTVFS.obj
 0002:0002ede0       ??0logic_error@std@@QAE@PBD@Z 1006cde0 f i WinRTVFS.obj
 0002:0002ee60       ??0message_not_found@Concurrency@@QAE@ABV01@@Z 1006ce60 f i WinRTVFS.obj
 0002:0002eee0       ??0runtime_error@std@@QAE@ABV01@@Z 1006cee0 f i WinRTVFS.obj
 0002:0002ef60       ??0runtime_error@std@@QAE@PBD@Z 1006cf60 f i WinRTVFS.obj
 0002:0002efe0       ??0scheduler_ptr@Concurrency@@QAE@ABU01@@Z 1006cfe0 f i WinRTVFS.obj
 0002:0002f050       ??0scheduler_ptr@Concurrency@@QAE@V?$shared_ptr@Uscheduler_interface@Concurrency@@@std@@@Z 1006d050 f i WinRTVFS.obj
 0002:0002f0d0       ??0task_canceled@Concurrency@@QAE@ABV01@@Z 1006d0d0 f i WinRTVFS.obj
 0002:0002f150       ??0task_continuation_context@Concurrency@@AAE@_N@Z 1006d150 f i WinRTVFS.obj
 0002:0002f1b0       ??0task_continuation_context@Concurrency@@QAE@ABV01@@Z 1006d1b0 f i WinRTVFS.obj
 0002:0002f210       ??0task_options@Concurrency@@QAE@XZ 1006d210 f i WinRTVFS.obj
 0002:0002f7c0       ??1?$Agile@P$AAU?$IAsyncOperationWithProgress@II@Foundation@Windows@@$00@Platform@@QAE@XZ 1006d7c0 f i WinRTVFS.obj
 0002:0002f830       ??1?$Agile@P$AAU?$IAsyncOperationWithProgress@P$AAUIBuffer@Streams@Storage@Windows@@I@Foundation@Windows@@$00@Platform@@QAE@XZ 1006d830 f i WinRTVFS.obj
 0002:0002f8a0       ??1?$Agile@P$AAUIAsyncAction@Foundation@Windows@@$00@Platform@@QAE@XZ 1006d8a0 f i WinRTVFS.obj
 0002:0002f910       ??1?$Agile@P$AAUIBuffer@Streams@Storage@Windows@@$00@Platform@@QAE@XZ 1006d910 f i WinRTVFS.obj
 0002:0002f980       ??1?$Agile@P$AAUIRandomAccessStream@Streams@Storage@Windows@@$00@Platform@@QAE@XZ 1006d980 f i WinRTVFS.obj
 0002:0002f9f0       ??1?$Agile@P$AAVStorageFile@Storage@Windows@@$0A@@Platform@@QAE@XZ 1006d9f0 f i WinRTVFS.obj
 0002:0002fa50       ??1?$Agile@P$AAVStorageFolder@Storage@Windows@@$0A@@Platform@@QAE@XZ 1006da50 f i WinRTVFS.obj
 0002:0002fab0       ??1?$ComPtr@UIAgileObject@@@WRL@Microsoft@@QAE@XZ 1006dab0 f i WinRTVFS.obj
 0002:0002fb00       ??1?$ComPtr@UIBufferByteAccess@Streams@Storage@Windows@@@WRL@Microsoft@@QAE@XZ 1006db00 f i WinRTVFS.obj
 0002:0002fb50       ??1?$ComPtr@UIUnknown@@@WRL@Microsoft@@QAE@XZ 1006db50 f i WinRTVFS.obj
 0002:0002fba0       ??1?$ISource@H@Concurrency@@UAE@XZ 1006dba0 f i WinRTVFS.obj
 0002:0002fbe0       ??1?$ITarget@H@Concurrency@@UAE@XZ 1006dbe0 f i WinRTVFS.obj
 0002:0002fc20       ??1?$_AsyncInfoImpl@P$AAU?$IAsyncOperationWithProgress@II@Foundation@Windows@@V?$AsyncOperationWithProgressCompletedHandler@II@23@I@details@Concurrency@@I$AAA@XZ 1006dc20 f i WinRTVFS.obj
 0002:0002fc80       ??1?$_AsyncInfoImpl@P$AAU?$IAsyncOperationWithProgress@P$AAUIBuffer@Streams@Storage@Windows@@I@Foundation@Windows@@V?$AsyncOperationWithProgressCompletedHandler@P$AAUIBuffer@Streams@Storage@Windows@@I@23@P$AAUIBuffer@Streams@Storage@3@@details@Concurrency@@I$AAA@XZ 1006dc80 f i WinRTVFS.obj
 0002:0002fce0       ??1?$_AsyncInfoImpl@P$AAUIAsyncAction@Foundation@Windows@@VAsyncActionCompletedHandler@23@E@details@Concurrency@@I$AAA@XZ 1006dce0 f i WinRTVFS.obj
 0002:0002fd40       ??1?$_AutoDeleter@U_TaskProcHandle@details@Concurrency@@@details@Concurrency@@QAE@XZ 1006dd40 f i WinRTVFS.obj
 0002:0002fdf0       ??1?$_Callable_base@V<lambda_1a93da980d6fe77644a4eefc4e1ad756>@@$0A@@std@@QAE@XZ 1006ddf0 f i WinRTVFS.obj
 0002:0002fe40       ??1?$_Callable_base@V<lambda_39cde079c01d1b5b9307ff255a1ccdd9>@@$0A@@std@@QAE@XZ 1006de40 f i WinRTVFS.obj
 0002:0002fe90       ??1?$_Callable_base@V<lambda_e7ef5f1e4e1eca0ae8efc6086cf9f417>@@$0A@@std@@QAE@XZ 1006de90 f i WinRTVFS.obj
 0002:0002fee0       ??1?$_Callable_obj@V<lambda_1a93da980d6fe77644a4eefc4e1ad756>@@$0A@@std@@QAE@XZ 1006dee0 f i WinRTVFS.obj
 0002:0002ff30       ??1?$_Callable_obj@V<lambda_39cde079c01d1b5b9307ff255a1ccdd9>@@$0A@@std@@QAE@XZ 1006df30 f i WinRTVFS.obj
 0002:0002ff80       ??1?$_Callable_obj@V<lambda_e7ef5f1e4e1eca0ae8efc6086cf9f417>@@$0A@@std@@QAE@XZ 1006df80 f i WinRTVFS.obj
 0002:0002ffd0       ??1?$_CancellationTokenCallback@V<lambda_17cb9174022a2677ccd4c777403439ce>@@@details@Concurrency@@UAE@XZ 1006dfd0 f i WinRTVFS.obj
 0002:00030030       ??1?$_ContinuationTaskHandle@XXV<lambda_9fc58f08a03183e50e06176727aeb396>@@U?$integral_constant@_N$0A@@std@@U_TypeSelectorNoAsync@details@Concurrency@@@?$task@E@Concurrency@@UAE@XZ 1006e030 f i WinRTVFS.obj
 0002:000300a0       ??1?$_Dynamic_array@PAV?$ISource@H@Concurrency@@@details@Concurrency@@QAE@XZ 1006e0a0 f i WinRTVFS.obj
 0002:000300f0       ??1?$_Func_base@EE@std@@UAE@XZ 1006e0f0 f i WinRTVFS.obj
 0002:00030130       ??1?$_Func_base@X$$$V@std@@UAE@XZ 1006e130 f i WinRTVFS.obj
 0002:00030170       ??1?$_Func_base@XABH@std@@UAE@XZ 1006e170 f i WinRTVFS.obj
 0002:000301b0       ??1?$_Func_base@XPAV?$message@H@Concurrency@@@std@@UAE@XZ 1006e1b0 f i WinRTVFS.obj
 0002:000301f0       ??1?$_Func_class@EE@std@@QAE@XZ 1006e1f0 f i WinRTVFS.obj
 0002:00030240       ??1?$_Func_class@X$$$V@std@@QAE@XZ 1006e240 f i WinRTVFS.obj
 0002:00030290       ??1?$_Func_class@XABH@std@@QAE@XZ 1006e290 f i WinRTVFS.obj
 0002:000302e0       ??1?$_Func_class@XPAV?$message@H@Concurrency@@@std@@QAE@XZ 1006e2e0 f i WinRTVFS.obj
 0002:00030330       ??1?$_Func_class@_NABH@std@@QAE@XZ 1006e330 f i WinRTVFS.obj
 0002:00030380       ??1?$_Func_impl@U?$_Callable_obj@V<lambda_02d862f9cfc639ff7c37ca52d43e6a8c>@@$0A@@std@@V?$allocator@V?$_Func_class@X$$$V@std@@@2@X$$$V@std@@UAE@XZ 1006e380 f i WinRTVFS.obj
 0002:000303e0       ??1?$_Func_impl@U?$_Callable_obj@V<lambda_095a938ce4c5765dcc6b67f548aeb9c7>@@$0A@@std@@V?$allocator@V?$_Func_class@X$$$V@std@@@2@X$$$V@std@@UAE@XZ 1006e3e0 f i WinRTVFS.obj
 0002:00030440       ??1?$_Func_impl@U?$_Callable_obj@V<lambda_0b7f78ec4ced38495cec46e0d346e0b9>@@$0A@@std@@V?$allocator@V?$_Func_class@X$$$V@std@@@2@X$$$V@std@@UAE@XZ 1006e440 f i WinRTVFS.obj
 0002:000304a0       ??1?$_Func_impl@U?$_Callable_obj@V<lambda_0fe479da16d43edb8e9a254c493d643e>@@$0A@@std@@V?$allocator@V?$_Func_class@X$$$V@std@@@2@X$$$V@std@@UAE@XZ 1006e4a0 f i WinRTVFS.obj
 0002:00030500       ??1?$_Func_impl@U?$_Callable_obj@V<lambda_1a93da980d6fe77644a4eefc4e1ad756>@@$0A@@std@@V?$allocator@V?$_Func_class@XABH@std@@@2@XABH@std@@UAE@XZ 1006e500 f i WinRTVFS.obj
 0002:00030570       ??1?$_Func_impl@U?$_Callable_obj@V<lambda_295bc5f846209cba149a5e74d0d63a72>@@$0A@@std@@V?$allocator@V?$_Func_class@XPAV?$message@H@Concurrency@@@std@@@2@XPAV?$message@H@Concurrency@@@std@@UAE@XZ 1006e570 f i WinRTVFS.obj
 0002:000305d0       ??1?$_Func_impl@U?$_Callable_obj@V<lambda_364e75aa895e992ae8821732ca646aa2>@@$0A@@std@@V?$allocator@V?$_Func_class@X$$$V@std@@@2@X$$$V@std@@UAE@XZ 1006e5d0 f i WinRTVFS.obj
 0002:00030630       ??1?$_Func_impl@U?$_Callable_obj@V<lambda_39cde079c01d1b5b9307ff255a1ccdd9>@@$0A@@std@@V?$allocator@V?$_Func_class@EE@std@@@2@EE@std@@UAE@XZ 1006e630 f i WinRTVFS.obj
 0002:000306a0       ??1?$_Func_impl@U?$_Callable_obj@V<lambda_528650821c608ced6534641e311542a5>@@$0A@@std@@V?$allocator@V?$_Func_class@X$$$V@std@@@2@X$$$V@std@@UAE@XZ 1006e6a0 f i WinRTVFS.obj
 0002:00030700       ??1?$_Func_impl@U?$_Callable_obj@V<lambda_579ccd68d569251046038e8620afec85>@@$0A@@std@@V?$allocator@V?$_Func_class@XPAV?$message@H@Concurrency@@@std@@@2@XPAV?$message@H@Concurrency@@@std@@UAE@XZ 1006e700 f i WinRTVFS.obj
 0002:00030760       ??1?$_Func_impl@U?$_Callable_obj@V<lambda_9fc58f08a03183e50e06176727aeb396>@@$0A@@std@@V?$allocator@V?$_Func_class@X$$$V@std@@@2@X$$$V@std@@UAE@XZ 1006e760 f i WinRTVFS.obj
 0002:000307c0       ??1?$_Func_impl@U?$_Callable_obj@V<lambda_a66b3ee15e662226a0b0b15ae647d32f>@@$0A@@std@@V?$allocator@V?$_Func_class@X$$$V@std@@@2@X$$$V@std@@UAE@XZ 1006e7c0 f i WinRTVFS.obj
 0002:00030820       ??1?$_Func_impl@U?$_Callable_obj@V<lambda_c1a554f2383dae03f169289aed8c4103>@@$0A@@std@@V?$allocator@V?$_Func_class@X$$$V@std@@@2@X$$$V@std@@UAE@XZ 1006e820 f i WinRTVFS.obj
 0002:00030880       ??1?$_Func_impl@U?$_Callable_obj@V<lambda_c28a53003ed51cdfe295a7d756f98c2f>@@$0A@@std@@V?$allocator@V?$_Func_class@XPAV?$message@H@Concurrency@@@std@@@2@XPAV?$message@H@Concurrency@@@std@@UAE@XZ 1006e880 f i WinRTVFS.obj
 0002:000308e0       ??1?$_Func_impl@U?$_Callable_obj@V<lambda_e7ef5f1e4e1eca0ae8efc6086cf9f417>@@$0A@@std@@V?$allocator@V?$_Func_class@X$$$V@std@@@2@X$$$V@std@@UAE@XZ 1006e8e0 f i WinRTVFS.obj
 0002:00030950       ??1?$_IAsyncOperationWithProgressToAsyncOperationConverter@II@details@Concurrency@@A$AAA@XZ 1006e950 f i WinRTVFS.obj
 0002:000309b0       ??1?$_IAsyncOperationWithProgressToAsyncOperationConverter@P$AAUIBuffer@Streams@Storage@Windows@@I@details@Concurrency@@A$AAA@XZ 1006e9b0 f i WinRTVFS.obj
 0002:00030a10       ??1?$_Iterator012@Urandom_access_iterator_tag@std@@PAXHPBQAXABQAXU_Iterator_base12@2@@std@@QAE@XZ 1006ea10 f i WinRTVFS.obj
 0002:00030a60       ??1?$_Iterator012@Urandom_access_iterator_tag@std@@V?$shared_ptr@U?$_Task_impl@E@details@Concurrency@@@2@HPBV32@ABV32@U_Iterator_base12@2@@std@@QAE@XZ 1006ea60 f i WinRTVFS.obj
 0002:00030ab0       ??1?$_PPLTaskHandle@EU?$_ContinuationTaskHandle@XXV<lambda_9fc58f08a03183e50e06176727aeb396>@@U?$integral_constant@_N$0A@@std@@U_TypeSelectorNoAsync@details@Concurrency@@@?$task@E@Concurrency@@U_ContinuationTaskHandleBase@details@3@@details@Concurrency@@UAE@XZ 1006eab0 f i WinRTVFS.obj
 0002:00030b80       ??1?$_Ref_count_obj@U?$_Task_completion_event_impl@E@details@Concurrency@@@std@@UAE@XZ 1006eb80 f i WinRTVFS.obj
 0002:00030bd0       ??1?$_Ref_count_obj@U?$_Task_impl@E@details@Concurrency@@@std@@UAE@XZ 1006ebd0 f i WinRTVFS.obj
 0002:00030c20       ??1?$_Ref_count_obj@U?$_Task_impl@I@details@Concurrency@@@std@@UAE@XZ 1006ec20 f i WinRTVFS.obj
 0002:00030c70       ??1?$_Ref_count_obj@U?$_Task_impl@P$AAUIBuffer@Streams@Storage@Windows@@@details@Concurrency@@@std@@UAE@XZ 1006ec70 f i WinRTVFS.obj
 0002:00030cc0       ??1?$_Ref_count_obj@U?$_Task_impl@P$AAUIRandomAccessStream@Streams@Storage@Windows@@@details@Concurrency@@@std@@UAE@XZ 1006ecc0 f i WinRTVFS.obj
 0002:00030d10       ??1?$_Ref_count_obj@U?$_Task_impl@P$AAVStorageFile@Storage@Windows@@@details@Concurrency@@@std@@UAE@XZ 1006ed10 f i WinRTVFS.obj
 0002:00030d60       ??1?$_Ref_count_obj@U?$_Task_impl@P$AAVStorageFolder@Storage@Windows@@@details@Concurrency@@@std@@UAE@XZ 1006ed60 f i WinRTVFS.obj
 0002:00030db0       ??1?$_Ref_count_obj@U?$_Task_impl@_N@details@Concurrency@@@std@@UAE@XZ 1006edb0 f i WinRTVFS.obj
 0002:00030e00       ??1?$_Ref_count_obj@U_ExceptionHolder@details@Concurrency@@@std@@UAE@XZ 1006ee00 f i WinRTVFS.obj
 0002:00030e50       ??1?$_ResultHolder@P$AAUIBuffer@Streams@Storage@Windows@@@details@Concurrency@@QAE@XZ 1006ee50 f i WinRTVFS.obj
 0002:00030ea0       ??1?$_ResultHolder@P$AAUIRandomAccessStream@Streams@Storage@Windows@@@details@Concurrency@@QAE@XZ 1006eea0 f i WinRTVFS.obj
 0002:00030ef0       ??1?$_ResultHolder@P$AAVStorageFile@Storage@Windows@@@details@Concurrency@@QAE@XZ 1006eef0 f i WinRTVFS.obj
 0002:00030f40       ??1?$_ResultHolder@P$AAVStorageFolder@Storage@Windows@@@details@Concurrency@@QAE@XZ 1006ef40 f i WinRTVFS.obj
 0002:00030f90       ??1?$_Source_link_iterator@V?$multi_link_registry@V?$ISource@H@Concurrency@@@Concurrency@@@Concurrency@@UAE@XZ 1006ef90 f i WinRTVFS.obj
 0002:00031050       ??1?$_Task_completion_event_impl@E@details@Concurrency@@QAE@XZ 1006f050 f i WinRTVFS.obj
 0002:00031280       ??1?$_Task_impl@E@details@Concurrency@@UAE@XZ 1006f280 f i WinRTVFS.obj
 0002:00031350       ??1?$_Task_impl@I@details@Concurrency@@UAE@XZ 1006f350 f i WinRTVFS.obj
 0002:00031420       ??1?$_Task_impl@P$AAUIBuffer@Streams@Storage@Windows@@@details@Concurrency@@UAE@XZ 1006f420 f i WinRTVFS.obj
 0002:00031500       ??1?$_Task_impl@P$AAUIRandomAccessStream@Streams@Storage@Windows@@@details@Concurrency@@UAE@XZ 1006f500 f i WinRTVFS.obj
 0002:000315e0       ??1?$_Task_impl@P$AAVStorageFile@Storage@Windows@@@details@Concurrency@@UAE@XZ 1006f5e0 f i WinRTVFS.obj
 0002:000316c0       ??1?$_Task_impl@P$AAVStorageFolder@Storage@Windows@@@details@Concurrency@@UAE@XZ 1006f6c0 f i WinRTVFS.obj
 0002:000317a0       ??1?$_Task_impl@_N@details@Concurrency@@UAE@XZ 1006f7a0 f i WinRTVFS.obj
 0002:00031870       ??1?$_Vector_alloc@$0A@U?$_Vec_base_types@PAXV?$allocator@PAX@std@@@std@@@std@@QAE@XZ 1006f870 f i WinRTVFS.obj
 0002:000318d0       ??1?$_Vector_alloc@$0A@U?$_Vec_base_types@V?$shared_ptr@U?$_Task_impl@E@details@Concurrency@@@std@@V?$allocator@V?$shared_ptr@U?$_Task_impl@E@details@Concurrency@@@std@@@2@@std@@@std@@QAE@XZ 1006f8d0 f i WinRTVFS.obj
 0002:00031930       ??1?$_Vector_const_iterator@V?$_Vector_val@U?$_Simple_types@PAX@std@@@std@@@std@@QAE@XZ 1006f930 f i WinRTVFS.obj
 0002:00031980       ??1?$_Vector_const_iterator@V?$_Vector_val@U?$_Simple_types@V?$shared_ptr@U?$_Task_impl@E@details@Concurrency@@@std@@@std@@@std@@@std@@QAE@XZ 1006f980 f i WinRTVFS.obj
 0002:000319d0       ??1?$_Vector_iterator@V?$_Vector_val@U?$_Simple_types@V?$shared_ptr@U?$_Task_impl@E@details@Concurrency@@@std@@@std@@@std@@@std@@QAE@XZ 1006f9d0 f i WinRTVFS.obj
 0002:00031a20       ??1?$_Vector_val@U?$_Simple_types@PAX@std@@@std@@QAE@XZ 1006fa20 f i WinRTVFS.obj
 0002:00031a80       ??1?$_Vector_val@U?$_Simple_types@V?$shared_ptr@U?$_Task_impl@E@details@Concurrency@@@std@@@std@@@std@@QAE@XZ 1006fa80 f i WinRTVFS.obj
 0002:00031ae0       ??1?$__abi_FunctorCapture@V<lambda_06940b0a4178dd98f799c96a43aa5761>@@XP$AAUIAsyncAction@Foundation@Windows@@W4AsyncStatus@34@@Details@Platform@@UAE@XZ 1006fae0 f i WinRTVFS.obj
 0002:00031b40       ??1?$__abi_FunctorCapture@V<lambda_3e0d823744565aaa3c572230ef0680e7>@@XP$AAU?$IAsyncOperationWithProgress@P$AAUIBuffer@Streams@Storage@Windows@@I@Foundation@Windows@@W4AsyncStatus@34@@Details@Platform@@UAE@XZ 1006fb40 f i WinRTVFS.obj
 0002:00031ba0       ??1?$__abi_FunctorCapture@V<lambda_50a95a3b918e2a131c7de197f9d43680>@@XP$AAU?$IAsyncOperation@I@Foundation@Windows@@W4AsyncStatus@34@@Details@Platform@@UAE@XZ 1006fba0 f i WinRTVFS.obj
 0002:00031c00       ??1?$__abi_FunctorCapture@V<lambda_58b35b2c39cebe76475502e8be1fa050>@@XP$AAU?$IAsyncOperation@P$AAUIRandomAccessStream@Streams@Storage@Windows@@@Foundation@Windows@@W4AsyncStatus@34@@Details@Platform@@UAE@XZ 1006fc00 f i WinRTVFS.obj
 0002:00031c60       ??1?$__abi_FunctorCapture@V<lambda_78c8bde34479949ab00939bfc3c21b9e>@@XP$AAU?$IAsyncOperation@_N@Foundation@Windows@@W4AsyncStatus@34@@Details@Platform@@UAE@XZ 1006fc60 f i WinRTVFS.obj
 0002:00031cc0       ??1?$__abi_FunctorCapture@V<lambda_7a641106db6b220fc1bd53009e5e1b6e>@@XP$AAU?$IAsyncOperationWithProgress@II@Foundation@Windows@@W4AsyncStatus@34@@Details@Platform@@UAE@XZ 1006fcc0 f i WinRTVFS.obj
 0002:00031d20       ??1?$__abi_FunctorCapture@V<lambda_8b35f48eeaabe3dd7cb14b365c80a64b>@@XP$AAU?$IAsyncOperation@P$AAUIBuffer@Streams@Storage@Windows@@@Foundation@Windows@@W4AsyncStatus@34@@Details@Platform@@UAE@XZ 1006fd20 f i WinRTVFS.obj
 0002:00031d80       ??1?$__abi_FunctorCapture@V<lambda_b5ec294d64b7ae7d96b9bd52c133d46d>@@XP$AAU?$IAsyncOperation@E@Foundation@Windows@@W4AsyncStatus@34@@Details@Platform@@UAE@XZ 1006fd80 f i WinRTVFS.obj
 0002:00031de0       ??1?$__abi_FunctorCapture@V<lambda_c124a470bc399dc48f76de2d0d06ac02>@@XP$AAU?$IAsyncOperation@P$AAVStorageFolder@Storage@Windows@@@Foundation@Windows@@W4AsyncStatus@34@@Details@Platform@@UAE@XZ 1006fde0 f i WinRTVFS.obj
 0002:00031e40       ??1?$__abi_FunctorCapture@V<lambda_f0a7c2b0a64e3b533e4acd91ff29d36c>@@XP$AAU?$IAsyncOperation@P$AAVStorageFile@Storage@Windows@@@Foundation@Windows@@W4AsyncStatus@34@@Details@Platform@@UAE@XZ 1006fe40 f i WinRTVFS.obj
 0002:00031ea0       ??1?$call@HV?$function@$$A6AXABH@Z@std@@@Concurrency@@UAE@XZ 1006fea0 f i WinRTVFS.obj
 0002:00031f60       ??1?$concurrent_queue@PAV?$message@H@Concurrency@@V?$allocator@PAV?$message@H@Concurrency@@@std@@@Concurrency@@UAE@XZ 1006ff60 f i WinRTVFS.obj
 0002:00032030       ??1?$function@$$A6AEE@Z@std@@QAE@XZ 10070030 f i WinRTVFS.obj
 0002:00032090       ??1?$function@$$A6AXABH@Z@std@@QAE@XZ 10070090 f i WinRTVFS.obj
 0002:000320f0       ??1?$function@$$A6AXPAV?$message@H@Concurrency@@@Z@std@@QAE@XZ 100700f0 f i WinRTVFS.obj
 0002:00032150       ??1?$function@$$A6AXXZ@std@@QAE@XZ 10070150 f i WinRTVFS.obj
 0002:000321b0       ??1?$function@$$A6A_NABH@Z@std@@QAE@XZ 100701b0 f i WinRTVFS.obj
 0002:00032210       ??1?$message@H@Concurrency@@UAE@XZ 10070210 f i WinRTVFS.obj
 0002:00032250       ??1?$multi_link_registry@V?$ISource@H@Concurrency@@@Concurrency@@UAE@XZ 10070250 f i WinRTVFS.obj
 0002:00032340       ??1?$ordered_message_processor@H@Concurrency@@UAE@XZ 10070340 f i WinRTVFS.obj
 0002:00032440       ??1?$shared_ptr@U?$_Task_completion_event_impl@E@details@Concurrency@@@std@@QAE@XZ 10070440 f i WinRTVFS.obj
 0002:00032490       ??1?$shared_ptr@U?$_Task_impl@E@details@Concurrency@@@std@@QAE@XZ 10070490 f i WinRTVFS.obj
 0002:000324e0       ??1?$shared_ptr@U?$_Task_impl@I@details@Concurrency@@@std@@QAE@XZ 100704e0 f i WinRTVFS.obj
 0002:00032530       ??1?$shared_ptr@U?$_Task_impl@P$AAUIBuffer@Streams@Storage@Windows@@@details@Concurrency@@@std@@QAE@XZ 10070530 f i WinRTVFS.obj
 0002:00032580       ??1?$shared_ptr@U?$_Task_impl@P$AAUIRandomAccessStream@Streams@Storage@Windows@@@details@Concurrency@@@std@@QAE@XZ 10070580 f i WinRTVFS.obj
 0002:000325d0       ??1?$shared_ptr@U?$_Task_impl@P$AAVStorageFile@Storage@Windows@@@details@Concurrency@@@std@@QAE@XZ 100705d0 f i WinRTVFS.obj
 0002:00032620       ??1?$shared_ptr@U?$_Task_impl@P$AAVStorageFolder@Storage@Windows@@@details@Concurrency@@@std@@QAE@XZ 10070620 f i WinRTVFS.obj
 0002:00032670       ??1?$shared_ptr@U?$_Task_impl@_N@details@Concurrency@@@std@@QAE@XZ 10070670 f i WinRTVFS.obj
 0002:000326c0       ??1?$shared_ptr@U_ExceptionHolder@details@Concurrency@@@std@@QAE@XZ 100706c0 f i WinRTVFS.obj
 0002:00032710       ??1?$shared_ptr@U_Task_impl_base@details@Concurrency@@@std@@QAE@XZ 10070710 f i WinRTVFS.obj
 0002:00032760       ??1?$shared_ptr@Uscheduler_interface@Concurrency@@@std@@QAE@XZ 10070760 f i WinRTVFS.obj
 0002:000327b0       ??1?$single_link_registry@V?$ITarget@H@Concurrency@@@Concurrency@@UAE@XZ 100707b0 f i WinRTVFS.obj
 0002:00032850       ??1?$source_block@V?$single_link_registry@V?$ITarget@H@Concurrency@@@Concurrency@@V?$ordered_message_processor@H@2@@Concurrency@@UAE@XZ 10070850 f i WinRTVFS.obj
 0002:000329c0       ??1?$source_link_manager@V?$multi_link_registry@V?$ISource@H@Concurrency@@@Concurrency@@@Concurrency@@QAE@XZ 100709c0 f i WinRTVFS.obj
 0002:00032ad0       ??1?$target_block@V?$multi_link_registry@V?$ISource@H@Concurrency@@@Concurrency@@V?$ordered_message_processor@H@2@@Concurrency@@UAE@XZ 10070ad0 f i WinRTVFS.obj
 0002:00032c70       ??1?$task@E@Concurrency@@QAE@XZ 10070c70 f i WinRTVFS.obj
 0002:00032cc0       ??1?$task@I@Concurrency@@QAE@XZ 10070cc0 f i WinRTVFS.obj
 0002:00032d10       ??1?$task@P$AAUIBuffer@Streams@Storage@Windows@@@Concurrency@@QAE@XZ 10070d10 f i WinRTVFS.obj
 0002:00032d60       ??1?$task@P$AAUIRandomAccessStream@Streams@Storage@Windows@@@Concurrency@@QAE@XZ 10070d60 f i WinRTVFS.obj
 0002:00032db0       ??1?$task@P$AAVStorageFile@Storage@Windows@@@Concurrency@@QAE@XZ 10070db0 f i WinRTVFS.obj
 0002:00032e00       ??1?$task@P$AAVStorageFolder@Storage@Windows@@@Concurrency@@QAE@XZ 10070e00 f i WinRTVFS.obj
 0002:00032e50       ??1?$task@X@Concurrency@@QAE@XZ 10070e50 f i WinRTVFS.obj
 0002:00032ea0       ??1?$task@_N@Concurrency@@QAE@XZ 10070ea0 f i WinRTVFS.obj
 0002:00032ef0       ??1?$task_completion_event@E@Concurrency@@QAE@XZ 10070ef0 f i WinRTVFS.obj
 0002:00032f40       ??1?$task_completion_event@X@Concurrency@@QAE@XZ 10070f40 f i WinRTVFS.obj
 0002:00032f90       ??1?$timer@H@Concurrency@@UAE@XZ 10070f90 f i WinRTVFS.obj
 0002:000330f0       ??1?$vector@PAXV?$allocator@PAX@std@@@std@@QAE@XZ 100710f0 f i WinRTVFS.obj
 0002:00033150       ??1?$vector@V?$shared_ptr@U?$_Task_impl@E@details@Concurrency@@@std@@V?$allocator@V?$shared_ptr@U?$_Task_impl@E@details@Concurrency@@@std@@@2@@std@@QAE@XZ 10071150 f i WinRTVFS.obj
 0002:000331b0       ??1?$weak_ptr@U_Task_impl_base@details@Concurrency@@@std@@QAE@XZ 100711b0 f i WinRTVFS.obj
 0002:00033200       ??1_CancellationTokenRegistration@details@Concurrency@@MAE@XZ 10071200 f i WinRTVFS.obj
 0002:000332b0       ??1_Chore@details@Concurrency@@MAE@XZ 100712b0 f i WinRTVFS.obj
 0002:000332f0       ??1_ContextCallback@details@Concurrency@@QAE@XZ 100712f0 f i WinRTVFS.obj
 0002:00033340       ??1_ContinuationTaskHandleBase@details@Concurrency@@UAE@XZ 10071340 f i WinRTVFS.obj
 0002:000333f0       ??1_Destroyer@?$concurrent_queue@PAV?$message@H@Concurrency@@V?$allocator@PAV?$message@H@Concurrency@@@std@@@Concurrency@@QAE@XZ 100713f0 f i WinRTVFS.obj
 0002:00033430       ??1_ExceptionHolder@details@Concurrency@@QAE@XZ 10071430 f i WinRTVFS.obj
 0002:00033530       ??1_Holder@_TaskProcThunk@details@Concurrency@@QAE@XZ 10071530 f i WinRTVFS.obj
 0002:000335d0       ??1_IAsyncActionToAsyncOperationConverter@details@Concurrency@@A$AAA@XZ 100715d0 f i WinRTVFS.obj
 0002:00033630       ??1_Internal_task_options@details@Concurrency@@QAE@XZ 10071630 f i WinRTVFS.obj
 0002:00033690       ??1_Iterator_base12@std@@QAE@XZ 10071690 f i WinRTVFS.obj
 0002:00033760       ??1_NonReentrantPPLLock@details@Concurrency@@QAE@XZ 10071760 f i WinRTVFS.obj
 0002:000337c0       ??1_ReentrantPPLLock@details@Concurrency@@QAE@XZ 100717c0 f i WinRTVFS.obj
 0002:00033820       ??1_RefCounter@details@Concurrency@@UAE@XZ 10071820 f i WinRTVFS.obj
 0002:000338c0       ??1_Ref_count_base@std@@UAE@XZ 100718c0 f i WinRTVFS.obj
 0002:00033900       ??1_StackGuard@details@Concurrency@@QAE@XZ 10071900 f i WinRTVFS.obj
 0002:00033950       ??1_TaskCollectionImpl@details@Concurrency@@QAE@XZ 10071950 f i WinRTVFS.obj
 0002:00033a50       ??1_TaskCreationCallstack@details@Concurrency@@QAE@XZ 10071a50 f i WinRTVFS.obj
 0002:00033ab0       ??1_TaskProcHandle@details@Concurrency@@UAE@XZ 10071ab0 f i WinRTVFS.obj
 0002:00033b10       ??1_TaskProcThunk@details@Concurrency@@QAE@XZ 10071b10 f i WinRTVFS.obj
 0002:00033b60       ??1_TaskWorkItemRAIILogger@details@Concurrency@@QAE@XZ 10071b60 f i WinRTVFS.obj
 0002:00033bc0       ??1_Task_impl_base@details@Concurrency@@UAE@XZ 10071bc0 f i WinRTVFS.obj
 0002:00033d20       ??1_UnrealizedChore@details@Concurrency@@UAE@XZ 10071d20 f i WinRTVFS.obj
 0002:00033d80       ??1__abi_CaptureBase@Details@Platform@@MAE@XZ 10071d80 f i WinRTVFS.obj
 0002:00033dc0       ??1__abi_CapturePtr@Details@Platform@@QAE@XZ 10071dc0 f i WinRTVFS.obj
 0002:00033e20       ??1bad_alloc@std@@UAE@XZ   10071e20 f i WinRTVFS.obj
 0002:00033e90       ??1bad_target@Concurrency@@UAE@XZ 10071e90 f i WinRTVFS.obj
 0002:00033ef0       ??1bad_weak_ptr@std@@UAE@XZ 10071ef0 f i WinRTVFS.obj
 0002:00033f50       ??1cancellation_token@Concurrency@@QAE@XZ 10071f50 f i WinRTVFS.obj
 0002:00033fa0       ??1exception_ptr@std@@QAE@XZ 10071fa0 f i WinRTVFS.obj
 0002:00034000       ??1invalid_argument@std@@UAE@XZ 10072000 f i WinRTVFS.obj
 0002:00034050       ??1invalid_link_target@Concurrency@@UAE@XZ 10072050 f i WinRTVFS.obj
 0002:000340b0       ??1invalid_operation@Concurrency@@UAE@XZ 100720b0 f i WinRTVFS.obj
 0002:00034110       ??1logic_error@std@@UAE@XZ 10072110 f i WinRTVFS.obj
 0002:00034170       ??1message_not_found@Concurrency@@UAE@XZ 10072170 f i WinRTVFS.obj
 0002:000341d0       ??1runtime_error@std@@UAE@XZ 100721d0 f i WinRTVFS.obj
 0002:00034230       ??1scheduler_ptr@Concurrency@@QAE@XZ 10072230 f i WinRTVFS.obj
 0002:00034280       ??1task_canceled@Concurrency@@UAE@XZ 10072280 f i WinRTVFS.obj
 0002:000342e0       ??1task_continuation_context@Concurrency@@QAE@XZ 100722e0 f i WinRTVFS.obj
 0002:00034330       ??1task_options@Concurrency@@QAE@XZ 10072330 f i WinRTVFS.obj
 0002:00034400       ??2_AllocBase@details@Concurrency@@SAPAXI@Z 10072400 f i WinRTVFS.obj
 0002:00034460       ??2__abi_CaptureBase@Details@Platform@@SAPAXIPAX@Z 10072460 f i WinRTVFS.obj
 0002:000344c0       ??3_AllocBase@details@Concurrency@@SAXPAX@Z 100724c0 f i WinRTVFS.obj
 0002:00034520       ??3__abi_CaptureBase@Details@Platform@@SAXPAX0@Z 10072520 f i WinRTVFS.obj
 0002:00034580       ??4?$Agile@P$AAUIBuffer@Streams@Storage@Windows@@$00@Platform@@QAEAAV01@P$AAUIBuffer@Streams@Storage@Windows@@@Z 10072580 f i WinRTVFS.obj
 0002:00034610       ??4?$Agile@P$AAUIRandomAccessStream@Streams@Storage@Windows@@$00@Platform@@QAEAAV01@P$AAUIRandomAccessStream@Streams@Storage@Windows@@@Z 10072610 f i WinRTVFS.obj
 0002:000346a0       ??4?$Agile@P$AAVStorageFile@Storage@Windows@@$0A@@Platform@@QAEAAV01@P$AAVStorageFile@Storage@Windows@@@Z 100726a0 f i WinRTVFS.obj
 0002:00034720       ??4?$Agile@P$AAVStorageFolder@Storage@Windows@@$0A@@Platform@@QAEAAV01@P$AAVStorageFolder@Storage@Windows@@@Z 10072720 f i WinRTVFS.obj
 0002:000347a0       ??4?$ComPtr@UIUnknown@@@WRL@Microsoft@@QAEAAV012@$$QAV012@@Z 100727a0 f i WinRTVFS.obj
 0002:00034820       ??4?$ComPtr@UIUnknown@@@WRL@Microsoft@@QAEAAV012@$$T@Z 10072820 f i WinRTVFS.obj
 0002:00034880       ??4?$ComPtr@UIUnknown@@@WRL@Microsoft@@QAEAAV012@PAUIUnknown@@@Z 10072880 f i WinRTVFS.obj
 0002:00034910       ??4?$atomic@J@std@@QAEJJ@Z 10072910 f i WinRTVFS.obj
 0002:00034970       ??4?$function@$$A6AXPAV?$message@H@Concurrency@@@Z@std@@QAEAAV01@ABV01@@Z 10072970 f i WinRTVFS.obj
 0002:000349e0       ??4?$function@$$A6AXXZ@std@@QAEAAV01@ABV01@@Z 100729e0 f i WinRTVFS.obj
 0002:00034a50       ??4?$shared_ptr@U?$_Task_impl@E@details@Concurrency@@@std@@QAEAAV01@$$QAV01@@Z 10072a50 f i WinRTVFS.obj
 0002:00034ae0       ??4?$shared_ptr@U?$_Task_impl@I@details@Concurrency@@@std@@QAEAAV01@$$QAV01@@Z 10072ae0 f i WinRTVFS.obj
 0002:00034b70       ??4?$shared_ptr@U?$_Task_impl@P$AAUIBuffer@Streams@Storage@Windows@@@details@Concurrency@@@std@@QAEAAV01@$$QAV01@@Z 10072b70 f i WinRTVFS.obj
 0002:00034c00       ??4?$shared_ptr@U?$_Task_impl@P$AAUIRandomAccessStream@Streams@Storage@Windows@@@details@Concurrency@@@std@@QAEAAV01@$$QAV01@@Z 10072c00 f i WinRTVFS.obj
 0002:00034c90       ??4?$shared_ptr@U?$_Task_impl@P$AAVStorageFile@Storage@Windows@@@details@Concurrency@@@std@@QAEAAV01@$$QAV01@@Z 10072c90 f i WinRTVFS.obj
 0002:00034d20       ??4?$shared_ptr@U?$_Task_impl@P$AAVStorageFolder@Storage@Windows@@@details@Concurrency@@@std@@QAEAAV01@$$QAV01@@Z 10072d20 f i WinRTVFS.obj
 0002:00034db0       ??4?$shared_ptr@U?$_Task_impl@_N@details@Concurrency@@@std@@QAEAAV01@$$QAV01@@Z 10072db0 f i WinRTVFS.obj
 0002:00034e40       ??4?$shared_ptr@U_ExceptionHolder@details@Concurrency@@@std@@QAEAAV01@ABV01@@Z 10072e40 f i WinRTVFS.obj
 0002:00034ec0       ??4?$vector@PAXV?$allocator@PAX@std@@@std@@QAEAAV01@ABV01@@Z 10072ec0 f i WinRTVFS.obj
 0002:000351f0       ??4_ContextCallback@details@Concurrency@@QAEAAV012@ABV012@@Z 100731f0 f i WinRTVFS.obj
 0002:00035260       ??4_Iterator_base12@std@@QAEAAU01@ABU01@@Z 10073260 f i WinRTVFS.obj
 0002:000353b0       ??4_TaskCreationCallstack@details@Concurrency@@QAEAAV012@ABV012@@Z 100733b0 f i WinRTVFS.obj
 0002:00035420       ??4atomic_long@std@@QAEJJ@Z 10073420 f i WinRTVFS.obj
 0002:00035480       ??4task_continuation_context@Concurrency@@QAEAAV01@ABV01@@Z 10073480 f i WinRTVFS.obj
 0002:000354e0       ??8?$_Vector_const_iterator@V?$_Vector_val@U?$_Simple_types@V?$shared_ptr@U?$_Task_impl@E@details@Concurrency@@@std@@@std@@@std@@@std@@QBE_NABV01@@Z 100734e0 f i WinRTVFS.obj
 0002:00035570       ??8_ContextCallback@details@Concurrency@@QBE_NABV012@@Z 10073570 f i WinRTVFS.obj
 0002:000355e0       ??9?$_Vector_const_iterator@V?$_Vector_val@U?$_Simple_types@V?$shared_ptr@U?$_Task_impl@E@details@Concurrency@@@std@@@std@@@std@@@std@@QBE_NABV01@@Z 100735e0 f i WinRTVFS.obj
 0002:00035670       ??A?$_Dynamic_array@PAV?$ISource@H@Concurrency@@@details@Concurrency@@QAEAAPAV?$ISource@H@2@I@Z 10073670 f i WinRTVFS.obj
 0002:00035720       ??A?$_Dynamic_array@PAV?$ISource@H@Concurrency@@@details@Concurrency@@QBEABQAV?$ISource@H@2@I@Z 10073720 f i WinRTVFS.obj
 0002:000357d0       ??A?$vector@PAXV?$allocator@PAX@std@@@std@@QAEAAPAXI@Z 100737d0 f i WinRTVFS.obj
 0002:000358f0       ??B?$ComPtrRef@V?$ComPtr@UIAgileObject@@@WRL@Microsoft@@@Details@WRL@Microsoft@@QBEPAPAXXZ 100738f0 f i WinRTVFS.obj
 0002:00035950       ??B?$ComPtrRef@V?$ComPtr@UIBufferByteAccess@Streams@Storage@Windows@@@WRL@Microsoft@@@Details@WRL@Microsoft@@QBEPAPAXXZ 10073950 f i WinRTVFS.obj
 0002:000359b0       ??B?$function@$$A6AXPAV?$message@H@Concurrency@@@Z@std@@QBE_NXZ 100739b0 f i WinRTVFS.obj
 0002:00035a30       ??B?$function@$$A6AXXZ@std@@QBE_NXZ 10073a30 f i WinRTVFS.obj
 0002:00035ab0       ??B?$shared_ptr@U?$_Task_impl@E@details@Concurrency@@@std@@QBE_NXZ 10073ab0 f i WinRTVFS.obj
 0002:00035b30       ??B?$shared_ptr@U?$_Task_impl@I@details@Concurrency@@@std@@QBE_NXZ 10073b30 f i WinRTVFS.obj
 0002:00035bb0       ??B?$shared_ptr@U?$_Task_impl@P$AAUIBuffer@Streams@Storage@Windows@@@details@Concurrency@@@std@@QBE_NXZ 10073bb0 f i WinRTVFS.obj
 0002:00035c30       ??B?$shared_ptr@U?$_Task_impl@P$AAUIRandomAccessStream@Streams@Storage@Windows@@@details@Concurrency@@@std@@QBE_NXZ 10073c30 f i WinRTVFS.obj
 0002:00035cb0       ??B?$shared_ptr@U?$_Task_impl@P$AAVStorageFile@Storage@Windows@@@details@Concurrency@@@std@@QBE_NXZ 10073cb0 f i WinRTVFS.obj
 0002:00035d30       ??B?$shared_ptr@U?$_Task_impl@P$AAVStorageFolder@Storage@Windows@@@details@Concurrency@@@std@@QBE_NXZ 10073d30 f i WinRTVFS.obj
 0002:00035db0       ??B?$shared_ptr@U?$_Task_impl@_N@details@Concurrency@@@std@@QBE_NXZ 10073db0 f i WinRTVFS.obj
 0002:00035e30       ??B?$shared_ptr@U_ExceptionHolder@details@Concurrency@@@std@@QBE_NXZ 10073e30 f i WinRTVFS.obj
 0002:00035eb0       ??Batomic_long@std@@QBEJXZ 10073eb0 f i WinRTVFS.obj
 0002:00035f10       ??Bscheduler_ptr@Concurrency@@QBE_NXZ 10073f10 f i WinRTVFS.obj
 0002:00035f90       ??C?$ComPtr@UIBufferByteAccess@Streams@Storage@Windows@@@WRL@Microsoft@@QBEPAV?$RemoveIUnknownBase@UIBufferByteAccess@Streams@Storage@Windows@@@Details@12@XZ 10073f90 f i WinRTVFS.obj
 0002:00035fd0       ??C?$shared_ptr@U?$_Task_completion_event_impl@E@details@Concurrency@@@std@@QBEPAU?$_Task_completion_event_impl@E@details@Concurrency@@XZ 10073fd0 f i WinRTVFS.obj
 0002:00036020       ??C?$shared_ptr@U?$_Task_impl@E@details@Concurrency@@@std@@QBEPAU?$_Task_impl@E@details@Concurrency@@XZ 10074020 f i WinRTVFS.obj
 0002:00036070       ??C?$shared_ptr@U?$_Task_impl@I@details@Concurrency@@@std@@QBEPAU?$_Task_impl@I@details@Concurrency@@XZ 10074070 f i WinRTVFS.obj
 0002:000360c0       ??C?$shared_ptr@U?$_Task_impl@P$AAUIBuffer@Streams@Storage@Windows@@@details@Concurrency@@@std@@QBEPAU?$_Task_impl@P$AAUIBuffer@Streams@Storage@Windows@@@details@Concurrency@@XZ 100740c0 f i WinRTVFS.obj
 0002:00036110       ??C?$shared_ptr@U?$_Task_impl@P$AAUIRandomAccessStream@Streams@Storage@Windows@@@details@Concurrency@@@std@@QBEPAU?$_Task_impl@P$AAUIRandomAccessStream@Streams@Storage@Windows@@@details@Concurrency@@XZ 10074110 f i WinRTVFS.obj
 0002:00036160       ??C?$shared_ptr@U?$_Task_impl@P$AAVStorageFile@Storage@Windows@@@details@Concurrency@@@std@@QBEPAU?$_Task_impl@P$AAVStorageFile@Storage@Windows@@@details@Concurrency@@XZ 10074160 f i WinRTVFS.obj
 0002:000361b0       ??C?$shared_ptr@U?$_Task_impl@P$AAVStorageFolder@Storage@Windows@@@details@Concurrency@@@std@@QBEPAU?$_Task_impl@P$AAVStorageFolder@Storage@Windows@@@details@Concurrency@@XZ 100741b0 f i WinRTVFS.obj
 0002:00036200       ??C?$shared_ptr@U?$_Task_impl@_N@details@Concurrency@@@std@@QBEPAU?$_Task_impl@_N@details@Concurrency@@XZ 10074200 f i WinRTVFS.obj
 0002:00036250       ??C?$shared_ptr@U_ExceptionHolder@details@Concurrency@@@std@@QBEPAU_ExceptionHolder@details@Concurrency@@XZ 10074250 f i WinRTVFS.obj
 0002:000362a0       ??C?$shared_ptr@U_Task_impl_base@details@Concurrency@@@std@@QBEPAU_Task_impl_base@details@Concurrency@@XZ 100742a0 f i WinRTVFS.obj
 0002:000362f0       ??Cscheduler_ptr@Concurrency@@QBEPAUscheduler_interface@1@XZ 100742f0 f i WinRTVFS.obj
 0002:00036340       ??D?$_Network_link_iterator@V?$ISource@H@Concurrency@@@Concurrency@@QAEABQAV?$ISource@H@1@XZ 10074340 f i WinRTVFS.obj
 0002:000363c0       ??D?$_Network_link_iterator@V?$ITarget@H@Concurrency@@@Concurrency@@QAEABQAV?$ITarget@H@1@XZ 100743c0 f i WinRTVFS.obj
 0002:00036440       ??D?$_Source_link_iterator@V?$multi_link_registry@V?$ISource@H@Concurrency@@@Concurrency@@@Concurrency@@QAEABQAV?$ISource@H@1@XZ 10074440 f i WinRTVFS.obj
 0002:000364a0       ??D?$_Vector_const_iterator@V?$_Vector_val@U?$_Simple_types@V?$shared_ptr@U?$_Task_impl@E@details@Concurrency@@@std@@@std@@@std@@@std@@QBEABV?$shared_ptr@U?$_Task_impl@E@details@Concurrency@@@1@XZ 100744a0 f i WinRTVFS.obj
 0002:000365e0       ??D?$_Vector_iterator@V?$_Vector_val@U?$_Simple_types@V?$shared_ptr@U?$_Task_impl@E@details@Concurrency@@@std@@@std@@@std@@@std@@QBEAAV?$shared_ptr@U?$_Task_impl@E@details@Concurrency@@@1@XZ 100745e0 f i WinRTVFS.obj
 0002:00036630       ??E?$_Network_link_iterator@V?$ISource@H@Concurrency@@@Concurrency@@QAE?AV01@H@Z 10074630 f i WinRTVFS.obj
 0002:00036700       ??E?$_Network_link_iterator@V?$ISource@H@Concurrency@@@Concurrency@@QAEAAV01@XZ 10074700 f i WinRTVFS.obj
 0002:00036790       ??E?$_Network_link_iterator@V?$ITarget@H@Concurrency@@@Concurrency@@QAEAAV01@XZ 10074790 f i WinRTVFS.obj
 0002:00036820       ??E?$_Source_link_iterator@V?$multi_link_registry@V?$ISource@H@Concurrency@@@Concurrency@@@Concurrency@@QAEAAV01@XZ 10074820 f i WinRTVFS.obj
 0002:00036870       ??E?$_Vector_const_iterator@V?$_Vector_val@U?$_Simple_types@V?$shared_ptr@U?$_Task_impl@E@details@Concurrency@@@std@@@std@@@std@@@std@@QAEAAV01@XZ 10074870 f i WinRTVFS.obj
 0002:000369a0       ??E?$_Vector_iterator@V?$_Vector_val@U?$_Simple_types@V?$shared_ptr@U?$_Task_impl@E@details@Concurrency@@@std@@@std@@@std@@@std@@QAEAAV01@XZ 100749a0 f i WinRTVFS.obj
 0002:00036a00       ??I?$ComPtr@UIAgileObject@@@WRL@Microsoft@@QAE?AV?$ComPtrRef@V?$ComPtr@UIAgileObject@@@WRL@Microsoft@@@Details@12@XZ 10074a00 f i WinRTVFS.obj
 0002:00036a60       ??I?$ComPtr@UIBufferByteAccess@Streams@Storage@Windows@@@WRL@Microsoft@@QAE?AV?$ComPtrRef@V?$ComPtr@UIBufferByteAccess@Streams@Storage@Windows@@@WRL@Microsoft@@@Details@12@XZ 10074a60 f i WinRTVFS.obj
 0002:000384b0       ??R?$_Func_class@EE@std@@QBEEE@Z 100764b0 f i WinRTVFS.obj
 0002:00038550       ??R?$_Func_class@X$$$V@std@@QBEXXZ 10076550 f i WinRTVFS.obj
 0002:000385e0       ??R?$_Func_class@XABH@std@@QBEXABH@Z 100765e0 f i WinRTVFS.obj
 0002:00038680       ??R?$_Func_class@XPAV?$message@H@Concurrency@@@std@@QBEXPAV?$message@H@Concurrency@@@Z 10076680 f i WinRTVFS.obj
 0002:00038720       ??R?$_Func_class@_NABH@std@@QBE_NABH@Z 10076720 f i WinRTVFS.obj
 0002:000387c0       ??R_TaskProcHandle@details@Concurrency@@QBEXXZ 100767c0 f i WinRTVFS.obj
 0002:00038820       ??_E?$timer@H@Concurrency@@WBA@AEPAXI@Z 10076820 f i WinRTVFS.obj
 0002:00038830       ??_E?$ISource@H@Concurrency@@UAEPAXI@Z 10076830 f i WinRTVFS.obj
 0002:00038830       ??_G?$ISource@H@Concurrency@@UAEPAXI@Z 10076830 f i WinRTVFS.obj
 0002:000388a0       ??_E?$ITarget@H@Concurrency@@UAEPAXI@Z 100768a0 f i WinRTVFS.obj
 0002:000388a0       ??_G?$ITarget@H@Concurrency@@UAEPAXI@Z 100768a0 f i WinRTVFS.obj
 0002:00038910       ??_G?$_CancellationTokenCallback@V<lambda_17cb9174022a2677ccd4c777403439ce>@@@details@Concurrency@@UAEPAXI@Z 10076910 f i WinRTVFS.obj
 0002:00038910       ??_E?$_CancellationTokenCallback@V<lambda_17cb9174022a2677ccd4c777403439ce>@@@details@Concurrency@@UAEPAXI@Z 10076910 f i WinRTVFS.obj
 0002:00038980       ??_G?$_ContinuationTaskHandle@XXV<lambda_9fc58f08a03183e50e06176727aeb396>@@U?$integral_constant@_N$0A@@std@@U_TypeSelectorNoAsync@details@Concurrency@@@?$task@E@Concurrency@@UAEPAXI@Z 10076980 f i WinRTVFS.obj
 0002:00038980       ??_E?$_ContinuationTaskHandle@XXV<lambda_9fc58f08a03183e50e06176727aeb396>@@U?$integral_constant@_N$0A@@std@@U_TypeSelectorNoAsync@details@Concurrency@@@?$task@E@Concurrency@@UAEPAXI@Z 10076980 f i WinRTVFS.obj
 0002:000389f0       ??_E?$_Func_base@EE@std@@UAEPAXI@Z 100769f0 f i WinRTVFS.obj
 0002:000389f0       ??_G?$_Func_base@EE@std@@UAEPAXI@Z 100769f0 f i WinRTVFS.obj
 0002:00038a60       ??_E?$_Func_base@X$$$V@std@@UAEPAXI@Z 10076a60 f i WinRTVFS.obj
 0002:00038a60       ??_G?$_Func_base@X$$$V@std@@UAEPAXI@Z 10076a60 f i WinRTVFS.obj
 0002:00038ad0       ??_E?$_Func_base@XABH@std@@UAEPAXI@Z 10076ad0 f i WinRTVFS.obj
 0002:00038ad0       ??_G?$_Func_base@XABH@std@@UAEPAXI@Z 10076ad0 f i WinRTVFS.obj
 0002:00038b40       ??_E?$_Func_base@XPAV?$message@H@Concurrency@@@std@@UAEPAXI@Z 10076b40 f i WinRTVFS.obj
 0002:00038b40       ??_G?$_Func_base@XPAV?$message@H@Concurrency@@@std@@UAEPAXI@Z 10076b40 f i WinRTVFS.obj
 0002:00038bb0       ??_G?$_Func_impl@U?$_Callable_obj@V<lambda_02d862f9cfc639ff7c37ca52d43e6a8c>@@$0A@@std@@V?$allocator@V?$_Func_class@X$$$V@std@@@2@X$$$V@std@@UAEPAXI@Z 10076bb0 f i WinRTVFS.obj
 0002:00038bb0       ??_E?$_Func_impl@U?$_Callable_obj@V<lambda_02d862f9cfc639ff7c37ca52d43e6a8c>@@$0A@@std@@V?$allocator@V?$_Func_class@X$$$V@std@@@2@X$$$V@std@@UAEPAXI@Z 10076bb0 f i WinRTVFS.obj
 0002:00038c20       ??_G?$_Func_impl@U?$_Callable_obj@V<lambda_095a938ce4c5765dcc6b67f548aeb9c7>@@$0A@@std@@V?$allocator@V?$_Func_class@X$$$V@std@@@2@X$$$V@std@@UAEPAXI@Z 10076c20 f i WinRTVFS.obj
 0002:00038c20       ??_E?$_Func_impl@U?$_Callable_obj@V<lambda_095a938ce4c5765dcc6b67f548aeb9c7>@@$0A@@std@@V?$allocator@V?$_Func_class@X$$$V@std@@@2@X$$$V@std@@UAEPAXI@Z 10076c20 f i WinRTVFS.obj
 0002:00038c90       ??_E?$_Func_impl@U?$_Callable_obj@V<lambda_0b7f78ec4ced38495cec46e0d346e0b9>@@$0A@@std@@V?$allocator@V?$_Func_class@X$$$V@std@@@2@X$$$V@std@@UAEPAXI@Z 10076c90 f i WinRTVFS.obj
 0002:00038c90       ??_G?$_Func_impl@U?$_Callable_obj@V<lambda_0b7f78ec4ced38495cec46e0d346e0b9>@@$0A@@std@@V?$allocator@V?$_Func_class@X$$$V@std@@@2@X$$$V@std@@UAEPAXI@Z 10076c90 f i WinRTVFS.obj
 0002:00038d00       ??_G?$_Func_impl@U?$_Callable_obj@V<lambda_0fe479da16d43edb8e9a254c493d643e>@@$0A@@std@@V?$allocator@V?$_Func_class@X$$$V@std@@@2@X$$$V@std@@UAEPAXI@Z 10076d00 f i WinRTVFS.obj
 0002:00038d00       ??_E?$_Func_impl@U?$_Callable_obj@V<lambda_0fe479da16d43edb8e9a254c493d643e>@@$0A@@std@@V?$allocator@V?$_Func_class@X$$$V@std@@@2@X$$$V@std@@UAEPAXI@Z 10076d00 f i WinRTVFS.obj
 0002:00038d70       ??_G?$_Func_impl@U?$_Callable_obj@V<lambda_1a93da980d6fe77644a4eefc4e1ad756>@@$0A@@std@@V?$allocator@V?$_Func_class@XABH@std@@@2@XABH@std@@UAEPAXI@Z 10076d70 f i WinRTVFS.obj
 0002:00038d70       ??_E?$_Func_impl@U?$_Callable_obj@V<lambda_1a93da980d6fe77644a4eefc4e1ad756>@@$0A@@std@@V?$allocator@V?$_Func_class@XABH@std@@@2@XABH@std@@UAEPAXI@Z 10076d70 f i WinRTVFS.obj
 0002:00038de0       ??_G?$_Func_impl@U?$_Callable_obj@V<lambda_295bc5f846209cba149a5e74d0d63a72>@@$0A@@std@@V?$allocator@V?$_Func_class@XPAV?$message@H@Concurrency@@@std@@@2@XPAV?$message@H@Concurrency@@@std@@UAEPAXI@Z 10076de0 f i WinRTVFS.obj
 0002:00038de0       ??_E?$_Func_impl@U?$_Callable_obj@V<lambda_295bc5f846209cba149a5e74d0d63a72>@@$0A@@std@@V?$allocator@V?$_Func_class@XPAV?$message@H@Concurrency@@@std@@@2@XPAV?$message@H@Concurrency@@@std@@UAEPAXI@Z 10076de0 f i WinRTVFS.obj
 0002:00038e50       ??_G?$_Func_impl@U?$_Callable_obj@V<lambda_364e75aa895e992ae8821732ca646aa2>@@$0A@@std@@V?$allocator@V?$_Func_class@X$$$V@std@@@2@X$$$V@std@@UAEPAXI@Z 10076e50 f i WinRTVFS.obj
 0002:00038e50       ??_E?$_Func_impl@U?$_Callable_obj@V<lambda_364e75aa895e992ae8821732ca646aa2>@@$0A@@std@@V?$allocator@V?$_Func_class@X$$$V@std@@@2@X$$$V@std@@UAEPAXI@Z 10076e50 f i WinRTVFS.obj
 0002:00038ec0       ??_G?$_Func_impl@U?$_Callable_obj@V<lambda_39cde079c01d1b5b9307ff255a1ccdd9>@@$0A@@std@@V?$allocator@V?$_Func_class@EE@std@@@2@EE@std@@UAEPAXI@Z 10076ec0 f i WinRTVFS.obj
 0002:00038ec0       ??_E?$_Func_impl@U?$_Callable_obj@V<lambda_39cde079c01d1b5b9307ff255a1ccdd9>@@$0A@@std@@V?$allocator@V?$_Func_class@EE@std@@@2@EE@std@@UAEPAXI@Z 10076ec0 f i WinRTVFS.obj
 0002:00038f30       ??_E?$_Func_impl@U?$_Callable_obj@V<lambda_528650821c608ced6534641e311542a5>@@$0A@@std@@V?$allocator@V?$_Func_class@X$$$V@std@@@2@X$$$V@std@@UAEPAXI@Z 10076f30 f i WinRTVFS.obj
 0002:00038f30       ??_G?$_Func_impl@U?$_Callable_obj@V<lambda_528650821c608ced6534641e311542a5>@@$0A@@std@@V?$allocator@V?$_Func_class@X$$$V@std@@@2@X$$$V@std@@UAEPAXI@Z 10076f30 f i WinRTVFS.obj
 0002:00038fa0       ??_G?$_Func_impl@U?$_Callable_obj@V<lambda_579ccd68d569251046038e8620afec85>@@$0A@@std@@V?$allocator@V?$_Func_class@XPAV?$message@H@Concurrency@@@std@@@2@XPAV?$message@H@Concurrency@@@std@@UAEPAXI@Z 10076fa0 f i WinRTVFS.obj
 0002:00038fa0       ??_E?$_Func_impl@U?$_Callable_obj@V<lambda_579ccd68d569251046038e8620afec85>@@$0A@@std@@V?$allocator@V?$_Func_class@XPAV?$message@H@Concurrency@@@std@@@2@XPAV?$message@H@Concurrency@@@std@@UAEPAXI@Z 10076fa0 f i WinRTVFS.obj
 0002:00039010       ??_E?$_Func_impl@U?$_Callable_obj@V<lambda_9fc58f08a03183e50e06176727aeb396>@@$0A@@std@@V?$allocator@V?$_Func_class@X$$$V@std@@@2@X$$$V@std@@UAEPAXI@Z 10077010 f i WinRTVFS.obj
 0002:00039010       ??_G?$_Func_impl@U?$_Callable_obj@V<lambda_9fc58f08a03183e50e06176727aeb396>@@$0A@@std@@V?$allocator@V?$_Func_class@X$$$V@std@@@2@X$$$V@std@@UAEPAXI@Z 10077010 f i WinRTVFS.obj
 0002:00039080       ??_G?$_Func_impl@U?$_Callable_obj@V<lambda_a66b3ee15e662226a0b0b15ae647d32f>@@$0A@@std@@V?$allocator@V?$_Func_class@X$$$V@std@@@2@X$$$V@std@@UAEPAXI@Z 10077080 f i WinRTVFS.obj
 0002:00039080       ??_E?$_Func_impl@U?$_Callable_obj@V<lambda_a66b3ee15e662226a0b0b15ae647d32f>@@$0A@@std@@V?$allocator@V?$_Func_class@X$$$V@std@@@2@X$$$V@std@@UAEPAXI@Z 10077080 f i WinRTVFS.obj
 0002:000390f0       ??_E?$_Func_impl@U?$_Callable_obj@V<lambda_c1a554f2383dae03f169289aed8c4103>@@$0A@@std@@V?$allocator@V?$_Func_class@X$$$V@std@@@2@X$$$V@std@@UAEPAXI@Z 100770f0 f i WinRTVFS.obj
 0002:000390f0       ??_G?$_Func_impl@U?$_Callable_obj@V<lambda_c1a554f2383dae03f169289aed8c4103>@@$0A@@std@@V?$allocator@V?$_Func_class@X$$$V@std@@@2@X$$$V@std@@UAEPAXI@Z 100770f0 f i WinRTVFS.obj
 0002:00039160       ??_E?$_Func_impl@U?$_Callable_obj@V<lambda_c28a53003ed51cdfe295a7d756f98c2f>@@$0A@@std@@V?$allocator@V?$_Func_class@XPAV?$message@H@Concurrency@@@std@@@2@XPAV?$message@H@Concurrency@@@std@@UAEPAXI@Z 10077160 f i WinRTVFS.obj
 0002:00039160       ??_G?$_Func_impl@U?$_Callable_obj@V<lambda_c28a53003ed51cdfe295a7d756f98c2f>@@$0A@@std@@V?$allocator@V?$_Func_class@XPAV?$message@H@Concurrency@@@std@@@2@XPAV?$message@H@Concurrency@@@std@@UAEPAXI@Z 10077160 f i WinRTVFS.obj
 0002:000391d0       ??_G?$_Func_impl@U?$_Callable_obj@V<lambda_e7ef5f1e4e1eca0ae8efc6086cf9f417>@@$0A@@std@@V?$allocator@V?$_Func_class@X$$$V@std@@@2@X$$$V@std@@UAEPAXI@Z 100771d0 f i WinRTVFS.obj
 0002:000391d0       ??_E?$_Func_impl@U?$_Callable_obj@V<lambda_e7ef5f1e4e1eca0ae8efc6086cf9f417>@@$0A@@std@@V?$allocator@V?$_Func_class@X$$$V@std@@@2@X$$$V@std@@UAEPAXI@Z 100771d0 f i WinRTVFS.obj
 0002:00039240       ??_E?$_PPLTaskHandle@EU?$_ContinuationTaskHandle@XXV<lambda_9fc58f08a03183e50e06176727aeb396>@@U?$integral_constant@_N$0A@@std@@U_TypeSelectorNoAsync@details@Concurrency@@@?$task@E@Concurrency@@U_ContinuationTaskHandleBase@details@3@@details@Concurrency@@UAEPAXI@Z 10077240 f i WinRTVFS.obj
 0002:00039240       ??_G?$_PPLTaskHandle@EU?$_ContinuationTaskHandle@XXV<lambda_9fc58f08a03183e50e06176727aeb396>@@U?$integral_constant@_N$0A@@std@@U_TypeSelectorNoAsync@details@Concurrency@@@?$task@E@Concurrency@@U_ContinuationTaskHandleBase@details@3@@details@Concurrency@@UAEPAXI@Z 10077240 f i WinRTVFS.obj
 0002:000392b0       ??_G?$_Ref_count_obj@U?$_Task_completion_event_impl@E@details@Concurrency@@@std@@UAEPAXI@Z 100772b0 f i WinRTVFS.obj
 0002:000392b0       ??_E?$_Ref_count_obj@U?$_Task_completion_event_impl@E@details@Concurrency@@@std@@UAEPAXI@Z 100772b0 f i WinRTVFS.obj
 0002:00039320       ??_E?$_Ref_count_obj@U?$_Task_impl@E@details@Concurrency@@@std@@UAEPAXI@Z 10077320 f i WinRTVFS.obj
 0002:00039320       ??_G?$_Ref_count_obj@U?$_Task_impl@E@details@Concurrency@@@std@@UAEPAXI@Z 10077320 f i WinRTVFS.obj
 0002:00039390       ??_E?$_Ref_count_obj@U?$_Task_impl@I@details@Concurrency@@@std@@UAEPAXI@Z 10077390 f i WinRTVFS.obj
 0002:00039390       ??_G?$_Ref_count_obj@U?$_Task_impl@I@details@Concurrency@@@std@@UAEPAXI@Z 10077390 f i WinRTVFS.obj
 0002:00039400       ??_E?$_Ref_count_obj@U?$_Task_impl@P$AAUIBuffer@Streams@Storage@Windows@@@details@Concurrency@@@std@@UAEPAXI@Z 10077400 f i WinRTVFS.obj
 0002:00039400       ??_G?$_Ref_count_obj@U?$_Task_impl@P$AAUIBuffer@Streams@Storage@Windows@@@details@Concurrency@@@std@@UAEPAXI@Z 10077400 f i WinRTVFS.obj
 0002:00039470       ??_G?$_Ref_count_obj@U?$_Task_impl@P$AAUIRandomAccessStream@Streams@Storage@Windows@@@details@Concurrency@@@std@@UAEPAXI@Z 10077470 f i WinRTVFS.obj
 0002:00039470       ??_E?$_Ref_count_obj@U?$_Task_impl@P$AAUIRandomAccessStream@Streams@Storage@Windows@@@details@Concurrency@@@std@@UAEPAXI@Z 10077470 f i WinRTVFS.obj
 0002:000394e0       ??_G?$_Ref_count_obj@U?$_Task_impl@P$AAVStorageFile@Storage@Windows@@@details@Concurrency@@@std@@UAEPAXI@Z 100774e0 f i WinRTVFS.obj
 0002:000394e0       ??_E?$_Ref_count_obj@U?$_Task_impl@P$AAVStorageFile@Storage@Windows@@@details@Concurrency@@@std@@UAEPAXI@Z 100774e0 f i WinRTVFS.obj
 0002:00039550       ??_E?$_Ref_count_obj@U?$_Task_impl@P$AAVStorageFolder@Storage@Windows@@@details@Concurrency@@@std@@UAEPAXI@Z 10077550 f i WinRTVFS.obj
 0002:00039550       ??_G?$_Ref_count_obj@U?$_Task_impl@P$AAVStorageFolder@Storage@Windows@@@details@Concurrency@@@std@@UAEPAXI@Z 10077550 f i WinRTVFS.obj
 0002:000395c0       ??_E?$_Ref_count_obj@U?$_Task_impl@_N@details@Concurrency@@@std@@UAEPAXI@Z 100775c0 f i WinRTVFS.obj
 0002:000395c0       ??_G?$_Ref_count_obj@U?$_Task_impl@_N@details@Concurrency@@@std@@UAEPAXI@Z 100775c0 f i WinRTVFS.obj
 0002:00039630       ??_E?$_Ref_count_obj@U_ExceptionHolder@details@Concurrency@@@std@@UAEPAXI@Z 10077630 f i WinRTVFS.obj
 0002:00039630       ??_G?$_Ref_count_obj@U_ExceptionHolder@details@Concurrency@@@std@@UAEPAXI@Z 10077630 f i WinRTVFS.obj
 0002:000396a0       ??_E?$_Source_link_iterator@V?$multi_link_registry@V?$ISource@H@Concurrency@@@Concurrency@@@Concurrency@@UAEPAXI@Z 100776a0 f i WinRTVFS.obj
 0002:000396a0       ??_G?$_Source_link_iterator@V?$multi_link_registry@V?$ISource@H@Concurrency@@@Concurrency@@@Concurrency@@UAEPAXI@Z 100776a0 f i WinRTVFS.obj
 0002:00039710       ??_G?$_Task_completion_event_impl@E@details@Concurrency@@QAEPAXI@Z 10077710 f i WinRTVFS.obj
 0002:00039780       ??_G?$_Task_impl@E@details@Concurrency@@UAEPAXI@Z 10077780 f i WinRTVFS.obj
 0002:00039780       ??_E?$_Task_impl@E@details@Concurrency@@UAEPAXI@Z 10077780 f i WinRTVFS.obj
 0002:000397f0       ??_G?$_Task_impl@I@details@Concurrency@@UAEPAXI@Z 100777f0 f i WinRTVFS.obj
 0002:000397f0       ??_E?$_Task_impl@I@details@Concurrency@@UAEPAXI@Z 100777f0 f i WinRTVFS.obj
 0002:00039860       ??_E?$_Task_impl@P$AAUIBuffer@Streams@Storage@Windows@@@details@Concurrency@@UAEPAXI@Z 10077860 f i WinRTVFS.obj
 0002:00039860       ??_G?$_Task_impl@P$AAUIBuffer@Streams@Storage@Windows@@@details@Concurrency@@UAEPAXI@Z 10077860 f i WinRTVFS.obj
 0002:000398d0       ??_G?$_Task_impl@P$AAUIRandomAccessStream@Streams@Storage@Windows@@@details@Concurrency@@UAEPAXI@Z 100778d0 f i WinRTVFS.obj
 0002:000398d0       ??_E?$_Task_impl@P$AAUIRandomAccessStream@Streams@Storage@Windows@@@details@Concurrency@@UAEPAXI@Z 100778d0 f i WinRTVFS.obj
 0002:00039940       ??_E?$_Task_impl@P$AAVStorageFile@Storage@Windows@@@details@Concurrency@@UAEPAXI@Z 10077940 f i WinRTVFS.obj
 0002:00039940       ??_G?$_Task_impl@P$AAVStorageFile@Storage@Windows@@@details@Concurrency@@UAEPAXI@Z 10077940 f i WinRTVFS.obj
 0002:000399b0       ??_E?$_Task_impl@P$AAVStorageFolder@Storage@Windows@@@details@Concurrency@@UAEPAXI@Z 100779b0 f i WinRTVFS.obj
 0002:000399b0       ??_G?$_Task_impl@P$AAVStorageFolder@Storage@Windows@@@details@Concurrency@@UAEPAXI@Z 100779b0 f i WinRTVFS.obj
 0002:00039a20       ??_G?$_Task_impl@_N@details@Concurrency@@UAEPAXI@Z 10077a20 f i WinRTVFS.obj
 0002:00039a20       ??_E?$_Task_impl@_N@details@Concurrency@@UAEPAXI@Z 10077a20 f i WinRTVFS.obj
 0002:00039a90       ??_G?$__abi_FunctorCapture@V<lambda_06940b0a4178dd98f799c96a43aa5761>@@XP$AAUIAsyncAction@Foundation@Windows@@W4AsyncStatus@34@@Details@Platform@@UAEPAXI@Z 10077a90 f i WinRTVFS.obj
 0002:00039a90       ??_E?$__abi_FunctorCapture@V<lambda_06940b0a4178dd98f799c96a43aa5761>@@XP$AAUIAsyncAction@Foundation@Windows@@W4AsyncStatus@34@@Details@Platform@@UAEPAXI@Z 10077a90 f i WinRTVFS.obj
 0002:00039b00       ??_G?$__abi_FunctorCapture@V<lambda_3e0d823744565aaa3c572230ef0680e7>@@XP$AAU?$IAsyncOperationWithProgress@P$AAUIBuffer@Streams@Storage@Windows@@I@Foundation@Windows@@W4AsyncStatus@34@@Details@Platform@@UAEPAXI@Z 10077b00 f i WinRTVFS.obj
 0002:00039b00       ??_E?$__abi_FunctorCapture@V<lambda_3e0d823744565aaa3c572230ef0680e7>@@XP$AAU?$IAsyncOperationWithProgress@P$AAUIBuffer@Streams@Storage@Windows@@I@Foundation@Windows@@W4AsyncStatus@34@@Details@Platform@@UAEPAXI@Z 10077b00 f i WinRTVFS.obj
 0002:00039b70       ??_E?$__abi_FunctorCapture@V<lambda_50a95a3b918e2a131c7de197f9d43680>@@XP$AAU?$IAsyncOperation@I@Foundation@Windows@@W4AsyncStatus@34@@Details@Platform@@UAEPAXI@Z 10077b70 f i WinRTVFS.obj
 0002:00039b70       ??_G?$__abi_FunctorCapture@V<lambda_50a95a3b918e2a131c7de197f9d43680>@@XP$AAU?$IAsyncOperation@I@Foundation@Windows@@W4AsyncStatus@34@@Details@Platform@@UAEPAXI@Z 10077b70 f i WinRTVFS.obj
 0002:00039be0       ??_G?$__abi_FunctorCapture@V<lambda_58b35b2c39cebe76475502e8be1fa050>@@XP$AAU?$IAsyncOperation@P$AAUIRandomAccessStream@Streams@Storage@Windows@@@Foundation@Windows@@W4AsyncStatus@34@@Details@Platform@@UAEPAXI@Z 10077be0 f i WinRTVFS.obj
 0002:00039be0       ??_E?$__abi_FunctorCapture@V<lambda_58b35b2c39cebe76475502e8be1fa050>@@XP$AAU?$IAsyncOperation@P$AAUIRandomAccessStream@Streams@Storage@Windows@@@Foundation@Windows@@W4AsyncStatus@34@@Details@Platform@@UAEPAXI@Z 10077be0 f i WinRTVFS.obj
 0002:00039c50       ??_G?$__abi_FunctorCapture@V<lambda_78c8bde34479949ab00939bfc3c21b9e>@@XP$AAU?$IAsyncOperation@_N@Foundation@Windows@@W4AsyncStatus@34@@Details@Platform@@UAEPAXI@Z 10077c50 f i WinRTVFS.obj
 0002:00039c50       ??_E?$__abi_FunctorCapture@V<lambda_78c8bde34479949ab00939bfc3c21b9e>@@XP$AAU?$IAsyncOperation@_N@Foundation@Windows@@W4AsyncStatus@34@@Details@Platform@@UAEPAXI@Z 10077c50 f i WinRTVFS.obj
 0002:00039cc0       ??_G?$__abi_FunctorCapture@V<lambda_7a641106db6b220fc1bd53009e5e1b6e>@@XP$AAU?$IAsyncOperationWithProgress@II@Foundation@Windows@@W4AsyncStatus@34@@Details@Platform@@UAEPAXI@Z 10077cc0 f i WinRTVFS.obj
 0002:00039cc0       ??_E?$__abi_FunctorCapture@V<lambda_7a641106db6b220fc1bd53009e5e1b6e>@@XP$AAU?$IAsyncOperationWithProgress@II@Foundation@Windows@@W4AsyncStatus@34@@Details@Platform@@UAEPAXI@Z 10077cc0 f i WinRTVFS.obj
 0002:00039d30       ??_G?$__abi_FunctorCapture@V<lambda_8b35f48eeaabe3dd7cb14b365c80a64b>@@XP$AAU?$IAsyncOperation@P$AAUIBuffer@Streams@Storage@Windows@@@Foundation@Windows@@W4AsyncStatus@34@@Details@Platform@@UAEPAXI@Z 10077d30 f i WinRTVFS.obj
 0002:00039d30       ??_E?$__abi_FunctorCapture@V<lambda_8b35f48eeaabe3dd7cb14b365c80a64b>@@XP$AAU?$IAsyncOperation@P$AAUIBuffer@Streams@Storage@Windows@@@Foundation@Windows@@W4AsyncStatus@34@@Details@Platform@@UAEPAXI@Z 10077d30 f i WinRTVFS.obj
 0002:00039da0       ??_E?$__abi_FunctorCapture@V<lambda_b5ec294d64b7ae7d96b9bd52c133d46d>@@XP$AAU?$IAsyncOperation@E@Foundation@Windows@@W4AsyncStatus@34@@Details@Platform@@UAEPAXI@Z 10077da0 f i WinRTVFS.obj
 0002:00039da0       ??_G?$__abi_FunctorCapture@V<lambda_b5ec294d64b7ae7d96b9bd52c133d46d>@@XP$AAU?$IAsyncOperation@E@Foundation@Windows@@W4AsyncStatus@34@@Details@Platform@@UAEPAXI@Z 10077da0 f i WinRTVFS.obj
 0002:00039e10       ??_G?$__abi_FunctorCapture@V<lambda_c124a470bc399dc48f76de2d0d06ac02>@@XP$AAU?$IAsyncOperation@P$AAVStorageFolder@Storage@Windows@@@Foundation@Windows@@W4AsyncStatus@34@@Details@Platform@@UAEPAXI@Z 10077e10 f i WinRTVFS.obj
 0002:00039e10       ??_E?$__abi_FunctorCapture@V<lambda_c124a470bc399dc48f76de2d0d06ac02>@@XP$AAU?$IAsyncOperation@P$AAVStorageFolder@Storage@Windows@@@Foundation@Windows@@W4AsyncStatus@34@@Details@Platform@@UAEPAXI@Z 10077e10 f i WinRTVFS.obj
 0002:00039e80       ??_E?$__abi_FunctorCapture@V<lambda_f0a7c2b0a64e3b533e4acd91ff29d36c>@@XP$AAU?$IAsyncOperation@P$AAVStorageFile@Storage@Windows@@@Foundation@Windows@@W4AsyncStatus@34@@Details@Platform@@UAEPAXI@Z 10077e80 f i WinRTVFS.obj
 0002:00039e80       ??_G?$__abi_FunctorCapture@V<lambda_f0a7c2b0a64e3b533e4acd91ff29d36c>@@XP$AAU?$IAsyncOperation@P$AAVStorageFile@Storage@Windows@@@Foundation@Windows@@W4AsyncStatus@34@@Details@Platform@@UAEPAXI@Z 10077e80 f i WinRTVFS.obj
 0002:00039ef0       ??_E?$call@HV?$function@$$A6AXABH@Z@std@@@Concurrency@@UAEPAXI@Z 10077ef0 f i WinRTVFS.obj
 0002:00039ef0       ??_G?$call@HV?$function@$$A6AXABH@Z@std@@@Concurrency@@UAEPAXI@Z 10077ef0 f i WinRTVFS.obj
 0002:00039f60       ??_E?$concurrent_queue@PAV?$message@H@Concurrency@@V?$allocator@PAV?$message@H@Concurrency@@@std@@@Concurrency@@UAEPAXI@Z 10077f60 f i WinRTVFS.obj
 0002:00039f60       ??_G?$concurrent_queue@PAV?$message@H@Concurrency@@V?$allocator@PAV?$message@H@Concurrency@@@std@@@Concurrency@@UAEPAXI@Z 10077f60 f i WinRTVFS.obj
 0002:00039fd0       ??_G?$function@$$A6A_NABH@Z@std@@QAEPAXI@Z 10077fd0 f i WinRTVFS.obj
 0002:0003a040       ??_E?$message@H@Concurrency@@UAEPAXI@Z 10078040 f i WinRTVFS.obj
 0002:0003a040       ??_G?$message@H@Concurrency@@UAEPAXI@Z 10078040 f i WinRTVFS.obj
 0002:0003a0b0       ??_E?$multi_link_registry@V?$ISource@H@Concurrency@@@Concurrency@@UAEPAXI@Z 100780b0 f i WinRTVFS.obj
 0002:0003a0b0       ??_G?$multi_link_registry@V?$ISource@H@Concurrency@@@Concurrency@@UAEPAXI@Z 100780b0 f i WinRTVFS.obj
 0002:0003a120       ??_E?$ordered_message_processor@H@Concurrency@@UAEPAXI@Z 10078120 f i WinRTVFS.obj
 0002:0003a120       ??_G?$ordered_message_processor@H@Concurrency@@UAEPAXI@Z 10078120 f i WinRTVFS.obj
 0002:0003a190       ??_G?$shared_ptr@U?$_Task_impl@E@details@Concurrency@@@std@@QAEPAXI@Z 10078190 f i WinRTVFS.obj
 0002:0003a200       ??_G?$single_link_registry@V?$ITarget@H@Concurrency@@@Concurrency@@UAEPAXI@Z 10078200 f i WinRTVFS.obj
 0002:0003a200       ??_E?$single_link_registry@V?$ITarget@H@Concurrency@@@Concurrency@@UAEPAXI@Z 10078200 f i WinRTVFS.obj
 0002:0003a270       ??_G?$source_block@V?$single_link_registry@V?$ITarget@H@Concurrency@@@Concurrency@@V?$ordered_message_processor@H@2@@Concurrency@@UAEPAXI@Z 10078270 f i WinRTVFS.obj
 0002:0003a270       ??_E?$source_block@V?$single_link_registry@V?$ITarget@H@Concurrency@@@Concurrency@@V?$ordered_message_processor@H@2@@Concurrency@@UAEPAXI@Z 10078270 f i WinRTVFS.obj
 0002:0003a2e0       ??_E?$target_block@V?$multi_link_registry@V?$ISource@H@Concurrency@@@Concurrency@@V?$ordered_message_processor@H@2@@Concurrency@@UAEPAXI@Z 100782e0 f i WinRTVFS.obj
 0002:0003a2e0       ??_G?$target_block@V?$multi_link_registry@V?$ISource@H@Concurrency@@@Concurrency@@V?$ordered_message_processor@H@2@@Concurrency@@UAEPAXI@Z 100782e0 f i WinRTVFS.obj
 0002:0003a350       ??_G?$timer@H@Concurrency@@UAEPAXI@Z 10078350 f i WinRTVFS.obj
 0002:0003a350       ??_E?$timer@H@Concurrency@@UAEPAXI@Z 10078350 f i WinRTVFS.obj
 0002:0003a3c0       ??_E_CancellationTokenRegistration@details@Concurrency@@MAEPAXI@Z 100783c0 f i WinRTVFS.obj
 0002:0003a3c0       ??_G_CancellationTokenRegistration@details@Concurrency@@MAEPAXI@Z 100783c0 f i WinRTVFS.obj
 0002:0003a430       ??_G_Chore@details@Concurrency@@MAEPAXI@Z 10078430 f i WinRTVFS.obj
 0002:0003a430       ??_E_Chore@details@Concurrency@@MAEPAXI@Z 10078430 f i WinRTVFS.obj
 0002:0003a4a0       ??_G_ContinuationTaskHandleBase@details@Concurrency@@UAEPAXI@Z 100784a0 f i WinRTVFS.obj
 0002:0003a4a0       ??_E_ContinuationTaskHandleBase@details@Concurrency@@UAEPAXI@Z 100784a0 f i WinRTVFS.obj
 0002:0003a510       ??_G_ExceptionHolder@details@Concurrency@@QAEPAXI@Z 10078510 f i WinRTVFS.obj
 0002:0003a580       ??_G_RefCounter@details@Concurrency@@UAEPAXI@Z 10078580 f i WinRTVFS.obj
 0002:0003a580       ??_E_RefCounter@details@Concurrency@@UAEPAXI@Z 10078580 f i WinRTVFS.obj
 0002:0003a5f0       ??_G_Ref_count_base@std@@UAEPAXI@Z 100785f0 f i WinRTVFS.obj
 0002:0003a5f0       ??_E_Ref_count_base@std@@UAEPAXI@Z 100785f0 f i WinRTVFS.obj
 0002:0003a660       ??_G_TaskProcHandle@details@Concurrency@@UAEPAXI@Z 10078660 f i WinRTVFS.obj
 0002:0003a660       ??_E_TaskProcHandle@details@Concurrency@@UAEPAXI@Z 10078660 f i WinRTVFS.obj
 0002:0003a6d0       ??_G_TaskProcThunk@details@Concurrency@@QAEPAXI@Z 100786d0 f i WinRTVFS.obj
 0002:0003a740       ??_G_Task_impl_base@details@Concurrency@@UAEPAXI@Z 10078740 f i WinRTVFS.obj
 0002:0003a740       ??_E_Task_impl_base@details@Concurrency@@UAEPAXI@Z 10078740 f i WinRTVFS.obj
 0002:0003a7b0       ??_E_UnrealizedChore@details@Concurrency@@UAEPAXI@Z 100787b0 f i WinRTVFS.obj
 0002:0003a7b0       ??_G_UnrealizedChore@details@Concurrency@@UAEPAXI@Z 100787b0 f i WinRTVFS.obj
 0002:0003a820       ??_G__abi_CaptureBase@Details@Platform@@MAEPAXI@Z 10078820 f i WinRTVFS.obj
 0002:0003a820       ??_E__abi_CaptureBase@Details@Platform@@MAEPAXI@Z 10078820 f i WinRTVFS.obj
 0002:0003a890       ??_G__abi_CapturePtr@Details@Platform@@QAEPAXI@Z 10078890 f i WinRTVFS.obj
 0002:0003a900       ??_Gbad_alloc@std@@UAEPAXI@Z 10078900 f i WinRTVFS.obj
 0002:0003a900       ??_Ebad_alloc@std@@UAEPAXI@Z 10078900 f i WinRTVFS.obj
 0002:0003a970       ??_Ebad_target@Concurrency@@UAEPAXI@Z 10078970 f i WinRTVFS.obj
 0002:0003a970       ??_Gbad_target@Concurrency@@UAEPAXI@Z 10078970 f i WinRTVFS.obj
 0002:0003a9e0       ??_Ebad_weak_ptr@std@@UAEPAXI@Z 100789e0 f i WinRTVFS.obj
 0002:0003a9e0       ??_Gbad_weak_ptr@std@@UAEPAXI@Z 100789e0 f i WinRTVFS.obj
 0002:0003aa50       ??_Ginvalid_argument@std@@UAEPAXI@Z 10078a50 f i WinRTVFS.obj
 0002:0003aa50       ??_Einvalid_argument@std@@UAEPAXI@Z 10078a50 f i WinRTVFS.obj
 0002:0003aac0       ??_Ginvalid_link_target@Concurrency@@UAEPAXI@Z 10078ac0 f i WinRTVFS.obj
 0002:0003aac0       ??_Einvalid_link_target@Concurrency@@UAEPAXI@Z 10078ac0 f i WinRTVFS.obj
 0002:0003ab30       ??_Ginvalid_operation@Concurrency@@UAEPAXI@Z 10078b30 f i WinRTVFS.obj
 0002:0003ab30       ??_Einvalid_operation@Concurrency@@UAEPAXI@Z 10078b30 f i WinRTVFS.obj
 0002:0003aba0       ??_Elogic_error@std@@UAEPAXI@Z 10078ba0 f i WinRTVFS.obj
 0002:0003aba0       ??_Glogic_error@std@@UAEPAXI@Z 10078ba0 f i WinRTVFS.obj
 0002:0003ac10       ??_Emessage_not_found@Concurrency@@UAEPAXI@Z 10078c10 f i WinRTVFS.obj
 0002:0003ac10       ??_Gmessage_not_found@Concurrency@@UAEPAXI@Z 10078c10 f i WinRTVFS.obj
 0002:0003ac80       ??_Gruntime_error@std@@UAEPAXI@Z 10078c80 f i WinRTVFS.obj
 0002:0003ac80       ??_Eruntime_error@std@@UAEPAXI@Z 10078c80 f i WinRTVFS.obj
 0002:0003acf0       ??_Gtask_canceled@Concurrency@@UAEPAXI@Z 10078cf0 f i WinRTVFS.obj
 0002:0003acf0       ??_Etask_canceled@Concurrency@@UAEPAXI@Z 10078cf0 f i WinRTVFS.obj
 0002:0003ad60       ?Allocate@Heap@Details@Platform@@SAPAXIIPAX@Z 10078d60 f i WinRTVFS.obj
 0002:0003ada0       ?Allocate@Heap@Details@Platform@@SAPAXIPAX@Z 10078da0 f i WinRTVFS.obj
 0002:0003ade0       ?Cancel@?QIAsyncInfo@Foundation@Windows@@?$_AsyncInfoImpl@P$AAU?$IAsyncOperationWithProgress@II@Foundation@Windows@@V?$AsyncOperationWithProgressCompletedHandler@II@23@I@details@Concurrency@@U$AAAXXZ 10078de0 f i WinRTVFS.obj
 0002:0003aedf       ?Cancel@?QIAsyncInfo@Foundation@Windows@@?$_AsyncInfoImpl@P$AAU?$IAsyncOperationWithProgress@II@Foundation@Windows@@V?$AsyncOperationWithProgressCompletedHandler@II@23@I@details@Concurrency@@W7$AAAXXZ 10078edf f i WinRTVFS.obj
 0002:0003aef0       ?Cancel@?QIAsyncInfo@Foundation@Windows@@?$_AsyncInfoImpl@P$AAU?$IAsyncOperationWithProgress@P$AAUIBuffer@Streams@Storage@Windows@@I@Foundation@Windows@@V?$AsyncOperationWithProgressCompletedHandler@P$AAUIBuffer@Streams@Storage@Windows@@I@23@P$AAUIBuffer@Streams@Storage@3@@details@Concurrency@@U$AAAXXZ 10078ef0 f i WinRTVFS.obj
 0002:0003afef       ?Cancel@?QIAsyncInfo@Foundation@Windows@@?$_AsyncInfoImpl@P$AAU?$IAsyncOperationWithProgress@P$AAUIBuffer@Streams@Storage@Windows@@I@Foundation@Windows@@V?$AsyncOperationWithProgressCompletedHandler@P$AAUIBuffer@Streams@Storage@Windows@@I@23@P$AAUIBuffer@Streams@Storage@3@@details@Concurrency@@W7$AAAXXZ 10078fef f i WinRTVFS.obj
 0002:0003b000       ?Cancel@?QIAsyncInfo@Foundation@Windows@@?$_AsyncInfoImpl@P$AAUIAsyncAction@Foundation@Windows@@VAsyncActionCompletedHandler@23@E@details@Concurrency@@U$AAAXXZ 10079000 f i WinRTVFS.obj
 0002:0003b0ff       ?Cancel@?QIAsyncInfo@Foundation@Windows@@?$_AsyncInfoImpl@P$AAUIAsyncAction@Foundation@Windows@@VAsyncActionCompletedHandler@23@E@details@Concurrency@@W7$AAAXXZ 100790ff f i WinRTVFS.obj
 0002:0003b110       ?Cancel@IAsyncInfo@Foundation@Windows@@U$AAAXXZ 10079110 f i WinRTVFS.obj
 0002:0003b180       ?CaptureContext@?$Agile@P$AAU?$IAsyncOperationWithProgress@II@Foundation@Windows@@$00@Platform@@AAEXXZ 10079180 f i WinRTVFS.obj
 0002:0003b210       ?CaptureContext@?$Agile@P$AAU?$IAsyncOperationWithProgress@P$AAUIBuffer@Streams@Storage@Windows@@I@Foundation@Windows@@$00@Platform@@AAEXXZ 10079210 f i WinRTVFS.obj
 0002:0003b2a0       ?CaptureContext@?$Agile@P$AAUIAsyncAction@Foundation@Windows@@$00@Platform@@AAEXXZ 100792a0 f i WinRTVFS.obj
 0002:0003b330       ?CaptureContext@?$Agile@P$AAUIBuffer@Streams@Storage@Windows@@$00@Platform@@AAEXXZ 10079330 f i WinRTVFS.obj
 0002:0003b3c0       ?CaptureContext@?$Agile@P$AAUIRandomAccessStream@Streams@Storage@Windows@@$00@Platform@@AAEXXZ 100793c0 f i WinRTVFS.obj
 0002:0003b450       ?Close@?QIAsyncInfo@Foundation@Windows@@?$_AsyncInfoImpl@P$AAU?$IAsyncOperationWithProgress@II@Foundation@Windows@@V?$AsyncOperationWithProgressCompletedHandler@II@23@I@details@Concurrency@@U$AAAXXZ 10079450 f i WinRTVFS.obj
 0002:0003b54f       ?Close@?QIAsyncInfo@Foundation@Windows@@?$_AsyncInfoImpl@P$AAU?$IAsyncOperationWithProgress@II@Foundation@Windows@@V?$AsyncOperationWithProgressCompletedHandler@II@23@I@details@Concurrency@@W7$AAAXXZ 1007954f f i WinRTVFS.obj
 0002:0003b560       ?Close@?QIAsyncInfo@Foundation@Windows@@?$_AsyncInfoImpl@P$AAU?$IAsyncOperationWithProgress@P$AAUIBuffer@Streams@Storage@Windows@@I@Foundation@Windows@@V?$AsyncOperationWithProgressCompletedHandler@P$AAUIBuffer@Streams@Storage@Windows@@I@23@P$AAUIBuffer@Streams@Storage@3@@details@Concurrency@@U$AAAXXZ 10079560 f i WinRTVFS.obj
 0002:0003b65f       ?Close@?QIAsyncInfo@Foundation@Windows@@?$_AsyncInfoImpl@P$AAU?$IAsyncOperationWithProgress@P$AAUIBuffer@Streams@Storage@Windows@@I@Foundation@Windows@@V?$AsyncOperationWithProgressCompletedHandler@P$AAUIBuffer@Streams@Storage@Windows@@I@23@P$AAUIBuffer@Streams@Storage@3@@details@Concurrency@@W7$AAAXXZ 1007965f f i WinRTVFS.obj
 0002:0003b670       ?Close@?QIAsyncInfo@Foundation@Windows@@?$_AsyncInfoImpl@P$AAUIAsyncAction@Foundation@Windows@@VAsyncActionCompletedHandler@23@E@details@Concurrency@@U$AAAXXZ 10079670 f i WinRTVFS.obj
 0002:0003b76f       ?Close@?QIAsyncInfo@Foundation@Windows@@?$_AsyncInfoImpl@P$AAUIAsyncAction@Foundation@Windows@@VAsyncActionCompletedHandler@23@E@details@Concurrency@@W7$AAAXXZ 1007976f f i WinRTVFS.obj
 0002:0003b780       ?Close@IAsyncInfo@Foundation@Windows@@U$AAAXXZ 10079780 f i WinRTVFS.obj
 0002:0003b7f0       ?Create@IBufferFactory@Streams@Storage@Windows@@U$AAAP$AAVBuffer@234@I@Z 100797f0 f i WinRTVFS.obj
 0002:0003b940       ?CreateFileAsync@IStorageFolder@Storage@Windows@@U$AAAP$AAU?$IAsyncOperation@P$AAVStorageFile@Storage@Windows@@@Foundation@3@P$AAVString@Platform@@W4CreationCollisionOption@23@@Z 10079940 f i WinRTVFS.obj
 0002:0003baa0       ?CreateString@Details@Platform@@YAXPB_WIPAPAUHSTRING__@@@Z 10079aa0 f i WinRTVFS.obj
 0002:0003bb00       ?CreateStringReference@Details@Platform@@YAXPB_WIPAU__Platform_Details_HSTRING_HEADER@@PAPAUHSTRING__@@@Z 10079b00 f i WinRTVFS.obj
 0002:0003bb70       ?Delete@__abi_CaptureBase@Details@Platform@@QAEXPAU123@PAX@Z 10079b70 f i WinRTVFS.obj
 0002:0003bbf0       ?DeleteAsync@IStorageItem@Storage@Windows@@U$AAAP$AAUIAsyncAction@Foundation@3@XZ 10079bf0 f i WinRTVFS.obj
 0002:0003bd40       ?DuplicateString@Details@Platform@@YAXPAUHSTRING__@@PAPAU3@@Z 10079d40 f i WinRTVFS.obj
 0002:0003bdb0       ?FlushAsync@IOutputStream@Streams@Storage@Windows@@U$AAAP$AAU?$IAsyncOperation@_N@Foundation@4@XZ 10079db0 f i WinRTVFS.obj
 0002:0003bf00       ?Get@?$Agile@P$AAU?$IAsyncOperationWithProgress@II@Foundation@Windows@@$00@Platform@@QBEP$AAU?$IAsyncOperationWithProgress@II@Foundation@Windows@@XZ 10079f00 f i WinRTVFS.obj
 0002:0003c220       ?Get@?$Agile@P$AAU?$IAsyncOperationWithProgress@P$AAUIBuffer@Streams@Storage@Windows@@I@Foundation@Windows@@$00@Platform@@QBEP$AAU?$IAsyncOperationWithProgress@P$AAUIBuffer@Streams@Storage@Windows@@I@Foundation@Windows@@XZ 1007a220 f i WinRTVFS.obj
 0002:0003c540       ?Get@?$Agile@P$AAUIAsyncAction@Foundation@Windows@@$00@Platform@@QBEP$AAUIAsyncAction@Foundation@Windows@@XZ 1007a540 f i WinRTVFS.obj
 0002:0003c860       ?Get@?$Agile@P$AAUIBuffer@Streams@Storage@Windows@@$00@Platform@@QBEP$AAUIBuffer@Streams@Storage@Windows@@XZ 1007a860 f i WinRTVFS.obj
 0002:0003cb80       ?Get@?$Agile@P$AAUIRandomAccessStream@Streams@Storage@Windows@@$00@Platform@@QBEP$AAUIRandomAccessStream@Streams@Storage@Windows@@XZ 1007ab80 f i WinRTVFS.obj
 0002:0003cea0       ?Get@?$Agile@P$AAVStorageFile@Storage@Windows@@$0A@@Platform@@QBEP$AAVStorageFile@Storage@Windows@@XZ 1007aea0 f i WinRTVFS.obj
 0002:0003cf00       ?Get@?$Agile@P$AAVStorageFolder@Storage@Windows@@$0A@@Platform@@QBEP$AAVStorageFolder@Storage@Windows@@XZ 1007af00 f i WinRTVFS.obj
 0002:0003cf60       ?Get@?$ComPtr@UIUnknown@@@WRL@Microsoft@@QBEPAUIUnknown@@XZ 1007af60 f i WinRTVFS.obj
 0002:0003cfa0       ?Get@?$_ResultHolder@E@details@Concurrency@@QAEEXZ 1007afa0 f i WinRTVFS.obj
 0002:0003cfe0       ?Get@?$_ResultHolder@P$AAUIBuffer@Streams@Storage@Windows@@@details@Concurrency@@QAEP$AAUIBuffer@Streams@Storage@Windows@@XZ 1007afe0 f i WinRTVFS.obj
 0002:0003d0b0       ?Get@?$_ResultHolder@P$AAUIRandomAccessStream@Streams@Storage@Windows@@@details@Concurrency@@QAEP$AAUIRandomAccessStream@Streams@Storage@Windows@@XZ 1007b0b0 f i WinRTVFS.obj
 0002:0003d180       ?Get@?$_ResultHolder@P$AAVStorageFile@Storage@Windows@@@details@Concurrency@@QAEP$AAVStorageFile@Storage@Windows@@XZ 1007b180 f i WinRTVFS.obj
 0002:0003d250       ?Get@?$_ResultHolder@P$AAVStorageFolder@Storage@Windows@@@details@Concurrency@@QAEP$AAVStorageFolder@Storage@Windows@@XZ 1007b250 f i WinRTVFS.obj
 0002:0003d320       ?GetFolderFromPathAsync@IStorageFolderStatics@Storage@Windows@@U$AAAP$AAU?$IAsyncOperation@P$AAVStorageFolder@Storage@Windows@@@Foundation@3@P$AAVString@Platform@@@Z 1007b320 f i WinRTVFS.obj
 0002:0003d470       ?GetFolderFromPathAsync@StorageFolder@Storage@Windows@@SAP$AAU?$IAsyncOperation@P$AAVStorageFolder@Storage@Windows@@@Foundation@3@P$AAVString@Platform@@@Z 1007b470 f i WinRTVFS.obj
 0002:0003d670       ?GetInputStreamAt@IRandomAccessStream@Streams@Storage@Windows@@U$AAAP$AAUIInputStream@234@_K@Z 1007b670 f i WinRTVFS.obj
 0002:0003d7d0       ?GetOutputStreamAt@IRandomAccessStream@Streams@Storage@Windows@@U$AAAP$AAUIOutputStream@234@_K@Z 1007b7d0 f i WinRTVFS.obj
 0002:0003d930       ?GetResults@?$IAsyncOperation@E@Foundation@Windows@@U$AAAEXZ 1007b930 f i WinRTVFS.obj
 0002:0003da10       ?GetResults@?$IAsyncOperation@I@Foundation@Windows@@U$AAAIXZ 1007ba10 f i WinRTVFS.obj
 0002:0003daf0       ?GetResults@?$IAsyncOperation@P$AAUIBuffer@Streams@Storage@Windows@@@Foundation@Windows@@U$AAAP$AAUIBuffer@Streams@Storage@3@XZ 1007baf0 f i WinRTVFS.obj
 0002:0003dc40       ?GetResults@?$IAsyncOperation@P$AAUIRandomAccessStream@Streams@Storage@Windows@@@Foundation@Windows@@U$AAAP$AAUIRandomAccessStream@Streams@Storage@3@XZ 1007bc40 f i WinRTVFS.obj
 0002:0003dd90       ?GetResults@?$IAsyncOperation@P$AAVStorageFile@Storage@Windows@@@Foundation@Windows@@U$AAAP$AAVStorageFile@Storage@3@XZ 1007bd90 f i WinRTVFS.obj
 0002:0003dee0       ?GetResults@?$IAsyncOperation@P$AAVStorageFolder@Storage@Windows@@@Foundation@Windows@@U$AAAP$AAVStorageFolder@Storage@3@XZ 1007bee0 f i WinRTVFS.obj
 0002:0003e030       ?GetResults@?$IAsyncOperation@_N@Foundation@Windows@@U$AAA_NXZ 1007c030 f i WinRTVFS.obj
 0002:0003e110       ?GetResults@?$IAsyncOperationWithProgress@II@Foundation@Windows@@U$AAAIXZ 1007c110 f i WinRTVFS.obj
 0002:0003e1f0       ?GetResults@?$IAsyncOperationWithProgress@P$AAUIBuffer@Streams@Storage@Windows@@I@Foundation@Windows@@U$AAAP$AAUIBuffer@Streams@Storage@3@XZ 1007c1f0 f i WinRTVFS.obj
 0002:0003e340       ?GetResults@?Q?$IAsyncOperation@E@Foundation@Windows@@?$_AsyncInfoImpl@P$AAUIAsyncAction@Foundation@Windows@@VAsyncActionCompletedHandler@23@E@details@Concurrency@@U$AAAEXZ 1007c340 f i WinRTVFS.obj
 0002:0003e3a7       ?GetResults@?Q?$IAsyncOperation@E@Foundation@Windows@@?$_AsyncInfoImpl@P$AAUIAsyncAction@Foundation@Windows@@VAsyncActionCompletedHandler@23@E@details@Concurrency@@W3$AAAEXZ 1007c3a7 f i WinRTVFS.obj
 0002:0003e3c0       ?GetResults@?Q?$IAsyncOperation@E@Foundation@Windows@@_IAsyncActionToAsyncOperationConverter@details@Concurrency@@U$AAAEXZ 1007c3c0 f i WinRTVFS.obj
 0002:0003e481       ?GetResults@?Q?$IAsyncOperation@E@Foundation@Windows@@_IAsyncActionToAsyncOperationConverter@details@Concurrency@@W7$AAAEXZ 1007c481 f i WinRTVFS.obj
 0002:0003e490       ?GetResults@?Q?$IAsyncOperation@I@Foundation@Windows@@?$_AsyncInfoImpl@P$AAU?$IAsyncOperationWithProgress@II@Foundation@Windows@@V?$AsyncOperationWithProgressCompletedHandler@II@23@I@details@Concurrency@@U$AAAIXZ 1007c490 f i WinRTVFS.obj
 0002:0003e4f7       ?GetResults@?Q?$IAsyncOperation@I@Foundation@Windows@@?$_AsyncInfoImpl@P$AAU?$IAsyncOperationWithProgress@II@Foundation@Windows@@V?$AsyncOperationWithProgressCompletedHandler@II@23@I@details@Concurrency@@W3$AAAIXZ 1007c4f7 f i WinRTVFS.obj
 0002:0003e510       ?GetResults@?Q?$IAsyncOperation@I@Foundation@Windows@@?$_IAsyncOperationWithProgressToAsyncOperationConverter@II@details@Concurrency@@U$AAAIXZ 1007c510 f i WinRTVFS.obj
 0002:0003e5de       ?GetResults@?Q?$IAsyncOperation@I@Foundation@Windows@@?$_IAsyncOperationWithProgressToAsyncOperationConverter@II@details@Concurrency@@W7$AAAIXZ 1007c5de f i WinRTVFS.obj
 0002:0003e5f0       ?GetResults@?Q?$IAsyncOperation@P$AAUIBuffer@Streams@Storage@Windows@@@Foundation@Windows@@?$_AsyncInfoImpl@P$AAU?$IAsyncOperationWithProgress@P$AAUIBuffer@Streams@Storage@Windows@@I@Foundation@Windows@@V?$AsyncOperationWithProgressCompletedHandler@P$AAUIBuffer@Streams@Storage@Windows@@I@23@P$AAUIBuffer@Streams@Storage@3@@details@Concurrency@@U$AAAP$AAUIBuffer@Streams@Storage@3@XZ 1007c5f0 f i WinRTVFS.obj
 0002:0003e657       ?GetResults@?Q?$IAsyncOperation@P$AAUIBuffer@Streams@Storage@Windows@@@Foundation@Windows@@?$_AsyncInfoImpl@P$AAU?$IAsyncOperationWithProgress@P$AAUIBuffer@Streams@Storage@Windows@@I@Foundation@Windows@@V?$AsyncOperationWithProgressCompletedHandler@P$AAUIBuffer@Streams@Storage@Windows@@I@23@P$AAUIBuffer@Streams@Storage@3@@details@Concurrency@@W3$AAAP$AAUIBuffer@Streams@Storage@3@XZ 1007c657 f i WinRTVFS.obj
 0002:0003e670       ?GetResults@?Q?$IAsyncOperation@P$AAUIBuffer@Streams@Storage@Windows@@@Foundation@Windows@@?$_IAsyncOperationWithProgressToAsyncOperationConverter@P$AAUIBuffer@Streams@Storage@Windows@@I@details@Concurrency@@U$AAAP$AAUIBuffer@Streams@Storage@3@XZ 1007c670 f i WinRTVFS.obj
 0002:0003e775       ?GetResults@?Q?$IAsyncOperation@P$AAUIBuffer@Streams@Storage@Windows@@@Foundation@Windows@@?$_IAsyncOperationWithProgressToAsyncOperationConverter@P$AAUIBuffer@Streams@Storage@Windows@@I@details@Concurrency@@W7$AAAP$AAUIBuffer@Streams@Storage@3@XZ 1007c775 f i WinRTVFS.obj
 0002:0003e790       ?GetResults@IAsyncAction@Foundation@Windows@@U$AAAXXZ 1007c790 f i WinRTVFS.obj
 0002:0003e800       ?GetStorageFileFromPath@@YAP$AAVStorageFile@Storage@Windows@@PBD@Z 1007c800 f   WinRTVFS.obj
 0002:0003ef90       ?GetVFunction@__abi_CaptureBase@Details@Platform@@QAEPAXH@Z 1007cf90 f i WinRTVFS.obj
 0002:0003efe0       ?GetWeakReference@?QIWeakReferenceSource@Details@Platform@@?$_IAsyncOperationWithProgressToAsyncOperationConverter@II@details@Concurrency@@U$AAAP$AAUIWeakReference@23@XZ 1007cfe0 f i WinRTVFS.obj
 0002:0003f0ae       ?GetWeakReference@?QIWeakReferenceSource@Details@Platform@@?$_IAsyncOperationWithProgressToAsyncOperationConverter@II@details@Concurrency@@WCM@$AAAP$AAUIWeakReference@23@XZ 1007d0ae f i WinRTVFS.obj
 0002:0003f0c0       ?GetWeakReference@?QIWeakReferenceSource@Details@Platform@@?$_IAsyncOperationWithProgressToAsyncOperationConverter@P$AAUIBuffer@Streams@Storage@Windows@@I@details@Concurrency@@U$AAAP$AAUIWeakReference@23@XZ 1007d0c0 f i WinRTVFS.obj
 0002:0003f18e       ?GetWeakReference@?QIWeakReferenceSource@Details@Platform@@?$_IAsyncOperationWithProgressToAsyncOperationConverter@P$AAUIBuffer@Streams@Storage@Windows@@I@details@Concurrency@@WCM@$AAAP$AAUIWeakReference@23@XZ 1007d18e f i WinRTVFS.obj
 0002:0003f1a0       ?GetWeakReference@?QIWeakReferenceSource@Details@Platform@@_IAsyncActionToAsyncOperationConverter@details@Concurrency@@U$AAAP$AAUIWeakReference@23@XZ 1007d1a0 f i WinRTVFS.obj
 0002:0003f26e       ?GetWeakReference@?QIWeakReferenceSource@Details@Platform@@_IAsyncActionToAsyncOperationConverter@details@Concurrency@@WCM@$AAAP$AAUIWeakReference@23@XZ 1007d26e f i WinRTVFS.obj
 0002:0003f280       ?InternalAddRef@?$ComPtr@UIUnknown@@@WRL@Microsoft@@IBEXXZ 1007d280 f i WinRTVFS.obj
 0002:0003f2f0       ?InternalRelease@?$ComPtr@UIAgileObject@@@WRL@Microsoft@@IAEKXZ 1007d2f0 f i WinRTVFS.obj
 0002:0003f380       ?InternalRelease@?$ComPtr@UIBufferByteAccess@Streams@Storage@Windows@@@WRL@Microsoft@@IAEKXZ 1007d380 f i WinRTVFS.obj
 0002:0003f410       ?InternalRelease@?$ComPtr@UIUnknown@@@WRL@Microsoft@@IAEKXZ 1007d410 f i WinRTVFS.obj
 0002:0003f4a0       ?Invoke@?$AsyncOperationCompletedHandler@E@Foundation@Windows@@U$AAAXP$AAU?$IAsyncOperation@E@23@W4AsyncStatus@23@@Z 1007d4a0 f i WinRTVFS.obj
 0002:0003f570       ?Invoke@?$AsyncOperationCompletedHandler@I@Foundation@Windows@@U$AAAXP$AAU?$IAsyncOperation@I@23@W4AsyncStatus@23@@Z 1007d570 f i WinRTVFS.obj
 0002:0003f640       ?Invoke@?$AsyncOperationCompletedHandler@P$AAUIBuffer@Streams@Storage@Windows@@@Foundation@Windows@@U$AAAXP$AAU?$IAsyncOperation@P$AAUIBuffer@Streams@Storage@Windows@@@23@W4AsyncStatus@23@@Z 1007d640 f i WinRTVFS.obj
 0002:0003f710       ?Invoke@?$AsyncOperationCompletedHandler@P$AAUIRandomAccessStream@Streams@Storage@Windows@@@Foundation@Windows@@U$AAAXP$AAU?$IAsyncOperation@P$AAUIRandomAccessStream@Streams@Storage@Windows@@@23@W4AsyncStatus@23@@Z 1007d710 f i WinRTVFS.obj
 0002:0003f7e0       ?Invoke@?$AsyncOperationCompletedHandler@P$AAVStorageFile@Storage@Windows@@@Foundation@Windows@@U$AAAXP$AAU?$IAsyncOperation@P$AAVStorageFile@Storage@Windows@@@23@W4AsyncStatus@23@@Z 1007d7e0 f i WinRTVFS.obj
 0002:0003f8b0       ?Invoke@?$AsyncOperationCompletedHandler@P$AAVStorageFolder@Storage@Windows@@@Foundation@Windows@@U$AAAXP$AAU?$IAsyncOperation@P$AAVStorageFolder@Storage@Windows@@@23@W4AsyncStatus@23@@Z 1007d8b0 f i WinRTVFS.obj
 0002:0003f980       ?Invoke@?$AsyncOperationCompletedHandler@_N@Foundation@Windows@@U$AAAXP$AAU?$IAsyncOperation@_N@23@W4AsyncStatus@23@@Z 1007d980 f i WinRTVFS.obj
 0002:0003fa50       ?Invoke@?$AsyncOperationWithProgressCompletedHandler@II@Foundation@Windows@@U$AAAXP$AAU?$IAsyncOperationWithProgress@II@23@W4AsyncStatus@23@@Z 1007da50 f i WinRTVFS.obj
 0002:0003fb20       ?Invoke@?$AsyncOperationWithProgressCompletedHandler@P$AAUIBuffer@Streams@Storage@Windows@@I@Foundation@Windows@@U$AAAXP$AAU?$IAsyncOperationWithProgress@P$AAUIBuffer@Streams@Storage@Windows@@I@23@W4AsyncStatus@23@@Z 1007db20 f i WinRTVFS.obj
 0002:0003fbf0       ?Invoke@?$__abi_FunctorCapture@V<lambda_06940b0a4178dd98f799c96a43aa5761>@@XP$AAUIAsyncAction@Foundation@Windows@@W4AsyncStatus@34@@Details@Platform@@UAGXP$AAUIAsyncAction@Foundation@Windows@@W4AsyncStatus@56@@Z 1007dbf0 f i WinRTVFS.obj
 0002:0003fc50       ?Invoke@?$__abi_FunctorCapture@V<lambda_3e0d823744565aaa3c572230ef0680e7>@@XP$AAU?$IAsyncOperationWithProgress@P$AAUIBuffer@Streams@Storage@Windows@@I@Foundation@Windows@@W4AsyncStatus@34@@Details@Platform@@UAGXP$AAU?$IAsyncOperationWithProgress@P$AAUIBuffer@Streams@Storage@Windows@@I@Foundation@Windows@@W4AsyncStatus@56@@Z 1007dc50 f i WinRTVFS.obj
 0002:0003fcb0       ?Invoke@?$__abi_FunctorCapture@V<lambda_50a95a3b918e2a131c7de197f9d43680>@@XP$AAU?$IAsyncOperation@I@Foundation@Windows@@W4AsyncStatus@34@@Details@Platform@@UAGXP$AAU?$IAsyncOperation@I@Foundation@Windows@@W4AsyncStatus@56@@Z 1007dcb0 f i WinRTVFS.obj
 0002:0003fd10       ?Invoke@?$__abi_FunctorCapture@V<lambda_58b35b2c39cebe76475502e8be1fa050>@@XP$AAU?$IAsyncOperation@P$AAUIRandomAccessStream@Streams@Storage@Windows@@@Foundation@Windows@@W4AsyncStatus@34@@Details@Platform@@UAGXP$AAU?$IAsyncOperation@P$AAUIRandomAccessStream@Streams@Storage@Windows@@@Foundation@Windows@@W4AsyncStatus@56@@Z 1007dd10 f i WinRTVFS.obj
 0002:0003fd70       ?Invoke@?$__abi_FunctorCapture@V<lambda_78c8bde34479949ab00939bfc3c21b9e>@@XP$AAU?$IAsyncOperation@_N@Foundation@Windows@@W4AsyncStatus@34@@Details@Platform@@UAGXP$AAU?$IAsyncOperation@_N@Foundation@Windows@@W4AsyncStatus@56@@Z 1007dd70 f i WinRTVFS.obj
 0002:0003fdd0       ?Invoke@?$__abi_FunctorCapture@V<lambda_7a641106db6b220fc1bd53009e5e1b6e>@@XP$AAU?$IAsyncOperationWithProgress@II@Foundation@Windows@@W4AsyncStatus@34@@Details@Platform@@UAGXP$AAU?$IAsyncOperationWithProgress@II@Foundation@Windows@@W4AsyncStatus@56@@Z 1007ddd0 f i WinRTVFS.obj
 0002:0003fe30       ?Invoke@?$__abi_FunctorCapture@V<lambda_8b35f48eeaabe3dd7cb14b365c80a64b>@@XP$AAU?$IAsyncOperation@P$AAUIBuffer@Streams@Storage@Windows@@@Foundation@Windows@@W4AsyncStatus@34@@Details@Platform@@UAGXP$AAU?$IAsyncOperation@P$AAUIBuffer@Streams@Storage@Windows@@@Foundation@Windows@@W4AsyncStatus@56@@Z 1007de30 f i WinRTVFS.obj
 0002:0003fe90       ?Invoke@?$__abi_FunctorCapture@V<lambda_b5ec294d64b7ae7d96b9bd52c133d46d>@@XP$AAU?$IAsyncOperation@E@Foundation@Windows@@W4AsyncStatus@34@@Details@Platform@@UAGXP$AAU?$IAsyncOperation@E@Foundation@Windows@@W4AsyncStatus@56@@Z 1007de90 f i WinRTVFS.obj
 0002:0003fef0       ?Invoke@?$__abi_FunctorCapture@V<lambda_c124a470bc399dc48f76de2d0d06ac02>@@XP$AAU?$IAsyncOperation@P$AAVStorageFolder@Storage@Windows@@@Foundation@Windows@@W4AsyncStatus@34@@Details@Platform@@UAGXP$AAU?$IAsyncOperation@P$AAVStorageFolder@Storage@Windows@@@Foundation@Windows@@W4AsyncStatus@56@@Z 1007def0 f i WinRTVFS.obj
 0002:0003ff50       ?Invoke@?$__abi_FunctorCapture@V<lambda_f0a7c2b0a64e3b533e4acd91ff29d36c>@@XP$AAU?$IAsyncOperation@P$AAVStorageFile@Storage@Windows@@@Foundation@Windows@@W4AsyncStatus@34@@Details@Platform@@UAGXP$AAU?$IAsyncOperation@P$AAVStorageFile@Storage@Windows@@@Foundation@Windows@@W4AsyncStatus@56@@Z 1007df50 f i WinRTVFS.obj
 0002:0003ffb0       ?Invoke@AsyncActionCompletedHandler@Foundation@Windows@@U$AAAXP$AAUIAsyncAction@23@W4AsyncStatus@23@@Z 1007dfb0 f i WinRTVFS.obj
 0002:00040080       ?Invoke@__abi_IDelegate@?$AsyncOperationCompletedHandler@E@Foundation@Windows@@U$AAAXP$AAU?$IAsyncOperation@E@34@W4AsyncStatus@34@@Z 1007e080 f i WinRTVFS.obj
 0002:00040100       ?Invoke@__abi_IDelegate@?$AsyncOperationCompletedHandler@I@Foundation@Windows@@U$AAAXP$AAU?$IAsyncOperation@I@34@W4AsyncStatus@34@@Z 1007e100 f i WinRTVFS.obj
 0002:00040180       ?Invoke@__abi_IDelegate@?$AsyncOperationCompletedHandler@P$AAUIBuffer@Streams@Storage@Windows@@@Foundation@Windows@@U$AAAXP$AAU?$IAsyncOperation@P$AAUIBuffer@Streams@Storage@Windows@@@34@W4AsyncStatus@34@@Z 1007e180 f i WinRTVFS.obj
 0002:00040200       ?Invoke@__abi_IDelegate@?$AsyncOperationCompletedHandler@P$AAUIRandomAccessStream@Streams@Storage@Windows@@@Foundation@Windows@@U$AAAXP$AAU?$IAsyncOperation@P$AAUIRandomAccessStream@Streams@Storage@Windows@@@34@W4AsyncStatus@34@@Z 1007e200 f i WinRTVFS.obj
 0002:00040280       ?Invoke@__abi_IDelegate@?$AsyncOperationCompletedHandler@P$AAVStorageFile@Storage@Windows@@@Foundation@Windows@@U$AAAXP$AAU?$IAsyncOperation@P$AAVStorageFile@Storage@Windows@@@34@W4AsyncStatus@34@@Z 1007e280 f i WinRTVFS.obj
 0002:00040300       ?Invoke@__abi_IDelegate@?$AsyncOperationCompletedHandler@P$AAVStorageFolder@Storage@Windows@@@Foundation@Windows@@U$AAAXP$AAU?$IAsyncOperation@P$AAVStorageFolder@Storage@Windows@@@34@W4AsyncStatus@34@@Z 1007e300 f i WinRTVFS.obj
 0002:00040380       ?Invoke@__abi_IDelegate@?$AsyncOperationCompletedHandler@_N@Foundation@Windows@@U$AAAXP$AAU?$IAsyncOperation@_N@34@W4AsyncStatus@34@@Z 1007e380 f i WinRTVFS.obj
 0002:00040400       ?Invoke@__abi_IDelegate@?$AsyncOperationWithProgressCompletedHandler@II@Foundation@Windows@@U$AAAXP$AAU?$IAsyncOperationWithProgress@II@34@W4AsyncStatus@34@@Z 1007e400 f i WinRTVFS.obj
 0002:00040480       ?Invoke@__abi_IDelegate@?$AsyncOperationWithProgressCompletedHandler@P$AAUIBuffer@Streams@Storage@Windows@@I@Foundation@Windows@@U$AAAXP$AAU?$IAsyncOperationWithProgress@P$AAUIBuffer@Streams@Storage@Windows@@I@34@W4AsyncStatus@34@@Z 1007e480 f i WinRTVFS.obj
 0002:00040500       ?Invoke@__abi_IDelegate@AsyncActionCompletedHandler@Foundation@Windows@@U$AAAXP$AAUIAsyncAction@34@W4AsyncStatus@34@@Z 1007e500 f i WinRTVFS.obj
 0002:00040580       ?OpenAsync@IStorageFile@Storage@Windows@@U$AAAP$AAU?$IAsyncOperation@P$AAUIRandomAccessStream@Streams@Storage@Windows@@@Foundation@3@W4FileAccessMode@23@@Z 1007e580 f i WinRTVFS.obj
 0002:000406d0       ?ReadAsync@IInputStream@Streams@Storage@Windows@@U$AAAP$AAU?$IAsyncOperationWithProgress@P$AAUIBuffer@Streams@Storage@Windows@@I@Foundation@4@P$AAUIBuffer@234@IW4InputStreamOptions@234@@Z 1007e6d0 f i WinRTVFS.obj
 0002:00040830       ?Release@?$Agile@P$AAU?$IAsyncOperationWithProgress@II@Foundation@Windows@@$00@Platform@@QAEXXZ 1007e830 f i WinRTVFS.obj
 0002:000409c0       ?Release@?$Agile@P$AAU?$IAsyncOperationWithProgress@P$AAUIBuffer@Streams@Storage@Windows@@I@Foundation@Windows@@$00@Platform@@QAEXXZ 1007e9c0 f i WinRTVFS.obj
 0002:00040b50       ?Release@?$Agile@P$AAUIAsyncAction@Foundation@Windows@@$00@Platform@@QAEXXZ 1007eb50 f i WinRTVFS.obj
 0002:00040ce0       ?Release@?$Agile@P$AAUIBuffer@Streams@Storage@Windows@@$00@Platform@@QAEXXZ 1007ece0 f i WinRTVFS.obj
 0002:00040e70       ?Release@?$Agile@P$AAUIRandomAccessStream@Streams@Storage@Windows@@$00@Platform@@QAEXXZ 1007ee70 f i WinRTVFS.obj
 0002:00041000       ?Release@?$Agile@P$AAVStorageFile@Storage@Windows@@$0A@@Platform@@QAEXXZ 1007f000 f i WinRTVFS.obj
 0002:00041060       ?Release@?$Agile@P$AAVStorageFolder@Storage@Windows@@$0A@@Platform@@QAEXXZ 1007f060 f i WinRTVFS.obj
 0002:000410c0       ?ReleaseAndGetAddressOf@?$ComPtr@UIAgileObject@@@WRL@Microsoft@@QAEPAPAUIAgileObject@@XZ 1007f0c0 f i WinRTVFS.obj
 0002:00041120       ?ReleaseAndGetAddressOf@?$ComPtr@UIBufferByteAccess@Streams@Storage@Windows@@@WRL@Microsoft@@QAEPAPAUIBufferByteAccess@Streams@Storage@Windows@@XZ 1007f120 f i WinRTVFS.obj
 0002:00041180       ?ReportUnhandledError@_ExceptionHolder@details@Concurrency@@AAEXXZ 1007f180 f i WinRTVFS.obj
 0002:000411f0       ?Set@?$_ResultHolder@E@details@Concurrency@@QAEXABE@Z 1007f1f0 f i WinRTVFS.obj
 0002:00041240       ?Set@?$_ResultHolder@I@details@Concurrency@@QAEXABI@Z 1007f240 f i WinRTVFS.obj
 0002:00041290       ?Set@?$_ResultHolder@P$AAUIBuffer@Streams@Storage@Windows@@@details@Concurrency@@QAEXABQ$AAUIBuffer@Streams@Storage@Windows@@@Z 1007f290 f i WinRTVFS.obj
 0002:000412f0       ?Set@?$_ResultHolder@P$AAUIRandomAccessStream@Streams@Storage@Windows@@@details@Concurrency@@QAEXABQ$AAUIRandomAccessStream@Streams@Storage@Windows@@@Z 1007f2f0 f i WinRTVFS.obj
 0002:00041350       ?Set@?$_ResultHolder@P$AAVStorageFile@Storage@Windows@@@details@Concurrency@@QAEXABQ$AAVStorageFile@Storage@Windows@@@Z 1007f350 f i WinRTVFS.obj
 0002:000413b0       ?Set@?$_ResultHolder@P$AAVStorageFolder@Storage@Windows@@@details@Concurrency@@QAEXABQ$AAVStorageFolder@Storage@Windows@@@Z 1007f3b0 f i WinRTVFS.obj
 0002:00041410       ?Set@?$_ResultHolder@_N@details@Concurrency@@QAEXAB_N@Z 1007f410 f i WinRTVFS.obj
 0002:00041460       ?SetObject@?$Agile@P$AAU?$IAsyncOperationWithProgress@II@Foundation@Windows@@$00@Platform@@AAEXP$AAU?$IAsyncOperationWithProgress@II@Foundation@Windows@@@Z 1007f460 f i WinRTVFS.obj
 0002:00041600       ?SetObject@?$Agile@P$AAU?$IAsyncOperationWithProgress@P$AAUIBuffer@Streams@Storage@Windows@@I@Foundation@Windows@@$00@Platform@@AAEXP$AAU?$IAsyncOperationWithProgress@P$AAUIBuffer@Streams@Storage@Windows@@I@Foundation@Windows@@@Z 1007f600 f i WinRTVFS.obj
 0002:000417a0       ?SetObject@?$Agile@P$AAUIAsyncAction@Foundation@Windows@@$00@Platform@@AAEXP$AAUIAsyncAction@Foundation@Windows@@@Z 1007f7a0 f i WinRTVFS.obj
 0002:00041940       ?SetObject@?$Agile@P$AAUIBuffer@Streams@Storage@Windows@@$00@Platform@@AAEXP$AAUIBuffer@Streams@Storage@Windows@@@Z 1007f940 f i WinRTVFS.obj
 0002:00041ae0       ?SetObject@?$Agile@P$AAUIRandomAccessStream@Streams@Storage@Windows@@$00@Platform@@AAEXP$AAUIRandomAccessStream@Streams@Storage@Windows@@@Z 1007fae0 f i WinRTVFS.obj
 0002:00041c80       ?Swap@?$Agile@P$AAUIBuffer@Streams@Storage@Windows@@$00@Platform@@QAEXAAV12@@Z 1007fc80 f i WinRTVFS.obj
 0002:00041d30       ?Swap@?$Agile@P$AAUIRandomAccessStream@Streams@Storage@Windows@@$00@Platform@@QAEXAAV12@@Z 1007fd30 f i WinRTVFS.obj
 0002:00041de0       ?Swap@?$ComPtr@UIUnknown@@@WRL@Microsoft@@QAEXAAV123@@Z 1007fde0 f i WinRTVFS.obj
 0002:00041e40       ?TraceOperationCompletion@AsyncCausalityTracer@Diagnostics@Foundation@Windows@@SAXW4CausalityTraceLevel@234@W4CausalitySource@234@VGuid@Platform@@_KW4AsyncStatus@34@@Z 1007fe40 f i WinRTVFS.obj
 0002:00042010       ?TraceOperationCompletion@IAsyncCausalityTracerStatics@Diagnostics@Foundation@Windows@@U$AAAXW4CausalityTraceLevel@234@W4CausalitySource@234@VGuid@Platform@@_KW4AsyncStatus@34@@Z 10080010 f i WinRTVFS.obj
 0002:000420c0       ?TraceOperationCreation@AsyncCausalityTracer@Diagnostics@Foundation@Windows@@SAXW4CausalityTraceLevel@234@W4CausalitySource@234@VGuid@Platform@@_KP$AAVString@8@3@Z 100800c0 f i WinRTVFS.obj
 0002:00042290       ?TraceOperationCreation@IAsyncCausalityTracerStatics@Diagnostics@Foundation@Windows@@U$AAAXW4CausalityTraceLevel@234@W4CausalitySource@234@VGuid@Platform@@_KP$AAVString@8@3@Z 10080290 f i WinRTVFS.obj
 0002:00042350       ?TraceOperationRelation@AsyncCausalityTracer@Diagnostics@Foundation@Windows@@SAXW4CausalityTraceLevel@234@W4CausalitySource@234@VGuid@Platform@@_KW4CausalityRelation@234@@Z 10080350 f i WinRTVFS.obj
 0002:00042520       ?TraceOperationRelation@IAsyncCausalityTracerStatics@Diagnostics@Foundation@Windows@@U$AAAXW4CausalityTraceLevel@234@W4CausalitySource@234@VGuid@Platform@@_KW4CausalityRelation@234@@Z 10080520 f i WinRTVFS.obj
 0002:000425d0       ?TraceSynchronousWorkCompletion@AsyncCausalityTracer@Diagnostics@Foundation@Windows@@SAXW4CausalityTraceLevel@234@W4CausalitySource@234@W4CausalitySynchronousWork@234@@Z 100805d0 f i WinRTVFS.obj
 0002:00042770       ?TraceSynchronousWorkCompletion@IAsyncCausalityTracerStatics@Diagnostics@Foundation@Windows@@U$AAAXW4CausalityTraceLevel@234@W4CausalitySource@234@W4CausalitySynchronousWork@234@@Z 10080770 f i WinRTVFS.obj
 0002:000427f0       ?TraceSynchronousWorkStart@AsyncCausalityTracer@Diagnostics@Foundation@Windows@@SAXW4CausalityTraceLevel@234@W4CausalitySource@234@VGuid@Platform@@_KW4CausalitySynchronousWork@234@@Z 100807f0 f i WinRTVFS.obj
 0002:000429c0       ?TraceSynchronousWorkStart@IAsyncCausalityTracerStatics@Diagnostics@Foundation@Windows@@U$AAAXW4CausalityTraceLevel@234@W4CausalitySource@234@VGuid@Platform@@_KW4CausalitySynchronousWork@234@@Z 100809c0 f i WinRTVFS.obj
 0002:00042a70       ?WinRTAccess@@YAHPAUsqlite3_vfs@@PBDHPAH@Z 10080a70 f   WinRTVFS.obj
 0002:00042ab0       ?WinRTCheckReservedLock@@YAHPAUsqlite3_file@@PAH@Z 10080ab0 f   WinRTVFS.obj
 0002:00042ae0       ?WinRTClose@@YAHPAUsqlite3_file@@@Z 10080ae0 f   WinRTVFS.obj
 0002:00042c70       ?WinRTCurrentTime@@YAHPAUsqlite3_vfs@@PAN@Z 10080c70 f   WinRTVFS.obj
 0002:00042cf0       ?WinRTDelete@@YAHPAUsqlite3_vfs@@PBDH@Z 10080cf0 f   WinRTVFS.obj
 0002:00042fa0       ?WinRTDeviceCharacteristics@@YAHPAUsqlite3_file@@@Z 10080fa0 f   WinRTVFS.obj
 0002:00042fd0       ?WinRTDlClose@@YAXPAUsqlite3_vfs@@PAX@Z 10080fd0 f   WinRTVFS.obj
 0002:00043000       ?WinRTDlError@@YAXPAUsqlite3_vfs@@HPAD@Z 10081000 f   WinRTVFS.obj
 0002:00043030       ?WinRTDlOpen@@YAPAXPAUsqlite3_vfs@@PBD@Z 10081030 f   WinRTVFS.obj
 0002:00043060       ?WinRTDlSym@@YAP6AXXZPAUsqlite3_vfs@@PAXPBD@Z 10081060 f   WinRTVFS.obj
 0002:00043090       ?WinRTFileControl@@YAHPAUsqlite3_file@@HPAX@Z 10081090 f   WinRTVFS.obj
 0002:000430d0       ?WinRTFileSize@@YAHPAUsqlite3_file@@PA_J@Z 100810d0 f   WinRTVFS.obj
 0002:00043240       ?WinRTFlush@@YAHPAUWinRTFile@@@Z 10081240 f   WinRTVFS.obj
 0002:00043590       ?WinRTFullPathname@@YAHPAUsqlite3_vfs@@PBDHPAD@Z 10081590 f   WinRTVFS.obj
 0002:00043600       ?WinRTLock@@YAHPAUsqlite3_file@@H@Z 10081600 f   WinRTVFS.obj
 0002:00043630       ?WinRTOpen@@YAHPAUsqlite3_vfs@@PBDPAUsqlite3_file@@HPAH@Z 10081630 f   WinRTVFS.obj
 0002:00043b20       ?WinRTRandomness@@YAHPAUsqlite3_vfs@@HPAD@Z 10081b20 f   WinRTVFS.obj
 0002:00043b50       ?WinRTRead@@YAHPAUsqlite3_file@@PAXH_J@Z 10081b50 f   WinRTVFS.obj
 0002:000443a0       ?WinRTSectorSize@@YAHPAUsqlite3_file@@@Z 100823a0 f   WinRTVFS.obj
 0002:000443d0       ?WinRTSleep@@YAHPAUsqlite3_vfs@@H@Z 100823d0 f   WinRTVFS.obj
 0002:000444b0       ?WinRTSync@@YAHPAUsqlite3_file@@H@Z 100824b0 f   WinRTVFS.obj
 0002:00044510       ?WinRTTruncate@@YAHPAUsqlite3_file@@_J@Z 10082510 f   WinRTVFS.obj
 0002:00044680       ?WinRTUnlock@@YAHPAUsqlite3_file@@H@Z 10082680 f   WinRTVFS.obj
 0002:000446b0       ?WinRTWrite@@YAHPAUsqlite3_file@@PBXH_J@Z 100826b0 f   WinRTVFS.obj
 0002:00044d10       ?WriteAsync@IOutputStream@Streams@Storage@Windows@@U$AAAP$AAU?$IAsyncOperationWithProgress@II@Foundation@4@P$AAUIBuffer@234@@Z 10082d10 f i WinRTVFS.obj
 0002:00044e60       ?_Add@?$multi_link_registry@V?$ISource@H@Concurrency@@@Concurrency@@AAEXPAV?$ISource@H@2@@Z 10082e60 f i WinRTVFS.obj
 0002:00045030       ?_Adopt@_Iterator_base12@std@@QAEXPBU_Container_base12@2@@Z 10083030 f i WinRTVFS.obj
 0002:000451f0       ?_Alloc_proxy@?$_Vector_alloc@$0A@U?$_Vec_base_types@PAXV?$allocator@PAX@std@@@std@@@std@@QAEXXZ 100831f0 f i WinRTVFS.obj
 0002:000452e0       ?_Alloc_proxy@?$_Vector_alloc@$0A@U?$_Vec_base_types@V?$shared_ptr@U?$_Task_impl@E@details@Concurrency@@@std@@V?$allocator@V?$shared_ptr@U?$_Task_impl@E@details@Concurrency@@@std@@@2@@std@@@std@@QAEXXZ 100832e0 f i WinRTVFS.obj
 0002:000453d0       ?_Allocate_page@?$concurrent_queue@PAV?$message@H@Concurrency@@V?$allocator@PAV?$message@H@Concurrency@@@std@@@Concurrency@@EAEPAU_Page@_Concurrent_queue_base_v4@details@2@XZ 100833d0 f i WinRTVFS.obj
 0002:00045470       ?_Assign@_ContextCallback@details@Concurrency@@AAEXPAUIContextCallback@@@Z 10083470 f i WinRTVFS.obj
 0002:00045500       ?_Assign@cancellation_token@Concurrency@@AAEXPAV_CancellationTokenState@details@2@@Z 10083500 f i WinRTVFS.obj
 0002:00045570       ?_Assign_and_destroy_item@?$concurrent_queue@PAV?$message@H@Concurrency@@V?$allocator@PAV?$message@H@Concurrency@@@std@@@Concurrency@@EAEXPAXAAU_Page@_Concurrent_queue_base_v4@details@2@I@Z 10083570 f i WinRTVFS.obj
 0002:00045660       ?_Assign_rv@?$_Ptr_base@U?$_Task_completion_event_impl@E@details@Concurrency@@@std@@QAEX$$QAV12@@Z 10083660 f i WinRTVFS.obj
 0002:000456c0       ?_Assign_rv@?$_Ptr_base@U?$_Task_impl@E@details@Concurrency@@@std@@QAEX$$QAV12@@Z 100836c0 f i WinRTVFS.obj
 0002:00045720       ?_Assign_rv@?$_Ptr_base@U?$_Task_impl@I@details@Concurrency@@@std@@QAEX$$QAV12@@Z 10083720 f i WinRTVFS.obj
 0002:00045780       ?_Assign_rv@?$_Ptr_base@U?$_Task_impl@P$AAUIBuffer@Streams@Storage@Windows@@@details@Concurrency@@@std@@QAEX$$QAV12@@Z 10083780 f i WinRTVFS.obj
 0002:000457e0       ?_Assign_rv@?$_Ptr_base@U?$_Task_impl@P$AAUIRandomAccessStream@Streams@Storage@Windows@@@details@Concurrency@@@std@@QAEX$$QAV12@@Z 100837e0 f i WinRTVFS.obj
 0002:00045840       ?_Assign_rv@?$_Ptr_base@U?$_Task_impl@P$AAVStorageFile@Storage@Windows@@@details@Concurrency@@@std@@QAEX$$QAV12@@Z 10083840 f i WinRTVFS.obj
 0002:000458a0       ?_Assign_rv@?$_Ptr_base@U?$_Task_impl@P$AAVStorageFolder@Storage@Windows@@@details@Concurrency@@@std@@QAEX$$QAV12@@Z 100838a0 f i WinRTVFS.obj
 0002:00045900       ?_Assign_rv@?$_Ptr_base@U?$_Task_impl@_N@details@Concurrency@@@std@@QAEX$$QAV12@@Z 10083900 f i WinRTVFS.obj
 0002:00045960       ?_Assign_rv@?$_Ptr_base@U_ExceptionHolder@details@Concurrency@@@std@@QAEX$$QAV12@@Z 10083960 f i WinRTVFS.obj
 0002:000459c0       ?_Assign_rv@?$_Ptr_base@Uscheduler_interface@Concurrency@@@std@@QAEX$$QAV12@@Z 100839c0 f i WinRTVFS.obj
 0002:00045a20       ?_Atomic_compare_exchange_strong_4@std@@YAHPCKPAKKW4memory_order@1@2@Z 10083a20 f i WinRTVFS.obj
 0002:00045c00       ?_Atomic_exchange_4@std@@YAKPCKKW4memory_order@1@@Z 10083c00 f i WinRTVFS.obj
 0002:00045db0       ?_Atomic_load_4@std@@YAKPCKW4memory_order@1@@Z 10083db0 f i WinRTVFS.obj
 0002:00045f40       ?_Atomic_store_4@std@@YAXPCKKW4memory_order@1@@Z 10083f40 f i WinRTVFS.obj
 0002:000460c0       ?_Bridge@_ContextCallback@details@Concurrency@@CGJPAUtagComCallData@@@Z 100840c0 f i WinRTVFS.obj
 0002:00046120       ?_Bridge@_TaskProcThunk@details@Concurrency@@SAXPAX@Z 10084120 f i WinRTVFS.obj
 0002:00046220       ?_Buy@?$vector@PAXV?$allocator@PAX@std@@@std@@IAE_NI@Z 10084220 f i WinRTVFS.obj
 0002:00046310       ?_CallInContext@_ContextCallback@details@Concurrency@@QBEXV?$function@$$A6AXXZ@std@@@Z 10084310 f i WinRTVFS.obj
 0002:000464e0       ?_Cancel@_AsyncTaskCollection@details@Concurrency@@QAEXXZ 100844e0 f i WinRTVFS.obj
 0002:00046540       ?_Cancel@_TaskCollectionImpl@details@Concurrency@@QAEXXZ 10084540 f i WinRTVFS.obj
 0002:000465b0       ?_Cancel@_Task_impl_base@details@Concurrency@@QAE_N_N@Z 100845b0 f i WinRTVFS.obj
 0002:00046630       ?_CancelAndRunContinuations@?$_Task_impl@E@details@Concurrency@@UAE_N_N00ABV?$shared_ptr@U_ExceptionHolder@details@Concurrency@@@std@@@Z 10084630 f i WinRTVFS.obj
 0002:00046bc0       ?_CancelAndRunContinuations@?$_Task_impl@I@details@Concurrency@@UAE_N_N00ABV?$shared_ptr@U_ExceptionHolder@details@Concurrency@@@std@@@Z 10084bc0 f i WinRTVFS.obj
 0002:00047150       ?_CancelAndRunContinuations@?$_Task_impl@P$AAUIBuffer@Streams@Storage@Windows@@@details@Concurrency@@UAE_N_N00ABV?$shared_ptr@U_ExceptionHolder@details@Concurrency@@@std@@@Z 10085150 f i WinRTVFS.obj
 0002:000476e0       ?_CancelAndRunContinuations@?$_Task_impl@P$AAUIRandomAccessStream@Streams@Storage@Windows@@@details@Concurrency@@UAE_N_N00ABV?$shared_ptr@U_ExceptionHolder@details@Concurrency@@@std@@@Z 100856e0 f i WinRTVFS.obj
 0002:00047c70       ?_CancelAndRunContinuations@?$_Task_impl@P$AAVStorageFile@Storage@Windows@@@details@Concurrency@@UAE_N_N00ABV?$shared_ptr@U_ExceptionHolder@details@Concurrency@@@std@@@Z 10085c70 f i WinRTVFS.obj
 0002:00048200       ?_CancelAndRunContinuations@?$_Task_impl@P$AAVStorageFolder@Storage@Windows@@@details@Concurrency@@UAE_N_N00ABV?$shared_ptr@U_ExceptionHolder@details@Concurrency@@@std@@@Z 10086200 f i WinRTVFS.obj
 0002:00048790       ?_CancelAndRunContinuations@?$_Task_impl@_N@details@Concurrency@@UAE_N_N00ABV?$shared_ptr@U_ExceptionHolder@details@Concurrency@@@std@@@Z 10086790 f i WinRTVFS.obj
 0002:00048d20       ?_CancelWithException@_Task_impl_base@details@Concurrency@@QAE_NABVexception_ptr@std@@@Z 10086d20 f i WinRTVFS.obj
 0002:00048ec0       ?_CancelWithException@_Task_impl_base@details@Concurrency@@QAE_NP$AAVException@Platform@@@Z 10086ec0 f i WinRTVFS.obj
 0002:00049090       ?_CancelWithExceptionHolder@_Task_impl_base@details@Concurrency@@QAE_NABV?$shared_ptr@U_ExceptionHolder@details@Concurrency@@@std@@_N@Z 10087090 f i WinRTVFS.obj
 0002:00049110       ?_Capture@_ContextCallback@details@Concurrency@@QAEXXZ 10087110 f i WinRTVFS.obj
 0002:00049190       ?_CaptureCurrent@_ContextCallback@details@Concurrency@@SA?AV123@XZ 10087190 f i WinRTVFS.obj
 0002:000492b0       ?_CaptureMultiFramesCallstack@_TaskCreationCallstack@details@Concurrency@@SA?AV123@I@Z 100872b0 f i WinRTVFS.obj
 0002:00049420       ?_Change_alloc@?$_Vector_alloc@$0A@U?$_Vec_base_types@PAXV?$allocator@PAX@std@@@std@@@std@@QAEXABU?$_Wrap_alloc@V?$allocator@PAX@std@@@2@@Z 10087420 f i WinRTVFS.obj
 0002:00049460       ?_Clear@?$_Dynamic_array@PAV?$ISource@H@Concurrency@@@details@Concurrency@@QAEXXZ 10087460 f i WinRTVFS.obj
 0002:000494e0       ?_Clear@cancellation_token@Concurrency@@AAEXXZ 100874e0 f i WinRTVFS.obj
 0002:00049550       ?_Clear_queued_messages@?$ordered_message_processor@H@Concurrency@@AAEXXZ 10087550 f i WinRTVFS.obj
 0002:00049670       ?_Clrcont@_Iterator_base12@std@@QAEXXZ 10087670 f i WinRTVFS.obj
 0002:000496b0       ?_Compare_exchange_acquire_4@std@@YAHPCKPAKK@Z 100876b0 f i WinRTVFS.obj
 0002:00049730       ?_Compare_exchange_relaxed_4@std@@YAHPCKPAKK@Z 10087730 f i WinRTVFS.obj
 0002:000497b0       ?_Compare_exchange_release_4@std@@YAHPCKPAKK@Z 100877b0 f i WinRTVFS.obj
 0002:00049830       ?_Compare_exchange_seq_cst_4@std@@YAHPCKPAKK@Z 10087830 f i WinRTVFS.obj
 0002:000498b0       ?_Compat@?$_Vector_const_iterator@V?$_Vector_val@U?$_Simple_types@V?$shared_ptr@U?$_Task_impl@E@details@Concurrency@@@std@@@std@@@std@@@std@@QBEXABV12@@Z 100878b0 f i WinRTVFS.obj
 0002:000499d0       ?_Complete@_TaskCollectionImpl@details@Concurrency@@QAEXXZ 100879d0 f i WinRTVFS.obj
 0002:00049a40       ?_Continue@?$_ContinuationTaskHandle@XXV<lambda_9fc58f08a03183e50e06176727aeb396>@@U?$integral_constant@_N$0A@@std@@U_TypeSelectorNoAsync@details@Concurrency@@@?$task@E@Concurrency@@QBEXU?$integral_constant@_N$0A@@std@@U_TypeSelectorNoAsync@details@3@@Z 10087a40 f i WinRTVFS.obj
 0002:00049b90       ?_Copy@?$_Func_impl@U?$_Callable_obj@V<lambda_02d862f9cfc639ff7c37ca52d43e6a8c>@@$0A@@std@@V?$allocator@V?$_Func_class@X$$$V@std@@@2@X$$$V@std@@UAEPAV?$_Func_base@X$$$V@2@PAX@Z 10087b90 f i WinRTVFS.obj
 0002:00049ca0       ?_Copy@?$_Func_impl@U?$_Callable_obj@V<lambda_095a938ce4c5765dcc6b67f548aeb9c7>@@$0A@@std@@V?$allocator@V?$_Func_class@X$$$V@std@@@2@X$$$V@std@@UAEPAV?$_Func_base@X$$$V@2@PAX@Z 10087ca0 f i WinRTVFS.obj
 0002:00049db0       ?_Copy@?$_Func_impl@U?$_Callable_obj@V<lambda_0b7f78ec4ced38495cec46e0d346e0b9>@@$0A@@std@@V?$allocator@V?$_Func_class@X$$$V@std@@@2@X$$$V@std@@UAEPAV?$_Func_base@X$$$V@2@PAX@Z 10087db0 f i WinRTVFS.obj
 0002:00049ec0       ?_Copy@?$_Func_impl@U?$_Callable_obj@V<lambda_0fe479da16d43edb8e9a254c493d643e>@@$0A@@std@@V?$allocator@V?$_Func_class@X$$$V@std@@@2@X$$$V@std@@UAEPAV?$_Func_base@X$$$V@2@PAX@Z 10087ec0 f i WinRTVFS.obj
 0002:00049fd0       ?_Copy@?$_Func_impl@U?$_Callable_obj@V<lambda_1a93da980d6fe77644a4eefc4e1ad756>@@$0A@@std@@V?$allocator@V?$_Func_class@XABH@std@@@2@XABH@std@@UAEPAV?$_Func_base@XABH@2@PAX@Z 10087fd0 f i WinRTVFS.obj
 0002:0004a0e0       ?_Copy@?$_Func_impl@U?$_Callable_obj@V<lambda_295bc5f846209cba149a5e74d0d63a72>@@$0A@@std@@V?$allocator@V?$_Func_class@XPAV?$message@H@Concurrency@@@std@@@2@XPAV?$message@H@Concurrency@@@std@@UAEPAV?$_Func_base@XPAV?$message@H@Concurrency@@@2@PAX@Z 100880e0 f i WinRTVFS.obj
 0002:0004a1f0       ?_Copy@?$_Func_impl@U?$_Callable_obj@V<lambda_364e75aa895e992ae8821732ca646aa2>@@$0A@@std@@V?$allocator@V?$_Func_class@X$$$V@std@@@2@X$$$V@std@@UAEPAV?$_Func_base@X$$$V@2@PAX@Z 100881f0 f i WinRTVFS.obj
 0002:0004a300       ?_Copy@?$_Func_impl@U?$_Callable_obj@V<lambda_39cde079c01d1b5b9307ff255a1ccdd9>@@$0A@@std@@V?$allocator@V?$_Func_class@EE@std@@@2@EE@std@@UAEPAV?$_Func_base@EE@2@PAX@Z 10088300 f i WinRTVFS.obj
 0002:0004a410       ?_Copy@?$_Func_impl@U?$_Callable_obj@V<lambda_528650821c608ced6534641e311542a5>@@$0A@@std@@V?$allocator@V?$_Func_class@X$$$V@std@@@2@X$$$V@std@@UAEPAV?$_Func_base@X$$$V@2@PAX@Z 10088410 f i WinRTVFS.obj
 0002:0004a520       ?_Copy@?$_Func_impl@U?$_Callable_obj@V<lambda_579ccd68d569251046038e8620afec85>@@$0A@@std@@V?$allocator@V?$_Func_class@XPAV?$message@H@Concurrency@@@std@@@2@XPAV?$message@H@Concurrency@@@std@@UAEPAV?$_Func_base@XPAV?$message@H@Concurrency@@@2@PAX@Z 10088520 f i WinRTVFS.obj
 0002:0004a630       ?_Copy@?$_Func_impl@U?$_Callable_obj@V<lambda_9fc58f08a03183e50e06176727aeb396>@@$0A@@std@@V?$allocator@V?$_Func_class@X$$$V@std@@@2@X$$$V@std@@UAEPAV?$_Func_base@X$$$V@2@PAX@Z 10088630 f i WinRTVFS.obj
 0002:0004a740       ?_Copy@?$_Func_impl@U?$_Callable_obj@V<lambda_a66b3ee15e662226a0b0b15ae647d32f>@@$0A@@std@@V?$allocator@V?$_Func_class@X$$$V@std@@@2@X$$$V@std@@UAEPAV?$_Func_base@X$$$V@2@PAX@Z 10088740 f i WinRTVFS.obj
 0002:0004a850       ?_Copy@?$_Func_impl@U?$_Callable_obj@V<lambda_c1a554f2383dae03f169289aed8c4103>@@$0A@@std@@V?$allocator@V?$_Func_class@X$$$V@std@@@2@X$$$V@std@@UAEPAV?$_Func_base@X$$$V@2@PAX@Z 10088850 f i WinRTVFS.obj
 0002:0004a960       ?_Copy@?$_Func_impl@U?$_Callable_obj@V<lambda_c28a53003ed51cdfe295a7d756f98c2f>@@$0A@@std@@V?$allocator@V?$_Func_class@XPAV?$message@H@Concurrency@@@std@@@2@XPAV?$message@H@Concurrency@@@std@@UAEPAV?$_Func_base@XPAV?$message@H@Concurrency@@@2@PAX@Z 10088960 f i WinRTVFS.obj
 0002:0004aa70       ?_Copy@?$_Func_impl@U?$_Callable_obj@V<lambda_e7ef5f1e4e1eca0ae8efc6086cf9f417>@@$0A@@std@@V?$allocator@V?$_Func_class@X$$$V@std@@@2@X$$$V@std@@UAEPAV?$_Func_base@X$$$V@2@PAX@Z 10088a70 f i WinRTVFS.obj
 0002:0004ab80       ?_Copy_item@?$concurrent_queue@PAV?$message@H@Concurrency@@V?$allocator@PAV?$message@H@Concurrency@@@std@@@Concurrency@@EAEXAAU_Page@_Concurrent_queue_base_v4@details@2@IPBX@Z 10088b80 f i WinRTVFS.obj
 0002:0004ac30       ?_Count@?$multi_link_registry@V?$ISource@H@Concurrency@@@Concurrency@@ABEIXZ 10088c30 f i WinRTVFS.obj
 0002:0004ace0       ?_CreateImpl@?$task@E@Concurrency@@QAEXPAV_CancellationTokenState@details@2@Uscheduler_ptr@2@@Z 10088ce0 f i WinRTVFS.obj
 0002:0004ae70       ?_CreateImpl@?$task@I@Concurrency@@QAEXPAV_CancellationTokenState@details@2@Uscheduler_ptr@2@@Z 10088e70 f i WinRTVFS.obj
 0002:0004b000       ?_CreateImpl@?$task@P$AAUIBuffer@Streams@Storage@Windows@@@Concurrency@@QAEXPAV_CancellationTokenState@details@2@Uscheduler_ptr@2@@Z 10089000 f i WinRTVFS.obj
 0002:0004b190       ?_CreateImpl@?$task@P$AAUIRandomAccessStream@Streams@Storage@Windows@@@Concurrency@@QAEXPAV_CancellationTokenState@details@2@Uscheduler_ptr@2@@Z 10089190 f i WinRTVFS.obj
 0002:0004b320       ?_CreateImpl@?$task@P$AAVStorageFile@Storage@Windows@@@Concurrency@@QAEXPAV_CancellationTokenState@details@2@Uscheduler_ptr@2@@Z 10089320 f i WinRTVFS.obj
 0002:0004b4b0       ?_CreateImpl@?$task@P$AAVStorageFolder@Storage@Windows@@@Concurrency@@QAEXPAV_CancellationTokenState@details@2@Uscheduler_ptr@2@@Z 100894b0 f i WinRTVFS.obj
 0002:0004b640       ?_CreateImpl@?$task@X@Concurrency@@QAEXPAV_CancellationTokenState@details@2@Uscheduler_ptr@2@@Z 10089640 f i WinRTVFS.obj
 0002:0004b710       ?_CreateImpl@?$task@_N@Concurrency@@QAEXPAV_CancellationTokenState@details@2@Uscheduler_ptr@2@@Z 10089710 f i WinRTVFS.obj
 0002:0004b8a0       ?_Current_exception@exception_ptr@std@@SA?AV12@XZ 100898a0 f i WinRTVFS.obj
 0002:0004b9e0       ?_Deallocate_page@?$concurrent_queue@PAV?$message@H@Concurrency@@V?$allocator@PAV?$message@H@Concurrency@@@std@@@Concurrency@@EAEXPAU_Page@_Concurrent_queue_base_v4@details@2@@Z 100899e0 f i WinRTVFS.obj
 0002:0004ba60       ?_Decref@?$_Ptr_base@U?$_Task_completion_event_impl@E@details@Concurrency@@@std@@QAEXXZ 10089a60 f i WinRTVFS.obj
 0002:0004bac0       ?_Decref@?$_Ptr_base@U?$_Task_impl@E@details@Concurrency@@@std@@QAEXXZ 10089ac0 f i WinRTVFS.obj
 0002:0004bb20       ?_Decref@?$_Ptr_base@U?$_Task_impl@I@details@Concurrency@@@std@@QAEXXZ 10089b20 f i WinRTVFS.obj
 0002:0004bb80       ?_Decref@?$_Ptr_base@U?$_Task_impl@P$AAUIBuffer@Streams@Storage@Windows@@@details@Concurrency@@@std@@QAEXXZ 10089b80 f i WinRTVFS.obj
 0002:0004bbe0       ?_Decref@?$_Ptr_base@U?$_Task_impl@P$AAUIRandomAccessStream@Streams@Storage@Windows@@@details@Concurrency@@@std@@QAEXXZ 10089be0 f i WinRTVFS.obj
 0002:0004bc40       ?_Decref@?$_Ptr_base@U?$_Task_impl@P$AAVStorageFile@Storage@Windows@@@details@Concurrency@@@std@@QAEXXZ 10089c40 f i WinRTVFS.obj
 0002:0004bca0       ?_Decref@?$_Ptr_base@U?$_Task_impl@P$AAVStorageFolder@Storage@Windows@@@details@Concurrency@@@std@@QAEXXZ 10089ca0 f i WinRTVFS.obj
 0002:0004bd00       ?_Decref@?$_Ptr_base@U?$_Task_impl@_N@details@Concurrency@@@std@@QAEXXZ 10089d00 f i WinRTVFS.obj
 0002:0004bd60       ?_Decref@?$_Ptr_base@U_ExceptionHolder@details@Concurrency@@@std@@QAEXXZ 10089d60 f i WinRTVFS.obj
 0002:0004bdc0       ?_Decref@?$_Ptr_base@U_Task_impl_base@details@Concurrency@@@std@@QAEXXZ 10089dc0 f i WinRTVFS.obj
 0002:0004be20       ?_Decref@?$_Ptr_base@Uscheduler_interface@Concurrency@@@std@@QAEXXZ 10089e20 f i WinRTVFS.obj
 0002:0004be80       ?_Decref@_Ref_count_base@std@@QAEXXZ 10089e80 f i WinRTVFS.obj
 0002:0004bf00       ?_Decwref@?$_Ptr_base@U_Task_impl_base@details@Concurrency@@@std@@QAEXXZ 10089f00 f i WinRTVFS.obj
 0002:0004bf60       ?_Decwref@_Ref_count_base@std@@QAEXXZ 10089f60 f i WinRTVFS.obj
 0002:0004bfe0       ?_Delete_stored_messages@?$timer@H@Concurrency@@AAEXXZ 10089fe0 f i WinRTVFS.obj
 0002:0004c0a0       ?_Delete_this@?$_Func_impl@U?$_Callable_obj@V<lambda_02d862f9cfc639ff7c37ca52d43e6a8c>@@$0A@@std@@V?$allocator@V?$_Func_class@X$$$V@std@@@2@X$$$V@std@@EAEX_N@Z 1008a0a0 f i WinRTVFS.obj
 0002:0004c180       ?_Delete_this@?$_Func_impl@U?$_Callable_obj@V<lambda_095a938ce4c5765dcc6b67f548aeb9c7>@@$0A@@std@@V?$allocator@V?$_Func_class@X$$$V@std@@@2@X$$$V@std@@EAEX_N@Z 1008a180 f i WinRTVFS.obj
 0002:0004c260       ?_Delete_this@?$_Func_impl@U?$_Callable_obj@V<lambda_0b7f78ec4ced38495cec46e0d346e0b9>@@$0A@@std@@V?$allocator@V?$_Func_class@X$$$V@std@@@2@X$$$V@std@@EAEX_N@Z 1008a260 f i WinRTVFS.obj
 0002:0004c340       ?_Delete_this@?$_Func_impl@U?$_Callable_obj@V<lambda_0fe479da16d43edb8e9a254c493d643e>@@$0A@@std@@V?$allocator@V?$_Func_class@X$$$V@std@@@2@X$$$V@std@@EAEX_N@Z 1008a340 f i WinRTVFS.obj
 0002:0004c420       ?_Delete_this@?$_Func_impl@U?$_Callable_obj@V<lambda_1a93da980d6fe77644a4eefc4e1ad756>@@$0A@@std@@V?$allocator@V?$_Func_class@XABH@std@@@2@XABH@std@@EAEX_N@Z 1008a420 f i WinRTVFS.obj
 0002:0004c500       ?_Delete_this@?$_Func_impl@U?$_Callable_obj@V<lambda_295bc5f846209cba149a5e74d0d63a72>@@$0A@@std@@V?$allocator@V?$_Func_class@XPAV?$message@H@Concurrency@@@std@@@2@XPAV?$message@H@Concurrency@@@std@@EAEX_N@Z 1008a500 f i WinRTVFS.obj
 0002:0004c5e0       ?_Delete_this@?$_Func_impl@U?$_Callable_obj@V<lambda_364e75aa895e992ae8821732ca646aa2>@@$0A@@std@@V?$allocator@V?$_Func_class@X$$$V@std@@@2@X$$$V@std@@EAEX_N@Z 1008a5e0 f i WinRTVFS.obj
 0002:0004c6c0       ?_Delete_this@?$_Func_impl@U?$_Callable_obj@V<lambda_39cde079c01d1b5b9307ff255a1ccdd9>@@$0A@@std@@V?$allocator@V?$_Func_class@EE@std@@@2@EE@std@@EAEX_N@Z 1008a6c0 f i WinRTVFS.obj
 0002:0004c7a0       ?_Delete_this@?$_Func_impl@U?$_Callable_obj@V<lambda_528650821c608ced6534641e311542a5>@@$0A@@std@@V?$allocator@V?$_Func_class@X$$$V@std@@@2@X$$$V@std@@EAEX_N@Z 1008a7a0 f i WinRTVFS.obj
 0002:0004c880       ?_Delete_this@?$_Func_impl@U?$_Callable_obj@V<lambda_579ccd68d569251046038e8620afec85>@@$0A@@std@@V?$allocator@V?$_Func_class@XPAV?$message@H@Concurrency@@@std@@@2@XPAV?$message@H@Concurrency@@@std@@EAEX_N@Z 1008a880 f i WinRTVFS.obj
 0002:0004c960       ?_Delete_this@?$_Func_impl@U?$_Callable_obj@V<lambda_9fc58f08a03183e50e06176727aeb396>@@$0A@@std@@V?$allocator@V?$_Func_class@X$$$V@std@@@2@X$$$V@std@@EAEX_N@Z 1008a960 f i WinRTVFS.obj
 0002:0004ca40       ?_Delete_this@?$_Func_impl@U?$_Callable_obj@V<lambda_a66b3ee15e662226a0b0b15ae647d32f>@@$0A@@std@@V?$allocator@V?$_Func_class@X$$$V@std@@@2@X$$$V@std@@EAEX_N@Z 1008aa40 f i WinRTVFS.obj
 0002:0004cb20       ?_Delete_this@?$_Func_impl@U?$_Callable_obj@V<lambda_c1a554f2383dae03f169289aed8c4103>@@$0A@@std@@V?$allocator@V?$_Func_class@X$$$V@std@@@2@X$$$V@std@@EAEX_N@Z 1008ab20 f i WinRTVFS.obj
 0002:0004cc00       ?_Delete_this@?$_Func_impl@U?$_Callable_obj@V<lambda_c28a53003ed51cdfe295a7d756f98c2f>@@$0A@@std@@V?$allocator@V?$_Func_class@XPAV?$message@H@Concurrency@@@std@@@2@XPAV?$message@H@Concurrency@@@std@@EAEX_N@Z 1008ac00 f i WinRTVFS.obj
 0002:0004cce0       ?_Delete_this@?$_Func_impl@U?$_Callable_obj@V<lambda_e7ef5f1e4e1eca0ae8efc6086cf9f417>@@$0A@@std@@V?$allocator@V?$_Func_class@X$$$V@std@@@2@X$$$V@std@@EAEX_N@Z 1008ace0 f i WinRTVFS.obj
 0002:0004cdc0       ?_Delete_this@?$_Ref_count_obj@U?$_Task_completion_event_impl@E@details@Concurrency@@@std@@EAEXXZ 1008adc0 f i WinRTVFS.obj
 0002:0004ce70       ?_Delete_this@?$_Ref_count_obj@U?$_Task_impl@E@details@Concurrency@@@std@@EAEXXZ 1008ae70 f i WinRTVFS.obj
 0002:0004cf20       ?_Delete_this@?$_Ref_count_obj@U?$_Task_impl@I@details@Concurrency@@@std@@EAEXXZ 1008af20 f i WinRTVFS.obj
 0002:0004cfd0       ?_Delete_this@?$_Ref_count_obj@U?$_Task_impl@P$AAUIBuffer@Streams@Storage@Windows@@@details@Concurrency@@@std@@EAEXXZ 1008afd0 f i WinRTVFS.obj
 0002:0004d080       ?_Delete_this@?$_Ref_count_obj@U?$_Task_impl@P$AAUIRandomAccessStream@Streams@Storage@Windows@@@details@Concurrency@@@std@@EAEXXZ 1008b080 f i WinRTVFS.obj
 0002:0004d130       ?_Delete_this@?$_Ref_count_obj@U?$_Task_impl@P$AAVStorageFile@Storage@Windows@@@details@Concurrency@@@std@@EAEXXZ 1008b130 f i WinRTVFS.obj
 0002:0004d1e0       ?_Delete_this@?$_Ref_count_obj@U?$_Task_impl@P$AAVStorageFolder@Storage@Windows@@@details@Concurrency@@@std@@EAEXXZ 1008b1e0 f i WinRTVFS.obj
 0002:0004d290       ?_Delete_this@?$_Ref_count_obj@U?$_Task_impl@_N@details@Concurrency@@@std@@EAEXXZ 1008b290 f i WinRTVFS.obj
 0002:0004d340       ?_Delete_this@?$_Ref_count_obj@U_ExceptionHolder@details@Concurrency@@@std@@EAEXXZ 1008b340 f i WinRTVFS.obj
 0002:0004d3f0       ?_DeregisterCallback@_CancellationTokenState@details@Concurrency@@QAEXPAV_CancellationTokenRegistration@23@@Z 1008b3f0 f i WinRTVFS.obj
 0002:0004d6f0       ?_DeregisterCancellation@_Task_impl_base@details@Concurrency@@QAEXXZ 1008b6f0 f i WinRTVFS.obj
 0002:0004d770       ?_Destroy@?$_Ref_count_obj@U?$_Task_completion_event_impl@E@details@Concurrency@@@std@@EAEXXZ 1008b770 f i WinRTVFS.obj
 0002:0004d7d0       ?_Destroy@?$_Ref_count_obj@U?$_Task_impl@E@details@Concurrency@@@std@@EAEXXZ 1008b7d0 f i WinRTVFS.obj
 0002:0004d850       ?_Destroy@?$_Ref_count_obj@U?$_Task_impl@I@details@Concurrency@@@std@@EAEXXZ 1008b850 f i WinRTVFS.obj
 0002:0004d8d0       ?_Destroy@?$_Ref_count_obj@U?$_Task_impl@P$AAUIBuffer@Streams@Storage@Windows@@@details@Concurrency@@@std@@EAEXXZ 1008b8d0 f i WinRTVFS.obj
 0002:0004d950       ?_Destroy@?$_Ref_count_obj@U?$_Task_impl@P$AAUIRandomAccessStream@Streams@Storage@Windows@@@details@Concurrency@@@std@@EAEXXZ 1008b950 f i WinRTVFS.obj
 0002:0004d9d0       ?_Destroy@?$_Ref_count_obj@U?$_Task_impl@P$AAVStorageFile@Storage@Windows@@@details@Concurrency@@@std@@EAEXXZ 1008b9d0 f i WinRTVFS.obj
 0002:0004da50       ?_Destroy@?$_Ref_count_obj@U?$_Task_impl@P$AAVStorageFolder@Storage@Windows@@@details@Concurrency@@@std@@EAEXXZ 1008ba50 f i WinRTVFS.obj
 0002:0004dad0       ?_Destroy@?$_Ref_count_obj@U?$_Task_impl@_N@details@Concurrency@@@std@@EAEXXZ 1008bad0 f i WinRTVFS.obj
 0002:0004db50       ?_Destroy@?$_Ref_count_obj@U_ExceptionHolder@details@Concurrency@@@std@@EAEXXZ 1008bb50 f i WinRTVFS.obj
 0002:0004dbb0       ?_Destroy@?$vector@PAXV?$allocator@PAX@std@@@std@@IAEXPAPAX0@Z 1008bbb0 f i WinRTVFS.obj
 0002:0004dc80       ?_Destroy@?$vector@V?$shared_ptr@U?$_Task_impl@E@details@Concurrency@@@std@@V?$allocator@V?$shared_ptr@U?$_Task_impl@E@details@Concurrency@@@std@@@2@@std@@IAEXPAV?$shared_ptr@U?$_Task_impl@E@details@Concurrency@@@2@0@Z 1008bc80 f i WinRTVFS.obj
 0002:0004dd50       ?_Destroy@_RefCounter@details@Concurrency@@MAEXXZ 1008bd50 f i WinRTVFS.obj
 0002:0004de00       ?_Do_call@?$_Func_impl@U?$_Callable_obj@V<lambda_02d862f9cfc639ff7c37ca52d43e6a8c>@@$0A@@std@@V?$allocator@V?$_Func_class@X$$$V@std@@@2@X$$$V@std@@UAEXXZ 1008be00 f i WinRTVFS.obj
 0002:0004de60       ?_Do_call@?$_Func_impl@U?$_Callable_obj@V<lambda_095a938ce4c5765dcc6b67f548aeb9c7>@@$0A@@std@@V?$allocator@V?$_Func_class@X$$$V@std@@@2@X$$$V@std@@UAEXXZ 1008be60 f i WinRTVFS.obj
 0002:0004dec0       ?_Do_call@?$_Func_impl@U?$_Callable_obj@V<lambda_0b7f78ec4ced38495cec46e0d346e0b9>@@$0A@@std@@V?$allocator@V?$_Func_class@X$$$V@std@@@2@X$$$V@std@@UAEXXZ 1008bec0 f i WinRTVFS.obj
 0002:0004df20       ?_Do_call@?$_Func_impl@U?$_Callable_obj@V<lambda_0fe479da16d43edb8e9a254c493d643e>@@$0A@@std@@V?$allocator@V?$_Func_class@X$$$V@std@@@2@X$$$V@std@@UAEXXZ 1008bf20 f i WinRTVFS.obj
 0002:0004df80       ?_Do_call@?$_Func_impl@U?$_Callable_obj@V<lambda_1a93da980d6fe77644a4eefc4e1ad756>@@$0A@@std@@V?$allocator@V?$_Func_class@XABH@std@@@2@XABH@std@@UAEXABH@Z 1008bf80 f i WinRTVFS.obj
 0002:0004dff0       ?_Do_call@?$_Func_impl@U?$_Callable_obj@V<lambda_295bc5f846209cba149a5e74d0d63a72>@@$0A@@std@@V?$allocator@V?$_Func_class@XPAV?$message@H@Concurrency@@@std@@@2@XPAV?$message@H@Concurrency@@@std@@UAEX$$QAPAV?$message@H@Concurrency@@@Z 1008bff0 f i WinRTVFS.obj
 0002:0004e060       ?_Do_call@?$_Func_impl@U?$_Callable_obj@V<lambda_364e75aa895e992ae8821732ca646aa2>@@$0A@@std@@V?$allocator@V?$_Func_class@X$$$V@std@@@2@X$$$V@std@@UAEXXZ 1008c060 f i WinRTVFS.obj
 0002:0004e0c0       ?_Do_call@?$_Func_impl@U?$_Callable_obj@V<lambda_39cde079c01d1b5b9307ff255a1ccdd9>@@$0A@@std@@V?$allocator@V?$_Func_class@EE@std@@@2@EE@std@@UAEE$$QAE@Z 1008c0c0 f i WinRTVFS.obj
 0002:0004e130       ?_Do_call@?$_Func_impl@U?$_Callable_obj@V<lambda_528650821c608ced6534641e311542a5>@@$0A@@std@@V?$allocator@V?$_Func_class@X$$$V@std@@@2@X$$$V@std@@UAEXXZ 1008c130 f i WinRTVFS.obj
 0002:0004e190       ?_Do_call@?$_Func_impl@U?$_Callable_obj@V<lambda_579ccd68d569251046038e8620afec85>@@$0A@@std@@V?$allocator@V?$_Func_class@XPAV?$message@H@Concurrency@@@std@@@2@XPAV?$message@H@Concurrency@@@std@@UAEX$$QAPAV?$message@H@Concurrency@@@Z 1008c190 f i WinRTVFS.obj
 0002:0004e200       ?_Do_call@?$_Func_impl@U?$_Callable_obj@V<lambda_9fc58f08a03183e50e06176727aeb396>@@$0A@@std@@V?$allocator@V?$_Func_class@X$$$V@std@@@2@X$$$V@std@@UAEXXZ 1008c200 f i WinRTVFS.obj
 0002:0004e260       ?_Do_call@?$_Func_impl@U?$_Callable_obj@V<lambda_a66b3ee15e662226a0b0b15ae647d32f>@@$0A@@std@@V?$allocator@V?$_Func_class@X$$$V@std@@@2@X$$$V@std@@UAEXXZ 1008c260 f i WinRTVFS.obj
 0002:0004e2c0       ?_Do_call@?$_Func_impl@U?$_Callable_obj@V<lambda_c1a554f2383dae03f169289aed8c4103>@@$0A@@std@@V?$allocator@V?$_Func_class@X$$$V@std@@@2@X$$$V@std@@UAEXXZ 1008c2c0 f i WinRTVFS.obj
 0002:0004e320       ?_Do_call@?$_Func_impl@U?$_Callable_obj@V<lambda_c28a53003ed51cdfe295a7d756f98c2f>@@$0A@@std@@V?$allocator@V?$_Func_class@XPAV?$message@H@Concurrency@@@std@@@2@XPAV?$message@H@Concurrency@@@std@@UAEX$$QAPAV?$message@H@Concurrency@@@Z 1008c320 f i WinRTVFS.obj
 0002:0004e390       ?_Do_call@?$_Func_impl@U?$_Callable_obj@V<lambda_e7ef5f1e4e1eca0ae8efc6086cf9f417>@@$0A@@std@@V?$allocator@V?$_Func_class@X$$$V@std@@@2@X$$$V@std@@UAEXXZ 1008c390 f i WinRTVFS.obj
 0002:0004e3f0       ?_Empty@?$_Func_class@X$$$V@std@@QBE_NXZ 1008c3f0 f i WinRTVFS.obj
 0002:0004e460       ?_Empty@?$_Func_class@XPAV?$message@H@Concurrency@@@std@@QBE_NXZ 1008c460 f i WinRTVFS.obj
 0002:0004e4d0       ?_Enable_shared@std@@YAXPDX0@Z 1008c4d0 f i WinRTVFS.obj
 0002:0004e500       ?_Exchange_acquire_4@std@@YAKPCKK@Z 1008c500 f i WinRTVFS.obj
 0002:0004e540       ?_Exchange_relaxed_4@std@@YAKPCKK@Z 1008c540 f i WinRTVFS.obj
 0002:0004e580       ?_Exchange_release_4@std@@YAKPCKK@Z 1008c580 f i WinRTVFS.obj
 0002:0004e5c0       ?_Exchange_seq_cst_4@std@@YAKPCKK@Z 1008c5c0 f i WinRTVFS.obj
 0002:0004e600       ?_Exec@?$_CancellationTokenCallback@V<lambda_17cb9174022a2677ccd4c777403439ce>@@@details@Concurrency@@MAEXXZ 1008c600 f i WinRTVFS.obj
 0002:0004e660       ?_FinalizeAndRunContinuations@?$_Task_impl@E@details@Concurrency@@QAEXE@Z 1008c660 f i WinRTVFS.obj
 0002:0004e850       ?_FinalizeAndRunContinuations@?$_Task_impl@I@details@Concurrency@@QAEXI@Z 1008c850 f i WinRTVFS.obj
 0002:0004ea40       ?_FinalizeAndRunContinuations@?$_Task_impl@P$AAUIBuffer@Streams@Storage@Windows@@@details@Concurrency@@QAEXP$AAUIBuffer@Streams@Storage@Windows@@@Z 1008ca40 f i WinRTVFS.obj
 0002:0004ec70       ?_FinalizeAndRunContinuations@?$_Task_impl@P$AAUIRandomAccessStream@Streams@Storage@Windows@@@details@Concurrency@@QAEXP$AAUIRandomAccessStream@Streams@Storage@Windows@@@Z 1008cc70 f i WinRTVFS.obj
 0002:0004eea0       ?_FinalizeAndRunContinuations@?$_Task_impl@P$AAVStorageFile@Storage@Windows@@@details@Concurrency@@QAEXP$AAVStorageFile@Storage@Windows@@@Z 1008cea0 f i WinRTVFS.obj
 0002:0004f0d0       ?_FinalizeAndRunContinuations@?$_Task_impl@P$AAVStorageFolder@Storage@Windows@@@details@Concurrency@@QAEXP$AAVStorageFolder@Storage@Windows@@@Z 1008d0d0 f i WinRTVFS.obj
 0002:0004f300       ?_FinalizeAndRunContinuations@?$_Task_impl@_N@details@Concurrency@@QAEX_N@Z 1008d300 f i WinRTVFS.obj
 0002:0004f4f0       ?_Find@?$multi_link_registry@V?$ISource@H@Concurrency@@@Concurrency@@EAEIPAV?$ISource@H@2@@Z 1008d4f0 f i WinRTVFS.obj
 0002:0004f590       ?_Fire@?$timer@H@Concurrency@@EAEXXZ 1008d590 f i WinRTVFS.obj
 0002:0004f600       ?_Free_proxy@?$_Vector_alloc@$0A@U?$_Vec_base_types@PAXV?$allocator@PAX@std@@@std@@@std@@QAEXXZ 1008d600 f i WinRTVFS.obj
 0002:0004f6f0       ?_Free_proxy@?$_Vector_alloc@$0A@U?$_Vec_base_types@V?$shared_ptr@U?$_Task_impl@E@details@Concurrency@@@std@@V?$allocator@V?$shared_ptr@U?$_Task_impl@E@details@Concurrency@@@std@@@2@@std@@@std@@QAEXXZ 1008d6f0 f i WinRTVFS.obj
 0002:0004f7e0       ?_Get@?$_Callable_base@V<lambda_02d862f9cfc639ff7c37ca52d43e6a8c>@@$0A@@std@@QAEAAV<lambda_02d862f9cfc639ff7c37ca52d43e6a8c>@@XZ 1008d7e0 f i WinRTVFS.obj
 0002:0004f820       ?_Get@?$_Callable_base@V<lambda_02d862f9cfc639ff7c37ca52d43e6a8c>@@$0A@@std@@QBEABV<lambda_02d862f9cfc639ff7c37ca52d43e6a8c>@@XZ 1008d820 f i WinRTVFS.obj
 0002:0004f860       ?_Get@?$_Callable_base@V<lambda_095a938ce4c5765dcc6b67f548aeb9c7>@@$0A@@std@@QAEAAV<lambda_095a938ce4c5765dcc6b67f548aeb9c7>@@XZ 1008d860 f i WinRTVFS.obj
 0002:0004f8a0       ?_Get@?$_Callable_base@V<lambda_095a938ce4c5765dcc6b67f548aeb9c7>@@$0A@@std@@QBEABV<lambda_095a938ce4c5765dcc6b67f548aeb9c7>@@XZ 1008d8a0 f i WinRTVFS.obj
 0002:0004f8e0       ?_Get@?$_Callable_base@V<lambda_0b7f78ec4ced38495cec46e0d346e0b9>@@$0A@@std@@QAEAAV<lambda_0b7f78ec4ced38495cec46e0d346e0b9>@@XZ 1008d8e0 f i WinRTVFS.obj
 0002:0004f920       ?_Get@?$_Callable_base@V<lambda_0b7f78ec4ced38495cec46e0d346e0b9>@@$0A@@std@@QBEABV<lambda_0b7f78ec4ced38495cec46e0d346e0b9>@@XZ 1008d920 f i WinRTVFS.obj
 0002:0004f960       ?_Get@?$_Callable_base@V<lambda_0fe479da16d43edb8e9a254c493d643e>@@$0A@@std@@QAEAAV<lambda_0fe479da16d43edb8e9a254c493d643e>@@XZ 1008d960 f i WinRTVFS.obj
 0002:0004f9a0       ?_Get@?$_Callable_base@V<lambda_0fe479da16d43edb8e9a254c493d643e>@@$0A@@std@@QBEABV<lambda_0fe479da16d43edb8e9a254c493d643e>@@XZ 1008d9a0 f i WinRTVFS.obj
 0002:0004f9e0       ?_Get@?$_Callable_base@V<lambda_1a93da980d6fe77644a4eefc4e1ad756>@@$0A@@std@@QAEAAV<lambda_1a93da980d6fe77644a4eefc4e1ad756>@@XZ 1008d9e0 f i WinRTVFS.obj
 0002:0004fa20       ?_Get@?$_Callable_base@V<lambda_1a93da980d6fe77644a4eefc4e1ad756>@@$0A@@std@@QBEABV<lambda_1a93da980d6fe77644a4eefc4e1ad756>@@XZ 1008da20 f i WinRTVFS.obj
 0002:0004fa60       ?_Get@?$_Callable_base@V<lambda_295bc5f846209cba149a5e74d0d63a72>@@$0A@@std@@QAEAAV<lambda_295bc5f846209cba149a5e74d0d63a72>@@XZ 1008da60 f i WinRTVFS.obj
 0002:0004faa0       ?_Get@?$_Callable_base@V<lambda_295bc5f846209cba149a5e74d0d63a72>@@$0A@@std@@QBEABV<lambda_295bc5f846209cba149a5e74d0d63a72>@@XZ 1008daa0 f i WinRTVFS.obj
 0002:0004fae0       ?_Get@?$_Callable_base@V<lambda_364e75aa895e992ae8821732ca646aa2>@@$0A@@std@@QAEAAV<lambda_364e75aa895e992ae8821732ca646aa2>@@XZ 1008dae0 f i WinRTVFS.obj
 0002:0004fb20       ?_Get@?$_Callable_base@V<lambda_364e75aa895e992ae8821732ca646aa2>@@$0A@@std@@QBEABV<lambda_364e75aa895e992ae8821732ca646aa2>@@XZ 1008db20 f i WinRTVFS.obj
 0002:0004fb60       ?_Get@?$_Callable_base@V<lambda_39cde079c01d1b5b9307ff255a1ccdd9>@@$0A@@std@@QAEAAV<lambda_39cde079c01d1b5b9307ff255a1ccdd9>@@XZ 1008db60 f i WinRTVFS.obj
 0002:0004fba0       ?_Get@?$_Callable_base@V<lambda_39cde079c01d1b5b9307ff255a1ccdd9>@@$0A@@std@@QBEABV<lambda_39cde079c01d1b5b9307ff255a1ccdd9>@@XZ 1008dba0 f i WinRTVFS.obj
 0002:0004fbe0       ?_Get@?$_Callable_base@V<lambda_528650821c608ced6534641e311542a5>@@$0A@@std@@QAEAAV<lambda_528650821c608ced6534641e311542a5>@@XZ 1008dbe0 f i WinRTVFS.obj
 0002:0004fc20       ?_Get@?$_Callable_base@V<lambda_528650821c608ced6534641e311542a5>@@$0A@@std@@QBEABV<lambda_528650821c608ced6534641e311542a5>@@XZ 1008dc20 f i WinRTVFS.obj
 0002:0004fc60       ?_Get@?$_Callable_base@V<lambda_579ccd68d569251046038e8620afec85>@@$0A@@std@@QAEAAV<lambda_579ccd68d569251046038e8620afec85>@@XZ 1008dc60 f i WinRTVFS.obj
 0002:0004fca0       ?_Get@?$_Callable_base@V<lambda_579ccd68d569251046038e8620afec85>@@$0A@@std@@QBEABV<lambda_579ccd68d569251046038e8620afec85>@@XZ 1008dca0 f i WinRTVFS.obj
 0002:0004fce0       ?_Get@?$_Callable_base@V<lambda_9fc58f08a03183e50e06176727aeb396>@@$0A@@std@@QAEAAV<lambda_9fc58f08a03183e50e06176727aeb396>@@XZ 1008dce0 f i WinRTVFS.obj
 0002:0004fd20       ?_Get@?$_Callable_base@V<lambda_9fc58f08a03183e50e06176727aeb396>@@$0A@@std@@QBEABV<lambda_9fc58f08a03183e50e06176727aeb396>@@XZ 1008dd20 f i WinRTVFS.obj
 0002:0004fd60       ?_Get@?$_Callable_base@V<lambda_a66b3ee15e662226a0b0b15ae647d32f>@@$0A@@std@@QAEAAV<lambda_a66b3ee15e662226a0b0b15ae647d32f>@@XZ 1008dd60 f i WinRTVFS.obj
 0002:0004fda0       ?_Get@?$_Callable_base@V<lambda_a66b3ee15e662226a0b0b15ae647d32f>@@$0A@@std@@QBEABV<lambda_a66b3ee15e662226a0b0b15ae647d32f>@@XZ 1008dda0 f i WinRTVFS.obj
 0002:0004fde0       ?_Get@?$_Callable_base@V<lambda_c1a554f2383dae03f169289aed8c4103>@@$0A@@std@@QAEAAV<lambda_c1a554f2383dae03f169289aed8c4103>@@XZ 1008dde0 f i WinRTVFS.obj
 0002:0004fe20       ?_Get@?$_Callable_base@V<lambda_c1a554f2383dae03f169289aed8c4103>@@$0A@@std@@QBEABV<lambda_c1a554f2383dae03f169289aed8c4103>@@XZ 1008de20 f i WinRTVFS.obj
 0002:0004fe60       ?_Get@?$_Callable_base@V<lambda_c28a53003ed51cdfe295a7d756f98c2f>@@$0A@@std@@QAEAAV<lambda_c28a53003ed51cdfe295a7d756f98c2f>@@XZ 1008de60 f i WinRTVFS.obj
 0002:0004fea0       ?_Get@?$_Callable_base@V<lambda_c28a53003ed51cdfe295a7d756f98c2f>@@$0A@@std@@QBEABV<lambda_c28a53003ed51cdfe295a7d756f98c2f>@@XZ 1008dea0 f i WinRTVFS.obj
 0002:0004fee0       ?_Get@?$_Callable_base@V<lambda_e7ef5f1e4e1eca0ae8efc6086cf9f417>@@$0A@@std@@QAEAAV<lambda_e7ef5f1e4e1eca0ae8efc6086cf9f417>@@XZ 1008dee0 f i WinRTVFS.obj
 0002:0004ff20       ?_Get@?$_Callable_base@V<lambda_e7ef5f1e4e1eca0ae8efc6086cf9f417>@@$0A@@std@@QBEABV<lambda_e7ef5f1e4e1eca0ae8efc6086cf9f417>@@XZ 1008df20 f i WinRTVFS.obj
 0002:0004ff60       ?_Get@?$_Func_impl@U?$_Callable_obj@V<lambda_02d862f9cfc639ff7c37ca52d43e6a8c>@@$0A@@std@@V?$allocator@V?$_Func_class@X$$$V@std@@@2@X$$$V@std@@EBEPBXXZ 1008df60 f i WinRTVFS.obj
 0002:0004ffc0       ?_Get@?$_Func_impl@U?$_Callable_obj@V<lambda_095a938ce4c5765dcc6b67f548aeb9c7>@@$0A@@std@@V?$allocator@V?$_Func_class@X$$$V@std@@@2@X$$$V@std@@EBEPBXXZ 1008dfc0 f i WinRTVFS.obj
 0002:00050020       ?_Get@?$_Func_impl@U?$_Callable_obj@V<lambda_0b7f78ec4ced38495cec46e0d346e0b9>@@$0A@@std@@V?$allocator@V?$_Func_class@X$$$V@std@@@2@X$$$V@std@@EBEPBXXZ 1008e020 f i WinRTVFS.obj
 0002:00050080       ?_Get@?$_Func_impl@U?$_Callable_obj@V<lambda_0fe479da16d43edb8e9a254c493d643e>@@$0A@@std@@V?$allocator@V?$_Func_class@X$$$V@std@@@2@X$$$V@std@@EBEPBXXZ 1008e080 f i WinRTVFS.obj
 0002:000500e0       ?_Get@?$_Func_impl@U?$_Callable_obj@V<lambda_1a93da980d6fe77644a4eefc4e1ad756>@@$0A@@std@@V?$allocator@V?$_Func_class@XABH@std@@@2@XABH@std@@EBEPBXXZ 1008e0e0 f i WinRTVFS.obj
 0002:00050140       ?_Get@?$_Func_impl@U?$_Callable_obj@V<lambda_295bc5f846209cba149a5e74d0d63a72>@@$0A@@std@@V?$allocator@V?$_Func_class@XPAV?$message@H@Concurrency@@@std@@@2@XPAV?$message@H@Concurrency@@@std@@EBEPBXXZ 1008e140 f i WinRTVFS.obj
 0002:000501a0       ?_Get@?$_Func_impl@U?$_Callable_obj@V<lambda_364e75aa895e992ae8821732ca646aa2>@@$0A@@std@@V?$allocator@V?$_Func_class@X$$$V@std@@@2@X$$$V@std@@EBEPBXXZ 1008e1a0 f i WinRTVFS.obj
 0002:00050200       ?_Get@?$_Func_impl@U?$_Callable_obj@V<lambda_39cde079c01d1b5b9307ff255a1ccdd9>@@$0A@@std@@V?$allocator@V?$_Func_class@EE@std@@@2@EE@std@@EBEPBXXZ 1008e200 f i WinRTVFS.obj
 0002:00050260       ?_Get@?$_Func_impl@U?$_Callable_obj@V<lambda_528650821c608ced6534641e311542a5>@@$0A@@std@@V?$allocator@V?$_Func_class@X$$$V@std@@@2@X$$$V@std@@EBEPBXXZ 1008e260 f i WinRTVFS.obj
 0002:000502c0       ?_Get@?$_Func_impl@U?$_Callable_obj@V<lambda_579ccd68d569251046038e8620afec85>@@$0A@@std@@V?$allocator@V?$_Func_class@XPAV?$message@H@Concurrency@@@std@@@2@XPAV?$message@H@Concurrency@@@std@@EBEPBXXZ 1008e2c0 f i WinRTVFS.obj
 0002:00050320       ?_Get@?$_Func_impl@U?$_Callable_obj@V<lambda_9fc58f08a03183e50e06176727aeb396>@@$0A@@std@@V?$allocator@V?$_Func_class@X$$$V@std@@@2@X$$$V@std@@EBEPBXXZ 1008e320 f i WinRTVFS.obj
 0002:00050380       ?_Get@?$_Func_impl@U?$_Callable_obj@V<lambda_a66b3ee15e662226a0b0b15ae647d32f>@@$0A@@std@@V?$allocator@V?$_Func_class@X$$$V@std@@@2@X$$$V@std@@EBEPBXXZ 1008e380 f i WinRTVFS.obj
 0002:000503e0       ?_Get@?$_Func_impl@U?$_Callable_obj@V<lambda_c1a554f2383dae03f169289aed8c4103>@@$0A@@std@@V?$allocator@V?$_Func_class@X$$$V@std@@@2@X$$$V@std@@EBEPBXXZ 1008e3e0 f i WinRTVFS.obj
 0002:00050440       ?_Get@?$_Func_impl@U?$_Callable_obj@V<lambda_c28a53003ed51cdfe295a7d756f98c2f>@@$0A@@std@@V?$allocator@V?$_Func_class@XPAV?$message@H@Concurrency@@@std@@@2@XPAV?$message@H@Concurrency@@@std@@EBEPBXXZ 1008e440 f i WinRTVFS.obj
 0002:000504a0       ?_Get@?$_Func_impl@U?$_Callable_obj@V<lambda_e7ef5f1e4e1eca0ae8efc6086cf9f417>@@$0A@@std@@V?$allocator@V?$_Func_class@X$$$V@std@@@2@X$$$V@std@@EBEPBXXZ 1008e4a0 f i WinRTVFS.obj
 0002:00050500       ?_Get@?$_Ptr_base@U?$_Task_completion_event_impl@E@details@Concurrency@@@std@@QBEPAU?$_Task_completion_event_impl@E@details@Concurrency@@XZ 1008e500 f i WinRTVFS.obj
 0002:00050540       ?_Get@?$_Ptr_base@U?$_Task_impl@E@details@Concurrency@@@std@@QBEPAU?$_Task_impl@E@details@Concurrency@@XZ 1008e540 f i WinRTVFS.obj
 0002:00050580       ?_Get@?$_Ptr_base@U?$_Task_impl@I@details@Concurrency@@@std@@QBEPAU?$_Task_impl@I@details@Concurrency@@XZ 1008e580 f i WinRTVFS.obj
 0002:000505c0       ?_Get@?$_Ptr_base@U?$_Task_impl@P$AAUIBuffer@Streams@Storage@Windows@@@details@Concurrency@@@std@@QBEPAU?$_Task_impl@P$AAUIBuffer@Streams@Storage@Windows@@@details@Concurrency@@XZ 1008e5c0 f i WinRTVFS.obj
 0002:00050600       ?_Get@?$_Ptr_base@U?$_Task_impl@P$AAUIRandomAccessStream@Streams@Storage@Windows@@@details@Concurrency@@@std@@QBEPAU?$_Task_impl@P$AAUIRandomAccessStream@Streams@Storage@Windows@@@details@Concurrency@@XZ 1008e600 f i WinRTVFS.obj
 0002:00050640       ?_Get@?$_Ptr_base@U?$_Task_impl@P$AAVStorageFile@Storage@Windows@@@details@Concurrency@@@std@@QBEPAU?$_Task_impl@P$AAVStorageFile@Storage@Windows@@@details@Concurrency@@XZ 1008e640 f i WinRTVFS.obj
 0002:00050680       ?_Get@?$_Ptr_base@U?$_Task_impl@P$AAVStorageFolder@Storage@Windows@@@details@Concurrency@@@std@@QBEPAU?$_Task_impl@P$AAVStorageFolder@Storage@Windows@@@details@Concurrency@@XZ 1008e680 f i WinRTVFS.obj
 0002:000506c0       ?_Get@?$_Ptr_base@U?$_Task_impl@_N@details@Concurrency@@@std@@QBEPAU?$_Task_impl@_N@details@Concurrency@@XZ 1008e6c0 f i WinRTVFS.obj
 0002:00050700       ?_Get@?$_Ptr_base@U_ExceptionHolder@details@Concurrency@@@std@@QBEPAU_ExceptionHolder@details@Concurrency@@XZ 1008e700 f i WinRTVFS.obj
 0002:00050740       ?_Get@?$_Ptr_base@U_Task_impl_base@details@Concurrency@@@std@@QBEPAU_Task_impl_base@details@Concurrency@@XZ 1008e740 f i WinRTVFS.obj
 0002:00050780       ?_Get@?$_Ptr_base@Uscheduler_interface@Concurrency@@@std@@QBEPAUscheduler_interface@Concurrency@@XZ 1008e780 f i WinRTVFS.obj
 0002:000507c0       ?_Get@?$_Source_link_iterator@V?$multi_link_registry@V?$ISource@H@Concurrency@@@Concurrency@@@Concurrency@@ABEABQAV?$ISource@H@2@I@Z 1008e7c0 f i WinRTVFS.obj
 0002:00050850       ?_GetExceptionHolder@_Task_impl_base@details@Concurrency@@QAEABV?$shared_ptr@U_ExceptionHolder@details@Concurrency@@@std@@XZ 1008e850 f i WinRTVFS.obj
 0002:000508f0       ?_GetId@_Runtime_object@details@Concurrency@@UBEHXZ 1008e8f0 f i WinRTVFS.obj
 0002:00050930       ?_GetImpl@?$task@E@Concurrency@@QBEABV?$shared_ptr@U?$_Task_impl@E@details@Concurrency@@@std@@XZ 1008e930 f i WinRTVFS.obj
 0002:00050970       ?_GetImpl@?$task@I@Concurrency@@QBEABV?$shared_ptr@U?$_Task_impl@I@details@Concurrency@@@std@@XZ 1008e970 f i WinRTVFS.obj
 0002:000509b0       ?_GetImpl@?$task@P$AAUIBuffer@Streams@Storage@Windows@@@Concurrency@@QBEABV?$shared_ptr@U?$_Task_impl@P$AAUIBuffer@Streams@Storage@Windows@@@details@Concurrency@@@std@@XZ 1008e9b0 f i WinRTVFS.obj
 0002:000509f0       ?_GetImpl@?$task@P$AAUIRandomAccessStream@Streams@Storage@Windows@@@Concurrency@@QBEABV?$shared_ptr@U?$_Task_impl@P$AAUIRandomAccessStream@Streams@Storage@Windows@@@details@Concurrency@@@std@@XZ 1008e9f0 f i WinRTVFS.obj
 0002:00050a30       ?_GetImpl@?$task@P$AAVStorageFile@Storage@Windows@@@Concurrency@@QBEABV?$shared_ptr@U?$_Task_impl@P$AAVStorageFile@Storage@Windows@@@details@Concurrency@@@std@@XZ 1008ea30 f i WinRTVFS.obj
 0002:00050a70       ?_GetImpl@?$task@P$AAVStorageFolder@Storage@Windows@@@Concurrency@@QBEABV?$shared_ptr@U?$_Task_impl@P$AAVStorageFolder@Storage@Windows@@@details@Concurrency@@@std@@XZ 1008ea70 f i WinRTVFS.obj
 0002:00050ab0       ?_GetImpl@?$task@X@Concurrency@@QBEABV?$shared_ptr@U?$_Task_impl@E@details@Concurrency@@@std@@XZ 1008eab0 f i WinRTVFS.obj
 0002:00050af0       ?_GetImpl@?$task@_N@Concurrency@@QBEABV?$shared_ptr@U?$_Task_impl@_N@details@Concurrency@@@std@@XZ 1008eaf0 f i WinRTVFS.obj
 0002:00050b30       ?_GetImplValue@cancellation_token@Concurrency@@QBEPAV_CancellationTokenState@details@2@XZ 1008eb30 f i WinRTVFS.obj
 0002:00050bb0       ?_GetResult@?$_Task_impl@E@details@Concurrency@@QAEEXZ 1008ebb0 f i WinRTVFS.obj
 0002:00050c10       ?_GetResult@?$_Task_impl@P$AAUIBuffer@Streams@Storage@Windows@@@details@Concurrency@@QAEP$AAUIBuffer@Streams@Storage@Windows@@XZ 1008ec10 f i WinRTVFS.obj
 0002:00050cf0       ?_GetResult@?$_Task_impl@P$AAUIRandomAccessStream@Streams@Storage@Windows@@@details@Concurrency@@QAEP$AAUIRandomAccessStream@Streams@Storage@Windows@@XZ 1008ecf0 f i WinRTVFS.obj
 0002:00050dd0       ?_GetResult@?$_Task_impl@P$AAVStorageFile@Storage@Windows@@@details@Concurrency@@QAEP$AAVStorageFile@Storage@Windows@@XZ 1008edd0 f i WinRTVFS.obj
 0002:00050eb0       ?_GetResult@?$_Task_impl@P$AAVStorageFolder@Storage@Windows@@@details@Concurrency@@QAEP$AAVStorageFolder@Storage@Windows@@XZ 1008eeb0 f i WinRTVFS.obj
 0002:00050f90       ?_GetScheduler@_TaskCollectionImpl@details@Concurrency@@QBE?AUscheduler_ptr@3@XZ 1008ef90 f i WinRTVFS.obj
 0002:00051010       ?_GetScheduler@_Task_impl_base@details@Concurrency@@QBE?AUscheduler_ptr@3@XZ 1008f010 f i WinRTVFS.obj
 0002:00051090       ?_GetTaskCreationCallstack@_Task_impl_base@details@Concurrency@@QAE?AV_TaskCreationCallstack@23@XZ 1008f090 f i WinRTVFS.obj
 0002:00051110       ?_GetTaskImplBase@?$_PPLTaskHandle@EU?$_ContinuationTaskHandle@XXV<lambda_9fc58f08a03183e50e06176727aeb396>@@U?$integral_constant@_N$0A@@std@@U_TypeSelectorNoAsync@details@Concurrency@@@?$task@E@Concurrency@@U_ContinuationTaskHandleBase@details@3@@details@Concurrency@@UBE?AV?$shared_ptr@U_Task_impl_base@details@Concurrency@@@std@@XZ 1008f110 f i WinRTVFS.obj
 0002:00051190       ?_Get_deleter@_Ref_count_base@std@@UBEPAXABVtype_info@@@Z 1008f190 f i WinRTVFS.obj
 0002:000511d0       ?_Get_element@?$multi_link_registry@V?$ISource@H@Concurrency@@@Concurrency@@MBEPAV?$ISource@H@2@I@Z 1008f1d0 f i WinRTVFS.obj
 0002:00051250       ?_Get_element@?$single_link_registry@V?$ITarget@H@Concurrency@@@Concurrency@@MBEPAV?$ITarget@H@2@I@Z 1008f250 f i WinRTVFS.obj
 0002:000512a0       ?_Get_ref@?$concurrent_queue@PAV?$message@H@Concurrency@@V?$allocator@PAV?$message@H@Concurrency@@@std@@@Concurrency@@AAEAAPAV?$message@H@2@AAU_Page@_Concurrent_queue_base_v4@details@2@I@Z 1008f2a0 f i WinRTVFS.obj
 0002:00051350       ?_Getal@?$_Vector_alloc@$0A@U?$_Vec_base_types@PAXV?$allocator@PAX@std@@@std@@@std@@QBE?AU?$_Wrap_alloc@V?$allocator@PAX@std@@@2@XZ 1008f350 f i WinRTVFS.obj
 0002:000513b0       ?_Getal@?$_Vector_alloc@$0A@U?$_Vec_base_types@V?$shared_ptr@U?$_Task_impl@E@details@Concurrency@@@std@@V?$allocator@V?$shared_ptr@U?$_Task_impl@E@details@Concurrency@@@std@@@2@@std@@@std@@QBE?AU?$_Wrap_alloc@V?$allocator@V?$shared_ptr@U?$_Task_impl@E@details@Concurrency@@@std@@@std@@@2@XZ 1008f3b0 f i WinRTVFS.obj
 0002:00051410       ?_Getcont@_Iterator_base12@std@@QBEPBU_Container_base12@2@XZ 1008f410 f i WinRTVFS.obj
 0002:00051480       ?_Getpnext@_Iterator_base12@std@@QAEPAPAU12@XZ 1008f480 f i WinRTVFS.obj
 0002:000514c0       ?_Getptr@?$_Ref_count_obj@U?$_Task_completion_event_impl@E@details@Concurrency@@@std@@QBEPAU?$_Task_completion_event_impl@E@details@Concurrency@@XZ 1008f4c0 f i WinRTVFS.obj
 0002:00051500       ?_Getptr@?$_Ref_count_obj@U?$_Task_impl@E@details@Concurrency@@@std@@QBEPAU?$_Task_impl@E@details@Concurrency@@XZ 1008f500 f i WinRTVFS.obj
 0002:00051540       ?_Getptr@?$_Ref_count_obj@U?$_Task_impl@I@details@Concurrency@@@std@@QBEPAU?$_Task_impl@I@details@Concurrency@@XZ 1008f540 f i WinRTVFS.obj
 0002:00051580       ?_Getptr@?$_Ref_count_obj@U?$_Task_impl@P$AAUIBuffer@Streams@Storage@Windows@@@details@Concurrency@@@std@@QBEPAU?$_Task_impl@P$AAUIBuffer@Streams@Storage@Windows@@@details@Concurrency@@XZ 1008f580 f i WinRTVFS.obj
 0002:000515c0       ?_Getptr@?$_Ref_count_obj@U?$_Task_impl@P$AAUIRandomAccessStream@Streams@Storage@Windows@@@details@Concurrency@@@std@@QBEPAU?$_Task_impl@P$AAUIRandomAccessStream@Streams@Storage@Windows@@@details@Concurrency@@XZ 1008f5c0 f i WinRTVFS.obj
 0002:00051600       ?_Getptr@?$_Ref_count_obj@U?$_Task_impl@P$AAVStorageFile@Storage@Windows@@@details@Concurrency@@@std@@QBEPAU?$_Task_impl@P$AAVStorageFile@Storage@Windows@@@details@Concurrency@@XZ 1008f600 f i WinRTVFS.obj
 0002:00051640       ?_Getptr@?$_Ref_count_obj@U?$_Task_impl@P$AAVStorageFolder@Storage@Windows@@@details@Concurrency@@@std@@QBEPAU?$_Task_impl@P$AAVStorageFolder@Storage@Windows@@@details@Concurrency@@XZ 1008f640 f i WinRTVFS.obj
 0002:00051680       ?_Getptr@?$_Ref_count_obj@U?$_Task_impl@_N@details@Concurrency@@@std@@QBEPAU?$_Task_impl@_N@details@Concurrency@@XZ 1008f680 f i WinRTVFS.obj
 0002:000516c0       ?_Getptr@?$_Ref_count_obj@U_ExceptionHolder@details@Concurrency@@@std@@QBEPAU_ExceptionHolder@details@Concurrency@@XZ 1008f6c0 f i WinRTVFS.obj
 0002:00051700       ?_Grow@?$_Dynamic_array@PAV?$ISource@H@Concurrency@@@details@Concurrency@@AAEXI@Z 1008f700 f i WinRTVFS.obj
 0002:00051850       ?_Grow_to@?$vector@PAXV?$allocator@PAX@std@@@std@@IBEII@Z 1008f850 f i WinRTVFS.obj
 0002:00051900       ?_Grow_to@?$vector@V?$shared_ptr@U?$_Task_impl@E@details@Concurrency@@@std@@V?$allocator@V?$shared_ptr@U?$_Task_impl@E@details@Concurrency@@@std@@@2@@std@@IBEII@Z 1008f900 f i WinRTVFS.obj
 0002:000519b0       ?_Handle_message@?$source_block@V?$single_link_registry@V?$ITarget@H@Concurrency@@@Concurrency@@V?$ordered_message_processor@H@2@@Concurrency@@AAEXPAV?$message@H@2@@Z 1008f9b0 f i WinRTVFS.obj
 0002:00051ae0       ?_HasCapturedContext@_ContextCallback@details@Concurrency@@QBE_NXZ 1008fae0 f i WinRTVFS.obj
 0002:00051ba0       ?_HasUserException@?$_Task_completion_event_impl@E@details@Concurrency@@QAE_NXZ 1008fba0 f i WinRTVFS.obj
 0002:00051c00       ?_HasUserException@_Task_impl_base@details@Concurrency@@QAE_NXZ 1008fc00 f i WinRTVFS.obj
 0002:00051c60       ?_Incref@_Ref_count_base@std@@QAEXXZ 1008fc60 f i WinRTVFS.obj
 0002:00051cb0       ?_Incref_nz@_Ref_count_base@std@@QAE_NXZ 1008fcb0 f i WinRTVFS.obj
 0002:00051d30       ?_Incwref@_Ref_count_base@std@@QAEXXZ 1008fd30 f i WinRTVFS.obj
 0002:00051d80       ?_Init@?$_Dynamic_array@PAV?$ISource@H@Concurrency@@@details@Concurrency@@AAEXXZ 1008fd80 f i WinRTVFS.obj
 0002:00051de0       ?_Init_atomic_counter@std@@YAXAAKK@Z 1008fde0 f i WinRTVFS.obj
 0002:00051e20       ?_Initialize@?$timer@H@Concurrency@@AAEXABHPAV?$ITarget@H@2@_NPAVScheduler@2@PAVScheduleGroup@2@@Z 1008fe20 f i WinRTVFS.obj
 0002:00051fd0       ?_Inside@?$vector@V?$shared_ptr@U?$_Task_impl@E@details@Concurrency@@@std@@V?$allocator@V?$shared_ptr@U?$_Task_impl@E@details@Concurrency@@@std@@@2@@std@@IBE_NPBV?$shared_ptr@U?$_Task_impl@E@details@Concurrency@@@2@@Z 1008ffd0 f i WinRTVFS.obj
 0002:00052050       ?_Invoke@_CancellationTokenRegistration@details@Concurrency@@AAEXXZ 10090050 f i WinRTVFS.obj
 0002:00052180       ?_Invoke_handler@?$ordered_message_processor@H@Concurrency@@AAEXJ@Z 10090180 f i WinRTVFS.obj
 0002:00052340       ?_Invoke_handler@?$ordered_message_processor@H@Concurrency@@AAEXPAV?$message@H@2@@Z 10090340 f i WinRTVFS.obj
 0002:00052460       ?_Invoke_link_source@?$ISource@H@Concurrency@@IAEXPAV?$ITarget@H@2@@Z 10090460 f i WinRTVFS.obj
 0002:000524d0       ?_Invoke_unlink_source@?$ISource@H@Concurrency@@IAEXPAV?$ITarget@H@2@@Z 100904d0 f i WinRTVFS.obj
 0002:00052540       ?_IsApartmentAware@_Task_impl_base@details@Concurrency@@QAE_NXZ 10090540 f i WinRTVFS.obj
 0002:00052580       ?_IsCanceled@_CancellationTokenState@details@Concurrency@@QBE_NXZ 10090580 f i WinRTVFS.obj
 0002:00052600       ?_IsCanceled@_Task_impl_base@details@Concurrency@@QAE_NXZ 10090600 f i WinRTVFS.obj
 0002:00052670       ?_IsCausalitySupported@details@Concurrency@@YA_NXZ 10090670 f i WinRTVFS.obj
 0002:000526a0       ?_IsCompleted@_Task_impl_base@details@Concurrency@@QAE_NXZ 100906a0 f i WinRTVFS.obj
 0002:00052710       ?_IsCreated@_Task_impl_base@details@Concurrency@@QAE_NXZ 10090710 f i WinRTVFS.obj
 0002:00052780       ?_IsCurrentOriginSTA@_ContextCallback@details@Concurrency@@CA_NXZ 10090780 f i WinRTVFS.obj
 0002:00052890       ?_IsNonBlockingThread@_Task_impl_base@details@Concurrency@@SA_NXZ 10090890 f i WinRTVFS.obj
 0002:000529e0       ?_IsPendingCancel@_Task_impl_base@details@Concurrency@@QAE_NXZ 100909e0 f i WinRTVFS.obj
 0002:00052a50       ?_IsStarted@_Task_impl_base@details@Concurrency@@QAE_NXZ 10090a50 f i WinRTVFS.obj
 0002:00052ac0       ?_IsTriggered@?$task_completion_event@E@Concurrency@@QBE_NXZ 10090ac0 f i WinRTVFS.obj
 0002:00052b50       ?_IsValid@_CancellationTokenState@details@Concurrency@@SA_NPAV123@@Z 10090b50 f i WinRTVFS.obj
 0002:00052bd0       ?_Load_acquire_4@std@@YAKPCK@Z 10090bd0 f i WinRTVFS.obj
 0002:00052c20       ?_Load_relaxed_4@std@@YAKPCK@Z 10090c20 f i WinRTVFS.obj
 0002:00052c60       ?_Load_seq_cst_4@std@@YAKPCK@Z 10090c60 f i WinRTVFS.obj
 0002:00052ca0       ?_Local@?$_Func_class@EE@std@@ABE_NXZ 10090ca0 f i WinRTVFS.obj
 0002:00052d10       ?_Local@?$_Func_class@X$$$V@std@@ABE_NXZ 10090d10 f i WinRTVFS.obj
 0002:00052d80       ?_Local@?$_Func_class@XABH@std@@ABE_NXZ 10090d80 f i WinRTVFS.obj
 0002:00052df0       ?_Local@?$_Func_class@XPAV?$message@H@Concurrency@@@std@@ABE_NXZ 10090df0 f i WinRTVFS.obj
 0002:00052e60       ?_Local@?$_Func_class@_NABH@std@@ABE_NXZ 10090e60 f i WinRTVFS.obj
 0002:00052ed0       ?_LogCancelTask@_TaskEventLogger@details@Concurrency@@QAEXXZ 10090ed0 f i WinRTVFS.obj
 0002:00052f70       ?_LogScheduleTask@_TaskEventLogger@details@Concurrency@@QAEX_N@Z 10090f70 f i WinRTVFS.obj
 0002:00053080       ?_LogTaskCompleted@_TaskEventLogger@details@Concurrency@@QAEXXZ 10091080 f i WinRTVFS.obj
 0002:00053180       ?_LogTaskExecutionCompleted@_TaskEventLogger@details@Concurrency@@QAEXXZ 10091180 f i WinRTVFS.obj
 0002:00053200       ?_LogTaskExecutionStarted@_TaskEventLogger@details@Concurrency@@QAEXXZ 10091200 f i WinRTVFS.obj
 0002:00053240       ?_LogWorkItemCompleted@_TaskEventLogger@details@Concurrency@@QAEXXZ 10091240 f i WinRTVFS.obj
 0002:00053300       ?_LogWorkItemStarted@_TaskEventLogger@details@Concurrency@@QAEXXZ 10091300 f i WinRTVFS.obj
 0002:000533a0       ?_Make@?$_Task_ptr@E@details@Concurrency@@SA?AV?$shared_ptr@U?$_Task_impl@E@details@Concurrency@@@std@@PAV_CancellationTokenState@23@Uscheduler_ptr@3@@Z 100913a0 f i WinRTVFS.obj
 0002:00053470       ?_Make@?$_Task_ptr@I@details@Concurrency@@SA?AV?$shared_ptr@U?$_Task_impl@I@details@Concurrency@@@std@@PAV_CancellationTokenState@23@Uscheduler_ptr@3@@Z 10091470 f i WinRTVFS.obj
 0002:00053540       ?_Make@?$_Task_ptr@P$AAUIBuffer@Streams@Storage@Windows@@@details@Concurrency@@SA?AV?$shared_ptr@U?$_Task_impl@P$AAUIBuffer@Streams@Storage@Windows@@@details@Concurrency@@@std@@PAV_CancellationTokenState@23@Uscheduler_ptr@3@@Z 10091540 f i WinRTVFS.obj
 0002:00053610       ?_Make@?$_Task_ptr@P$AAUIRandomAccessStream@Streams@Storage@Windows@@@details@Concurrency@@SA?AV?$shared_ptr@U?$_Task_impl@P$AAUIRandomAccessStream@Streams@Storage@Windows@@@details@Concurrency@@@std@@PAV_CancellationTokenState@23@Uscheduler_ptr@3@@Z 10091610 f i WinRTVFS.obj
 0002:000536e0       ?_Make@?$_Task_ptr@P$AAVStorageFile@Storage@Windows@@@details@Concurrency@@SA?AV?$shared_ptr@U?$_Task_impl@P$AAVStorageFile@Storage@Windows@@@details@Concurrency@@@std@@PAV_CancellationTokenState@23@Uscheduler_ptr@3@@Z 100916e0 f i WinRTVFS.obj
 0002:000537b0       ?_Make@?$_Task_ptr@P$AAVStorageFolder@Storage@Windows@@@details@Concurrency@@SA?AV?$shared_ptr@U?$_Task_impl@P$AAVStorageFolder@Storage@Windows@@@details@Concurrency@@@std@@PAV_CancellationTokenState@23@Uscheduler_ptr@3@@Z 100917b0 f i WinRTVFS.obj
 0002:00053880       ?_Make@?$_Task_ptr@_N@details@Concurrency@@SA?AV?$shared_ptr@U?$_Task_impl@_N@details@Concurrency@@@std@@PAV_CancellationTokenState@23@Uscheduler_ptr@3@@Z 10091880 f i WinRTVFS.obj
 0002:00053950       ?_MakeUnitToUnitFunc@details@Concurrency@@YA?AV?$function@$$A6AEE@Z@std@@ABV?$function@$$A6AXXZ@4@@Z 10091950 f i WinRTVFS.obj
 0002:00053a50       ?_Memory_order_upper_bound@std@@YA?AW4memory_order@1@W421@0@Z 10091a50 f i WinRTVFS.obj
 0002:00053b90       ?_Move@?$_Func_impl@U?$_Callable_obj@V<lambda_02d862f9cfc639ff7c37ca52d43e6a8c>@@$0A@@std@@V?$allocator@V?$_Func_class@X$$$V@std@@@2@X$$$V@std@@UAEPAV?$_Func_base@X$$$V@2@PAX@Z 10091b90 f i WinRTVFS.obj
 0002:00053cb0       ?_Move@?$_Func_impl@U?$_Callable_obj@V<lambda_095a938ce4c5765dcc6b67f548aeb9c7>@@$0A@@std@@V?$allocator@V?$_Func_class@X$$$V@std@@@2@X$$$V@std@@UAEPAV?$_Func_base@X$$$V@2@PAX@Z 10091cb0 f i WinRTVFS.obj
 0002:00053dd0       ?_Move@?$_Func_impl@U?$_Callable_obj@V<lambda_0b7f78ec4ced38495cec46e0d346e0b9>@@$0A@@std@@V?$allocator@V?$_Func_class@X$$$V@std@@@2@X$$$V@std@@UAEPAV?$_Func_base@X$$$V@2@PAX@Z 10091dd0 f i WinRTVFS.obj
 0002:00053ef0       ?_Move@?$_Func_impl@U?$_Callable_obj@V<lambda_0fe479da16d43edb8e9a254c493d643e>@@$0A@@std@@V?$allocator@V?$_Func_class@X$$$V@std@@@2@X$$$V@std@@UAEPAV?$_Func_base@X$$$V@2@PAX@Z 10091ef0 f i WinRTVFS.obj
 0002:00054010       ?_Move@?$_Func_impl@U?$_Callable_obj@V<lambda_1a93da980d6fe77644a4eefc4e1ad756>@@$0A@@std@@V?$allocator@V?$_Func_class@XABH@std@@@2@XABH@std@@UAEPAV?$_Func_base@XABH@2@PAX@Z 10092010 f i WinRTVFS.obj
 0002:00054130       ?_Move@?$_Func_impl@U?$_Callable_obj@V<lambda_295bc5f846209cba149a5e74d0d63a72>@@$0A@@std@@V?$allocator@V?$_Func_class@XPAV?$message@H@Concurrency@@@std@@@2@XPAV?$message@H@Concurrency@@@std@@UAEPAV?$_Func_base@XPAV?$message@H@Concurrency@@@2@PAX@Z 10092130 f i WinRTVFS.obj
 0002:00054250       ?_Move@?$_Func_impl@U?$_Callable_obj@V<lambda_364e75aa895e992ae8821732ca646aa2>@@$0A@@std@@V?$allocator@V?$_Func_class@X$$$V@std@@@2@X$$$V@std@@UAEPAV?$_Func_base@X$$$V@2@PAX@Z 10092250 f i WinRTVFS.obj
 0002:00054370       ?_Move@?$_Func_impl@U?$_Callable_obj@V<lambda_39cde079c01d1b5b9307ff255a1ccdd9>@@$0A@@std@@V?$allocator@V?$_Func_class@EE@std@@@2@EE@std@@UAEPAV?$_Func_base@EE@2@PAX@Z 10092370 f i WinRTVFS.obj
 0002:00054490       ?_Move@?$_Func_impl@U?$_Callable_obj@V<lambda_528650821c608ced6534641e311542a5>@@$0A@@std@@V?$allocator@V?$_Func_class@X$$$V@std@@@2@X$$$V@std@@UAEPAV?$_Func_base@X$$$V@2@PAX@Z 10092490 f i WinRTVFS.obj
 0002:000545b0       ?_Move@?$_Func_impl@U?$_Callable_obj@V<lambda_579ccd68d569251046038e8620afec85>@@$0A@@std@@V?$allocator@V?$_Func_class@XPAV?$message@H@Concurrency@@@std@@@2@XPAV?$message@H@Concurrency@@@std@@UAEPAV?$_Func_base@XPAV?$message@H@Concurrency@@@2@PAX@Z 100925b0 f i WinRTVFS.obj
 0002:000546d0       ?_Move@?$_Func_impl@U?$_Callable_obj@V<lambda_9fc58f08a03183e50e06176727aeb396>@@$0A@@std@@V?$allocator@V?$_Func_class@X$$$V@std@@@2@X$$$V@std@@UAEPAV?$_Func_base@X$$$V@2@PAX@Z 100926d0 f i WinRTVFS.obj
 0002:000547f0       ?_Move@?$_Func_impl@U?$_Callable_obj@V<lambda_a66b3ee15e662226a0b0b15ae647d32f>@@$0A@@std@@V?$allocator@V?$_Func_class@X$$$V@std@@@2@X$$$V@std@@UAEPAV?$_Func_base@X$$$V@2@PAX@Z 100927f0 f i WinRTVFS.obj
 0002:00054910       ?_Move@?$_Func_impl@U?$_Callable_obj@V<lambda_c1a554f2383dae03f169289aed8c4103>@@$0A@@std@@V?$allocator@V?$_Func_class@X$$$V@std@@@2@X$$$V@std@@UAEPAV?$_Func_base@X$$$V@2@PAX@Z 10092910 f i WinRTVFS.obj
 0002:00054a30       ?_Move@?$_Func_impl@U?$_Callable_obj@V<lambda_c28a53003ed51cdfe295a7d756f98c2f>@@$0A@@std@@V?$allocator@V?$_Func_class@XPAV?$message@H@Concurrency@@@std@@@2@XPAV?$message@H@Concurrency@@@std@@UAEPAV?$_Func_base@XPAV?$message@H@Concurrency@@@2@PAX@Z 10092a30 f i WinRTVFS.obj
 0002:00054b50       ?_Move@?$_Func_impl@U?$_Callable_obj@V<lambda_e7ef5f1e4e1eca0ae8efc6086cf9f417>@@$0A@@std@@V?$allocator@V?$_Func_class@X$$$V@std@@@2@X$$$V@std@@UAEPAV?$_Func_base@X$$$V@2@PAX@Z 10092b50 f i WinRTVFS.obj
 0002:00054c70       ?_Move_item@?$concurrent_queue@PAV?$message@H@Concurrency@@V?$allocator@PAV?$message@H@Concurrency@@@std@@@Concurrency@@EAEXAAU_Page@_Concurrent_queue_base_v4@details@2@IPAX@Z 10092c70 f i WinRTVFS.obj
 0002:00054d30       ?_NewMessage@?$timer@H@Concurrency@@ABEPAV?$message@H@2@XZ 10092d30 f i WinRTVFS.obj
 0002:00054e30       ?_Next_index@?$multi_link_registry@V?$ISource@H@Concurrency@@@Concurrency@@MAEXAAI@Z 10092e30 f i WinRTVFS.obj
 0002:00054ed0       ?_Next_index@?$single_link_registry@V?$ITarget@H@Concurrency@@@Concurrency@@MAEXAAI@Z 10092ed0 f i WinRTVFS.obj
 0002:00054f30       ?_None@_CancellationTokenState@details@Concurrency@@SAPAV123@XZ 10092f30 f i WinRTVFS.obj
 0002:00054f70       ?_Orphan_me@_Iterator_base12@std@@QAEXXZ 10092f70 f i WinRTVFS.obj
 0002:00055040       ?_Orphan_range@?$vector@PAXV?$allocator@PAX@std@@@std@@IBEXPAPAX0@Z 10093040 f i WinRTVFS.obj
 0002:000551d0       ?_Orphan_range@?$vector@V?$shared_ptr@U?$_Task_impl@E@details@Concurrency@@@std@@V?$allocator@V?$shared_ptr@U?$_Task_impl@E@details@Concurrency@@@std@@@2@@std@@IBEXPAV?$shared_ptr@U?$_Task_impl@E@details@Concurrency@@@2@0@Z 100931d0 f i WinRTVFS.obj
 0002:00055360       ?_Perform@?$_ContinuationTaskHandle@XXV<lambda_9fc58f08a03183e50e06176727aeb396>@@U?$integral_constant@_N$0A@@std@@U_TypeSelectorNoAsync@details@Concurrency@@@?$task@E@Concurrency@@QBEXXZ 10093360 f i WinRTVFS.obj
 0002:000553e0       ?_Perform@?$_Continuation_func_transformer@XX@Concurrency@@SA?AV?$function@$$A6AEE@Z@std@@V?$function@$$A6AXXZ@4@@Z 100933e0 f i WinRTVFS.obj
 0002:000554b0       ?_Pop_back_n@?$vector@PAXV?$allocator@PAX@std@@@std@@QAEXI@Z 100934b0 f i WinRTVFS.obj
 0002:00055550       ?_Process_incoming_message_wrapper@?$message_processor@H@Concurrency@@KAXPAX@Z 10093550 f i WinRTVFS.obj
 0002:000555c0       ?_Process_message_helper@?$ordered_message_processor@H@Concurrency@@AAEJXZ 100935c0 f i WinRTVFS.obj
 0002:000557d0       ?_Push_back@?$_Dynamic_array@PAV?$ISource@H@Concurrency@@@details@Concurrency@@QAEXABQAV?$ISource@H@3@@Z 100937d0 f i WinRTVFS.obj
 0002:000558d0       ?_Reallocate@?$vector@PAXV?$allocator@PAX@std@@@std@@IAEXI@Z 100938d0 f i WinRTVFS.obj
 0002:00055ab0       ?_Reallocate@?$vector@V?$shared_ptr@U?$_Task_impl@E@details@Concurrency@@@std@@V?$allocator@V?$shared_ptr@U?$_Task_impl@E@details@Concurrency@@@std@@@2@@std@@IAEXI@Z 10093ab0 f i WinRTVFS.obj
 0002:00055c90       ?_Reference@_RefCounter@details@Concurrency@@QAEJXZ 10093c90 f i WinRTVFS.obj
 0002:00055d30       ?_Reference@_RefCounterBase@details@Concurrency@@QAEJXZ 10093d30 f i WinRTVFS.obj
 0002:00055de0       ?_RegisterCallback@_CancellationTokenState@details@Concurrency@@QAEXPAV_CancellationTokenRegistration@23@@Z 10093de0 f i WinRTVFS.obj
 0002:00055f70       ?_RegisterCancellation@_Task_impl_base@details@Concurrency@@QAEXV?$weak_ptr@U_Task_impl_base@details@Concurrency@@@std@@@Z 10093f70 f i WinRTVFS.obj
 0002:00056180       ?_RegisterTask@?$task_completion_event@E@Concurrency@@AAEXABV?$shared_ptr@U?$_Task_impl@E@details@Concurrency@@@std@@@Z 10094180 f i WinRTVFS.obj
 0002:00056340       ?_Release@_RefCounter@details@Concurrency@@QAEJXZ 10094340 f i WinRTVFS.obj
 0002:00056400       ?_Release@_RefCounterBase@details@Concurrency@@QAEJXZ 10094400 f i WinRTVFS.obj
 0002:000564d0       ?_Remove@?$multi_link_registry@V?$ISource@H@Concurrency@@@Concurrency@@AAE_NPAV?$ISource@H@2@@Z 100944d0 f i WinRTVFS.obj
 0002:000565f0       ?_Reserve@?$vector@PAXV?$allocator@PAX@std@@@std@@IAEXI@Z 100945f0 f i WinRTVFS.obj
 0002:000566a0       ?_Reserve@?$vector@V?$shared_ptr@U?$_Task_impl@E@details@Concurrency@@@std@@V?$allocator@V?$shared_ptr@U?$_Task_impl@E@details@Concurrency@@@std@@@2@@std@@IAEXI@Z 100946a0 f i WinRTVFS.obj
 0002:00056750       ?_Reset0@?$_Ptr_base@U?$_Task_completion_event_impl@E@details@Concurrency@@@std@@QAEXPAU?$_Task_completion_event_impl@E@details@Concurrency@@PAV_Ref_count_base@2@@Z 10094750 f i WinRTVFS.obj
 0002:000567d0       ?_Reset0@?$_Ptr_base@U?$_Task_impl@E@details@Concurrency@@@std@@QAEXPAU?$_Task_impl@E@details@Concurrency@@PAV_Ref_count_base@2@@Z 100947d0 f i WinRTVFS.obj
 0002:00056850       ?_Reset0@?$_Ptr_base@U?$_Task_impl@I@details@Concurrency@@@std@@QAEXPAU?$_Task_impl@I@details@Concurrency@@PAV_Ref_count_base@2@@Z 10094850 f i WinRTVFS.obj
 0002:000568d0       ?_Reset0@?$_Ptr_base@U?$_Task_impl@P$AAUIBuffer@Streams@Storage@Windows@@@details@Concurrency@@@std@@QAEXPAU?$_Task_impl@P$AAUIBuffer@Streams@Storage@Windows@@@details@Concurrency@@PAV_Ref_count_base@2@@Z 100948d0 f i WinRTVFS.obj
 0002:00056950       ?_Reset0@?$_Ptr_base@U?$_Task_impl@P$AAUIRandomAccessStream@Streams@Storage@Windows@@@details@Concurrency@@@std@@QAEXPAU?$_Task_impl@P$AAUIRandomAccessStream@Streams@Storage@Windows@@@details@Concurrency@@PAV_Ref_count_base@2@@Z 10094950 f i WinRTVFS.obj
 0002:000569d0       ?_Reset0@?$_Ptr_base@U?$_Task_impl@P$AAVStorageFile@Storage@Windows@@@details@Concurrency@@@std@@QAEXPAU?$_Task_impl@P$AAVStorageFile@Storage@Windows@@@details@Concurrency@@PAV_Ref_count_base@2@@Z 100949d0 f i WinRTVFS.obj
 0002:00056a50       ?_Reset0@?$_Ptr_base@U?$_Task_impl@P$AAVStorageFolder@Storage@Windows@@@details@Concurrency@@@std@@QAEXPAU?$_Task_impl@P$AAVStorageFolder@Storage@Windows@@@details@Concurrency@@PAV_Ref_count_base@2@@Z 10094a50 f i WinRTVFS.obj
 0002:00056ad0       ?_Reset0@?$_Ptr_base@U?$_Task_impl@_N@details@Concurrency@@@std@@QAEXPAU?$_Task_impl@_N@details@Concurrency@@PAV_Ref_count_base@2@@Z 10094ad0 f i WinRTVFS.obj
 0002:00056b50       ?_Reset0@?$_Ptr_base@U_ExceptionHolder@details@Concurrency@@@std@@QAEXPAU_ExceptionHolder@details@Concurrency@@PAV_Ref_count_base@2@@Z 10094b50 f i WinRTVFS.obj
 0002:00056bd0       ?_Reset0@?$_Ptr_base@U_Task_impl_base@details@Concurrency@@@std@@QAEXPAU_Task_impl_base@details@Concurrency@@PAV_Ref_count_base@2@@Z 10094bd0 f i WinRTVFS.obj
 0002:00056c50       ?_Reset0@?$_Ptr_base@Uscheduler_interface@Concurrency@@@std@@QAEXPAUscheduler_interface@Concurrency@@PAV_Ref_count_base@2@@Z 10094c50 f i WinRTVFS.obj
 0002:00056cd0       ?_Reset@?$_Func_class@X$$$V@std@@IAEXABV12@@Z 10094cd0 f i WinRTVFS.obj
 0002:00056db0       ?_Reset@?$_Func_class@X$$$V@std@@IAEXXZ 10094db0 f i WinRTVFS.obj
 0002:00056e10       ?_Reset@?$_Func_class@XABH@std@@IAEXABV12@@Z 10094e10 f i WinRTVFS.obj
 0002:00056ef0       ?_Reset@?$_Func_class@XPAV?$message@H@Concurrency@@@std@@IAEXABV12@@Z 10094ef0 f i WinRTVFS.obj
 0002:00056fd0       ?_Reset@?$_Func_class@XPAV?$message@H@Concurrency@@@std@@IAEXXZ 10094fd0 f i WinRTVFS.obj
 0002:00057030       ?_Reset@?$_Ptr_base@U?$_Task_completion_event_impl@E@details@Concurrency@@@std@@QAEXPAU?$_Task_completion_event_impl@E@details@Concurrency@@PAV_Ref_count_base@2@@Z 10095030 f i WinRTVFS.obj
 0002:000570a0       ?_Reset@?$_Ptr_base@U?$_Task_impl@E@details@Concurrency@@@std@@QAEXPAU?$_Task_impl@E@details@Concurrency@@PAV_Ref_count_base@2@@Z 100950a0 f i WinRTVFS.obj
 0002:00057110       ?_Reset@?$_Ptr_base@U?$_Task_impl@I@details@Concurrency@@@std@@QAEXPAU?$_Task_impl@I@details@Concurrency@@PAV_Ref_count_base@2@@Z 10095110 f i WinRTVFS.obj
 0002:00057180       ?_Reset@?$_Ptr_base@U?$_Task_impl@P$AAUIBuffer@Streams@Storage@Windows@@@details@Concurrency@@@std@@QAEXPAU?$_Task_impl@P$AAUIBuffer@Streams@Storage@Windows@@@details@Concurrency@@PAV_Ref_count_base@2@@Z 10095180 f i WinRTVFS.obj
 0002:000571f0       ?_Reset@?$_Ptr_base@U?$_Task_impl@P$AAUIRandomAccessStream@Streams@Storage@Windows@@@details@Concurrency@@@std@@QAEXPAU?$_Task_impl@P$AAUIRandomAccessStream@Streams@Storage@Windows@@@details@Concurrency@@PAV_Ref_count_base@2@@Z 100951f0 f i WinRTVFS.obj
 0002:00057260       ?_Reset@?$_Ptr_base@U?$_Task_impl@P$AAVStorageFile@Storage@Windows@@@details@Concurrency@@@std@@QAEXPAU?$_Task_impl@P$AAVStorageFile@Storage@Windows@@@details@Concurrency@@PAV_Ref_count_base@2@@Z 10095260 f i WinRTVFS.obj
 0002:000572d0       ?_Reset@?$_Ptr_base@U?$_Task_impl@P$AAVStorageFolder@Storage@Windows@@@details@Concurrency@@@std@@QAEXPAU?$_Task_impl@P$AAVStorageFolder@Storage@Windows@@@details@Concurrency@@PAV_Ref_count_base@2@@Z 100952d0 f i WinRTVFS.obj
 0002:00057340       ?_Reset@?$_Ptr_base@U?$_Task_impl@_N@details@Concurrency@@@std@@QAEXPAU?$_Task_impl@_N@details@Concurrency@@PAV_Ref_count_base@2@@Z 10095340 f i WinRTVFS.obj
 0002:000573b0       ?_Reset@?$_Ptr_base@U_ExceptionHolder@details@Concurrency@@@std@@QAEXPAU_ExceptionHolder@details@Concurrency@@PAV_Ref_count_base@2@@Z 100953b0 f i WinRTVFS.obj
 0002:00057420       ?_Reset@?$_Ptr_base@U_Task_impl_base@details@Concurrency@@@std@@QAEXPAU_Task_impl_base@details@Concurrency@@PAV_Ref_count_base@2@@Z 10095420 f i WinRTVFS.obj
 0002:00057490       ?_Reset@?$_Ptr_base@U_Task_impl_base@details@Concurrency@@@std@@QAEXPAU_Task_impl_base@details@Concurrency@@PAV_Ref_count_base@2@_N@Z 10095490 f i WinRTVFS.obj
 0002:00057540       ?_Reset@?$_Ptr_base@Uscheduler_interface@Concurrency@@@std@@QAEXPAUscheduler_interface@Concurrency@@PAV_Ref_count_base@2@@Z 10095540 f i WinRTVFS.obj
 0002:000575b0       ?_Reset@_ContextCallback@details@Concurrency@@AAEXXZ 100955b0 f i WinRTVFS.obj
 0002:00057630       ?_Resolve@_ContextCallback@details@Concurrency@@QAEX_N@Z 10095630 f i WinRTVFS.obj
 0002:000576b0       ?_RethrowException@exception_ptr@std@@QBEXXZ 100956b0 f i WinRTVFS.obj
 0002:00057710       ?_RethrowUserException@_ExceptionHolder@details@Concurrency@@QAEXXZ 10095710 f i WinRTVFS.obj
 0002:000577e0       ?_RunAndWait@_AsyncTaskCollection@details@Concurrency@@QAE?AW4_TaskCollectionStatus@23@XZ 100957e0 f i WinRTVFS.obj
 0002:00057900       ?_RunAndWait@_TaskCollectionImpl@details@Concurrency@@QAEXXZ 10095900 f i WinRTVFS.obj
 0002:000579a0       ?_RunChoreBridge@_TaskProcHandle@details@Concurrency@@SAXPAX@Z 100959a0 f i WinRTVFS.obj
 0002:00057ab0       ?_RunContinuation@_Task_impl_base@details@Concurrency@@QAEXPAU_ContinuationTaskHandleBase@23@@Z 10095ab0 f i WinRTVFS.obj
 0002:00057d80       ?_RunTask@_TaskCollectionImpl@details@Concurrency@@SAXP6AXPAX@Z0W4_TaskInliningMode@23@@Z 10095d80 f i WinRTVFS.obj
 0002:00057ec0       ?_RunTaskContinuations@_Task_impl_base@details@Concurrency@@QAEXXZ 10095ec0 f i WinRTVFS.obj
 0002:00057f50       ?_ScheduleContinuation@_Task_impl_base@details@Concurrency@@QAEXPAU_ContinuationTaskHandleBase@23@@Z 10095f50 f i WinRTVFS.obj
 0002:00058370       ?_ScheduleContinuationTask@_Task_impl_base@details@Concurrency@@QAEXPAU_ContinuationTaskHandleBase@23@@Z 10096370 f i WinRTVFS.obj
 0002:000585b0       ?_ScheduleTask@_TaskCollectionImpl@details@Concurrency@@QAEXPAU_TaskProcHandle@23@W4_TaskInliningMode@23@@Z 100965b0 f i WinRTVFS.obj
 0002:00058750       ?_ScheduleTask@_Task_impl_base@details@Concurrency@@QAEXPAU_TaskProcHandle@23@W4_TaskInliningMode@23@@Z 10096750 f i WinRTVFS.obj
 0002:00058920       ?_ScheduleWithAutoInline@_AsyncTaskCollection@details@Concurrency@@QAE?AW4_TaskCollectionStatus@23@PAV_UnrealizedChore@23@W4_TaskInliningMode@23@@Z 10096920 f i WinRTVFS.obj
 0002:00058b40       ?_Set@?$_Func_class@EE@std@@AAEXPAV?$_Func_base@EE@2@@Z 10096b40 f i WinRTVFS.obj
 0002:00058b90       ?_Set@?$_Func_class@X$$$V@std@@AAEXPAV?$_Func_base@X$$$V@2@@Z 10096b90 f i WinRTVFS.obj
 0002:00058be0       ?_Set@?$_Func_class@XABH@std@@AAEXPAV?$_Func_base@XABH@2@@Z 10096be0 f i WinRTVFS.obj
 0002:00058c30       ?_Set@?$_Func_class@XPAV?$message@H@Concurrency@@@std@@AAEXPAV?$_Func_base@XPAV?$message@H@Concurrency@@@2@@Z 10096c30 f i WinRTVFS.obj
 0002:00058c80       ?_SetRuntimeOwnsLifetime@_UnrealizedChore@details@Concurrency@@QAEX_N@Z 10096c80 f i WinRTVFS.obj
 0002:00058cd0       ?_SetScheduled@_TaskCollectionImpl@details@Concurrency@@AAEXXZ 10096cd0 f i WinRTVFS.obj
 0002:00058d30       ?_SetTaskCreationCallstack@?$task@E@Concurrency@@QAEXABV_TaskCreationCallstack@details@2@@Z 10096d30 f i WinRTVFS.obj
 0002:00058da0       ?_SetTaskCreationCallstack@?$task@I@Concurrency@@QAEXABV_TaskCreationCallstack@details@2@@Z 10096da0 f i WinRTVFS.obj
 0002:00058e10       ?_SetTaskCreationCallstack@?$task@P$AAUIBuffer@Streams@Storage@Windows@@@Concurrency@@QAEXABV_TaskCreationCallstack@details@2@@Z 10096e10 f i WinRTVFS.obj
 0002:00058e80       ?_SetTaskCreationCallstack@?$task@P$AAUIRandomAccessStream@Streams@Storage@Windows@@@Concurrency@@QAEXABV_TaskCreationCallstack@details@2@@Z 10096e80 f i WinRTVFS.obj
 0002:00058ef0       ?_SetTaskCreationCallstack@?$task@P$AAVStorageFile@Storage@Windows@@@Concurrency@@QAEXABV_TaskCreationCallstack@details@2@@Z 10096ef0 f i WinRTVFS.obj
 0002:00058f60       ?_SetTaskCreationCallstack@?$task@P$AAVStorageFolder@Storage@Windows@@@Concurrency@@QAEXABV_TaskCreationCallstack@details@2@@Z 10096f60 f i WinRTVFS.obj
 0002:00058fd0       ?_SetTaskCreationCallstack@?$task@X@Concurrency@@QAEXABV_TaskCreationCallstack@details@2@@Z 10096fd0 f i WinRTVFS.obj
 0002:00059030       ?_SetTaskCreationCallstack@?$task@_N@Concurrency@@QAEXABV_TaskCreationCallstack@details@2@@Z 10097030 f i WinRTVFS.obj
 0002:000590a0       ?_SetTaskCreationCallstack@_Task_impl_base@details@Concurrency@@QAEXABV_TaskCreationCallstack@23@@Z 100970a0 f i WinRTVFS.obj
 0002:00059100       ?_SetUnwrappedAsyncOp@?$_Task_impl@E@details@Concurrency@@QAEXP$AAU?$IAsyncOperation@E@Foundation@Windows@@@Z 10097100 f i WinRTVFS.obj
 0002:000592f0       ?_SetUnwrappedAsyncOp@?$_Task_impl@I@details@Concurrency@@QAEXP$AAU?$IAsyncOperation@I@Foundation@Windows@@@Z 100972f0 f i WinRTVFS.obj
 0002:000594e0       ?_SetUnwrappedAsyncOp@?$_Task_impl@P$AAUIBuffer@Streams@Storage@Windows@@@details@Concurrency@@QAEXP$AAU?$IAsyncOperation@P$AAUIBuffer@Streams@Storage@Windows@@@Foundation@Windows@@@Z 100974e0 f i WinRTVFS.obj
 0002:000596d0       ?_SetUnwrappedAsyncOp@?$_Task_impl@P$AAUIRandomAccessStream@Streams@Storage@Windows@@@details@Concurrency@@QAEXP$AAU?$IAsyncOperation@P$AAUIRandomAccessStream@Streams@Storage@Windows@@@Foundation@Windows@@@Z 100976d0 f i WinRTVFS.obj
 0002:000598c0       ?_SetUnwrappedAsyncOp@?$_Task_impl@P$AAVStorageFile@Storage@Windows@@@details@Concurrency@@QAEXP$AAU?$IAsyncOperation@P$AAVStorageFile@Storage@Windows@@@Foundation@Windows@@@Z 100978c0 f i WinRTVFS.obj
 0002:00059ab0       ?_SetUnwrappedAsyncOp@?$_Task_impl@P$AAVStorageFolder@Storage@Windows@@@details@Concurrency@@QAEXP$AAU?$IAsyncOperation@P$AAVStorageFolder@Storage@Windows@@@Foundation@Windows@@@Z 10097ab0 f i WinRTVFS.obj
 0002:00059ca0       ?_SetUnwrappedAsyncOp@?$_Task_impl@_N@details@Concurrency@@QAEXP$AAU?$IAsyncOperation@_N@Foundation@Windows@@@Z 10097ca0 f i WinRTVFS.obj
 0002:00059e90       ?_ShouldInline@_StackGuard@details@Concurrency@@QBE_NW4_TaskInliningMode@23@@Z 10097e90 f i WinRTVFS.obj
 0002:00059f00       ?_Size@?$_Dynamic_array@PAV?$ISource@H@Concurrency@@@details@Concurrency@@QBEIXZ 10097f00 f i WinRTVFS.obj
 0002:00059f40       ?_Store_relaxed_4@std@@YAXPCKK@Z 10097f40 f i WinRTVFS.obj
 0002:00059f80       ?_Store_release_4@std@@YAXPCKK@Z 10097f80 f i WinRTVFS.obj
 0002:00059fc0       ?_Store_seq_cst_4@std@@YAXPCKK@Z 10097fc0 f i WinRTVFS.obj
 0002:0005a000       ?_Swap@?$_Dynamic_array@PAV?$ISource@H@Concurrency@@@details@Concurrency@@QAEXAAV123@@Z 10098000 f i WinRTVFS.obj
 0002:0005a0b0       ?_Swap@?$_Ptr_base@U?$_Task_completion_event_impl@E@details@Concurrency@@@std@@QAEXAAV12@@Z 100980b0 f i WinRTVFS.obj
 0002:0005a130       ?_Swap@?$_Ptr_base@U?$_Task_impl@E@details@Concurrency@@@std@@QAEXAAV12@@Z 10098130 f i WinRTVFS.obj
 0002:0005a1b0       ?_Swap@?$_Ptr_base@U?$_Task_impl@I@details@Concurrency@@@std@@QAEXAAV12@@Z 100981b0 f i WinRTVFS.obj
 0002:0005a230       ?_Swap@?$_Ptr_base@U?$_Task_impl@P$AAUIBuffer@Streams@Storage@Windows@@@details@Concurrency@@@std@@QAEXAAV12@@Z 10098230 f i WinRTVFS.obj
 0002:0005a2b0       ?_Swap@?$_Ptr_base@U?$_Task_impl@P$AAUIRandomAccessStream@Streams@Storage@Windows@@@details@Concurrency@@@std@@QAEXAAV12@@Z 100982b0 f i WinRTVFS.obj
 0002:0005a330       ?_Swap@?$_Ptr_base@U?$_Task_impl@P$AAVStorageFile@Storage@Windows@@@details@Concurrency@@@std@@QAEXAAV12@@Z 10098330 f i WinRTVFS.obj
 0002:0005a3b0       ?_Swap@?$_Ptr_base@U?$_Task_impl@P$AAVStorageFolder@Storage@Windows@@@details@Concurrency@@@std@@QAEXAAV12@@Z 100983b0 f i WinRTVFS.obj
 0002:0005a430       ?_Swap@?$_Ptr_base@U?$_Task_impl@_N@details@Concurrency@@@std@@QAEXAAV12@@Z 10098430 f i WinRTVFS.obj
 0002:0005a4b0       ?_Swap@?$_Ptr_base@U_ExceptionHolder@details@Concurrency@@@std@@QAEXAAV12@@Z 100984b0 f i WinRTVFS.obj
 0002:0005a530       ?_Swap@?$_Ptr_base@Uscheduler_interface@Concurrency@@@std@@QAEXAAV12@@Z 10098530 f i WinRTVFS.obj
 0002:0005a5b0       ?_Swap_alloc@?$_Vector_alloc@$0A@U?$_Vec_base_types@V?$shared_ptr@U?$_Task_impl@E@details@Concurrency@@@std@@V?$allocator@V?$shared_ptr@U?$_Task_impl@E@details@Concurrency@@@std@@@2@@std@@@std@@QAEXAAV12@@Z 100985b0 f i WinRTVFS.obj
 0002:0005a610       ?_SyncCancelAndPropagateException@?$_ContinuationTaskHandle@XXV<lambda_9fc58f08a03183e50e06176727aeb396>@@U?$integral_constant@_N$0A@@std@@U_TypeSelectorNoAsync@details@Concurrency@@@?$task@E@Concurrency@@QBEXXZ 10098610 f i WinRTVFS.obj
 0002:0005a6c0       ?_Sync_send_helper@?$ordered_message_processor@H@Concurrency@@AAEXPAV?$message@H@2@@Z 100986c0 f i WinRTVFS.obj
 0002:0005a880       ?_Target_type@?$_Func_impl@U?$_Callable_obj@V<lambda_02d862f9cfc639ff7c37ca52d43e6a8c>@@$0A@@std@@V?$allocator@V?$_Func_class@X$$$V@std@@@2@X$$$V@std@@UBEABVtype_info@@XZ 10098880 f i WinRTVFS.obj
 0002:0005a8c0       ?_Target_type@?$_Func_impl@U?$_Callable_obj@V<lambda_095a938ce4c5765dcc6b67f548aeb9c7>@@$0A@@std@@V?$allocator@V?$_Func_class@X$$$V@std@@@2@X$$$V@std@@UBEABVtype_info@@XZ 100988c0 f i WinRTVFS.obj
 0002:0005a900       ?_Target_type@?$_Func_impl@U?$_Callable_obj@V<lambda_0b7f78ec4ced38495cec46e0d346e0b9>@@$0A@@std@@V?$allocator@V?$_Func_class@X$$$V@std@@@2@X$$$V@std@@UBEABVtype_info@@XZ 10098900 f i WinRTVFS.obj
 0002:0005a940       ?_Target_type@?$_Func_impl@U?$_Callable_obj@V<lambda_0fe479da16d43edb8e9a254c493d643e>@@$0A@@std@@V?$allocator@V?$_Func_class@X$$$V@std@@@2@X$$$V@std@@UBEABVtype_info@@XZ 10098940 f i WinRTVFS.obj
 0002:0005a980       ?_Target_type@?$_Func_impl@U?$_Callable_obj@V<lambda_1a93da980d6fe77644a4eefc4e1ad756>@@$0A@@std@@V?$allocator@V?$_Func_class@XABH@std@@@2@XABH@std@@UBEABVtype_info@@XZ 10098980 f i WinRTVFS.obj
 0002:0005a9c0       ?_Target_type@?$_Func_impl@U?$_Callable_obj@V<lambda_295bc5f846209cba149a5e74d0d63a72>@@$0A@@std@@V?$allocator@V?$_Func_class@XPAV?$message@H@Concurrency@@@std@@@2@XPAV?$message@H@Concurrency@@@std@@UBEABVtype_info@@XZ 100989c0 f i WinRTVFS.obj
 0002:0005aa00       ?_Target_type@?$_Func_impl@U?$_Callable_obj@V<lambda_364e75aa895e992ae8821732ca646aa2>@@$0A@@std@@V?$allocator@V?$_Func_class@X$$$V@std@@@2@X$$$V@std@@UBEABVtype_info@@XZ 10098a00 f i WinRTVFS.obj
 0002:0005aa40       ?_Target_type@?$_Func_impl@U?$_Callable_obj@V<lambda_39cde079c01d1b5b9307ff255a1ccdd9>@@$0A@@std@@V?$allocator@V?$_Func_class@EE@std@@@2@EE@std@@UBEABVtype_info@@XZ 10098a40 f i WinRTVFS.obj
 0002:0005aa80       ?_Target_type@?$_Func_impl@U?$_Callable_obj@V<lambda_528650821c608ced6534641e311542a5>@@$0A@@std@@V?$allocator@V?$_Func_class@X$$$V@std@@@2@X$$$V@std@@UBEABVtype_info@@XZ 10098a80 f i WinRTVFS.obj
 0002:0005aac0       ?_Target_type@?$_Func_impl@U?$_Callable_obj@V<lambda_579ccd68d569251046038e8620afec85>@@$0A@@std@@V?$allocator@V?$_Func_class@XPAV?$message@H@Concurrency@@@std@@@2@XPAV?$message@H@Concurrency@@@std@@UBEABVtype_info@@XZ 10098ac0 f i WinRTVFS.obj
 0002:0005ab00       ?_Target_type@?$_Func_impl@U?$_Callable_obj@V<lambda_9fc58f08a03183e50e06176727aeb396>@@$0A@@std@@V?$allocator@V?$_Func_class@X$$$V@std@@@2@X$$$V@std@@UBEABVtype_info@@XZ 10098b00 f i WinRTVFS.obj
 0002:0005ab40       ?_Target_type@?$_Func_impl@U?$_Callable_obj@V<lambda_a66b3ee15e662226a0b0b15ae647d32f>@@$0A@@std@@V?$allocator@V?$_Func_class@X$$$V@std@@@2@X$$$V@std@@UBEABVtype_info@@XZ 10098b40 f i WinRTVFS.obj
 0002:0005ab80       ?_Target_type@?$_Func_impl@U?$_Callable_obj@V<lambda_c1a554f2383dae03f169289aed8c4103>@@$0A@@std@@V?$allocator@V?$_Func_class@X$$$V@std@@@2@X$$$V@std@@UBEABVtype_info@@XZ 10098b80 f i WinRTVFS.obj
 0002:0005abc0       ?_Target_type@?$_Func_impl@U?$_Callable_obj@V<lambda_c28a53003ed51cdfe295a7d756f98c2f>@@$0A@@std@@V?$allocator@V?$_Func_class@XPAV?$message@H@Concurrency@@@std@@@2@XPAV?$message@H@Concurrency@@@std@@UBEABVtype_info@@XZ 10098bc0 f i WinRTVFS.obj
 0002:0005ac00       ?_Target_type@?$_Func_impl@U?$_Callable_obj@V<lambda_e7ef5f1e4e1eca0ae8efc6086cf9f417>@@$0A@@std@@V?$allocator@V?$_Func_class@X$$$V@std@@@2@X$$$V@std@@UBEABVtype_info@@XZ 10098c00 f i WinRTVFS.obj
 0002:0005ac40       ?_TaskInitAsyncOp@?$task@E@Concurrency@@AAEXP$AAU?$IAsyncOperation@E@Foundation@Windows@@@Z 10098c40 f i WinRTVFS.obj
 0002:0005acc0       ?_TaskInitAsyncOp@?$task@I@Concurrency@@AAEXP$AAU?$IAsyncOperation@I@Foundation@Windows@@@Z 10098cc0 f i WinRTVFS.obj
 0002:0005ad40       ?_TaskInitAsyncOp@?$task@P$AAUIBuffer@Streams@Storage@Windows@@@Concurrency@@AAEXP$AAU?$IAsyncOperation@P$AAUIBuffer@Streams@Storage@Windows@@@Foundation@Windows@@@Z 10098d40 f i WinRTVFS.obj
 0002:0005adc0       ?_TaskInitAsyncOp@?$task@P$AAUIRandomAccessStream@Streams@Storage@Windows@@@Concurrency@@AAEXP$AAU?$IAsyncOperation@P$AAUIRandomAccessStream@Streams@Storage@Windows@@@Foundation@Windows@@@Z 10098dc0 f i WinRTVFS.obj
 0002:0005ae40       ?_TaskInitAsyncOp@?$task@P$AAVStorageFile@Storage@Windows@@@Concurrency@@AAEXP$AAU?$IAsyncOperation@P$AAVStorageFile@Storage@Windows@@@Foundation@Windows@@@Z 10098e40 f i WinRTVFS.obj
 0002:0005aec0       ?_TaskInitAsyncOp@?$task@P$AAVStorageFolder@Storage@Windows@@@Concurrency@@AAEXP$AAU?$IAsyncOperation@P$AAVStorageFolder@Storage@Windows@@@Foundation@Windows@@@Z 10098ec0 f i WinRTVFS.obj
 0002:0005af40       ?_TaskInitAsyncOp@?$task@_N@Concurrency@@AAEXP$AAU?$IAsyncOperation@_N@Foundation@Windows@@@Z 10098f40 f i WinRTVFS.obj
 0002:0005afc0       ?_TaskInitNoFunctor@?$task@E@Concurrency@@AAEXAAV?$task_completion_event@E@2@@Z 10098fc0 f i WinRTVFS.obj
 0002:0005b020       ?_TaskInitNoFunctor@?$task@P$AAUIRandomAccessStream@Streams@Storage@Windows@@@Concurrency@@AAEXP$AAU?$IAsyncOperation@P$AAUIRandomAccessStream@Streams@Storage@Windows@@@Foundation@Windows@@@Z 10099020 f i WinRTVFS.obj
 0002:0005b080       ?_TaskInitNoFunctor@?$task@P$AAVStorageFile@Storage@Windows@@@Concurrency@@AAEXP$AAU?$IAsyncOperation@P$AAVStorageFile@Storage@Windows@@@Foundation@Windows@@@Z 10099080 f i WinRTVFS.obj
 0002:0005b0e0       ?_TaskInitNoFunctor@?$task@P$AAVStorageFolder@Storage@Windows@@@Concurrency@@AAEXP$AAU?$IAsyncOperation@P$AAVStorageFolder@Storage@Windows@@@Foundation@Windows@@@Z 100990e0 f i WinRTVFS.obj
 0002:0005b140       ?_TaskInitNoFunctor@?$task@X@Concurrency@@AAEXAAV?$task_completion_event@X@2@@Z 10099140 f i WinRTVFS.obj
 0002:0005b1a0       ?_TaskInitNoFunctor@?$task@X@Concurrency@@AAEXP$AAUIAsyncAction@Foundation@Windows@@@Z 100991a0 f i WinRTVFS.obj
 0002:0005b2d0       ?_TaskInitNoFunctor@?$task@_N@Concurrency@@AAEXP$AAU?$IAsyncOperation@_N@Foundation@Windows@@@Z 100992d0 f i WinRTVFS.obj
 0002:0005b330       ?_Tidy@?$_Func_class@EE@std@@IAEXXZ 10099330 f i WinRTVFS.obj
 0002:0005b3e0       ?_Tidy@?$_Func_class@X$$$V@std@@IAEXXZ 100993e0 f i WinRTVFS.obj
 0002:0005b490       ?_Tidy@?$_Func_class@XABH@std@@IAEXXZ 10099490 f i WinRTVFS.obj
 0002:0005b540       ?_Tidy@?$_Func_class@XPAV?$message@H@Concurrency@@@std@@IAEXXZ 10099540 f i WinRTVFS.obj
 0002:0005b5f0       ?_Tidy@?$_Func_class@_NABH@std@@IAEXXZ 100995f0 f i WinRTVFS.obj
 0002:0005b6a0       ?_Tidy@?$vector@PAXV?$allocator@PAX@std@@@std@@IAEXXZ 100996a0 f i WinRTVFS.obj
 0002:0005b780       ?_Tidy@?$vector@V?$shared_ptr@U?$_Task_impl@E@details@Concurrency@@@std@@V?$allocator@V?$shared_ptr@U?$_Task_impl@E@details@Concurrency@@@std@@@2@@std@@IAEXXZ 10099780 f i WinRTVFS.obj
 0002:0005b860       ?_To_array@?$source_link_manager@V?$multi_link_registry@V?$ISource@H@Concurrency@@@Concurrency@@@Concurrency@@AAEXAAV?$_Dynamic_array@PAV?$ISource@H@Concurrency@@@details@2@@Z 10099860 f i WinRTVFS.obj
 0002:0005ba10       ?_TransitionedToStarted@?$_Task_impl@E@details@Concurrency@@QAE_NXZ 10099a10 f i WinRTVFS.obj
 0002:0005bc20       ?_Unchecked@?$_Vector_const_iterator@V?$_Vector_val@U?$_Simple_types@PAX@std@@@std@@@std@@QBEPBQAXXZ 10099c20 f i WinRTVFS.obj
 0002:0005bc60       ?_Unused_capacity@?$vector@PAXV?$allocator@PAX@std@@@std@@QBEIXZ 10099c60 f i WinRTVFS.obj
 0002:0005bcb0       ?_Unused_capacity@?$vector@V?$shared_ptr@U?$_Task_impl@E@details@Concurrency@@@std@@V?$allocator@V?$shared_ptr@U?$_Task_impl@E@details@Concurrency@@@std@@@2@@std@@QBEIXZ 10099cb0 f i WinRTVFS.obj
 0002:0005bd00       ?_Validate_compare_exchange_memory_order@std@@YAXW4memory_order@1@0@Z 10099d00 f i WinRTVFS.obj
 0002:0005c0c0       ?_Wait@_TaskCollectionImpl@details@Concurrency@@QAEXXZ 1009a0c0 f i WinRTVFS.obj
 0002:0005c130       ?_Wait@_Task_impl_base@details@Concurrency@@QAE?AW4task_group_status@3@XZ 1009a130 f i WinRTVFS.obj
 0002:0005c500       ?_Wait_on_ref@?$source_block@V?$single_link_registry@V?$ITarget@H@Concurrency@@@Concurrency@@V?$ordered_message_processor@H@2@@Concurrency@@AAEXJ@Z 1009a500 f i WinRTVFS.obj
 0002:0005c5f0       ?_Xlen@?$vector@PAXV?$allocator@PAX@std@@@std@@IBEXXZ 1009a5f0 f i WinRTVFS.obj
 0002:0005c650       ?_Xlen@?$vector@V?$shared_ptr@U?$_Task_impl@E@details@Concurrency@@@std@@V?$allocator@V?$shared_ptr@U?$_Task_impl@E@details@Concurrency@@@std@@@2@@std@@IBEXXZ 1009a650 f i WinRTVFS.obj
 0002:0005c6b0       ?__abi_AddRef@?$AsyncOperationCompletedHandler@E@Foundation@Windows@@U$AAGKXZ 1009a6b0 f i WinRTVFS.obj
 0002:0005c707       ?__abi_AddRef@?$AsyncOperationCompletedHandler@E@Foundation@Windows@@W3$AAGKXZ 1009a707 f i WinRTVFS.obj
 0002:0005c713       ?__abi_AddRef@?$AsyncOperationCompletedHandler@E@Foundation@Windows@@W7$AAGKXZ 1009a713 f i WinRTVFS.obj
 0002:0005c720       ?__abi_AddRef@?$AsyncOperationCompletedHandler@I@Foundation@Windows@@U$AAGKXZ 1009a720 f i WinRTVFS.obj
 0002:0005c777       ?__abi_AddRef@?$AsyncOperationCompletedHandler@I@Foundation@Windows@@W3$AAGKXZ 1009a777 f i WinRTVFS.obj
 0002:0005c783       ?__abi_AddRef@?$AsyncOperationCompletedHandler@I@Foundation@Windows@@W7$AAGKXZ 1009a783 f i WinRTVFS.obj
 0002:0005c790       ?__abi_AddRef@?$AsyncOperationCompletedHandler@P$AAUIBuffer@Streams@Storage@Windows@@@Foundation@Windows@@U$AAGKXZ 1009a790 f i WinRTVFS.obj
 0002:0005c7e7       ?__abi_AddRef@?$AsyncOperationCompletedHandler@P$AAUIBuffer@Streams@Storage@Windows@@@Foundation@Windows@@W3$AAGKXZ 1009a7e7 f i WinRTVFS.obj
 0002:0005c7f3       ?__abi_AddRef@?$AsyncOperationCompletedHandler@P$AAUIBuffer@Streams@Storage@Windows@@@Foundation@Windows@@W7$AAGKXZ 1009a7f3 f i WinRTVFS.obj
 0002:0005c800       ?__abi_AddRef@?$AsyncOperationCompletedHandler@P$AAUIRandomAccessStream@Streams@Storage@Windows@@@Foundation@Windows@@U$AAGKXZ 1009a800 f i WinRTVFS.obj
 0002:0005c857       ?__abi_AddRef@?$AsyncOperationCompletedHandler@P$AAUIRandomAccessStream@Streams@Storage@Windows@@@Foundation@Windows@@W3$AAGKXZ 1009a857 f i WinRTVFS.obj
 0002:0005c863       ?__abi_AddRef@?$AsyncOperationCompletedHandler@P$AAUIRandomAccessStream@Streams@Storage@Windows@@@Foundation@Windows@@W7$AAGKXZ 1009a863 f i WinRTVFS.obj
 0002:0005c870       ?__abi_AddRef@?$AsyncOperationCompletedHandler@P$AAVStorageFile@Storage@Windows@@@Foundation@Windows@@U$AAGKXZ 1009a870 f i WinRTVFS.obj
 0002:0005c8c7       ?__abi_AddRef@?$AsyncOperationCompletedHandler@P$AAVStorageFile@Storage@Windows@@@Foundation@Windows@@W3$AAGKXZ 1009a8c7 f i WinRTVFS.obj
 0002:0005c8d3       ?__abi_AddRef@?$AsyncOperationCompletedHandler@P$AAVStorageFile@Storage@Windows@@@Foundation@Windows@@W7$AAGKXZ 1009a8d3 f i WinRTVFS.obj
 0002:0005c8e0       ?__abi_AddRef@?$AsyncOperationCompletedHandler@P$AAVStorageFolder@Storage@Windows@@@Foundation@Windows@@U$AAGKXZ 1009a8e0 f i WinRTVFS.obj
 0002:0005c937       ?__abi_AddRef@?$AsyncOperationCompletedHandler@P$AAVStorageFolder@Storage@Windows@@@Foundation@Windows@@W3$AAGKXZ 1009a937 f i WinRTVFS.obj
 0002:0005c943       ?__abi_AddRef@?$AsyncOperationCompletedHandler@P$AAVStorageFolder@Storage@Windows@@@Foundation@Windows@@W7$AAGKXZ 1009a943 f i WinRTVFS.obj
 0002:0005c950       ?__abi_AddRef@?$AsyncOperationCompletedHandler@_N@Foundation@Windows@@U$AAGKXZ 1009a950 f i WinRTVFS.obj
 0002:0005c9a7       ?__abi_AddRef@?$AsyncOperationCompletedHandler@_N@Foundation@Windows@@W3$AAGKXZ 1009a9a7 f i WinRTVFS.obj
 0002:0005c9b3       ?__abi_AddRef@?$AsyncOperationCompletedHandler@_N@Foundation@Windows@@W7$AAGKXZ 1009a9b3 f i WinRTVFS.obj
 0002:0005c9c0       ?__abi_AddRef@?$AsyncOperationWithProgressCompletedHandler@II@Foundation@Windows@@U$AAGKXZ 1009a9c0 f i WinRTVFS.obj
 0002:0005ca17       ?__abi_AddRef@?$AsyncOperationWithProgressCompletedHandler@II@Foundation@Windows@@W3$AAGKXZ 1009aa17 f i WinRTVFS.obj
 0002:0005ca23       ?__abi_AddRef@?$AsyncOperationWithProgressCompletedHandler@II@Foundation@Windows@@W7$AAGKXZ 1009aa23 f i WinRTVFS.obj
 0002:0005ca30       ?__abi_AddRef@?$AsyncOperationWithProgressCompletedHandler@P$AAUIBuffer@Streams@Storage@Windows@@I@Foundation@Windows@@U$AAGKXZ 1009aa30 f i WinRTVFS.obj
 0002:0005ca87       ?__abi_AddRef@?$AsyncOperationWithProgressCompletedHandler@P$AAUIBuffer@Streams@Storage@Windows@@I@Foundation@Windows@@W3$AAGKXZ 1009aa87 f i WinRTVFS.obj
 0002:0005ca93       ?__abi_AddRef@?$AsyncOperationWithProgressCompletedHandler@P$AAUIBuffer@Streams@Storage@Windows@@I@Foundation@Windows@@W7$AAGKXZ 1009aa93 f i WinRTVFS.obj
 0002:0005caa0       ?__abi_AddRef@?QObject@Platform@@?$_IAsyncOperationWithProgressToAsyncOperationConverter@II@details@Concurrency@@U$AAGKXZ 1009aaa0 f i WinRTVFS.obj
 0002:0005caf7       ?__abi_AddRef@?QObject@Platform@@?$_IAsyncOperationWithProgressToAsyncOperationConverter@II@details@Concurrency@@W3$AAGKXZ 1009aaf7 f i WinRTVFS.obj
 0002:0005cb03       ?__abi_AddRef@?QObject@Platform@@?$_IAsyncOperationWithProgressToAsyncOperationConverter@II@details@Concurrency@@W7$AAGKXZ 1009ab03 f i WinRTVFS.obj
 0002:0005cb0f       ?__abi_AddRef@?QObject@Platform@@?$_IAsyncOperationWithProgressToAsyncOperationConverter@II@details@Concurrency@@WBA@$AAGKXZ 1009ab0f f i WinRTVFS.obj
 0002:0005cb1b       ?__abi_AddRef@?QObject@Platform@@?$_IAsyncOperationWithProgressToAsyncOperationConverter@II@details@Concurrency@@WCM@$AAGKXZ 1009ab1b f i WinRTVFS.obj
 0002:0005cb27       ?__abi_AddRef@?QObject@Platform@@?$_IAsyncOperationWithProgressToAsyncOperationConverter@II@details@Concurrency@@WDA@$AAGKXZ 1009ab27 f i WinRTVFS.obj
 0002:0005cb33       ?__abi_AddRef@?QObject@Platform@@?$_IAsyncOperationWithProgressToAsyncOperationConverter@II@details@Concurrency@@WM@$AAGKXZ 1009ab33 f i WinRTVFS.obj
 0002:0005cb40       ?__abi_AddRef@?QObject@Platform@@?$_IAsyncOperationWithProgressToAsyncOperationConverter@P$AAUIBuffer@Streams@Storage@Windows@@I@details@Concurrency@@U$AAGKXZ 1009ab40 f i WinRTVFS.obj
 0002:0005cb97       ?__abi_AddRef@?QObject@Platform@@?$_IAsyncOperationWithProgressToAsyncOperationConverter@P$AAUIBuffer@Streams@Storage@Windows@@I@details@Concurrency@@W3$AAGKXZ 1009ab97 f i WinRTVFS.obj
 0002:0005cba3       ?__abi_AddRef@?QObject@Platform@@?$_IAsyncOperationWithProgressToAsyncOperationConverter@P$AAUIBuffer@Streams@Storage@Windows@@I@details@Concurrency@@W7$AAGKXZ 1009aba3 f i WinRTVFS.obj
 0002:0005cbaf       ?__abi_AddRef@?QObject@Platform@@?$_IAsyncOperationWithProgressToAsyncOperationConverter@P$AAUIBuffer@Streams@Storage@Windows@@I@details@Concurrency@@WBA@$AAGKXZ 1009abaf f i WinRTVFS.obj
 0002:0005cbbb       ?__abi_AddRef@?QObject@Platform@@?$_IAsyncOperationWithProgressToAsyncOperationConverter@P$AAUIBuffer@Streams@Storage@Windows@@I@details@Concurrency@@WCM@$AAGKXZ 1009abbb f i WinRTVFS.obj
 0002:0005cbc7       ?__abi_AddRef@?QObject@Platform@@?$_IAsyncOperationWithProgressToAsyncOperationConverter@P$AAUIBuffer@Streams@Storage@Windows@@I@details@Concurrency@@WDA@$AAGKXZ 1009abc7 f i WinRTVFS.obj
 0002:0005cbd3       ?__abi_AddRef@?QObject@Platform@@?$_IAsyncOperationWithProgressToAsyncOperationConverter@P$AAUIBuffer@Streams@Storage@Windows@@I@details@Concurrency@@WM@$AAGKXZ 1009abd3 f i WinRTVFS.obj
 0002:0005cbe0       ?__abi_AddRef@?QObject@Platform@@_IAsyncActionToAsyncOperationConverter@details@Concurrency@@U$AAGKXZ 1009abe0 f i WinRTVFS.obj
 0002:0005cc37       ?__abi_AddRef@?QObject@Platform@@_IAsyncActionToAsyncOperationConverter@details@Concurrency@@W3$AAGKXZ 1009ac37 f i WinRTVFS.obj
 0002:0005cc43       ?__abi_AddRef@?QObject@Platform@@_IAsyncActionToAsyncOperationConverter@details@Concurrency@@W7$AAGKXZ 1009ac43 f i WinRTVFS.obj
 0002:0005cc4f       ?__abi_AddRef@?QObject@Platform@@_IAsyncActionToAsyncOperationConverter@details@Concurrency@@WBA@$AAGKXZ 1009ac4f f i WinRTVFS.obj
 0002:0005cc5b       ?__abi_AddRef@?QObject@Platform@@_IAsyncActionToAsyncOperationConverter@details@Concurrency@@WCM@$AAGKXZ 1009ac5b f i WinRTVFS.obj
 0002:0005cc67       ?__abi_AddRef@?QObject@Platform@@_IAsyncActionToAsyncOperationConverter@details@Concurrency@@WDA@$AAGKXZ 1009ac67 f i WinRTVFS.obj
 0002:0005cc73       ?__abi_AddRef@?QObject@Platform@@_IAsyncActionToAsyncOperationConverter@details@Concurrency@@WM@$AAGKXZ 1009ac73 f i WinRTVFS.obj
 0002:0005cc80       ?__abi_AddRef@AsyncActionCompletedHandler@Foundation@Windows@@U$AAGKXZ 1009ac80 f i WinRTVFS.obj
 0002:0005ccd7       ?__abi_AddRef@AsyncActionCompletedHandler@Foundation@Windows@@W3$AAGKXZ 1009acd7 f i WinRTVFS.obj
 0002:0005cce3       ?__abi_AddRef@AsyncActionCompletedHandler@Foundation@Windows@@W7$AAGKXZ 1009ace3 f i WinRTVFS.obj
 0002:0005ccf0       ?__abi_GetIids@?$AsyncOperationCompletedHandler@E@Foundation@Windows@@U$AAGJPAKPAPAVGuid@Platform@@@Z 1009acf0 f i WinRTVFS.obj
 0002:0005cdef       ?__abi_GetIids@?$AsyncOperationCompletedHandler@E@Foundation@Windows@@W3$AAGJPAKPAPAVGuid@Platform@@@Z 1009adef f i WinRTVFS.obj
 0002:0005cdfb       ?__abi_GetIids@?$AsyncOperationCompletedHandler@E@Foundation@Windows@@W7$AAGJPAKPAPAVGuid@Platform@@@Z 1009adfb f i WinRTVFS.obj
 0002:0005ce10       ?__abi_GetIids@?$AsyncOperationCompletedHandler@I@Foundation@Windows@@U$AAGJPAKPAPAVGuid@Platform@@@Z 1009ae10 f i WinRTVFS.obj
 0002:0005cf0f       ?__abi_GetIids@?$AsyncOperationCompletedHandler@I@Foundation@Windows@@W3$AAGJPAKPAPAVGuid@Platform@@@Z 1009af0f f i WinRTVFS.obj
 0002:0005cf1b       ?__abi_GetIids@?$AsyncOperationCompletedHandler@I@Foundation@Windows@@W7$AAGJPAKPAPAVGuid@Platform@@@Z 1009af1b f i WinRTVFS.obj
 0002:0005cf30       ?__abi_GetIids@?$AsyncOperationCompletedHandler@P$AAUIBuffer@Streams@Storage@Windows@@@Foundation@Windows@@U$AAGJPAKPAPAVGuid@Platform@@@Z 1009af30 f i WinRTVFS.obj
 0002:0005d02f       ?__abi_GetIids@?$AsyncOperationCompletedHandler@P$AAUIBuffer@Streams@Storage@Windows@@@Foundation@Windows@@W3$AAGJPAKPAPAVGuid@Platform@@@Z 1009b02f f i WinRTVFS.obj
 0002:0005d03b       ?__abi_GetIids@?$AsyncOperationCompletedHandler@P$AAUIBuffer@Streams@Storage@Windows@@@Foundation@Windows@@W7$AAGJPAKPAPAVGuid@Platform@@@Z 1009b03b f i WinRTVFS.obj
 0002:0005d050       ?__abi_GetIids@?$AsyncOperationCompletedHandler@P$AAUIRandomAccessStream@Streams@Storage@Windows@@@Foundation@Windows@@U$AAGJPAKPAPAVGuid@Platform@@@Z 1009b050 f i WinRTVFS.obj
 0002:0005d14f       ?__abi_GetIids@?$AsyncOperationCompletedHandler@P$AAUIRandomAccessStream@Streams@Storage@Windows@@@Foundation@Windows@@W3$AAGJPAKPAPAVGuid@Platform@@@Z 1009b14f f i WinRTVFS.obj
 0002:0005d15b       ?__abi_GetIids@?$AsyncOperationCompletedHandler@P$AAUIRandomAccessStream@Streams@Storage@Windows@@@Foundation@Windows@@W7$AAGJPAKPAPAVGuid@Platform@@@Z 1009b15b f i WinRTVFS.obj
 0002:0005d170       ?__abi_GetIids@?$AsyncOperationCompletedHandler@P$AAVStorageFile@Storage@Windows@@@Foundation@Windows@@U$AAGJPAKPAPAVGuid@Platform@@@Z 1009b170 f i WinRTVFS.obj
 0002:0005d26f       ?__abi_GetIids@?$AsyncOperationCompletedHandler@P$AAVStorageFile@Storage@Windows@@@Foundation@Windows@@W3$AAGJPAKPAPAVGuid@Platform@@@Z 1009b26f f i WinRTVFS.obj
 0002:0005d27b       ?__abi_GetIids@?$AsyncOperationCompletedHandler@P$AAVStorageFile@Storage@Windows@@@Foundation@Windows@@W7$AAGJPAKPAPAVGuid@Platform@@@Z 1009b27b f i WinRTVFS.obj
 0002:0005d290       ?__abi_GetIids@?$AsyncOperationCompletedHandler@P$AAVStorageFolder@Storage@Windows@@@Foundation@Windows@@U$AAGJPAKPAPAVGuid@Platform@@@Z 1009b290 f i WinRTVFS.obj
 0002:0005d38f       ?__abi_GetIids@?$AsyncOperationCompletedHandler@P$AAVStorageFolder@Storage@Windows@@@Foundation@Windows@@W3$AAGJPAKPAPAVGuid@Platform@@@Z 1009b38f f i WinRTVFS.obj
 0002:0005d39b       ?__abi_GetIids@?$AsyncOperationCompletedHandler@P$AAVStorageFolder@Storage@Windows@@@Foundation@Windows@@W7$AAGJPAKPAPAVGuid@Platform@@@Z 1009b39b f i WinRTVFS.obj
 0002:0005d3b0       ?__abi_GetIids@?$AsyncOperationCompletedHandler@_N@Foundation@Windows@@U$AAGJPAKPAPAVGuid@Platform@@@Z 1009b3b0 f i WinRTVFS.obj
 0002:0005d4af       ?__abi_GetIids@?$AsyncOperationCompletedHandler@_N@Foundation@Windows@@W3$AAGJPAKPAPAVGuid@Platform@@@Z 1009b4af f i WinRTVFS.obj
 0002:0005d4bb       ?__abi_GetIids@?$AsyncOperationCompletedHandler@_N@Foundation@Windows@@W7$AAGJPAKPAPAVGuid@Platform@@@Z 1009b4bb f i WinRTVFS.obj
 0002:0005d4d0       ?__abi_GetIids@?$AsyncOperationWithProgressCompletedHandler@II@Foundation@Windows@@U$AAGJPAKPAPAVGuid@Platform@@@Z 1009b4d0 f i WinRTVFS.obj
 0002:0005d5cf       ?__abi_GetIids@?$AsyncOperationWithProgressCompletedHandler@II@Foundation@Windows@@W3$AAGJPAKPAPAVGuid@Platform@@@Z 1009b5cf f i WinRTVFS.obj
 0002:0005d5db       ?__abi_GetIids@?$AsyncOperationWithProgressCompletedHandler@II@Foundation@Windows@@W7$AAGJPAKPAPAVGuid@Platform@@@Z 1009b5db f i WinRTVFS.obj
 0002:0005d5f0       ?__abi_GetIids@?$AsyncOperationWithProgressCompletedHandler@P$AAUIBuffer@Streams@Storage@Windows@@I@Foundation@Windows@@U$AAGJPAKPAPAVGuid@Platform@@@Z 1009b5f0 f i WinRTVFS.obj
 0002:0005d6ef       ?__abi_GetIids@?$AsyncOperationWithProgressCompletedHandler@P$AAUIBuffer@Streams@Storage@Windows@@I@Foundation@Windows@@W3$AAGJPAKPAPAVGuid@Platform@@@Z 1009b6ef f i WinRTVFS.obj
 0002:0005d6fb       ?__abi_GetIids@?$AsyncOperationWithProgressCompletedHandler@P$AAUIBuffer@Streams@Storage@Windows@@I@Foundation@Windows@@W7$AAGJPAKPAPAVGuid@Platform@@@Z 1009b6fb f i WinRTVFS.obj
 0002:0005d710       ?__abi_GetIids@?QObject@Platform@@?$_IAsyncOperationWithProgressToAsyncOperationConverter@II@details@Concurrency@@U$AAGJPAKPAPAVGuid@2@@Z 1009b710 f i WinRTVFS.obj
 0002:0005d84b       ?__abi_GetIids@?QObject@Platform@@?$_IAsyncOperationWithProgressToAsyncOperationConverter@II@details@Concurrency@@W3$AAGJPAKPAPAVGuid@2@@Z 1009b84b f i WinRTVFS.obj
 0002:0005d857       ?__abi_GetIids@?QObject@Platform@@?$_IAsyncOperationWithProgressToAsyncOperationConverter@II@details@Concurrency@@W7$AAGJPAKPAPAVGuid@2@@Z 1009b857 f i WinRTVFS.obj
 0002:0005d863       ?__abi_GetIids@?QObject@Platform@@?$_IAsyncOperationWithProgressToAsyncOperationConverter@II@details@Concurrency@@WBA@$AAGJPAKPAPAVGuid@2@@Z 1009b863 f i WinRTVFS.obj
 0002:0005d86f       ?__abi_GetIids@?QObject@Platform@@?$_IAsyncOperationWithProgressToAsyncOperationConverter@II@details@Concurrency@@WDA@$AAGJPAKPAPAVGuid@2@@Z 1009b86f f i WinRTVFS.obj
 0002:0005d87b       ?__abi_GetIids@?QObject@Platform@@?$_IAsyncOperationWithProgressToAsyncOperationConverter@II@details@Concurrency@@WM@$AAGJPAKPAPAVGuid@2@@Z 1009b87b f i WinRTVFS.obj
 0002:0005d890       ?__abi_GetIids@?QObject@Platform@@?$_IAsyncOperationWithProgressToAsyncOperationConverter@P$AAUIBuffer@Streams@Storage@Windows@@I@details@Concurrency@@U$AAGJPAKPAPAVGuid@2@@Z 1009b890 f i WinRTVFS.obj
 0002:0005d9cb       ?__abi_GetIids@?QObject@Platform@@?$_IAsyncOperationWithProgressToAsyncOperationConverter@P$AAUIBuffer@Streams@Storage@Windows@@I@details@Concurrency@@W3$AAGJPAKPAPAVGuid@2@@Z 1009b9cb f i WinRTVFS.obj
 0002:0005d9d7       ?__abi_GetIids@?QObject@Platform@@?$_IAsyncOperationWithProgressToAsyncOperationConverter@P$AAUIBuffer@Streams@Storage@Windows@@I@details@Concurrency@@W7$AAGJPAKPAPAVGuid@2@@Z 1009b9d7 f i WinRTVFS.obj
 0002:0005d9e3       ?__abi_GetIids@?QObject@Platform@@?$_IAsyncOperationWithProgressToAsyncOperationConverter@P$AAUIBuffer@Streams@Storage@Windows@@I@details@Concurrency@@WBA@$AAGJPAKPAPAVGuid@2@@Z 1009b9e3 f i WinRTVFS.obj
 0002:0005d9ef       ?__abi_GetIids@?QObject@Platform@@?$_IAsyncOperationWithProgressToAsyncOperationConverter@P$AAUIBuffer@Streams@Storage@Windows@@I@details@Concurrency@@WDA@$AAGJPAKPAPAVGuid@2@@Z 1009b9ef f i WinRTVFS.obj
 0002:0005d9fb       ?__abi_GetIids@?QObject@Platform@@?$_IAsyncOperationWithProgressToAsyncOperationConverter@P$AAUIBuffer@Streams@Storage@Windows@@I@details@Concurrency@@WM@$AAGJPAKPAPAVGuid@2@@Z 1009b9fb f i WinRTVFS.obj
 0002:0005da10       ?__abi_GetIids@?QObject@Platform@@_IAsyncActionToAsyncOperationConverter@details@Concurrency@@U$AAGJPAKPAPAVGuid@2@@Z 1009ba10 f i WinRTVFS.obj
 0002:0005db4b       ?__abi_GetIids@?QObject@Platform@@_IAsyncActionToAsyncOperationConverter@details@Concurrency@@W3$AAGJPAKPAPAVGuid@2@@Z 1009bb4b f i WinRTVFS.obj
 0002:0005db57       ?__abi_GetIids@?QObject@Platform@@_IAsyncActionToAsyncOperationConverter@details@Concurrency@@W7$AAGJPAKPAPAVGuid@2@@Z 1009bb57 f i WinRTVFS.obj
 0002:0005db63       ?__abi_GetIids@?QObject@Platform@@_IAsyncActionToAsyncOperationConverter@details@Concurrency@@WBA@$AAGJPAKPAPAVGuid@2@@Z 1009bb63 f i WinRTVFS.obj
 0002:0005db6f       ?__abi_GetIids@?QObject@Platform@@_IAsyncActionToAsyncOperationConverter@details@Concurrency@@WDA@$AAGJPAKPAPAVGuid@2@@Z 1009bb6f f i WinRTVFS.obj
 0002:0005db7b       ?__abi_GetIids@?QObject@Platform@@_IAsyncActionToAsyncOperationConverter@details@Concurrency@@WM@$AAGJPAKPAPAVGuid@2@@Z 1009bb7b f i WinRTVFS.obj
 0002:0005db90       ?__abi_GetIids@AsyncActionCompletedHandler@Foundation@Windows@@U$AAGJPAKPAPAVGuid@Platform@@@Z 1009bb90 f i WinRTVFS.obj
 0002:0005dc8f       ?__abi_GetIids@AsyncActionCompletedHandler@Foundation@Windows@@W3$AAGJPAKPAPAVGuid@Platform@@@Z 1009bc8f f i WinRTVFS.obj
 0002:0005dc9b       ?__abi_GetIids@AsyncActionCompletedHandler@Foundation@Windows@@W7$AAGJPAKPAPAVGuid@Platform@@@Z 1009bc9b f i WinRTVFS.obj
 0002:0005dcb0       ?__abi_GetRuntimeClassName@?$AsyncOperationCompletedHandler@E@Foundation@Windows@@U$AAGJPAPAUHSTRING__@@@Z 1009bcb0 f i WinRTVFS.obj
 0002:0005dd05       ?__abi_GetRuntimeClassName@?$AsyncOperationCompletedHandler@E@Foundation@Windows@@W3$AAGJPAPAUHSTRING__@@@Z 1009bd05 f i WinRTVFS.obj
 0002:0005dd11       ?__abi_GetRuntimeClassName@?$AsyncOperationCompletedHandler@E@Foundation@Windows@@W7$AAGJPAPAUHSTRING__@@@Z 1009bd11 f i WinRTVFS.obj
 0002:0005dd20       ?__abi_GetRuntimeClassName@?$AsyncOperationCompletedHandler@I@Foundation@Windows@@U$AAGJPAPAUHSTRING__@@@Z 1009bd20 f i WinRTVFS.obj
 0002:0005dd75       ?__abi_GetRuntimeClassName@?$AsyncOperationCompletedHandler@I@Foundation@Windows@@W3$AAGJPAPAUHSTRING__@@@Z 1009bd75 f i WinRTVFS.obj
 0002:0005dd81       ?__abi_GetRuntimeClassName@?$AsyncOperationCompletedHandler@I@Foundation@Windows@@W7$AAGJPAPAUHSTRING__@@@Z 1009bd81 f i WinRTVFS.obj
 0002:0005dd90       ?__abi_GetRuntimeClassName@?$AsyncOperationCompletedHandler@P$AAUIBuffer@Streams@Storage@Windows@@@Foundation@Windows@@U$AAGJPAPAUHSTRING__@@@Z 1009bd90 f i WinRTVFS.obj
 0002:0005dde5       ?__abi_GetRuntimeClassName@?$AsyncOperationCompletedHandler@P$AAUIBuffer@Streams@Storage@Windows@@@Foundation@Windows@@W3$AAGJPAPAUHSTRING__@@@Z 1009bde5 f i WinRTVFS.obj
 0002:0005ddf1       ?__abi_GetRuntimeClassName@?$AsyncOperationCompletedHandler@P$AAUIBuffer@Streams@Storage@Windows@@@Foundation@Windows@@W7$AAGJPAPAUHSTRING__@@@Z 1009bdf1 f i WinRTVFS.obj
 0002:0005de00       ?__abi_GetRuntimeClassName@?$AsyncOperationCompletedHandler@P$AAUIRandomAccessStream@Streams@Storage@Windows@@@Foundation@Windows@@U$AAGJPAPAUHSTRING__@@@Z 1009be00 f i WinRTVFS.obj
 0002:0005de55       ?__abi_GetRuntimeClassName@?$AsyncOperationCompletedHandler@P$AAUIRandomAccessStream@Streams@Storage@Windows@@@Foundation@Windows@@W3$AAGJPAPAUHSTRING__@@@Z 1009be55 f i WinRTVFS.obj
 0002:0005de61       ?__abi_GetRuntimeClassName@?$AsyncOperationCompletedHandler@P$AAUIRandomAccessStream@Streams@Storage@Windows@@@Foundation@Windows@@W7$AAGJPAPAUHSTRING__@@@Z 1009be61 f i WinRTVFS.obj
 0002:0005de70       ?__abi_GetRuntimeClassName@?$AsyncOperationCompletedHandler@P$AAVStorageFile@Storage@Windows@@@Foundation@Windows@@U$AAGJPAPAUHSTRING__@@@Z 1009be70 f i WinRTVFS.obj
 0002:0005dec5       ?__abi_GetRuntimeClassName@?$AsyncOperationCompletedHandler@P$AAVStorageFile@Storage@Windows@@@Foundation@Windows@@W3$AAGJPAPAUHSTRING__@@@Z 1009bec5 f i WinRTVFS.obj
 0002:0005ded1       ?__abi_GetRuntimeClassName@?$AsyncOperationCompletedHandler@P$AAVStorageFile@Storage@Windows@@@Foundation@Windows@@W7$AAGJPAPAUHSTRING__@@@Z 1009bed1 f i WinRTVFS.obj
 0002:0005dee0       ?__abi_GetRuntimeClassName@?$AsyncOperationCompletedHandler@P$AAVStorageFolder@Storage@Windows@@@Foundation@Windows@@U$AAGJPAPAUHSTRING__@@@Z 1009bee0 f i WinRTVFS.obj
 0002:0005df35       ?__abi_GetRuntimeClassName@?$AsyncOperationCompletedHandler@P$AAVStorageFolder@Storage@Windows@@@Foundation@Windows@@W3$AAGJPAPAUHSTRING__@@@Z 1009bf35 f i WinRTVFS.obj
 0002:0005df41       ?__abi_GetRuntimeClassName@?$AsyncOperationCompletedHandler@P$AAVStorageFolder@Storage@Windows@@@Foundation@Windows@@W7$AAGJPAPAUHSTRING__@@@Z 1009bf41 f i WinRTVFS.obj
 0002:0005df50       ?__abi_GetRuntimeClassName@?$AsyncOperationCompletedHandler@_N@Foundation@Windows@@U$AAGJPAPAUHSTRING__@@@Z 1009bf50 f i WinRTVFS.obj
 0002:0005dfa5       ?__abi_GetRuntimeClassName@?$AsyncOperationCompletedHandler@_N@Foundation@Windows@@W3$AAGJPAPAUHSTRING__@@@Z 1009bfa5 f i WinRTVFS.obj
 0002:0005dfb1       ?__abi_GetRuntimeClassName@?$AsyncOperationCompletedHandler@_N@Foundation@Windows@@W7$AAGJPAPAUHSTRING__@@@Z 1009bfb1 f i WinRTVFS.obj
 0002:0005dfc0       ?__abi_GetRuntimeClassName@?$AsyncOperationWithProgressCompletedHandler@II@Foundation@Windows@@U$AAGJPAPAUHSTRING__@@@Z 1009bfc0 f i WinRTVFS.obj
 0002:0005e015       ?__abi_GetRuntimeClassName@?$AsyncOperationWithProgressCompletedHandler@II@Foundation@Windows@@W3$AAGJPAPAUHSTRING__@@@Z 1009c015 f i WinRTVFS.obj
 0002:0005e021       ?__abi_GetRuntimeClassName@?$AsyncOperationWithProgressCompletedHandler@II@Foundation@Windows@@W7$AAGJPAPAUHSTRING__@@@Z 1009c021 f i WinRTVFS.obj
 0002:0005e030       ?__abi_GetRuntimeClassName@?$AsyncOperationWithProgressCompletedHandler@P$AAUIBuffer@Streams@Storage@Windows@@I@Foundation@Windows@@U$AAGJPAPAUHSTRING__@@@Z 1009c030 f i WinRTVFS.obj
 0002:0005e085       ?__abi_GetRuntimeClassName@?$AsyncOperationWithProgressCompletedHandler@P$AAUIBuffer@Streams@Storage@Windows@@I@Foundation@Windows@@W3$AAGJPAPAUHSTRING__@@@Z 1009c085 f i WinRTVFS.obj
 0002:0005e091       ?__abi_GetRuntimeClassName@?$AsyncOperationWithProgressCompletedHandler@P$AAUIBuffer@Streams@Storage@Windows@@I@Foundation@Windows@@W7$AAGJPAPAUHSTRING__@@@Z 1009c091 f i WinRTVFS.obj
 0002:0005e0a0       ?__abi_GetRuntimeClassName@?QObject@Platform@@?$_IAsyncOperationWithProgressToAsyncOperationConverter@II@details@Concurrency@@U$AAGJPAPAUHSTRING__@@@Z 1009c0a0 f i WinRTVFS.obj
 0002:0005e0f5       ?__abi_GetRuntimeClassName@?QObject@Platform@@?$_IAsyncOperationWithProgressToAsyncOperationConverter@II@details@Concurrency@@W3$AAGJPAPAUHSTRING__@@@Z 1009c0f5 f i WinRTVFS.obj
 0002:0005e101       ?__abi_GetRuntimeClassName@?QObject@Platform@@?$_IAsyncOperationWithProgressToAsyncOperationConverter@II@details@Concurrency@@W7$AAGJPAPAUHSTRING__@@@Z 1009c101 f i WinRTVFS.obj
 0002:0005e10d       ?__abi_GetRuntimeClassName@?QObject@Platform@@?$_IAsyncOperationWithProgressToAsyncOperationConverter@II@details@Concurrency@@WBA@$AAGJPAPAUHSTRING__@@@Z 1009c10d f i WinRTVFS.obj
 0002:0005e119       ?__abi_GetRuntimeClassName@?QObject@Platform@@?$_IAsyncOperationWithProgressToAsyncOperationConverter@II@details@Concurrency@@WDA@$AAGJPAPAUHSTRING__@@@Z 1009c119 f i WinRTVFS.obj
 0002:0005e125       ?__abi_GetRuntimeClassName@?QObject@Platform@@?$_IAsyncOperationWithProgressToAsyncOperationConverter@II@details@Concurrency@@WM@$AAGJPAPAUHSTRING__@@@Z 1009c125 f i WinRTVFS.obj
 0002:0005e140       ?__abi_GetRuntimeClassName@?QObject@Platform@@?$_IAsyncOperationWithProgressToAsyncOperationConverter@P$AAUIBuffer@Streams@Storage@Windows@@I@details@Concurrency@@U$AAGJPAPAUHSTRING__@@@Z 1009c140 f i WinRTVFS.obj
 0002:0005e195       ?__abi_GetRuntimeClassName@?QObject@Platform@@?$_IAsyncOperationWithProgressToAsyncOperationConverter@P$AAUIBuffer@Streams@Storage@Windows@@I@details@Concurrency@@W3$AAGJPAPAUHSTRING__@@@Z 1009c195 f i WinRTVFS.obj
 0002:0005e1a1       ?__abi_GetRuntimeClassName@?QObject@Platform@@?$_IAsyncOperationWithProgressToAsyncOperationConverter@P$AAUIBuffer@Streams@Storage@Windows@@I@details@Concurrency@@W7$AAGJPAPAUHSTRING__@@@Z 1009c1a1 f i WinRTVFS.obj
 0002:0005e1ad       ?__abi_GetRuntimeClassName@?QObject@Platform@@?$_IAsyncOperationWithProgressToAsyncOperationConverter@P$AAUIBuffer@Streams@Storage@Windows@@I@details@Concurrency@@WBA@$AAGJPAPAUHSTRING__@@@Z 1009c1ad f i WinRTVFS.obj
 0002:0005e1b9       ?__abi_GetRuntimeClassName@?QObject@Platform@@?$_IAsyncOperationWithProgressToAsyncOperationConverter@P$AAUIBuffer@Streams@Storage@Windows@@I@details@Concurrency@@WDA@$AAGJPAPAUHSTRING__@@@Z 1009c1b9 f i WinRTVFS.obj
 0002:0005e1c5       ?__abi_GetRuntimeClassName@?QObject@Platform@@?$_IAsyncOperationWithProgressToAsyncOperationConverter@P$AAUIBuffer@Streams@Storage@Windows@@I@details@Concurrency@@WM@$AAGJPAPAUHSTRING__@@@Z 1009c1c5 f i WinRTVFS.obj
 0002:0005e1e0       ?__abi_GetRuntimeClassName@?QObject@Platform@@_IAsyncActionToAsyncOperationConverter@details@Concurrency@@U$AAGJPAPAUHSTRING__@@@Z 1009c1e0 f i WinRTVFS.obj
 0002:0005e235       ?__abi_GetRuntimeClassName@?QObject@Platform@@_IAsyncActionToAsyncOperationConverter@details@Concurrency@@W3$AAGJPAPAUHSTRING__@@@Z 1009c235 f i WinRTVFS.obj
 0002:0005e241       ?__abi_GetRuntimeClassName@?QObject@Platform@@_IAsyncActionToAsyncOperationConverter@details@Concurrency@@W7$AAGJPAPAUHSTRING__@@@Z 1009c241 f i WinRTVFS.obj
 0002:0005e24d       ?__abi_GetRuntimeClassName@?QObject@Platform@@_IAsyncActionToAsyncOperationConverter@details@Concurrency@@WBA@$AAGJPAPAUHSTRING__@@@Z 1009c24d f i WinRTVFS.obj
 0002:0005e259       ?__abi_GetRuntimeClassName@?QObject@Platform@@_IAsyncActionToAsyncOperationConverter@details@Concurrency@@WDA@$AAGJPAPAUHSTRING__@@@Z 1009c259 f i WinRTVFS.obj
 0002:0005e265       ?__abi_GetRuntimeClassName@?QObject@Platform@@_IAsyncActionToAsyncOperationConverter@details@Concurrency@@WM@$AAGJPAPAUHSTRING__@@@Z 1009c265 f i WinRTVFS.obj
 0002:0005e280       ?__abi_GetRuntimeClassName@AsyncActionCompletedHandler@Foundation@Windows@@U$AAGJPAPAUHSTRING__@@@Z 1009c280 f i WinRTVFS.obj
 0002:0005e2d5       ?__abi_GetRuntimeClassName@AsyncActionCompletedHandler@Foundation@Windows@@W3$AAGJPAPAUHSTRING__@@@Z 1009c2d5 f i WinRTVFS.obj
 0002:0005e2e1       ?__abi_GetRuntimeClassName@AsyncActionCompletedHandler@Foundation@Windows@@W7$AAGJPAPAUHSTRING__@@@Z 1009c2e1 f i WinRTVFS.obj
 0002:0005e2f0       ?__abi_GetTrustLevel@?$AsyncOperationCompletedHandler@E@Foundation@Windows@@U$AAGJPAW4__abi_TrustLevel@@@Z 1009c2f0 f i WinRTVFS.obj
 0002:0005e32e       ?__abi_GetTrustLevel@?$AsyncOperationCompletedHandler@E@Foundation@Windows@@W3$AAGJPAW4__abi_TrustLevel@@@Z 1009c32e f i WinRTVFS.obj
 0002:0005e33a       ?__abi_GetTrustLevel@?$AsyncOperationCompletedHandler@E@Foundation@Windows@@W7$AAGJPAW4__abi_TrustLevel@@@Z 1009c33a f i WinRTVFS.obj
 0002:0005e350       ?__abi_GetTrustLevel@?$AsyncOperationCompletedHandler@I@Foundation@Windows@@U$AAGJPAW4__abi_TrustLevel@@@Z 1009c350 f i WinRTVFS.obj
 0002:0005e38e       ?__abi_GetTrustLevel@?$AsyncOperationCompletedHandler@I@Foundation@Windows@@W3$AAGJPAW4__abi_TrustLevel@@@Z 1009c38e f i WinRTVFS.obj
 0002:0005e39a       ?__abi_GetTrustLevel@?$AsyncOperationCompletedHandler@I@Foundation@Windows@@W7$AAGJPAW4__abi_TrustLevel@@@Z 1009c39a f i WinRTVFS.obj
 0002:0005e3b0       ?__abi_GetTrustLevel@?$AsyncOperationCompletedHandler@P$AAUIBuffer@Streams@Storage@Windows@@@Foundation@Windows@@U$AAGJPAW4__abi_TrustLevel@@@Z 1009c3b0 f i WinRTVFS.obj
 0002:0005e3ee       ?__abi_GetTrustLevel@?$AsyncOperationCompletedHandler@P$AAUIBuffer@Streams@Storage@Windows@@@Foundation@Windows@@W3$AAGJPAW4__abi_TrustLevel@@@Z 1009c3ee f i WinRTVFS.obj
 0002:0005e3fa       ?__abi_GetTrustLevel@?$AsyncOperationCompletedHandler@P$AAUIBuffer@Streams@Storage@Windows@@@Foundation@Windows@@W7$AAGJPAW4__abi_TrustLevel@@@Z 1009c3fa f i WinRTVFS.obj
 0002:0005e410       ?__abi_GetTrustLevel@?$AsyncOperationCompletedHandler@P$AAUIRandomAccessStream@Streams@Storage@Windows@@@Foundation@Windows@@U$AAGJPAW4__abi_TrustLevel@@@Z 1009c410 f i WinRTVFS.obj
 0002:0005e44e       ?__abi_GetTrustLevel@?$AsyncOperationCompletedHandler@P$AAUIRandomAccessStream@Streams@Storage@Windows@@@Foundation@Windows@@W3$AAGJPAW4__abi_TrustLevel@@@Z 1009c44e f i WinRTVFS.obj
 0002:0005e45a       ?__abi_GetTrustLevel@?$AsyncOperationCompletedHandler@P$AAUIRandomAccessStream@Streams@Storage@Windows@@@Foundation@Windows@@W7$AAGJPAW4__abi_TrustLevel@@@Z 1009c45a f i WinRTVFS.obj
 0002:0005e470       ?__abi_GetTrustLevel@?$AsyncOperationCompletedHandler@P$AAVStorageFile@Storage@Windows@@@Foundation@Windows@@U$AAGJPAW4__abi_TrustLevel@@@Z 1009c470 f i WinRTVFS.obj
 0002:0005e4ae       ?__abi_GetTrustLevel@?$AsyncOperationCompletedHandler@P$AAVStorageFile@Storage@Windows@@@Foundation@Windows@@W3$AAGJPAW4__abi_TrustLevel@@@Z 1009c4ae f i WinRTVFS.obj
 0002:0005e4ba       ?__abi_GetTrustLevel@?$AsyncOperationCompletedHandler@P$AAVStorageFile@Storage@Windows@@@Foundation@Windows@@W7$AAGJPAW4__abi_TrustLevel@@@Z 1009c4ba f i WinRTVFS.obj
 0002:0005e4d0       ?__abi_GetTrustLevel@?$AsyncOperationCompletedHandler@P$AAVStorageFolder@Storage@Windows@@@Foundation@Windows@@U$AAGJPAW4__abi_TrustLevel@@@Z 1009c4d0 f i WinRTVFS.obj
 0002:0005e50e       ?__abi_GetTrustLevel@?$AsyncOperationCompletedHandler@P$AAVStorageFolder@Storage@Windows@@@Foundation@Windows@@W3$AAGJPAW4__abi_TrustLevel@@@Z 1009c50e f i WinRTVFS.obj
 0002:0005e51a       ?__abi_GetTrustLevel@?$AsyncOperationCompletedHandler@P$AAVStorageFolder@Storage@Windows@@@Foundation@Windows@@W7$AAGJPAW4__abi_TrustLevel@@@Z 1009c51a f i WinRTVFS.obj
 0002:0005e530       ?__abi_GetTrustLevel@?$AsyncOperationCompletedHandler@_N@Foundation@Windows@@U$AAGJPAW4__abi_TrustLevel@@@Z 1009c530 f i WinRTVFS.obj
 0002:0005e56e       ?__abi_GetTrustLevel@?$AsyncOperationCompletedHandler@_N@Foundation@Windows@@W3$AAGJPAW4__abi_TrustLevel@@@Z 1009c56e f i WinRTVFS.obj
 0002:0005e57a       ?__abi_GetTrustLevel@?$AsyncOperationCompletedHandler@_N@Foundation@Windows@@W7$AAGJPAW4__abi_TrustLevel@@@Z 1009c57a f i WinRTVFS.obj
 0002:0005e590       ?__abi_GetTrustLevel@?$AsyncOperationWithProgressCompletedHandler@II@Foundation@Windows@@U$AAGJPAW4__abi_TrustLevel@@@Z 1009c590 f i WinRTVFS.obj
 0002:0005e5ce       ?__abi_GetTrustLevel@?$AsyncOperationWithProgressCompletedHandler@II@Foundation@Windows@@W3$AAGJPAW4__abi_TrustLevel@@@Z 1009c5ce f i WinRTVFS.obj
 0002:0005e5da       ?__abi_GetTrustLevel@?$AsyncOperationWithProgressCompletedHandler@II@Foundation@Windows@@W7$AAGJPAW4__abi_TrustLevel@@@Z 1009c5da f i WinRTVFS.obj
 0002:0005e5f0       ?__abi_GetTrustLevel@?$AsyncOperationWithProgressCompletedHandler@P$AAUIBuffer@Streams@Storage@Windows@@I@Foundation@Windows@@U$AAGJPAW4__abi_TrustLevel@@@Z 1009c5f0 f i WinRTVFS.obj
 0002:0005e62e       ?__abi_GetTrustLevel@?$AsyncOperationWithProgressCompletedHandler@P$AAUIBuffer@Streams@Storage@Windows@@I@Foundation@Windows@@W3$AAGJPAW4__abi_TrustLevel@@@Z 1009c62e f i WinRTVFS.obj
 0002:0005e63a       ?__abi_GetTrustLevel@?$AsyncOperationWithProgressCompletedHandler@P$AAUIBuffer@Streams@Storage@Windows@@I@Foundation@Windows@@W7$AAGJPAW4__abi_TrustLevel@@@Z 1009c63a f i WinRTVFS.obj
 0002:0005e650       ?__abi_GetTrustLevel@?QObject@Platform@@?$_IAsyncOperationWithProgressToAsyncOperationConverter@II@details@Concurrency@@U$AAGJPAW4__abi_TrustLevel@@@Z 1009c650 f i WinRTVFS.obj
 0002:0005e68e       ?__abi_GetTrustLevel@?QObject@Platform@@?$_IAsyncOperationWithProgressToAsyncOperationConverter@II@details@Concurrency@@W3$AAGJPAW4__abi_TrustLevel@@@Z 1009c68e f i WinRTVFS.obj
 0002:0005e69a       ?__abi_GetTrustLevel@?QObject@Platform@@?$_IAsyncOperationWithProgressToAsyncOperationConverter@II@details@Concurrency@@W7$AAGJPAW4__abi_TrustLevel@@@Z 1009c69a f i WinRTVFS.obj
 0002:0005e6a6       ?__abi_GetTrustLevel@?QObject@Platform@@?$_IAsyncOperationWithProgressToAsyncOperationConverter@II@details@Concurrency@@WBA@$AAGJPAW4__abi_TrustLevel@@@Z 1009c6a6 f i WinRTVFS.obj
 0002:0005e6b2       ?__abi_GetTrustLevel@?QObject@Platform@@?$_IAsyncOperationWithProgressToAsyncOperationConverter@II@details@Concurrency@@WDA@$AAGJPAW4__abi_TrustLevel@@@Z 1009c6b2 f i WinRTVFS.obj
 0002:0005e6be       ?__abi_GetTrustLevel@?QObject@Platform@@?$_IAsyncOperationWithProgressToAsyncOperationConverter@II@details@Concurrency@@WM@$AAGJPAW4__abi_TrustLevel@@@Z 1009c6be f i WinRTVFS.obj
 0002:0005e6d0       ?__abi_GetTrustLevel@?QObject@Platform@@?$_IAsyncOperationWithProgressToAsyncOperationConverter@P$AAUIBuffer@Streams@Storage@Windows@@I@details@Concurrency@@U$AAGJPAW4__abi_TrustLevel@@@Z 1009c6d0 f i WinRTVFS.obj
 0002:0005e70e       ?__abi_GetTrustLevel@?QObject@Platform@@?$_IAsyncOperationWithProgressToAsyncOperationConverter@P$AAUIBuffer@Streams@Storage@Windows@@I@details@Concurrency@@W3$AAGJPAW4__abi_TrustLevel@@@Z 1009c70e f i WinRTVFS.obj
 0002:0005e71a       ?__abi_GetTrustLevel@?QObject@Platform@@?$_IAsyncOperationWithProgressToAsyncOperationConverter@P$AAUIBuffer@Streams@Storage@Windows@@I@details@Concurrency@@W7$AAGJPAW4__abi_TrustLevel@@@Z 1009c71a f i WinRTVFS.obj
 0002:0005e726       ?__abi_GetTrustLevel@?QObject@Platform@@?$_IAsyncOperationWithProgressToAsyncOperationConverter@P$AAUIBuffer@Streams@Storage@Windows@@I@details@Concurrency@@WBA@$AAGJPAW4__abi_TrustLevel@@@Z 1009c726 f i WinRTVFS.obj
 0002:0005e732       ?__abi_GetTrustLevel@?QObject@Platform@@?$_IAsyncOperationWithProgressToAsyncOperationConverter@P$AAUIBuffer@Streams@Storage@Windows@@I@details@Concurrency@@WDA@$AAGJPAW4__abi_TrustLevel@@@Z 1009c732 f i WinRTVFS.obj
 0002:0005e73e       ?__abi_GetTrustLevel@?QObject@Platform@@?$_IAsyncOperationWithProgressToAsyncOperationConverter@P$AAUIBuffer@Streams@Storage@Windows@@I@details@Concurrency@@WM@$AAGJPAW4__abi_TrustLevel@@@Z 1009c73e f i WinRTVFS.obj
 0002:0005e750       ?__abi_GetTrustLevel@?QObject@Platform@@_IAsyncActionToAsyncOperationConverter@details@Concurrency@@U$AAGJPAW4__abi_TrustLevel@@@Z 1009c750 f i WinRTVFS.obj
 0002:0005e78e       ?__abi_GetTrustLevel@?QObject@Platform@@_IAsyncActionToAsyncOperationConverter@details@Concurrency@@W3$AAGJPAW4__abi_TrustLevel@@@Z 1009c78e f i WinRTVFS.obj
 0002:0005e79a       ?__abi_GetTrustLevel@?QObject@Platform@@_IAsyncActionToAsyncOperationConverter@details@Concurrency@@W7$AAGJPAW4__abi_TrustLevel@@@Z 1009c79a f i WinRTVFS.obj
 0002:0005e7a6       ?__abi_GetTrustLevel@?QObject@Platform@@_IAsyncActionToAsyncOperationConverter@details@Concurrency@@WBA@$AAGJPAW4__abi_TrustLevel@@@Z 1009c7a6 f i WinRTVFS.obj
 0002:0005e7b2       ?__abi_GetTrustLevel@?QObject@Platform@@_IAsyncActionToAsyncOperationConverter@details@Concurrency@@WDA@$AAGJPAW4__abi_TrustLevel@@@Z 1009c7b2 f i WinRTVFS.obj
 0002:0005e7be       ?__abi_GetTrustLevel@?QObject@Platform@@_IAsyncActionToAsyncOperationConverter@details@Concurrency@@WM@$AAGJPAW4__abi_TrustLevel@@@Z 1009c7be f i WinRTVFS.obj
 0002:0005e7d0       ?__abi_GetTrustLevel@AsyncActionCompletedHandler@Foundation@Windows@@U$AAGJPAW4__abi_TrustLevel@@@Z 1009c7d0 f i WinRTVFS.obj
 0002:0005e80e       ?__abi_GetTrustLevel@AsyncActionCompletedHandler@Foundation@Windows@@W3$AAGJPAW4__abi_TrustLevel@@@Z 1009c80e f i WinRTVFS.obj
 0002:0005e81a       ?__abi_GetTrustLevel@AsyncActionCompletedHandler@Foundation@Windows@@W7$AAGJPAW4__abi_TrustLevel@@@Z 1009c81a f i WinRTVFS.obj
 0002:0005e830       ?__abi_Platform_Details_IWeakReferenceSource____abi_GetWeakReference@?QIWeakReferenceSource@Details@Platform@@?$_IAsyncOperationWithProgressToAsyncOperationConverter@II@details@Concurrency@@U$AAGJPAP$AAUIWeakReference@23@@Z 1009c830 f i WinRTVFS.obj
 0002:0005e941       ?__abi_Platform_Details_IWeakReferenceSource____abi_GetWeakReference@?QIWeakReferenceSource@Details@Platform@@?$_IAsyncOperationWithProgressToAsyncOperationConverter@II@details@Concurrency@@WCM@$AAGJPAP$AAUIWeakReference@23@@Z 1009c941 f i WinRTVFS.obj
 0002:0005e950       ?__abi_Platform_Details_IWeakReferenceSource____abi_GetWeakReference@?QIWeakReferenceSource@Details@Platform@@?$_IAsyncOperationWithProgressToAsyncOperationConverter@P$AAUIBuffer@Streams@Storage@Windows@@I@details@Concurrency@@U$AAGJPAP$AAUIWeakReference@23@@Z 1009c950 f i WinRTVFS.obj
 0002:0005ea61       ?__abi_Platform_Details_IWeakReferenceSource____abi_GetWeakReference@?QIWeakReferenceSource@Details@Platform@@?$_IAsyncOperationWithProgressToAsyncOperationConverter@P$AAUIBuffer@Streams@Storage@Windows@@I@details@Concurrency@@WCM@$AAGJPAP$AAUIWeakReference@23@@Z 1009ca61 f i WinRTVFS.obj
 0002:0005ea70       ?__abi_Platform_Details_IWeakReferenceSource____abi_GetWeakReference@?QIWeakReferenceSource@Details@Platform@@_IAsyncActionToAsyncOperationConverter@details@Concurrency@@U$AAGJPAP$AAUIWeakReference@23@@Z 1009ca70 f i WinRTVFS.obj
 0002:0005eb81       ?__abi_Platform_Details_IWeakReferenceSource____abi_GetWeakReference@?QIWeakReferenceSource@Details@Platform@@_IAsyncActionToAsyncOperationConverter@details@Concurrency@@WCM@$AAGJPAP$AAUIWeakReference@23@@Z 1009cb81 f i WinRTVFS.obj
 0002:0005eb90       ?__abi_QueryInterface@?$AsyncOperationCompletedHandler@E@Foundation@Windows@@U$AAGJAAVGuid@Platform@@PAPAX@Z 1009cb90 f i WinRTVFS.obj
 0002:0005ece6       ?__abi_QueryInterface@?$AsyncOperationCompletedHandler@E@Foundation@Windows@@W3$AAGJAAVGuid@Platform@@PAPAX@Z 1009cce6 f i WinRTVFS.obj
 0002:0005ecf2       ?__abi_QueryInterface@?$AsyncOperationCompletedHandler@E@Foundation@Windows@@W7$AAGJAAVGuid@Platform@@PAPAX@Z 1009ccf2 f i WinRTVFS.obj
 0002:0005ed00       ?__abi_QueryInterface@?$AsyncOperationCompletedHandler@I@Foundation@Windows@@U$AAGJAAVGuid@Platform@@PAPAX@Z 1009cd00 f i WinRTVFS.obj
 0002:0005ee56       ?__abi_QueryInterface@?$AsyncOperationCompletedHandler@I@Foundation@Windows@@W3$AAGJAAVGuid@Platform@@PAPAX@Z 1009ce56 f i WinRTVFS.obj
 0002:0005ee62       ?__abi_QueryInterface@?$AsyncOperationCompletedHandler@I@Foundation@Windows@@W7$AAGJAAVGuid@Platform@@PAPAX@Z 1009ce62 f i WinRTVFS.obj
 0002:0005ee70       ?__abi_QueryInterface@?$AsyncOperationCompletedHandler@P$AAUIBuffer@Streams@Storage@Windows@@@Foundation@Windows@@U$AAGJAAVGuid@Platform@@PAPAX@Z 1009ce70 f i WinRTVFS.obj
 0002:0005efc6       ?__abi_QueryInterface@?$AsyncOperationCompletedHandler@P$AAUIBuffer@Streams@Storage@Windows@@@Foundation@Windows@@W3$AAGJAAVGuid@Platform@@PAPAX@Z 1009cfc6 f i WinRTVFS.obj
 0002:0005efd2       ?__abi_QueryInterface@?$AsyncOperationCompletedHandler@P$AAUIBuffer@Streams@Storage@Windows@@@Foundation@Windows@@W7$AAGJAAVGuid@Platform@@PAPAX@Z 1009cfd2 f i WinRTVFS.obj
 0002:0005efe0       ?__abi_QueryInterface@?$AsyncOperationCompletedHandler@P$AAUIRandomAccessStream@Streams@Storage@Windows@@@Foundation@Windows@@U$AAGJAAVGuid@Platform@@PAPAX@Z 1009cfe0 f i WinRTVFS.obj
 0002:0005f136       ?__abi_QueryInterface@?$AsyncOperationCompletedHandler@P$AAUIRandomAccessStream@Streams@Storage@Windows@@@Foundation@Windows@@W3$AAGJAAVGuid@Platform@@PAPAX@Z 1009d136 f i WinRTVFS.obj
 0002:0005f142       ?__abi_QueryInterface@?$AsyncOperationCompletedHandler@P$AAUIRandomAccessStream@Streams@Storage@Windows@@@Foundation@Windows@@W7$AAGJAAVGuid@Platform@@PAPAX@Z 1009d142 f i WinRTVFS.obj
 0002:0005f150       ?__abi_QueryInterface@?$AsyncOperationCompletedHandler@P$AAVStorageFile@Storage@Windows@@@Foundation@Windows@@U$AAGJAAVGuid@Platform@@PAPAX@Z 1009d150 f i WinRTVFS.obj
 0002:0005f2a6       ?__abi_QueryInterface@?$AsyncOperationCompletedHandler@P$AAVStorageFile@Storage@Windows@@@Foundation@Windows@@W3$AAGJAAVGuid@Platform@@PAPAX@Z 1009d2a6 f i WinRTVFS.obj
 0002:0005f2b2       ?__abi_QueryInterface@?$AsyncOperationCompletedHandler@P$AAVStorageFile@Storage@Windows@@@Foundation@Windows@@W7$AAGJAAVGuid@Platform@@PAPAX@Z 1009d2b2 f i WinRTVFS.obj
 0002:0005f2c0       ?__abi_QueryInterface@?$AsyncOperationCompletedHandler@P$AAVStorageFolder@Storage@Windows@@@Foundation@Windows@@U$AAGJAAVGuid@Platform@@PAPAX@Z 1009d2c0 f i WinRTVFS.obj
 0002:0005f416       ?__abi_QueryInterface@?$AsyncOperationCompletedHandler@P$AAVStorageFolder@Storage@Windows@@@Foundation@Windows@@W3$AAGJAAVGuid@Platform@@PAPAX@Z 1009d416 f i WinRTVFS.obj
 0002:0005f422       ?__abi_QueryInterface@?$AsyncOperationCompletedHandler@P$AAVStorageFolder@Storage@Windows@@@Foundation@Windows@@W7$AAGJAAVGuid@Platform@@PAPAX@Z 1009d422 f i WinRTVFS.obj
 0002:0005f430       ?__abi_QueryInterface@?$AsyncOperationCompletedHandler@_N@Foundation@Windows@@U$AAGJAAVGuid@Platform@@PAPAX@Z 1009d430 f i WinRTVFS.obj
 0002:0005f586       ?__abi_QueryInterface@?$AsyncOperationCompletedHandler@_N@Foundation@Windows@@W3$AAGJAAVGuid@Platform@@PAPAX@Z 1009d586 f i WinRTVFS.obj
 0002:0005f592       ?__abi_QueryInterface@?$AsyncOperationCompletedHandler@_N@Foundation@Windows@@W7$AAGJAAVGuid@Platform@@PAPAX@Z 1009d592 f i WinRTVFS.obj
 0002:0005f5a0       ?__abi_QueryInterface@?$AsyncOperationWithProgressCompletedHandler@II@Foundation@Windows@@U$AAGJAAVGuid@Platform@@PAPAX@Z 1009d5a0 f i WinRTVFS.obj
 0002:0005f6f6       ?__abi_QueryInterface@?$AsyncOperationWithProgressCompletedHandler@II@Foundation@Windows@@W3$AAGJAAVGuid@Platform@@PAPAX@Z 1009d6f6 f i WinRTVFS.obj
 0002:0005f702       ?__abi_QueryInterface@?$AsyncOperationWithProgressCompletedHandler@II@Foundation@Windows@@W7$AAGJAAVGuid@Platform@@PAPAX@Z 1009d702 f i WinRTVFS.obj
 0002:0005f710       ?__abi_QueryInterface@?$AsyncOperationWithProgressCompletedHandler@P$AAUIBuffer@Streams@Storage@Windows@@I@Foundation@Windows@@U$AAGJAAVGuid@Platform@@PAPAX@Z 1009d710 f i WinRTVFS.obj
 0002:0005f866       ?__abi_QueryInterface@?$AsyncOperationWithProgressCompletedHandler@P$AAUIBuffer@Streams@Storage@Windows@@I@Foundation@Windows@@W3$AAGJAAVGuid@Platform@@PAPAX@Z 1009d866 f i WinRTVFS.obj
 0002:0005f872       ?__abi_QueryInterface@?$AsyncOperationWithProgressCompletedHandler@P$AAUIBuffer@Streams@Storage@Windows@@I@Foundation@Windows@@W7$AAGJAAVGuid@Platform@@PAPAX@Z 1009d872 f i WinRTVFS.obj
 0002:0005f880       ?__abi_QueryInterface@?QObject@Platform@@?$_IAsyncOperationWithProgressToAsyncOperationConverter@II@details@Concurrency@@U$AAGJAAVGuid@2@PAPAX@Z 1009d880 f i WinRTVFS.obj
 0002:0005fb73       ?__abi_QueryInterface@?QObject@Platform@@?$_IAsyncOperationWithProgressToAsyncOperationConverter@II@details@Concurrency@@W3$AAGJAAVGuid@2@PAPAX@Z 1009db73 f i WinRTVFS.obj
 0002:0005fb7f       ?__abi_QueryInterface@?QObject@Platform@@?$_IAsyncOperationWithProgressToAsyncOperationConverter@II@details@Concurrency@@W7$AAGJAAVGuid@2@PAPAX@Z 1009db7f f i WinRTVFS.obj
 0002:0005fb8b       ?__abi_QueryInterface@?QObject@Platform@@?$_IAsyncOperationWithProgressToAsyncOperationConverter@II@details@Concurrency@@WBA@$AAGJAAVGuid@2@PAPAX@Z 1009db8b f i WinRTVFS.obj
 0002:0005fb97       ?__abi_QueryInterface@?QObject@Platform@@?$_IAsyncOperationWithProgressToAsyncOperationConverter@II@details@Concurrency@@WCM@$AAGJAAVGuid@2@PAPAX@Z 1009db97 f i WinRTVFS.obj
 0002:0005fba3       ?__abi_QueryInterface@?QObject@Platform@@?$_IAsyncOperationWithProgressToAsyncOperationConverter@II@details@Concurrency@@WDA@$AAGJAAVGuid@2@PAPAX@Z 1009dba3 f i WinRTVFS.obj
 0002:0005fbaf       ?__abi_QueryInterface@?QObject@Platform@@?$_IAsyncOperationWithProgressToAsyncOperationConverter@II@details@Concurrency@@WM@$AAGJAAVGuid@2@PAPAX@Z 1009dbaf f i WinRTVFS.obj
 0002:0005fbc0       ?__abi_QueryInterface@?QObject@Platform@@?$_IAsyncOperationWithProgressToAsyncOperationConverter@P$AAUIBuffer@Streams@Storage@Windows@@I@details@Concurrency@@U$AAGJAAVGuid@2@PAPAX@Z 1009dbc0 f i WinRTVFS.obj
 0002:0005feb3       ?__abi_QueryInterface@?QObject@Platform@@?$_IAsyncOperationWithProgressToAsyncOperationConverter@P$AAUIBuffer@Streams@Storage@Windows@@I@details@Concurrency@@W3$AAGJAAVGuid@2@PAPAX@Z 1009deb3 f i WinRTVFS.obj
 0002:0005febf       ?__abi_QueryInterface@?QObject@Platform@@?$_IAsyncOperationWithProgressToAsyncOperationConverter@P$AAUIBuffer@Streams@Storage@Windows@@I@details@Concurrency@@W7$AAGJAAVGuid@2@PAPAX@Z 1009debf f i WinRTVFS.obj
 0002:0005fecb       ?__abi_QueryInterface@?QObject@Platform@@?$_IAsyncOperationWithProgressToAsyncOperationConverter@P$AAUIBuffer@Streams@Storage@Windows@@I@details@Concurrency@@WBA@$AAGJAAVGuid@2@PAPAX@Z 1009decb f i WinRTVFS.obj
 0002:0005fed7       ?__abi_QueryInterface@?QObject@Platform@@?$_IAsyncOperationWithProgressToAsyncOperationConverter@P$AAUIBuffer@Streams@Storage@Windows@@I@details@Concurrency@@WCM@$AAGJAAVGuid@2@PAPAX@Z 1009ded7 f i WinRTVFS.obj
 0002:0005fee3       ?__abi_QueryInterface@?QObject@Platform@@?$_IAsyncOperationWithProgressToAsyncOperationConverter@P$AAUIBuffer@Streams@Storage@Windows@@I@details@Concurrency@@WDA@$AAGJAAVGuid@2@PAPAX@Z 1009dee3 f i WinRTVFS.obj
 0002:0005feef       ?__abi_QueryInterface@?QObject@Platform@@?$_IAsyncOperationWithProgressToAsyncOperationConverter@P$AAUIBuffer@Streams@Storage@Windows@@I@details@Concurrency@@WM@$AAGJAAVGuid@2@PAPAX@Z 1009deef f i WinRTVFS.obj
 0002:0005ff00       ?__abi_QueryInterface@?QObject@Platform@@_IAsyncActionToAsyncOperationConverter@details@Concurrency@@U$AAGJAAVGuid@2@PAPAX@Z 1009df00 f i WinRTVFS.obj
 0002:000601f3       ?__abi_QueryInterface@?QObject@Platform@@_IAsyncActionToAsyncOperationConverter@details@Concurrency@@W3$AAGJAAVGuid@2@PAPAX@Z 1009e1f3 f i WinRTVFS.obj
 0002:000601ff       ?__abi_QueryInterface@?QObject@Platform@@_IAsyncActionToAsyncOperationConverter@details@Concurrency@@W7$AAGJAAVGuid@2@PAPAX@Z 1009e1ff f i WinRTVFS.obj
 0002:0006020b       ?__abi_QueryInterface@?QObject@Platform@@_IAsyncActionToAsyncOperationConverter@details@Concurrency@@WBA@$AAGJAAVGuid@2@PAPAX@Z 1009e20b f i WinRTVFS.obj
 0002:00060217       ?__abi_QueryInterface@?QObject@Platform@@_IAsyncActionToAsyncOperationConverter@details@Concurrency@@WCM@$AAGJAAVGuid@2@PAPAX@Z 1009e217 f i WinRTVFS.obj
 0002:00060223       ?__abi_QueryInterface@?QObject@Platform@@_IAsyncActionToAsyncOperationConverter@details@Concurrency@@WDA@$AAGJAAVGuid@2@PAPAX@Z 1009e223 f i WinRTVFS.obj
 0002:0006022f       ?__abi_QueryInterface@?QObject@Platform@@_IAsyncActionToAsyncOperationConverter@details@Concurrency@@WM@$AAGJAAVGuid@2@PAPAX@Z 1009e22f f i WinRTVFS.obj
 0002:00060240       ?__abi_QueryInterface@AsyncActionCompletedHandler@Foundation@Windows@@U$AAGJAAVGuid@Platform@@PAPAX@Z 1009e240 f i WinRTVFS.obj
 0002:00060396       ?__abi_QueryInterface@AsyncActionCompletedHandler@Foundation@Windows@@W3$AAGJAAVGuid@Platform@@PAPAX@Z 1009e396 f i WinRTVFS.obj
 0002:000603a2       ?__abi_QueryInterface@AsyncActionCompletedHandler@Foundation@Windows@@W7$AAGJAAVGuid@Platform@@PAPAX@Z 1009e3a2 f i WinRTVFS.obj
 0002:000603b0       ?__abi_Release@?$AsyncOperationCompletedHandler@E@Foundation@Windows@@U$AAGKXZ 1009e3b0 f i WinRTVFS.obj
 0002:0006042d       ?__abi_Release@?$AsyncOperationCompletedHandler@E@Foundation@Windows@@W3$AAGKXZ 1009e42d f i WinRTVFS.obj
 0002:00060439       ?__abi_Release@?$AsyncOperationCompletedHandler@E@Foundation@Windows@@W7$AAGKXZ 1009e439 f i WinRTVFS.obj
 0002:00060450       ?__abi_Release@?$AsyncOperationCompletedHandler@I@Foundation@Windows@@U$AAGKXZ 1009e450 f i WinRTVFS.obj
 0002:000604cd       ?__abi_Release@?$AsyncOperationCompletedHandler@I@Foundation@Windows@@W3$AAGKXZ 1009e4cd f i WinRTVFS.obj
 0002:000604d9       ?__abi_Release@?$AsyncOperationCompletedHandler@I@Foundation@Windows@@W7$AAGKXZ 1009e4d9 f i WinRTVFS.obj
 0002:000604f0       ?__abi_Release@?$AsyncOperationCompletedHandler@P$AAUIBuffer@Streams@Storage@Windows@@@Foundation@Windows@@U$AAGKXZ 1009e4f0 f i WinRTVFS.obj
 0002:0006056d       ?__abi_Release@?$AsyncOperationCompletedHandler@P$AAUIBuffer@Streams@Storage@Windows@@@Foundation@Windows@@W3$AAGKXZ 1009e56d f i WinRTVFS.obj
 0002:00060579       ?__abi_Release@?$AsyncOperationCompletedHandler@P$AAUIBuffer@Streams@Storage@Windows@@@Foundation@Windows@@W7$AAGKXZ 1009e579 f i WinRTVFS.obj
 0002:00060590       ?__abi_Release@?$AsyncOperationCompletedHandler@P$AAUIRandomAccessStream@Streams@Storage@Windows@@@Foundation@Windows@@U$AAGKXZ 1009e590 f i WinRTVFS.obj
 0002:0006060d       ?__abi_Release@?$AsyncOperationCompletedHandler@P$AAUIRandomAccessStream@Streams@Storage@Windows@@@Foundation@Windows@@W3$AAGKXZ 1009e60d f i WinRTVFS.obj
 0002:00060619       ?__abi_Release@?$AsyncOperationCompletedHandler@P$AAUIRandomAccessStream@Streams@Storage@Windows@@@Foundation@Windows@@W7$AAGKXZ 1009e619 f i WinRTVFS.obj
 0002:00060630       ?__abi_Release@?$AsyncOperationCompletedHandler@P$AAVStorageFile@Storage@Windows@@@Foundation@Windows@@U$AAGKXZ 1009e630 f i WinRTVFS.obj
 0002:000606ad       ?__abi_Release@?$AsyncOperationCompletedHandler@P$AAVStorageFile@Storage@Windows@@@Foundation@Windows@@W3$AAGKXZ 1009e6ad f i WinRTVFS.obj
 0002:000606b9       ?__abi_Release@?$AsyncOperationCompletedHandler@P$AAVStorageFile@Storage@Windows@@@Foundation@Windows@@W7$AAGKXZ 1009e6b9 f i WinRTVFS.obj
 0002:000606d0       ?__abi_Release@?$AsyncOperationCompletedHandler@P$AAVStorageFolder@Storage@Windows@@@Foundation@Windows@@U$AAGKXZ 1009e6d0 f i WinRTVFS.obj
 0002:0006074d       ?__abi_Release@?$AsyncOperationCompletedHandler@P$AAVStorageFolder@Storage@Windows@@@Foundation@Windows@@W3$AAGKXZ 1009e74d f i WinRTVFS.obj
 0002:00060759       ?__abi_Release@?$AsyncOperationCompletedHandler@P$AAVStorageFolder@Storage@Windows@@@Foundation@Windows@@W7$AAGKXZ 1009e759 f i WinRTVFS.obj
 0002:00060770       ?__abi_Release@?$AsyncOperationCompletedHandler@_N@Foundation@Windows@@U$AAGKXZ 1009e770 f i WinRTVFS.obj
 0002:000607ed       ?__abi_Release@?$AsyncOperationCompletedHandler@_N@Foundation@Windows@@W3$AAGKXZ 1009e7ed f i WinRTVFS.obj
 0002:000607f9       ?__abi_Release@?$AsyncOperationCompletedHandler@_N@Foundation@Windows@@W7$AAGKXZ 1009e7f9 f i WinRTVFS.obj
 0002:00060810       ?__abi_Release@?$AsyncOperationWithProgressCompletedHandler@II@Foundation@Windows@@U$AAGKXZ 1009e810 f i WinRTVFS.obj
 0002:0006088d       ?__abi_Release@?$AsyncOperationWithProgressCompletedHandler@II@Foundation@Windows@@W3$AAGKXZ 1009e88d f i WinRTVFS.obj
 0002:00060899       ?__abi_Release@?$AsyncOperationWithProgressCompletedHandler@II@Foundation@Windows@@W7$AAGKXZ 1009e899 f i WinRTVFS.obj
 0002:000608b0       ?__abi_Release@?$AsyncOperationWithProgressCompletedHandler@P$AAUIBuffer@Streams@Storage@Windows@@I@Foundation@Windows@@U$AAGKXZ 1009e8b0 f i WinRTVFS.obj
 0002:0006092d       ?__abi_Release@?$AsyncOperationWithProgressCompletedHandler@P$AAUIBuffer@Streams@Storage@Windows@@I@Foundation@Windows@@W3$AAGKXZ 1009e92d f i WinRTVFS.obj
 0002:00060939       ?__abi_Release@?$AsyncOperationWithProgressCompletedHandler@P$AAUIBuffer@Streams@Storage@Windows@@I@Foundation@Windows@@W7$AAGKXZ 1009e939 f i WinRTVFS.obj
 0002:00060950       ?__abi_Release@?QObject@Platform@@?$_IAsyncOperationWithProgressToAsyncOperationConverter@II@details@Concurrency@@U$AAGKXZ 1009e950 f i WinRTVFS.obj
 0002:000609da       ?__abi_Release@?QObject@Platform@@?$_IAsyncOperationWithProgressToAsyncOperationConverter@II@details@Concurrency@@W3$AAGKXZ 1009e9da f i WinRTVFS.obj
 0002:000609e6       ?__abi_Release@?QObject@Platform@@?$_IAsyncOperationWithProgressToAsyncOperationConverter@II@details@Concurrency@@W7$AAGKXZ 1009e9e6 f i WinRTVFS.obj
 0002:000609f2       ?__abi_Release@?QObject@Platform@@?$_IAsyncOperationWithProgressToAsyncOperationConverter@II@details@Concurrency@@WBA@$AAGKXZ 1009e9f2 f i WinRTVFS.obj
 0002:000609fe       ?__abi_Release@?QObject@Platform@@?$_IAsyncOperationWithProgressToAsyncOperationConverter@II@details@Concurrency@@WCM@$AAGKXZ 1009e9fe f i WinRTVFS.obj
 0002:00060a0a       ?__abi_Release@?QObject@Platform@@?$_IAsyncOperationWithProgressToAsyncOperationConverter@II@details@Concurrency@@WDA@$AAGKXZ 1009ea0a f i WinRTVFS.obj
 0002:00060a16       ?__abi_Release@?QObject@Platform@@?$_IAsyncOperationWithProgressToAsyncOperationConverter@II@details@Concurrency@@WM@$AAGKXZ 1009ea16 f i WinRTVFS.obj
 0002:00060a30       ?__abi_Release@?QObject@Platform@@?$_IAsyncOperationWithProgressToAsyncOperationConverter@P$AAUIBuffer@Streams@Storage@Windows@@I@details@Concurrency@@U$AAGKXZ 1009ea30 f i WinRTVFS.obj
 0002:00060aba       ?__abi_Release@?QObject@Platform@@?$_IAsyncOperationWithProgressToAsyncOperationConverter@P$AAUIBuffer@Streams@Storage@Windows@@I@details@Concurrency@@W3$AAGKXZ 1009eaba f i WinRTVFS.obj
 0002:00060ac6       ?__abi_Release@?QObject@Platform@@?$_IAsyncOperationWithProgressToAsyncOperationConverter@P$AAUIBuffer@Streams@Storage@Windows@@I@details@Concurrency@@W7$AAGKXZ 1009eac6 f i WinRTVFS.obj
 0002:00060ad2       ?__abi_Release@?QObject@Platform@@?$_IAsyncOperationWithProgressToAsyncOperationConverter@P$AAUIBuffer@Streams@Storage@Windows@@I@details@Concurrency@@WBA@$AAGKXZ 1009ead2 f i WinRTVFS.obj
 0002:00060ade       ?__abi_Release@?QObject@Platform@@?$_IAsyncOperationWithProgressToAsyncOperationConverter@P$AAUIBuffer@Streams@Storage@Windows@@I@details@Concurrency@@WCM@$AAGKXZ 1009eade f i WinRTVFS.obj
 0002:00060aea       ?__abi_Release@?QObject@Platform@@?$_IAsyncOperationWithProgressToAsyncOperationConverter@P$AAUIBuffer@Streams@Storage@Windows@@I@details@Concurrency@@WDA@$AAGKXZ 1009eaea f i WinRTVFS.obj
 0002:00060af6       ?__abi_Release@?QObject@Platform@@?$_IAsyncOperationWithProgressToAsyncOperationConverter@P$AAUIBuffer@Streams@Storage@Windows@@I@details@Concurrency@@WM@$AAGKXZ 1009eaf6 f i WinRTVFS.obj
 0002:00060b10       ?__abi_Release@?QObject@Platform@@_IAsyncActionToAsyncOperationConverter@details@Concurrency@@U$AAGKXZ 1009eb10 f i WinRTVFS.obj
 0002:00060b9a       ?__abi_Release@?QObject@Platform@@_IAsyncActionToAsyncOperationConverter@details@Concurrency@@W3$AAGKXZ 1009eb9a f i WinRTVFS.obj
 0002:00060ba6       ?__abi_Release@?QObject@Platform@@_IAsyncActionToAsyncOperationConverter@details@Concurrency@@W7$AAGKXZ 1009eba6 f i WinRTVFS.obj
 0002:00060bb2       ?__abi_Release@?QObject@Platform@@_IAsyncActionToAsyncOperationConverter@details@Concurrency@@WBA@$AAGKXZ 1009ebb2 f i WinRTVFS.obj
 0002:00060bbe       ?__abi_Release@?QObject@Platform@@_IAsyncActionToAsyncOperationConverter@details@Concurrency@@WCM@$AAGKXZ 1009ebbe f i WinRTVFS.obj
 0002:00060bca       ?__abi_Release@?QObject@Platform@@_IAsyncActionToAsyncOperationConverter@details@Concurrency@@WDA@$AAGKXZ 1009ebca f i WinRTVFS.obj
 0002:00060bd6       ?__abi_Release@?QObject@Platform@@_IAsyncActionToAsyncOperationConverter@details@Concurrency@@WM@$AAGKXZ 1009ebd6 f i WinRTVFS.obj
 0002:00060bf0       ?__abi_Release@AsyncActionCompletedHandler@Foundation@Windows@@U$AAGKXZ 1009ebf0 f i WinRTVFS.obj
 0002:00060c6d       ?__abi_Release@AsyncActionCompletedHandler@Foundation@Windows@@W3$AAGKXZ 1009ec6d f i WinRTVFS.obj
 0002:00060c79       ?__abi_Release@AsyncActionCompletedHandler@Foundation@Windows@@W7$AAGKXZ 1009ec79 f i WinRTVFS.obj
 0002:00060c90       ?__abi_Windows_Foundation_?$AsyncOperationCompletedHandler@E___abi_IDelegate____abi_Invoke@?Q__abi_IDelegate@?$AsyncOperationCompletedHandler@E@Foundation@Windows@@234@U$AAGJP$AAU?$IAsyncOperation@E@34@W4AsyncStatus@34@@Z 1009ec90 f i WinRTVFS.obj
 0002:00060d70       ?__abi_Windows_Foundation_?$AsyncOperationCompletedHandler@I___abi_IDelegate____abi_Invoke@?Q__abi_IDelegate@?$AsyncOperationCompletedHandler@I@Foundation@Windows@@234@U$AAGJP$AAU?$IAsyncOperation@I@34@W4AsyncStatus@34@@Z 1009ed70 f i WinRTVFS.obj
 0002:00060e50       ?__abi_Windows_Foundation_?$AsyncOperationCompletedHandler@P$AAUIBuffer@Streams@Storage@Windows@@___abi_IDelegate____abi_Invoke@?Q__abi_IDelegate@?$AsyncOperationCompletedHandler@P$AAUIBuffer@Streams@Storage@Windows@@@Foundation@Windows@@234@U$AAGJP$AAU?$IAsyncOperation@P$AAUIBuffer@Streams@Storage@Windows@@@34@W4AsyncStatus@34@@Z 1009ee50 f i WinRTVFS.obj
 0002:00060f30       ?__abi_Windows_Foundation_?$AsyncOperationCompletedHandler@P$AAUIRandomAccessStream@Streams@Storage@Windows@@___abi_IDelegate____abi_Invoke@?Q__abi_IDelegate@?$AsyncOperationCompletedHandler@P$AAUIRandomAccessStream@Streams@Storage@Windows@@@Foundation@Windows@@234@U$AAGJP$AAU?$IAsyncOperation@P$AAUIRandomAccessStream@Streams@Storage@Windows@@@34@W4AsyncStatus@34@@Z 1009ef30 f i WinRTVFS.obj
 0002:00061010       ?__abi_Windows_Foundation_?$AsyncOperationCompletedHandler@P$AAVStorageFile@Storage@Windows@@___abi_IDelegate____abi_Invoke@?Q__abi_IDelegate@?$AsyncOperationCompletedHandler@P$AAVStorageFile@Storage@Windows@@@Foundation@Windows@@234@U$AAGJP$AAU?$IAsyncOperation@P$AAVStorageFile@Storage@Windows@@@34@W4AsyncStatus@34@@Z 1009f010 f i WinRTVFS.obj
 0002:000610f0       ?__abi_Windows_Foundation_?$AsyncOperationCompletedHandler@P$AAVStorageFolder@Storage@Windows@@___abi_IDelegate____abi_Invoke@?Q__abi_IDelegate@?$AsyncOperationCompletedHandler@P$AAVStorageFolder@Storage@Windows@@@Foundation@Windows@@234@U$AAGJP$AAU?$IAsyncOperation@P$AAVStorageFolder@Storage@Windows@@@34@W4AsyncStatus@34@@Z 1009f0f0 f i WinRTVFS.obj
 0002:000611d0       ?__abi_Windows_Foundation_?$AsyncOperationCompletedHandler@_N___abi_IDelegate____abi_Invoke@?Q__abi_IDelegate@?$AsyncOperationCompletedHandler@_N@Foundation@Windows@@234@U$AAGJP$AAU?$IAsyncOperation@_N@34@W4AsyncStatus@34@@Z 1009f1d0 f i WinRTVFS.obj
 0002:000612b0       ?__abi_Windows_Foundation_?$AsyncOperationWithProgressCompletedHandler@II___abi_IDelegate____abi_Invoke@?Q__abi_IDelegate@?$AsyncOperationWithProgressCompletedHandler@II@Foundation@Windows@@234@U$AAGJP$AAU?$IAsyncOperationWithProgress@II@34@W4AsyncStatus@34@@Z 1009f2b0 f i WinRTVFS.obj
 0002:00061390       ?__abi_Windows_Foundation_?$AsyncOperationWithProgressCompletedHandler@P$AAUIBuffer@Streams@Storage@Windows@@I___abi_IDelegate____abi_Invoke@?Q__abi_IDelegate@?$AsyncOperationWithProgressCompletedHandler@P$AAUIBuffer@Streams@Storage@Windows@@I@Foundation@Windows@@234@U$AAGJP$AAU?$IAsyncOperationWithProgress@P$AAUIBuffer@Streams@Storage@Windows@@I@34@W4AsyncStatus@34@@Z 1009f390 f i WinRTVFS.obj
 0002:00061470       ?__abi_Windows_Foundation_?$IAsyncOperation@E____abi_GetResults@?Q?$IAsyncOperation@E@Foundation@Windows@@?$_AsyncInfoImpl@P$AAUIAsyncAction@Foundation@Windows@@VAsyncActionCompletedHandler@23@E@details@Concurrency@@U$AAGJPAE@Z 1009f470 f i WinRTVFS.obj
 0002:00061594       ?__abi_Windows_Foundation_?$IAsyncOperation@E____abi_GetResults@?Q?$IAsyncOperation@E@Foundation@Windows@@?$_AsyncInfoImpl@P$AAUIAsyncAction@Foundation@Windows@@VAsyncActionCompletedHandler@23@E@details@Concurrency@@W3$AAGJPAE@Z 1009f594 f i WinRTVFS.obj
 0002:000615a0       ?__abi_Windows_Foundation_?$IAsyncOperation@E____abi_get_Completed@?Q?$IAsyncOperation@E@Foundation@Windows@@?$_AsyncInfoImpl@P$AAUIAsyncAction@Foundation@Windows@@VAsyncActionCompletedHandler@23@E@details@Concurrency@@U$AAGJPAP$AAV?$AsyncOperationCompletedHandler@E@23@@Z 1009f5a0 f i WinRTVFS.obj
 0002:000616c8       ?__abi_Windows_Foundation_?$IAsyncOperation@E____abi_get_Completed@?Q?$IAsyncOperation@E@Foundation@Windows@@?$_AsyncInfoImpl@P$AAUIAsyncAction@Foundation@Windows@@VAsyncActionCompletedHandler@23@E@details@Concurrency@@W3$AAGJPAP$AAV?$AsyncOperationCompletedHandler@E@23@@Z 1009f6c8 f i WinRTVFS.obj
 0002:000616e0       ?__abi_Windows_Foundation_?$IAsyncOperation@E____abi_set_Completed@?Q?$IAsyncOperation@E@Foundation@Windows@@?$_AsyncInfoImpl@P$AAUIAsyncAction@Foundation@Windows@@VAsyncActionCompletedHandler@23@E@details@Concurrency@@U$AAGJP$AAV?$AsyncOperationCompletedHandler@E@23@@Z 1009f6e0 f i WinRTVFS.obj
 0002:000617e5       ?__abi_Windows_Foundation_?$IAsyncOperation@E____abi_set_Completed@?Q?$IAsyncOperation@E@Foundation@Windows@@?$_AsyncInfoImpl@P$AAUIAsyncAction@Foundation@Windows@@VAsyncActionCompletedHandler@23@E@details@Concurrency@@W3$AAGJP$AAV?$AsyncOperationCompletedHandler@E@23@@Z 1009f7e5 f i WinRTVFS.obj
 0002:00061800       ?__abi_Windows_Foundation_?$IAsyncOperation@I____abi_GetResults@?Q?$IAsyncOperation@I@Foundation@Windows@@?$_AsyncInfoImpl@P$AAU?$IAsyncOperationWithProgress@II@Foundation@Windows@@V?$AsyncOperationWithProgressCompletedHandler@II@23@I@details@Concurrency@@U$AAGJPAI@Z 1009f800 f i WinRTVFS.obj
 0002:00061928       ?__abi_Windows_Foundation_?$IAsyncOperation@I____abi_GetResults@?Q?$IAsyncOperation@I@Foundation@Windows@@?$_AsyncInfoImpl@P$AAU?$IAsyncOperationWithProgress@II@Foundation@Windows@@V?$AsyncOperationWithProgressCompletedHandler@II@23@I@details@Concurrency@@W3$AAGJPAI@Z 1009f928 f i WinRTVFS.obj
 0002:00061940       ?__abi_Windows_Foundation_?$IAsyncOperation@I____abi_get_Completed@?Q?$IAsyncOperation@I@Foundation@Windows@@?$_AsyncInfoImpl@P$AAU?$IAsyncOperationWithProgress@II@Foundation@Windows@@V?$AsyncOperationWithProgressCompletedHandler@II@23@I@details@Concurrency@@U$AAGJPAP$AAV?$AsyncOperationCompletedHandler@I@23@@Z 1009f940 f i WinRTVFS.obj
 0002:00061a68       ?__abi_Windows_Foundation_?$IAsyncOperation@I____abi_get_Completed@?Q?$IAsyncOperation@I@Foundation@Windows@@?$_AsyncInfoImpl@P$AAU?$IAsyncOperationWithProgress@II@Foundation@Windows@@V?$AsyncOperationWithProgressCompletedHandler@II@23@I@details@Concurrency@@W3$AAGJPAP$AAV?$AsyncOperationCompletedHandler@I@23@@Z 1009fa68 f i WinRTVFS.obj
 0002:00061a80       ?__abi_Windows_Foundation_?$IAsyncOperation@I____abi_set_Completed@?Q?$IAsyncOperation@I@Foundation@Windows@@?$_AsyncInfoImpl@P$AAU?$IAsyncOperationWithProgress@II@Foundation@Windows@@V?$AsyncOperationWithProgressCompletedHandler@II@23@I@details@Concurrency@@U$AAGJP$AAV?$AsyncOperationCompletedHandler@I@23@@Z 1009fa80 f i WinRTVFS.obj
 0002:00061b85       ?__abi_Windows_Foundation_?$IAsyncOperation@I____abi_set_Completed@?Q?$IAsyncOperation@I@Foundation@Windows@@?$_AsyncInfoImpl@P$AAU?$IAsyncOperationWithProgress@II@Foundation@Windows@@V?$AsyncOperationWithProgressCompletedHandler@II@23@I@details@Concurrency@@W3$AAGJP$AAV?$AsyncOperationCompletedHandler@I@23@@Z 1009fb85 f i WinRTVFS.obj
 0002:00061ba0       ?__abi_Windows_Foundation_?$IAsyncOperation@P$AAUIBuffer@Streams@Storage@Windows@@____abi_GetResults@?Q?$IAsyncOperation@P$AAUIBuffer@Streams@Storage@Windows@@@Foundation@Windows@@?$_AsyncInfoImpl@P$AAU?$IAsyncOperationWithProgress@P$AAUIBuffer@Streams@Storage@Windows@@I@Foundation@Windows@@V?$AsyncOperationWithProgressCompletedHandler@P$AAUIBuffer@Streams@Storage@Windows@@I@23@P$AAUIBuffer@Streams@Storage@3@@details@Concurrency@@U$AAGJPAP$AAUIBuffer@Streams@Storage@3@@Z 1009fba0 f i WinRTVFS.obj
 0002:00061cc8       ?__abi_Windows_Foundation_?$IAsyncOperation@P$AAUIBuffer@Streams@Storage@Windows@@____abi_GetResults@?Q?$IAsyncOperation@P$AAUIBuffer@Streams@Storage@Windows@@@Foundation@Windows@@?$_AsyncInfoImpl@P$AAU?$IAsyncOperationWithProgress@P$AAUIBuffer@Streams@Storage@Windows@@I@Foundation@Windows@@V?$AsyncOperationWithProgressCompletedHandler@P$AAUIBuffer@Streams@Storage@Windows@@I@23@P$AAUIBuffer@Streams@Storage@3@@details@Concurrency@@W3$AAGJPAP$AAUIBuffer@Streams@Storage@3@@Z 1009fcc8 f i WinRTVFS.obj
 0002:00061ce0       ?__abi_Windows_Foundation_?$IAsyncOperation@P$AAUIBuffer@Streams@Storage@Windows@@____abi_get_Completed@?Q?$IAsyncOperation@P$AAUIBuffer@Streams@Storage@Windows@@@Foundation@Windows@@?$_AsyncInfoImpl@P$AAU?$IAsyncOperationWithProgress@P$AAUIBuffer@Streams@Storage@Windows@@I@Foundation@Windows@@V?$AsyncOperationWithProgressCompletedHandler@P$AAUIBuffer@Streams@Storage@Windows@@I@23@P$AAUIBuffer@Streams@Storage@3@@details@Concurrency@@U$AAGJPAP$AAV?$AsyncOperationCompletedHandler@P$AAUIBuffer@Streams@Storage@Windows@@@23@@Z 1009fce0 f i WinRTVFS.obj
 0002:00061e08       ?__abi_Windows_Foundation_?$IAsyncOperation@P$AAUIBuffer@Streams@Storage@Windows@@____abi_get_Completed@?Q?$IAsyncOperation@P$AAUIBuffer@Streams@Storage@Windows@@@Foundation@Windows@@?$_AsyncInfoImpl@P$AAU?$IAsyncOperationWithProgress@P$AAUIBuffer@Streams@Storage@Windows@@I@Foundation@Windows@@V?$AsyncOperationWithProgressCompletedHandler@P$AAUIBuffer@Streams@Storage@Windows@@I@23@P$AAUIBuffer@Streams@Storage@3@@details@Concurrency@@W3$AAGJPAP$AAV?$AsyncOperationCompletedHandler@P$AAUIBuffer@Streams@Storage@Windows@@@23@@Z 1009fe08 f i WinRTVFS.obj
 0002:00061e20       ?__abi_Windows_Foundation_?$IAsyncOperation@P$AAUIBuffer@Streams@Storage@Windows@@____abi_set_Completed@?Q?$IAsyncOperation@P$AAUIBuffer@Streams@Storage@Windows@@@Foundation@Windows@@?$_AsyncInfoImpl@P$AAU?$IAsyncOperationWithProgress@P$AAUIBuffer@Streams@Storage@Windows@@I@Foundation@Windows@@V?$AsyncOperationWithProgressCompletedHandler@P$AAUIBuffer@Streams@Storage@Windows@@I@23@P$AAUIBuffer@Streams@Storage@3@@details@Concurrency@@U$AAGJP$AAV?$AsyncOperationCompletedHandler@P$AAUIBuffer@Streams@Storage@Windows@@@23@@Z 1009fe20 f i WinRTVFS.obj
 0002:00061f25       ?__abi_Windows_Foundation_?$IAsyncOperation@P$AAUIBuffer@Streams@Storage@Windows@@____abi_set_Completed@?Q?$IAsyncOperation@P$AAUIBuffer@Streams@Storage@Windows@@@Foundation@Windows@@?$_AsyncInfoImpl@P$AAU?$IAsyncOperationWithProgress@P$AAUIBuffer@Streams@Storage@Windows@@I@Foundation@Windows@@V?$AsyncOperationWithProgressCompletedHandler@P$AAUIBuffer@Streams@Storage@Windows@@I@23@P$AAUIBuffer@Streams@Storage@3@@details@Concurrency@@W3$AAGJP$AAV?$AsyncOperationCompletedHandler@P$AAUIBuffer@Streams@Storage@Windows@@@23@@Z 1009ff25 f i WinRTVFS.obj
 0002:00061f40       ?__abi_Windows_Foundation_AsyncActionCompletedHandler___abi_IDelegate____abi_Invoke@?Q__abi_IDelegate@AsyncActionCompletedHandler@Foundation@Windows@@234@U$AAGJP$AAUIAsyncAction@34@W4AsyncStatus@34@@Z 1009ff40 f i WinRTVFS.obj
 0002:00062020       ?__abi_Windows_Foundation_IAsyncInfo____abi_Cancel@?QIAsyncInfo@Foundation@Windows@@?$_AsyncInfoImpl@P$AAU?$IAsyncOperationWithProgress@II@Foundation@Windows@@V?$AsyncOperationWithProgressCompletedHandler@II@23@I@details@Concurrency@@U$AAGJXZ 100a0020 f i WinRTVFS.obj
 0002:00062120       ?__abi_Windows_Foundation_IAsyncInfo____abi_Cancel@?QIAsyncInfo@Foundation@Windows@@?$_AsyncInfoImpl@P$AAU?$IAsyncOperationWithProgress@II@Foundation@Windows@@V?$AsyncOperationWithProgressCompletedHandler@II@23@I@details@Concurrency@@W7$AAGJXZ 100a0120 f i WinRTVFS.obj
 0002:00062130       ?__abi_Windows_Foundation_IAsyncInfo____abi_Cancel@?QIAsyncInfo@Foundation@Windows@@?$_AsyncInfoImpl@P$AAU?$IAsyncOperationWithProgress@P$AAUIBuffer@Streams@Storage@Windows@@I@Foundation@Windows@@V?$AsyncOperationWithProgressCompletedHandler@P$AAUIBuffer@Streams@Storage@Windows@@I@23@P$AAUIBuffer@Streams@Storage@3@@details@Concurrency@@U$AAGJXZ 100a0130 f i WinRTVFS.obj
 0002:00062230       ?__abi_Windows_Foundation_IAsyncInfo____abi_Cancel@?QIAsyncInfo@Foundation@Windows@@?$_AsyncInfoImpl@P$AAU?$IAsyncOperationWithProgress@P$AAUIBuffer@Streams@Storage@Windows@@I@Foundation@Windows@@V?$AsyncOperationWithProgressCompletedHandler@P$AAUIBuffer@Streams@Storage@Windows@@I@23@P$AAUIBuffer@Streams@Storage@3@@details@Concurrency@@W7$AAGJXZ 100a0230 f i WinRTVFS.obj
 0002:00062240       ?__abi_Windows_Foundation_IAsyncInfo____abi_Cancel@?QIAsyncInfo@Foundation@Windows@@?$_AsyncInfoImpl@P$AAUIAsyncAction@Foundation@Windows@@VAsyncActionCompletedHandler@23@E@details@Concurrency@@U$AAGJXZ 100a0240 f i WinRTVFS.obj
 0002:00062340       ?__abi_Windows_Foundation_IAsyncInfo____abi_Cancel@?QIAsyncInfo@Foundation@Windows@@?$_AsyncInfoImpl@P$AAUIAsyncAction@Foundation@Windows@@VAsyncActionCompletedHandler@23@E@details@Concurrency@@W7$AAGJXZ 100a0340 f i WinRTVFS.obj
 0002:00062350       ?__abi_Windows_Foundation_IAsyncInfo____abi_Close@?QIAsyncInfo@Foundation@Windows@@?$_AsyncInfoImpl@P$AAU?$IAsyncOperationWithProgress@II@Foundation@Windows@@V?$AsyncOperationWithProgressCompletedHandler@II@23@I@details@Concurrency@@U$AAGJXZ 100a0350 f i WinRTVFS.obj
 0002:00062450       ?__abi_Windows_Foundation_IAsyncInfo____abi_Close@?QIAsyncInfo@Foundation@Windows@@?$_AsyncInfoImpl@P$AAU?$IAsyncOperationWithProgress@II@Foundation@Windows@@V?$AsyncOperationWithProgressCompletedHandler@II@23@I@details@Concurrency@@W7$AAGJXZ 100a0450 f i WinRTVFS.obj
 0002:00062460       ?__abi_Windows_Foundation_IAsyncInfo____abi_Close@?QIAsyncInfo@Foundation@Windows@@?$_AsyncInfoImpl@P$AAU?$IAsyncOperationWithProgress@P$AAUIBuffer@Streams@Storage@Windows@@I@Foundation@Windows@@V?$AsyncOperationWithProgressCompletedHandler@P$AAUIBuffer@Streams@Storage@Windows@@I@23@P$AAUIBuffer@Streams@Storage@3@@details@Concurrency@@U$AAGJXZ 100a0460 f i WinRTVFS.obj
 0002:00062560       ?__abi_Windows_Foundation_IAsyncInfo____abi_Close@?QIAsyncInfo@Foundation@Windows@@?$_AsyncInfoImpl@P$AAU?$IAsyncOperationWithProgress@P$AAUIBuffer@Streams@Storage@Windows@@I@Foundation@Windows@@V?$AsyncOperationWithProgressCompletedHandler@P$AAUIBuffer@Streams@Storage@Windows@@I@23@P$AAUIBuffer@Streams@Storage@3@@details@Concurrency@@W7$AAGJXZ 100a0560 f i WinRTVFS.obj
 0002:00062570       ?__abi_Windows_Foundation_IAsyncInfo____abi_Close@?QIAsyncInfo@Foundation@Windows@@?$_AsyncInfoImpl@P$AAUIAsyncAction@Foundation@Windows@@VAsyncActionCompletedHandler@23@E@details@Concurrency@@U$AAGJXZ 100a0570 f i WinRTVFS.obj
 0002:00062670       ?__abi_Windows_Foundation_IAsyncInfo____abi_Close@?QIAsyncInfo@Foundation@Windows@@?$_AsyncInfoImpl@P$AAUIAsyncAction@Foundation@Windows@@VAsyncActionCompletedHandler@23@E@details@Concurrency@@W7$AAGJXZ 100a0670 f i WinRTVFS.obj
 0002:00062680       ?__abi_Windows_Foundation_IAsyncInfo____abi_get_ErrorCode@?QIAsyncInfo@Foundation@Windows@@?$_AsyncInfoImpl@P$AAU?$IAsyncOperationWithProgress@II@Foundation@Windows@@V?$AsyncOperationWithProgressCompletedHandler@II@23@I@details@Concurrency@@U$AAGJPAVHResult@23@@Z 100a0680 f i WinRTVFS.obj
 0002:000627fc       ?__abi_Windows_Foundation_IAsyncInfo____abi_get_ErrorCode@?QIAsyncInfo@Foundation@Windows@@?$_AsyncInfoImpl@P$AAU?$IAsyncOperationWithProgress@II@Foundation@Windows@@V?$AsyncOperationWithProgressCompletedHandler@II@23@I@details@Concurrency@@W7$AAGJPAVHResult@23@@Z 100a07fc f i WinRTVFS.obj
 0002:00062810       ?__abi_Windows_Foundation_IAsyncInfo____abi_get_ErrorCode@?QIAsyncInfo@Foundation@Windows@@?$_AsyncInfoImpl@P$AAU?$IAsyncOperationWithProgress@P$AAUIBuffer@Streams@Storage@Windows@@I@Foundation@Windows@@V?$AsyncOperationWithProgressCompletedHandler@P$AAUIBuffer@Streams@Storage@Windows@@I@23@P$AAUIBuffer@Streams@Storage@3@@details@Concurrency@@U$AAGJPAVHResult@23@@Z 100a0810 f i WinRTVFS.obj
 0002:0006298c       ?__abi_Windows_Foundation_IAsyncInfo____abi_get_ErrorCode@?QIAsyncInfo@Foundation@Windows@@?$_AsyncInfoImpl@P$AAU?$IAsyncOperationWithProgress@P$AAUIBuffer@Streams@Storage@Windows@@I@Foundation@Windows@@V?$AsyncOperationWithProgressCompletedHandler@P$AAUIBuffer@Streams@Storage@Windows@@I@23@P$AAUIBuffer@Streams@Storage@3@@details@Concurrency@@W7$AAGJPAVHResult@23@@Z 100a098c f i WinRTVFS.obj
 0002:000629a0       ?__abi_Windows_Foundation_IAsyncInfo____abi_get_ErrorCode@?QIAsyncInfo@Foundation@Windows@@?$_AsyncInfoImpl@P$AAUIAsyncAction@Foundation@Windows@@VAsyncActionCompletedHandler@23@E@details@Concurrency@@U$AAGJPAVHResult@23@@Z 100a09a0 f i WinRTVFS.obj
 0002:00062b1c       ?__abi_Windows_Foundation_IAsyncInfo____abi_get_ErrorCode@?QIAsyncInfo@Foundation@Windows@@?$_AsyncInfoImpl@P$AAUIAsyncAction@Foundation@Windows@@VAsyncActionCompletedHandler@23@E@details@Concurrency@@W7$AAGJPAVHResult@23@@Z 100a0b1c f i WinRTVFS.obj
 0002:00062b30       ?__abi_Windows_Foundation_IAsyncInfo____abi_get_Id@?QIAsyncInfo@Foundation@Windows@@?$_AsyncInfoImpl@P$AAU?$IAsyncOperationWithProgress@II@Foundation@Windows@@V?$AsyncOperationWithProgressCompletedHandler@II@23@I@details@Concurrency@@U$AAGJPAI@Z 100a0b30 f i WinRTVFS.obj
 0002:00062c58       ?__abi_Windows_Foundation_IAsyncInfo____abi_get_Id@?QIAsyncInfo@Foundation@Windows@@?$_AsyncInfoImpl@P$AAU?$IAsyncOperationWithProgress@II@Foundation@Windows@@V?$AsyncOperationWithProgressCompletedHandler@II@23@I@details@Concurrency@@W7$AAGJPAI@Z 100a0c58 f i WinRTVFS.obj
 0002:00062c70       ?__abi_Windows_Foundation_IAsyncInfo____abi_get_Id@?QIAsyncInfo@Foundation@Windows@@?$_AsyncInfoImpl@P$AAU?$IAsyncOperationWithProgress@P$AAUIBuffer@Streams@Storage@Windows@@I@Foundation@Windows@@V?$AsyncOperationWithProgressCompletedHandler@P$AAUIBuffer@Streams@Storage@Windows@@I@23@P$AAUIBuffer@Streams@Storage@3@@details@Concurrency@@U$AAGJPAI@Z 100a0c70 f i WinRTVFS.obj
 0002:00062d98       ?__abi_Windows_Foundation_IAsyncInfo____abi_get_Id@?QIAsyncInfo@Foundation@Windows@@?$_AsyncInfoImpl@P$AAU?$IAsyncOperationWithProgress@P$AAUIBuffer@Streams@Storage@Windows@@I@Foundation@Windows@@V?$AsyncOperationWithProgressCompletedHandler@P$AAUIBuffer@Streams@Storage@Windows@@I@23@P$AAUIBuffer@Streams@Storage@3@@details@Concurrency@@W7$AAGJPAI@Z 100a0d98 f i WinRTVFS.obj
 0002:00062db0       ?__abi_Windows_Foundation_IAsyncInfo____abi_get_Id@?QIAsyncInfo@Foundation@Windows@@?$_AsyncInfoImpl@P$AAUIAsyncAction@Foundation@Windows@@VAsyncActionCompletedHandler@23@E@details@Concurrency@@U$AAGJPAI@Z 100a0db0 f i WinRTVFS.obj
 0002:00062ed8       ?__abi_Windows_Foundation_IAsyncInfo____abi_get_Id@?QIAsyncInfo@Foundation@Windows@@?$_AsyncInfoImpl@P$AAUIAsyncAction@Foundation@Windows@@VAsyncActionCompletedHandler@23@E@details@Concurrency@@W7$AAGJPAI@Z 100a0ed8 f i WinRTVFS.obj
 0002:00062ef0       ?__abi_Windows_Foundation_IAsyncInfo____abi_get_Status@?QIAsyncInfo@Foundation@Windows@@?$_AsyncInfoImpl@P$AAU?$IAsyncOperationWithProgress@II@Foundation@Windows@@V?$AsyncOperationWithProgressCompletedHandler@II@23@I@details@Concurrency@@U$AAGJPAW4AsyncStatus@23@@Z 100a0ef0 f i WinRTVFS.obj
 0002:00063018       ?__abi_Windows_Foundation_IAsyncInfo____abi_get_Status@?QIAsyncInfo@Foundation@Windows@@?$_AsyncInfoImpl@P$AAU?$IAsyncOperationWithProgress@II@Foundation@Windows@@V?$AsyncOperationWithProgressCompletedHandler@II@23@I@details@Concurrency@@W7$AAGJPAW4AsyncStatus@23@@Z 100a1018 f i WinRTVFS.obj
 0002:00063030       ?__abi_Windows_Foundation_IAsyncInfo____abi_get_Status@?QIAsyncInfo@Foundation@Windows@@?$_AsyncInfoImpl@P$AAU?$IAsyncOperationWithProgress@P$AAUIBuffer@Streams@Storage@Windows@@I@Foundation@Windows@@V?$AsyncOperationWithProgressCompletedHandler@P$AAUIBuffer@Streams@Storage@Windows@@I@23@P$AAUIBuffer@Streams@Storage@3@@details@Concurrency@@U$AAGJPAW4AsyncStatus@23@@Z 100a1030 f i WinRTVFS.obj
 0002:00063158       ?__abi_Windows_Foundation_IAsyncInfo____abi_get_Status@?QIAsyncInfo@Foundation@Windows@@?$_AsyncInfoImpl@P$AAU?$IAsyncOperationWithProgress@P$AAUIBuffer@Streams@Storage@Windows@@I@Foundation@Windows@@V?$AsyncOperationWithProgressCompletedHandler@P$AAUIBuffer@Streams@Storage@Windows@@I@23@P$AAUIBuffer@Streams@Storage@3@@details@Concurrency@@W7$AAGJPAW4AsyncStatus@23@@Z 100a1158 f i WinRTVFS.obj
 0002:00063170       ?__abi_Windows_Foundation_IAsyncInfo____abi_get_Status@?QIAsyncInfo@Foundation@Windows@@?$_AsyncInfoImpl@P$AAUIAsyncAction@Foundation@Windows@@VAsyncActionCompletedHandler@23@E@details@Concurrency@@U$AAGJPAW4AsyncStatus@23@@Z 100a1170 f i WinRTVFS.obj
 0002:00063298       ?__abi_Windows_Foundation_IAsyncInfo____abi_get_Status@?QIAsyncInfo@Foundation@Windows@@?$_AsyncInfoImpl@P$AAUIAsyncAction@Foundation@Windows@@VAsyncActionCompletedHandler@23@E@details@Concurrency@@W7$AAGJPAW4AsyncStatus@23@@Z 100a1298 f i WinRTVFS.obj
 0002:000632b0       ?__abi_delete_String@__abi_details@@YAXP$AAVString@Platform@@@Z 100a12b0 f i WinRTVFS.obj
 0002:00063300       ?__abi_dtor@__abi_FTMWeakRefData@@QAEXXZ 100a1300 f i WinRTVFS.obj
 0002:000633f0       ?__abi_winrt_CreateFastPassSystemStringFromLiteral@@YAP$AAVString@Platform@@PB_WIPAU__Platform_Details_HSTRING_HEADER@@@Z 100a13f0 f i WinRTVFS.obj
 0002:000634b0       ?__abi_winrt_ptr_assign@@YAPAXPAPAXP$ADVObject@Platform@@@Z 100a14b0 f i WinRTVFS.obj
 0002:00063570       ?__abi_winrt_ptrto_string_ctor@@YAPAXP$ADVString@Platform@@@Z 100a1570 f i WinRTVFS.obj
 0002:00063630       ?__abi_winrt_ptrto_string_dtor@@YAXQ$ADVString@Platform@@@Z 100a1630 f i WinRTVFS.obj
 0002:00063680       ?__abi_winrt_throw_on_disposed@@YAX_N@Z 100a1680 f i WinRTVFS.obj
 0002:00063740       ?__autoclassinit2@?$ComPtr@UIAgileObject@@@WRL@Microsoft@@QAEXI@Z 100a1740 f i WinRTVFS.obj
 0002:000637a0       ?__autoclassinit2@?$ComPtr@UIBufferByteAccess@Streams@Storage@Windows@@@WRL@Microsoft@@QAEXI@Z 100a17a0 f i WinRTVFS.obj
 0002:00063800       ?__autoclassinit2@?$ComPtr@UIUnknown@@@WRL@Microsoft@@QAEXI@Z 100a1800 f i WinRTVFS.obj
 0002:00063860       ?__autoclassinit2@?$_CancellationTokenCallback@V<lambda_17cb9174022a2677ccd4c777403439ce>@@@details@Concurrency@@QAEXI@Z 100a1860 f i WinRTVFS.obj
 0002:000638c0       ?__autoclassinit2@?$_Dynamic_array@PAV?$ISource@H@Concurrency@@@details@Concurrency@@QAEXI@Z 100a18c0 f i WinRTVFS.obj
 0002:00063920       ?__autoclassinit2@?$_Network_link_iterator@V?$ISource@H@Concurrency@@@Concurrency@@QAEXI@Z 100a1920 f i WinRTVFS.obj
 0002:00063980       ?__autoclassinit2@?$_Network_link_iterator@V?$ITarget@H@Concurrency@@@Concurrency@@QAEXI@Z 100a1980 f i WinRTVFS.obj
 0002:000639e0       ?__autoclassinit2@?$_Source_link_iterator@V?$multi_link_registry@V?$ISource@H@Concurrency@@@Concurrency@@@Concurrency@@QAEXI@Z 100a19e0 f i WinRTVFS.obj
 0002:00063a40       ?__autoclassinit2@?$_Vector_iterator@V?$_Vector_val@U?$_Simple_types@V?$shared_ptr@U?$_Task_impl@E@details@Concurrency@@@std@@@std@@@std@@@std@@QAEXI@Z 100a1a40 f i WinRTVFS.obj
 0002:00063aa0       ?__autoclassinit2@?$call@HV?$function@$$A6AXABH@Z@std@@@Concurrency@@QAEXI@Z 100a1aa0 f i WinRTVFS.obj
 0002:00063b00       ?__autoclassinit2@?$message@H@Concurrency@@QAEXI@Z 100a1b00 f i WinRTVFS.obj
 0002:00063b60       ?__autoclassinit2@?$shared_ptr@U?$_Task_completion_event_impl@E@details@Concurrency@@@std@@QAEXI@Z 100a1b60 f i WinRTVFS.obj
 0002:00063bc0       ?__autoclassinit2@?$shared_ptr@U?$_Task_impl@E@details@Concurrency@@@std@@QAEXI@Z 100a1bc0 f i WinRTVFS.obj
 0002:00063c20       ?__autoclassinit2@?$shared_ptr@U?$_Task_impl@I@details@Concurrency@@@std@@QAEXI@Z 100a1c20 f i WinRTVFS.obj
 0002:00063c80       ?__autoclassinit2@?$shared_ptr@U?$_Task_impl@P$AAUIBuffer@Streams@Storage@Windows@@@details@Concurrency@@@std@@QAEXI@Z 100a1c80 f i WinRTVFS.obj
 0002:00063ce0       ?__autoclassinit2@?$shared_ptr@U?$_Task_impl@P$AAUIRandomAccessStream@Streams@Storage@Windows@@@details@Concurrency@@@std@@QAEXI@Z 100a1ce0 f i WinRTVFS.obj
 0002:00063d40       ?__autoclassinit2@?$shared_ptr@U?$_Task_impl@P$AAVStorageFile@Storage@Windows@@@details@Concurrency@@@std@@QAEXI@Z 100a1d40 f i WinRTVFS.obj
 0002:00063da0       ?__autoclassinit2@?$shared_ptr@U?$_Task_impl@P$AAVStorageFolder@Storage@Windows@@@details@Concurrency@@@std@@QAEXI@Z 100a1da0 f i WinRTVFS.obj
 0002:00063e00       ?__autoclassinit2@?$shared_ptr@U?$_Task_impl@_N@details@Concurrency@@@std@@QAEXI@Z 100a1e00 f i WinRTVFS.obj
 0002:00063e60       ?__autoclassinit2@?$shared_ptr@U_ExceptionHolder@details@Concurrency@@@std@@QAEXI@Z 100a1e60 f i WinRTVFS.obj
 0002:00063ec0       ?__autoclassinit2@?$shared_ptr@U_Task_impl_base@details@Concurrency@@@std@@QAEXI@Z 100a1ec0 f i WinRTVFS.obj
 0002:00063f20       ?__autoclassinit2@?$task@I@Concurrency@@QAEXI@Z 100a1f20 f i WinRTVFS.obj
 0002:00063f80       ?__autoclassinit2@?$task@P$AAUIBuffer@Streams@Storage@Windows@@@Concurrency@@QAEXI@Z 100a1f80 f i WinRTVFS.obj
 0002:00063fe0       ?__autoclassinit2@?$task@P$AAUIRandomAccessStream@Streams@Storage@Windows@@@Concurrency@@QAEXI@Z 100a1fe0 f i WinRTVFS.obj
 0002:00064040       ?__autoclassinit2@?$task@P$AAVStorageFile@Storage@Windows@@@Concurrency@@QAEXI@Z 100a2040 f i WinRTVFS.obj
 0002:000640a0       ?__autoclassinit2@?$task@P$AAVStorageFolder@Storage@Windows@@@Concurrency@@QAEXI@Z 100a20a0 f i WinRTVFS.obj
 0002:00064100       ?__autoclassinit2@?$task@X@Concurrency@@QAEXI@Z 100a2100 f i WinRTVFS.obj
 0002:00064160       ?__autoclassinit2@?$task@_N@Concurrency@@QAEXI@Z 100a2160 f i WinRTVFS.obj
 0002:000641c0       ?__autoclassinit2@?$task_completion_event@X@Concurrency@@QAEXI@Z 100a21c0 f i WinRTVFS.obj
 0002:00064220       ?__autoclassinit2@?$timer@H@Concurrency@@QAEXI@Z 100a2220 f i WinRTVFS.obj
 0002:00064280       ?__autoclassinit2@?$vector@V?$shared_ptr@U?$_Task_impl@E@details@Concurrency@@@std@@V?$allocator@V?$shared_ptr@U?$_Task_impl@E@details@Concurrency@@@std@@@2@@std@@QAEXI@Z 100a2280 f i WinRTVFS.obj
 0002:000642e0       ?__autoclassinit2@_Scheduler@details@Concurrency@@QAEXI@Z 100a22e0 f i WinRTVFS.obj
 0002:00064340       ?__autoclassinit2@_TaskCreationCallstack@details@Concurrency@@QAEXI@Z 100a2340 f i WinRTVFS.obj
 0002:000643a0       ?__autoclassinit2@event@Concurrency@@QAEXI@Z 100a23a0 f i WinRTVFS.obj
 0002:00064400       ?__autoclassinit2@exception_ptr@std@@QAEXI@Z 100a2400 f i WinRTVFS.obj
 0002:00064460       ?_get_internal_task_options@details@Concurrency@@YAAAU_Internal_task_options@12@AAVtask_options@2@@Z 100a2460 f i WinRTVFS.obj
 0002:000644a0       ?_get_internal_task_options@details@Concurrency@@YAABU_Internal_task_options@12@ABVtask_options@2@@Z 100a24a0 f i WinRTVFS.obj
 0002:000644e0       ?_set_creation_callstack@_Internal_task_options@details@Concurrency@@QAEXABV_TaskCreationCallstack@23@@Z 100a24e0 f i WinRTVFS.obj
 0002:00064550       ?accept@?$source_block@V?$single_link_registry@V?$ITarget@H@Concurrency@@@Concurrency@@V?$ordered_message_processor@H@2@@Concurrency@@UAEPAV?$message@H@2@HPAV?$ITarget@H@2@@Z 100a2550 f i WinRTVFS.obj
 0002:00064660       ?accept_message@?$timer@H@Concurrency@@MAEPAV?$message@H@2@H@Z 100a2660 f i WinRTVFS.obj
 0002:00064700       ?acquire_ref@?$source_block@V?$single_link_registry@V?$ITarget@H@Concurrency@@@Concurrency@@V?$ordered_message_processor@H@2@@Concurrency@@UAEXPAV?$ITarget@H@2@@Z 100a2700 f i WinRTVFS.obj
 0002:00064750       ?add@?$multi_link_registry@V?$ISource@H@Concurrency@@@Concurrency@@UAEXPAV?$ISource@H@2@@Z 100a2750 f i WinRTVFS.obj
 0002:000647b0       ?add@?$single_link_registry@V?$ITarget@H@Concurrency@@@Concurrency@@UAEXPAV?$ITarget@H@2@@Z 100a27b0 f i WinRTVFS.obj
 0002:00064850       ?add@?$source_link_manager@V?$multi_link_registry@V?$ISource@H@Concurrency@@@Concurrency@@@Concurrency@@QAEXPAV?$ISource@H@2@@Z 100a2850 f i WinRTVFS.obj
 0002:000649d0       ?allocate@?$_Wrap_alloc@V?$allocator@PAX@std@@@std@@QAEPAPAXI@Z 100a29d0 f i WinRTVFS.obj
 0002:00064a30       ?allocate@?$_Wrap_alloc@V?$allocator@U_Container_proxy@std@@@std@@@std@@QAEPAU_Container_proxy@2@I@Z 100a2a30 f i WinRTVFS.obj
 0002:00064a90       ?allocate@?$_Wrap_alloc@V?$allocator@V?$shared_ptr@U?$_Task_impl@E@details@Concurrency@@@std@@@std@@@std@@QAEPAV?$shared_ptr@U?$_Task_impl@E@details@Concurrency@@@2@I@Z 100a2a90 f i WinRTVFS.obj
 0002:00064af0       ?allocate@?$allocator@PAX@std@@QAEPAPAXI@Z 100a2af0 f i WinRTVFS.obj
 0002:00064b50       ?allocate@?$allocator@V?$_Func_impl@U?$_Callable_obj@V<lambda_02d862f9cfc639ff7c37ca52d43e6a8c>@@$0A@@std@@V?$allocator@V?$_Func_class@X$$$V@std@@@2@X$$$V@std@@@std@@QAEPAV?$_Func_impl@U?$_Callable_obj@V<lambda_02d862f9cfc639ff7c37ca52d43e6a8c>@@$0A@@std@@V?$allocator@V?$_Func_class@X$$$V@std@@@2@X$$$V@2@I@Z 100a2b50 f i WinRTVFS.obj
 0002:00064bb0       ?allocate@?$allocator@V?$_Func_impl@U?$_Callable_obj@V<lambda_095a938ce4c5765dcc6b67f548aeb9c7>@@$0A@@std@@V?$allocator@V?$_Func_class@X$$$V@std@@@2@X$$$V@std@@@std@@QAEPAV?$_Func_impl@U?$_Callable_obj@V<lambda_095a938ce4c5765dcc6b67f548aeb9c7>@@$0A@@std@@V?$allocator@V?$_Func_class@X$$$V@std@@@2@X$$$V@2@I@Z 100a2bb0 f i WinRTVFS.obj
 0002:00064c10       ?allocate@?$allocator@V?$_Func_impl@U?$_Callable_obj@V<lambda_0b7f78ec4ced38495cec46e0d346e0b9>@@$0A@@std@@V?$allocator@V?$_Func_class@X$$$V@std@@@2@X$$$V@std@@@std@@QAEPAV?$_Func_impl@U?$_Callable_obj@V<lambda_0b7f78ec4ced38495cec46e0d346e0b9>@@$0A@@std@@V?$allocator@V?$_Func_class@X$$$V@std@@@2@X$$$V@2@I@Z 100a2c10 f i WinRTVFS.obj
 0002:00064c70       ?allocate@?$allocator@V?$_Func_impl@U?$_Callable_obj@V<lambda_0fe479da16d43edb8e9a254c493d643e>@@$0A@@std@@V?$allocator@V?$_Func_class@X$$$V@std@@@2@X$$$V@std@@@std@@QAEPAV?$_Func_impl@U?$_Callable_obj@V<lambda_0fe479da16d43edb8e9a254c493d643e>@@$0A@@std@@V?$allocator@V?$_Func_class@X$$$V@std@@@2@X$$$V@2@I@Z 100a2c70 f i WinRTVFS.obj
 0002:00064cd0       ?allocate@?$allocator@V?$_Func_impl@U?$_Callable_obj@V<lambda_1a93da980d6fe77644a4eefc4e1ad756>@@$0A@@std@@V?$allocator@V?$_Func_class@XABH@std@@@2@XABH@std@@@std@@QAEPAV?$_Func_impl@U?$_Callable_obj@V<lambda_1a93da980d6fe77644a4eefc4e1ad756>@@$0A@@std@@V?$allocator@V?$_Func_class@XABH@std@@@2@XABH@2@I@Z 100a2cd0 f i WinRTVFS.obj
 0002:00064d30       ?allocate@?$allocator@V?$_Func_impl@U?$_Callable_obj@V<lambda_295bc5f846209cba149a5e74d0d63a72>@@$0A@@std@@V?$allocator@V?$_Func_class@XPAV?$message@H@Concurrency@@@std@@@2@XPAV?$message@H@Concurrency@@@std@@@std@@QAEPAV?$_Func_impl@U?$_Callable_obj@V<lambda_295bc5f846209cba149a5e74d0d63a72>@@$0A@@std@@V?$allocator@V?$_Func_class@XPAV?$message@H@Concurrency@@@std@@@2@XPAV?$message@H@Concurrency@@@2@I@Z 100a2d30 f i WinRTVFS.obj
 0002:00064d90       ?allocate@?$allocator@V?$_Func_impl@U?$_Callable_obj@V<lambda_364e75aa895e992ae8821732ca646aa2>@@$0A@@std@@V?$allocator@V?$_Func_class@X$$$V@std@@@2@X$$$V@std@@@std@@QAEPAV?$_Func_impl@U?$_Callable_obj@V<lambda_364e75aa895e992ae8821732ca646aa2>@@$0A@@std@@V?$allocator@V?$_Func_class@X$$$V@std@@@2@X$$$V@2@I@Z 100a2d90 f i WinRTVFS.obj
 0002:00064df0       ?allocate@?$allocator@V?$_Func_impl@U?$_Callable_obj@V<lambda_39cde079c01d1b5b9307ff255a1ccdd9>@@$0A@@std@@V?$allocator@V?$_Func_class@EE@std@@@2@EE@std@@@std@@QAEPAV?$_Func_impl@U?$_Callable_obj@V<lambda_39cde079c01d1b5b9307ff255a1ccdd9>@@$0A@@std@@V?$allocator@V?$_Func_class@EE@std@@@2@EE@2@I@Z 100a2df0 f i WinRTVFS.obj
 0002:00064e50       ?allocate@?$allocator@V?$_Func_impl@U?$_Callable_obj@V<lambda_528650821c608ced6534641e311542a5>@@$0A@@std@@V?$allocator@V?$_Func_class@X$$$V@std@@@2@X$$$V@std@@@std@@QAEPAV?$_Func_impl@U?$_Callable_obj@V<lambda_528650821c608ced6534641e311542a5>@@$0A@@std@@V?$allocator@V?$_Func_class@X$$$V@std@@@2@X$$$V@2@I@Z 100a2e50 f i WinRTVFS.obj
 0002:00064eb0       ?allocate@?$allocator@V?$_Func_impl@U?$_Callable_obj@V<lambda_579ccd68d569251046038e8620afec85>@@$0A@@std@@V?$allocator@V?$_Func_class@XPAV?$message@H@Concurrency@@@std@@@2@XPAV?$message@H@Concurrency@@@std@@@std@@QAEPAV?$_Func_impl@U?$_Callable_obj@V<lambda_579ccd68d569251046038e8620afec85>@@$0A@@std@@V?$allocator@V?$_Func_class@XPAV?$message@H@Concurrency@@@std@@@2@XPAV?$message@H@Concurrency@@@2@I@Z 100a2eb0 f i WinRTVFS.obj
 0002:00064f10       ?allocate@?$allocator@V?$_Func_impl@U?$_Callable_obj@V<lambda_9fc58f08a03183e50e06176727aeb396>@@$0A@@std@@V?$allocator@V?$_Func_class@X$$$V@std@@@2@X$$$V@std@@@std@@QAEPAV?$_Func_impl@U?$_Callable_obj@V<lambda_9fc58f08a03183e50e06176727aeb396>@@$0A@@std@@V?$allocator@V?$_Func_class@X$$$V@std@@@2@X$$$V@2@I@Z 100a2f10 f i WinRTVFS.obj
 0002:00064f70       ?allocate@?$allocator@V?$_Func_impl@U?$_Callable_obj@V<lambda_a66b3ee15e662226a0b0b15ae647d32f>@@$0A@@std@@V?$allocator@V?$_Func_class@X$$$V@std@@@2@X$$$V@std@@@std@@QAEPAV?$_Func_impl@U?$_Callable_obj@V<lambda_a66b3ee15e662226a0b0b15ae647d32f>@@$0A@@std@@V?$allocator@V?$_Func_class@X$$$V@std@@@2@X$$$V@2@I@Z 100a2f70 f i WinRTVFS.obj
 0002:00064fd0       ?allocate@?$allocator@V?$_Func_impl@U?$_Callable_obj@V<lambda_c1a554f2383dae03f169289aed8c4103>@@$0A@@std@@V?$allocator@V?$_Func_class@X$$$V@std@@@2@X$$$V@std@@@std@@QAEPAV?$_Func_impl@U?$_Callable_obj@V<lambda_c1a554f2383dae03f169289aed8c4103>@@$0A@@std@@V?$allocator@V?$_Func_class@X$$$V@std@@@2@X$$$V@2@I@Z 100a2fd0 f i WinRTVFS.obj
 0002:00065030       ?allocate@?$allocator@V?$_Func_impl@U?$_Callable_obj@V<lambda_c28a53003ed51cdfe295a7d756f98c2f>@@$0A@@std@@V?$allocator@V?$_Func_class@XPAV?$message@H@Concurrency@@@std@@@2@XPAV?$message@H@Concurrency@@@std@@@std@@QAEPAV?$_Func_impl@U?$_Callable_obj@V<lambda_c28a53003ed51cdfe295a7d756f98c2f>@@$0A@@std@@V?$allocator@V?$_Func_class@XPAV?$message@H@Concurrency@@@std@@@2@XPAV?$message@H@Concurrency@@@2@I@Z 100a3030 f i WinRTVFS.obj
 0002:00065090       ?allocate@?$allocator@V?$_Func_impl@U?$_Callable_obj@V<lambda_e7ef5f1e4e1eca0ae8efc6086cf9f417>@@$0A@@std@@V?$allocator@V?$_Func_class@X$$$V@std@@@2@X$$$V@std@@@std@@QAEPAV?$_Func_impl@U?$_Callable_obj@V<lambda_e7ef5f1e4e1eca0ae8efc6086cf9f417>@@$0A@@std@@V?$allocator@V?$_Func_class@X$$$V@std@@@2@X$$$V@2@I@Z 100a3090 f i WinRTVFS.obj
 0002:000650f0       ?allocate@?$allocator@V?$shared_ptr@U?$_Task_impl@E@details@Concurrency@@@std@@@std@@QAEPAV?$shared_ptr@U?$_Task_impl@E@details@Concurrency@@@2@I@Z 100a30f0 f i WinRTVFS.obj
 0002:00065150       ?async_send@?$ordered_message_processor@H@Concurrency@@UAEXPAV?$message@H@2@@Z 100a3150 f i WinRTVFS.obj
 0002:00065300       ?async_send@?$source_block@V?$single_link_registry@V?$ITarget@H@Concurrency@@@Concurrency@@V?$ordered_message_processor@H@2@@Concurrency@@MAEXPAV?$message@H@2@@Z 100a3300 f i WinRTVFS.obj
 0002:00065370       ?async_send@?$target_block@V?$multi_link_registry@V?$ISource@H@Concurrency@@@Concurrency@@V?$ordered_message_processor@H@2@@Concurrency@@IAEXPAV?$message@H@2@@Z 100a3370 f i WinRTVFS.obj
 0002:000653e0       ?atomic_compare_exchange_strong_explicit@std@@YA_NPAUatomic_long@1@PAJJW4memory_order@1@2@Z 100a33e0 f i WinRTVFS.obj
 0002:00065510       ?atomic_exchange_explicit@std@@YAJPAUatomic_long@1@JW4memory_order@1@@Z 100a3510 f i WinRTVFS.obj
 0002:00065570       ?atomic_load@std@@YAJPBUatomic_long@1@@Z 100a3570 f i WinRTVFS.obj
 0002:000655c0       ?atomic_load_explicit@std@@YAJPBUatomic_long@1@W4memory_order@1@@Z 100a35c0 f i WinRTVFS.obj
 0002:00065620       ?atomic_store@std@@YAXPAUatomic_long@1@J@Z 100a3620 f i WinRTVFS.obj
 0002:00065680       ?atomic_store_explicit@std@@YAXPAUatomic_long@1@JW4memory_order@1@@Z 100a3680 f i WinRTVFS.obj
 0002:000656e0       ?begin@?$multi_link_registry@V?$ISource@H@Concurrency@@@Concurrency@@UAE?AV?$_Network_link_iterator@V?$ISource@H@Concurrency@@@2@XZ 100a36e0 f i WinRTVFS.obj
 0002:00065740       ?begin@?$single_link_registry@V?$ITarget@H@Concurrency@@@Concurrency@@UAE?AV?$_Network_link_iterator@V?$ITarget@H@Concurrency@@@2@XZ 100a3740 f i WinRTVFS.obj
 0002:000657a0       ?begin@?$source_link_manager@V?$multi_link_registry@V?$ISource@H@Concurrency@@@Concurrency@@@Concurrency@@QAE?AV?$_Source_link_iterator@V?$multi_link_registry@V?$ISource@H@Concurrency@@@Concurrency@@@2@XZ 100a37a0 f i WinRTVFS.obj
 0002:00065820       ?begin@?$vector@PAXV?$allocator@PAX@std@@@std@@QBE?AV?$_Vector_const_iterator@V?$_Vector_val@U?$_Simple_types@PAX@std@@@std@@@2@XZ 100a3820 f i WinRTVFS.obj
 0002:00065890       ?begin@?$vector@V?$shared_ptr@U?$_Task_impl@E@details@Concurrency@@@std@@V?$allocator@V?$shared_ptr@U?$_Task_impl@E@details@Concurrency@@@std@@@2@@std@@QAE?AV?$_Vector_iterator@V?$_Vector_val@U?$_Simple_types@V?$shared_ptr@U?$_Task_impl@E@details@Concurrency@@@std@@@std@@@std@@@2@XZ 100a3890 f i WinRTVFS.obj
 0002:00065900       ?capacity@?$vector@PAXV?$allocator@PAX@std@@@std@@QBEIXZ 100a3900 f i WinRTVFS.obj
 0002:00065950       ?capacity@?$vector@V?$shared_ptr@U?$_Task_impl@E@details@Concurrency@@@std@@V?$allocator@V?$shared_ptr@U?$_Task_impl@E@details@Concurrency@@@std@@@2@@std@@QBEIXZ 100a3950 f i WinRTVFS.obj
 0002:000659a0       ?clear@?$concurrent_queue@PAV?$message@H@Concurrency@@V?$allocator@PAV?$message@H@Concurrency@@@std@@@Concurrency@@QAEXXZ 100a39a0 f i WinRTVFS.obj
 0002:00065a80       ?clear@?$vector@PAXV?$allocator@PAX@std@@@std@@QAEXXZ 100a3a80 f i WinRTVFS.obj
 0002:00065b10       ?compare_exchange_strong@atomic_long@std@@QAE_NAAJJW4memory_order@2@@Z 100a3b10 f i WinRTVFS.obj
 0002:00065b80       ?complete_after@@YA?AV?$task@X@Concurrency@@I@Z 100a3b80 f   WinRTVFS.obj
 0002:00066000       ?construct@?$allocator@V?$shared_ptr@U?$_Task_impl@E@details@Concurrency@@@std@@@std@@QAEXPAV?$shared_ptr@U?$_Task_impl@E@details@Concurrency@@@2@ABV32@@Z 100a4000 f i WinRTVFS.obj
 0002:000660a0       ?consume@?$source_block@V?$single_link_registry@V?$ITarget@H@Concurrency@@@Concurrency@@V?$ordered_message_processor@H@2@@Concurrency@@UAEPAV?$message@H@2@HPAV?$ITarget@H@2@@Z 100a40a0 f i WinRTVFS.obj
 0002:00066290       ?consume_message@?$timer@H@Concurrency@@MAEPAV?$message@H@2@H@Z 100a4290 f i WinRTVFS.obj
 0002:00066300       ?contains@?$multi_link_registry@V?$ISource@H@Concurrency@@@Concurrency@@UAE_NPAV?$ISource@H@2@@Z 100a4300 f i WinRTVFS.obj
 0002:000663b0       ?contains@?$single_link_registry@V?$ITarget@H@Concurrency@@@Concurrency@@UAE_NPAV?$ITarget@H@2@@Z 100a43b0 f i WinRTVFS.obj
 0002:00066420       ?count@?$multi_link_registry@V?$ISource@H@Concurrency@@@Concurrency@@UAEIXZ 100a4420 f i WinRTVFS.obj
 0002:00066470       ?count@?$single_link_registry@V?$ITarget@H@Concurrency@@@Concurrency@@UAEIXZ 100a4470 f i WinRTVFS.obj
 0002:000664e0       ?count@?$source_link_manager@V?$multi_link_registry@V?$ISource@H@Concurrency@@@Concurrency@@@Concurrency@@QAEIXZ 100a44e0 f i WinRTVFS.obj
 0002:00066620       ?current_exception@std@@YA?AVexception_ptr@1@XZ 100a4620 f i WinRTVFS.obj
 0002:00066690       ?deallocate@?$_Wrap_alloc@V?$allocator@PAX@std@@@std@@QAEXPAPAXI@Z 100a4690 f i WinRTVFS.obj
 0002:000666f0       ?deallocate@?$_Wrap_alloc@V?$allocator@U_Container_proxy@std@@@std@@@std@@QAEXPAU_Container_proxy@2@I@Z 100a46f0 f i WinRTVFS.obj
 0002:00066750       ?deallocate@?$_Wrap_alloc@V?$allocator@V?$shared_ptr@U?$_Task_impl@E@details@Concurrency@@@std@@@std@@@std@@QAEXPAV?$shared_ptr@U?$_Task_impl@E@details@Concurrency@@@2@I@Z 100a4750 f i WinRTVFS.obj
 0002:000667b0       ?deallocate@?$allocator@PAX@std@@QAEXPAPAXI@Z 100a47b0 f i WinRTVFS.obj
 0002:00066810       ?deallocate@?$allocator@V?$_Func_impl@U?$_Callable_obj@V<lambda_02d862f9cfc639ff7c37ca52d43e6a8c>@@$0A@@std@@V?$allocator@V?$_Func_class@X$$$V@std@@@2@X$$$V@std@@@std@@QAEXPAV?$_Func_impl@U?$_Callable_obj@V<lambda_02d862f9cfc639ff7c37ca52d43e6a8c>@@$0A@@std@@V?$allocator@V?$_Func_class@X$$$V@std@@@2@X$$$V@2@I@Z 100a4810 f i WinRTVFS.obj
 0002:00066870       ?deallocate@?$allocator@V?$_Func_impl@U?$_Callable_obj@V<lambda_095a938ce4c5765dcc6b67f548aeb9c7>@@$0A@@std@@V?$allocator@V?$_Func_class@X$$$V@std@@@2@X$$$V@std@@@std@@QAEXPAV?$_Func_impl@U?$_Callable_obj@V<lambda_095a938ce4c5765dcc6b67f548aeb9c7>@@$0A@@std@@V?$allocator@V?$_Func_class@X$$$V@std@@@2@X$$$V@2@I@Z 100a4870 f i WinRTVFS.obj
 0002:000668d0       ?deallocate@?$allocator@V?$_Func_impl@U?$_Callable_obj@V<lambda_0b7f78ec4ced38495cec46e0d346e0b9>@@$0A@@std@@V?$allocator@V?$_Func_class@X$$$V@std@@@2@X$$$V@std@@@std@@QAEXPAV?$_Func_impl@U?$_Callable_obj@V<lambda_0b7f78ec4ced38495cec46e0d346e0b9>@@$0A@@std@@V?$allocator@V?$_Func_class@X$$$V@std@@@2@X$$$V@2@I@Z 100a48d0 f i WinRTVFS.obj
 0002:00066930       ?deallocate@?$allocator@V?$_Func_impl@U?$_Callable_obj@V<lambda_0fe479da16d43edb8e9a254c493d643e>@@$0A@@std@@V?$allocator@V?$_Func_class@X$$$V@std@@@2@X$$$V@std@@@std@@QAEXPAV?$_Func_impl@U?$_Callable_obj@V<lambda_0fe479da16d43edb8e9a254c493d643e>@@$0A@@std@@V?$allocator@V?$_Func_class@X$$$V@std@@@2@X$$$V@2@I@Z 100a4930 f i WinRTVFS.obj
 0002:00066990       ?deallocate@?$allocator@V?$_Func_impl@U?$_Callable_obj@V<lambda_1a93da980d6fe77644a4eefc4e1ad756>@@$0A@@std@@V?$allocator@V?$_Func_class@XABH@std@@@2@XABH@std@@@std@@QAEXPAV?$_Func_impl@U?$_Callable_obj@V<lambda_1a93da980d6fe77644a4eefc4e1ad756>@@$0A@@std@@V?$allocator@V?$_Func_class@XABH@std@@@2@XABH@2@I@Z 100a4990 f i WinRTVFS.obj
 0002:000669f0       ?deallocate@?$allocator@V?$_Func_impl@U?$_Callable_obj@V<lambda_295bc5f846209cba149a5e74d0d63a72>@@$0A@@std@@V?$allocator@V?$_Func_class@XPAV?$message@H@Concurrency@@@std@@@2@XPAV?$message@H@Concurrency@@@std@@@std@@QAEXPAV?$_Func_impl@U?$_Callable_obj@V<lambda_295bc5f846209cba149a5e74d0d63a72>@@$0A@@std@@V?$allocator@V?$_Func_class@XPAV?$message@H@Concurrency@@@std@@@2@XPAV?$message@H@Concurrency@@@2@I@Z 100a49f0 f i WinRTVFS.obj
 0002:00066a50       ?deallocate@?$allocator@V?$_Func_impl@U?$_Callable_obj@V<lambda_364e75aa895e992ae8821732ca646aa2>@@$0A@@std@@V?$allocator@V?$_Func_class@X$$$V@std@@@2@X$$$V@std@@@std@@QAEXPAV?$_Func_impl@U?$_Callable_obj@V<lambda_364e75aa895e992ae8821732ca646aa2>@@$0A@@std@@V?$allocator@V?$_Func_class@X$$$V@std@@@2@X$$$V@2@I@Z 100a4a50 f i WinRTVFS.obj
 0002:00066ab0       ?deallocate@?$allocator@V?$_Func_impl@U?$_Callable_obj@V<lambda_39cde079c01d1b5b9307ff255a1ccdd9>@@$0A@@std@@V?$allocator@V?$_Func_class@EE@std@@@2@EE@std@@@std@@QAEXPAV?$_Func_impl@U?$_Callable_obj@V<lambda_39cde079c01d1b5b9307ff255a1ccdd9>@@$0A@@std@@V?$allocator@V?$_Func_class@EE@std@@@2@EE@2@I@Z 100a4ab0 f i WinRTVFS.obj
 0002:00066b10       ?deallocate@?$allocator@V?$_Func_impl@U?$_Callable_obj@V<lambda_528650821c608ced6534641e311542a5>@@$0A@@std@@V?$allocator@V?$_Func_class@X$$$V@std@@@2@X$$$V@std@@@std@@QAEXPAV?$_Func_impl@U?$_Callable_obj@V<lambda_528650821c608ced6534641e311542a5>@@$0A@@std@@V?$allocator@V?$_Func_class@X$$$V@std@@@2@X$$$V@2@I@Z 100a4b10 f i WinRTVFS.obj
 0002:00066b70       ?deallocate@?$allocator@V?$_Func_impl@U?$_Callable_obj@V<lambda_579ccd68d569251046038e8620afec85>@@$0A@@std@@V?$allocator@V?$_Func_class@XPAV?$message@H@Concurrency@@@std@@@2@XPAV?$message@H@Concurrency@@@std@@@std@@QAEXPAV?$_Func_impl@U?$_Callable_obj@V<lambda_579ccd68d569251046038e8620afec85>@@$0A@@std@@V?$allocator@V?$_Func_class@XPAV?$message@H@Concurrency@@@std@@@2@XPAV?$message@H@Concurrency@@@2@I@Z 100a4b70 f i WinRTVFS.obj
 0002:00066bd0       ?deallocate@?$allocator@V?$_Func_impl@U?$_Callable_obj@V<lambda_9fc58f08a03183e50e06176727aeb396>@@$0A@@std@@V?$allocator@V?$_Func_class@X$$$V@std@@@2@X$$$V@std@@@std@@QAEXPAV?$_Func_impl@U?$_Callable_obj@V<lambda_9fc58f08a03183e50e06176727aeb396>@@$0A@@std@@V?$allocator@V?$_Func_class@X$$$V@std@@@2@X$$$V@2@I@Z 100a4bd0 f i WinRTVFS.obj
 0002:00066c30       ?deallocate@?$allocator@V?$_Func_impl@U?$_Callable_obj@V<lambda_a66b3ee15e662226a0b0b15ae647d32f>@@$0A@@std@@V?$allocator@V?$_Func_class@X$$$V@std@@@2@X$$$V@std@@@std@@QAEXPAV?$_Func_impl@U?$_Callable_obj@V<lambda_a66b3ee15e662226a0b0b15ae647d32f>@@$0A@@std@@V?$allocator@V?$_Func_class@X$$$V@std@@@2@X$$$V@2@I@Z 100a4c30 f i WinRTVFS.obj
 0002:00066c90       ?deallocate@?$allocator@V?$_Func_impl@U?$_Callable_obj@V<lambda_c1a554f2383dae03f169289aed8c4103>@@$0A@@std@@V?$allocator@V?$_Func_class@X$$$V@std@@@2@X$$$V@std@@@std@@QAEXPAV?$_Func_impl@U?$_Callable_obj@V<lambda_c1a554f2383dae03f169289aed8c4103>@@$0A@@std@@V?$allocator@V?$_Func_class@X$$$V@std@@@2@X$$$V@2@I@Z 100a4c90 f i WinRTVFS.obj
 0002:00066cf0       ?deallocate@?$allocator@V?$_Func_impl@U?$_Callable_obj@V<lambda_c28a53003ed51cdfe295a7d756f98c2f>@@$0A@@std@@V?$allocator@V?$_Func_class@XPAV?$message@H@Concurrency@@@std@@@2@XPAV?$message@H@Concurrency@@@std@@@std@@QAEXPAV?$_Func_impl@U?$_Callable_obj@V<lambda_c28a53003ed51cdfe295a7d756f98c2f>@@$0A@@std@@V?$allocator@V?$_Func_class@XPAV?$message@H@Concurrency@@@std@@@2@XPAV?$message@H@Concurrency@@@2@I@Z 100a4cf0 f i WinRTVFS.obj
 0002:00066d50       ?deallocate@?$allocator@V?$_Func_impl@U?$_Callable_obj@V<lambda_e7ef5f1e4e1eca0ae8efc6086cf9f417>@@$0A@@std@@V?$allocator@V?$_Func_class@X$$$V@std@@@2@X$$$V@std@@@std@@QAEXPAV?$_Func_impl@U?$_Callable_obj@V<lambda_e7ef5f1e4e1eca0ae8efc6086cf9f417>@@$0A@@std@@V?$allocator@V?$_Func_class@X$$$V@std@@@2@X$$$V@2@I@Z 100a4d50 f i WinRTVFS.obj
 0002:00066db0       ?deallocate@?$allocator@V?$shared_ptr@U?$_Task_impl@E@details@Concurrency@@@std@@@std@@QAEXPAV?$shared_ptr@U?$_Task_impl@E@details@Concurrency@@@2@I@Z 100a4db0 f i WinRTVFS.obj
 0002:00066e10       ?decline_incoming_messages@?$target_block@V?$multi_link_registry@V?$ISource@H@Concurrency@@@Concurrency@@V?$ordered_message_processor@H@2@@Concurrency@@IAEXXZ 100a4e10 f i WinRTVFS.obj
 0002:00066e50       ?empty@?$concurrent_queue@PAV?$message@H@Concurrency@@V?$allocator@PAV?$message@H@Concurrency@@@std@@@Concurrency@@QBE_NXZ 100a4e50 f i WinRTVFS.obj
 0002:00066eb0       ?empty@?$vector@PAXV?$allocator@PAX@std@@@std@@QBE_NXZ 100a4eb0 f i WinRTVFS.obj
 0002:00066f20       ?empty@TokenRegistrationContainer@_CancellationTokenState@details@Concurrency@@QAE_NXZ 100a4f20 f i WinRTVFS.obj
 0002:00066f90       ?enable_batched_processing@?$target_block@V?$multi_link_registry@V?$ISource@H@Concurrency@@@Concurrency@@V?$ordered_message_processor@H@2@@Concurrency@@IAEXXZ 100a4f90 f i WinRTVFS.obj
 0002:000670b0       ?end@?$vector@PAXV?$allocator@PAX@std@@@std@@QBE?AV?$_Vector_const_iterator@V?$_Vector_val@U?$_Simple_types@PAX@std@@@std@@@2@XZ 100a50b0 f i WinRTVFS.obj
 0002:00067120       ?end@?$vector@V?$shared_ptr@U?$_Task_impl@E@details@Concurrency@@@std@@V?$allocator@V?$shared_ptr@U?$_Task_impl@E@details@Concurrency@@@std@@@2@@std@@QAE?AV?$_Vector_iterator@V?$_Vector_val@U?$_Simple_types@V?$shared_ptr@U?$_Task_impl@E@details@Concurrency@@@std@@@std@@@std@@@2@XZ 100a5120 f i WinRTVFS.obj
 0002:00067190       ?exchange@atomic_long@std@@QAEJJW4memory_order@2@@Z 100a5190 f i WinRTVFS.obj
 0002:000671f0       ?get@?$shared_ptr@U_ExceptionHolder@details@Concurrency@@@std@@QBEPAU_ExceptionHolder@details@Concurrency@@XZ 100a51f0 f i WinRTVFS.obj
 0002:00067240       ?get@?$shared_ptr@U_Task_impl_base@details@Concurrency@@@std@@QBEPAU_Task_impl_base@details@Concurrency@@XZ 100a5240 f i WinRTVFS.obj
 0002:00067290       ?get@?$shared_ptr@Uscheduler_interface@Concurrency@@@std@@QBEPAUscheduler_interface@Concurrency@@XZ 100a5290 f i WinRTVFS.obj
 0002:000672e0       ?get@?$task@P$AAUIBuffer@Streams@Storage@Windows@@@Concurrency@@QBEP$AAUIBuffer@Streams@Storage@Windows@@XZ 100a52e0 f i WinRTVFS.obj
 0002:00067450       ?get@?$task@P$AAUIRandomAccessStream@Streams@Storage@Windows@@@Concurrency@@QBEP$AAUIRandomAccessStream@Streams@Storage@Windows@@XZ 100a5450 f i WinRTVFS.obj
 0002:000675c0       ?get@?$task@P$AAVStorageFile@Storage@Windows@@@Concurrency@@QBEP$AAVStorageFile@Storage@Windows@@XZ 100a55c0 f i WinRTVFS.obj
 0002:00067730       ?get@?$task@P$AAVStorageFolder@Storage@Windows@@@Concurrency@@QBEP$AAVStorageFolder@Storage@Windows@@XZ 100a5730 f i WinRTVFS.obj
 0002:000678a0       ?get@?Q?$IAsyncOperation@E@Foundation@Windows@@Completed@?$_AsyncInfoImpl@P$AAUIAsyncAction@Foundation@Windows@@VAsyncActionCompletedHandler@23@E@details@Concurrency@@U$AAAP$AAV?$AsyncOperationCompletedHandler@E@23@XZ 100a58a0 f i WinRTVFS.obj
 0002:000678f1       ?get@?Q?$IAsyncOperation@E@Foundation@Windows@@Completed@?$_AsyncInfoImpl@P$AAUIAsyncAction@Foundation@Windows@@VAsyncActionCompletedHandler@23@E@details@Concurrency@@W3$AAAP$AAV?$AsyncOperationCompletedHandler@E@23@XZ 100a58f1 f i WinRTVFS.obj
 0002:00067900       ?get@?Q?$IAsyncOperation@I@Foundation@Windows@@Completed@?$_AsyncInfoImpl@P$AAU?$IAsyncOperationWithProgress@II@Foundation@Windows@@V?$AsyncOperationWithProgressCompletedHandler@II@23@I@details@Concurrency@@U$AAAP$AAV?$AsyncOperationCompletedHandler@I@23@XZ 100a5900 f i WinRTVFS.obj
 0002:00067951       ?get@?Q?$IAsyncOperation@I@Foundation@Windows@@Completed@?$_AsyncInfoImpl@P$AAU?$IAsyncOperationWithProgress@II@Foundation@Windows@@V?$AsyncOperationWithProgressCompletedHandler@II@23@I@details@Concurrency@@W3$AAAP$AAV?$AsyncOperationCompletedHandler@I@23@XZ 100a5951 f i WinRTVFS.obj
 0002:00067960       ?get@?Q?$IAsyncOperation@P$AAUIBuffer@Streams@Storage@Windows@@@Foundation@Windows@@Completed@?$_AsyncInfoImpl@P$AAU?$IAsyncOperationWithProgress@P$AAUIBuffer@Streams@Storage@Windows@@I@Foundation@Windows@@V?$AsyncOperationWithProgressCompletedHandler@P$AAUIBuffer@Streams@Storage@Windows@@I@23@P$AAUIBuffer@Streams@Storage@3@@details@Concurrency@@U$AAAP$AAV?$AsyncOperationCompletedHandler@P$AAUIBuffer@Streams@Storage@Windows@@@23@XZ 100a5960 f i WinRTVFS.obj
 0002:000679b1       ?get@?Q?$IAsyncOperation@P$AAUIBuffer@Streams@Storage@Windows@@@Foundation@Windows@@Completed@?$_AsyncInfoImpl@P$AAU?$IAsyncOperationWithProgress@P$AAUIBuffer@Streams@Storage@Windows@@I@Foundation@Windows@@V?$AsyncOperationWithProgressCompletedHandler@P$AAUIBuffer@Streams@Storage@Windows@@I@23@P$AAUIBuffer@Streams@Storage@3@@details@Concurrency@@W3$AAAP$AAV?$AsyncOperationCompletedHandler@P$AAUIBuffer@Streams@Storage@Windows@@@23@XZ 100a59b1 f i WinRTVFS.obj
 0002:000679c0       ?get@?QIAsyncInfo@Foundation@Windows@@ErrorCode@?$_AsyncInfoImpl@P$AAU?$IAsyncOperationWithProgress@II@Foundation@Windows@@V?$AsyncOperationWithProgressCompletedHandler@II@23@I@details@Concurrency@@U$AAA?AVHResult@23@XZ 100a59c0 f i WinRTVFS.obj
 0002:00067ac7       ?get@?QIAsyncInfo@Foundation@Windows@@ErrorCode@?$_AsyncInfoImpl@P$AAU?$IAsyncOperationWithProgress@II@Foundation@Windows@@V?$AsyncOperationWithProgressCompletedHandler@II@23@I@details@Concurrency@@W7$AAA?AVHResult@23@XZ 100a5ac7 f i WinRTVFS.obj
 0002:00067ae0       ?get@?QIAsyncInfo@Foundation@Windows@@ErrorCode@?$_AsyncInfoImpl@P$AAU?$IAsyncOperationWithProgress@P$AAUIBuffer@Streams@Storage@Windows@@I@Foundation@Windows@@V?$AsyncOperationWithProgressCompletedHandler@P$AAUIBuffer@Streams@Storage@Windows@@I@23@P$AAUIBuffer@Streams@Storage@3@@details@Concurrency@@U$AAA?AVHResult@23@XZ 100a5ae0 f i WinRTVFS.obj
 0002:00067be7       ?get@?QIAsyncInfo@Foundation@Windows@@ErrorCode@?$_AsyncInfoImpl@P$AAU?$IAsyncOperationWithProgress@P$AAUIBuffer@Streams@Storage@Windows@@I@Foundation@Windows@@V?$AsyncOperationWithProgressCompletedHandler@P$AAUIBuffer@Streams@Storage@Windows@@I@23@P$AAUIBuffer@Streams@Storage@3@@details@Concurrency@@W7$AAA?AVHResult@23@XZ 100a5be7 f i WinRTVFS.obj
 0002:00067c00       ?get@?QIAsyncInfo@Foundation@Windows@@ErrorCode@?$_AsyncInfoImpl@P$AAUIAsyncAction@Foundation@Windows@@VAsyncActionCompletedHandler@23@E@details@Concurrency@@U$AAA?AVHResult@23@XZ 100a5c00 f i WinRTVFS.obj
 0002:00067d07       ?get@?QIAsyncInfo@Foundation@Windows@@ErrorCode@?$_AsyncInfoImpl@P$AAUIAsyncAction@Foundation@Windows@@VAsyncActionCompletedHandler@23@E@details@Concurrency@@W7$AAA?AVHResult@23@XZ 100a5d07 f i WinRTVFS.obj
 0002:00067d20       ?get@?QIAsyncInfo@Foundation@Windows@@Id@?$_AsyncInfoImpl@P$AAU?$IAsyncOperationWithProgress@II@Foundation@Windows@@V?$AsyncOperationWithProgressCompletedHandler@II@23@I@details@Concurrency@@U$AAAIXZ 100a5d20 f i WinRTVFS.obj
 0002:00067e2e       ?get@?QIAsyncInfo@Foundation@Windows@@Id@?$_AsyncInfoImpl@P$AAU?$IAsyncOperationWithProgress@II@Foundation@Windows@@V?$AsyncOperationWithProgressCompletedHandler@II@23@I@details@Concurrency@@W7$AAAIXZ 100a5e2e f i WinRTVFS.obj
 0002:00067e40       ?get@?QIAsyncInfo@Foundation@Windows@@Id@?$_AsyncInfoImpl@P$AAU?$IAsyncOperationWithProgress@P$AAUIBuffer@Streams@Storage@Windows@@I@Foundation@Windows@@V?$AsyncOperationWithProgressCompletedHandler@P$AAUIBuffer@Streams@Storage@Windows@@I@23@P$AAUIBuffer@Streams@Storage@3@@details@Concurrency@@U$AAAIXZ 100a5e40 f i WinRTVFS.obj
 0002:00067f4e       ?get@?QIAsyncInfo@Foundation@Windows@@Id@?$_AsyncInfoImpl@P$AAU?$IAsyncOperationWithProgress@P$AAUIBuffer@Streams@Storage@Windows@@I@Foundation@Windows@@V?$AsyncOperationWithProgressCompletedHandler@P$AAUIBuffer@Streams@Storage@Windows@@I@23@P$AAUIBuffer@Streams@Storage@3@@details@Concurrency@@W7$AAAIXZ 100a5f4e f i WinRTVFS.obj
 0002:00067f60       ?get@?QIAsyncInfo@Foundation@Windows@@Id@?$_AsyncInfoImpl@P$AAUIAsyncAction@Foundation@Windows@@VAsyncActionCompletedHandler@23@E@details@Concurrency@@U$AAAIXZ 100a5f60 f i WinRTVFS.obj
 0002:0006806e       ?get@?QIAsyncInfo@Foundation@Windows@@Id@?$_AsyncInfoImpl@P$AAUIAsyncAction@Foundation@Windows@@VAsyncActionCompletedHandler@23@E@details@Concurrency@@W7$AAAIXZ 100a606e f i WinRTVFS.obj
 0002:00068080       ?get@?QIAsyncInfo@Foundation@Windows@@Status@?$_AsyncInfoImpl@P$AAU?$IAsyncOperationWithProgress@II@Foundation@Windows@@V?$AsyncOperationWithProgressCompletedHandler@II@23@I@details@Concurrency@@U$AAA?AW4AsyncStatus@23@XZ 100a6080 f i WinRTVFS.obj
 0002:0006818e       ?get@?QIAsyncInfo@Foundation@Windows@@Status@?$_AsyncInfoImpl@P$AAU?$IAsyncOperationWithProgress@II@Foundation@Windows@@V?$AsyncOperationWithProgressCompletedHandler@II@23@I@details@Concurrency@@W7$AAA?AW4AsyncStatus@23@XZ 100a618e f i WinRTVFS.obj
 0002:000681a0       ?get@?QIAsyncInfo@Foundation@Windows@@Status@?$_AsyncInfoImpl@P$AAU?$IAsyncOperationWithProgress@P$AAUIBuffer@Streams@Storage@Windows@@I@Foundation@Windows@@V?$AsyncOperationWithProgressCompletedHandler@P$AAUIBuffer@Streams@Storage@Windows@@I@23@P$AAUIBuffer@Streams@Storage@3@@details@Concurrency@@U$AAA?AW4AsyncStatus@23@XZ 100a61a0 f i WinRTVFS.obj
 0002:000682ae       ?get@?QIAsyncInfo@Foundation@Windows@@Status@?$_AsyncInfoImpl@P$AAU?$IAsyncOperationWithProgress@P$AAUIBuffer@Streams@Storage@Windows@@I@Foundation@Windows@@V?$AsyncOperationWithProgressCompletedHandler@P$AAUIBuffer@Streams@Storage@Windows@@I@23@P$AAUIBuffer@Streams@Storage@3@@details@Concurrency@@W7$AAA?AW4AsyncStatus@23@XZ 100a62ae f i WinRTVFS.obj
 0002:000682c0       ?get@?QIAsyncInfo@Foundation@Windows@@Status@?$_AsyncInfoImpl@P$AAUIAsyncAction@Foundation@Windows@@VAsyncActionCompletedHandler@23@E@details@Concurrency@@U$AAA?AW4AsyncStatus@23@XZ 100a62c0 f i WinRTVFS.obj
 0002:000683ce       ?get@?QIAsyncInfo@Foundation@Windows@@Status@?$_AsyncInfoImpl@P$AAUIAsyncAction@Foundation@Windows@@VAsyncActionCompletedHandler@23@E@details@Concurrency@@W7$AAA?AW4AsyncStatus@23@XZ 100a63ce f i WinRTVFS.obj
 0002:000683e0       ?get@ErrorCode@IAsyncInfo@Foundation@Windows@@U$AAA?AVHResult@34@XZ 100a63e0 f i WinRTVFS.obj
 0002:000684c0       ?get@Id@IAsyncInfo@Foundation@Windows@@U$AAAIXZ 100a64c0 f i WinRTVFS.obj
 0002:000685a0       ?get@Length@IBuffer@Streams@Storage@Windows@@U$AAAIXZ 100a65a0 f i WinRTVFS.obj
 0002:00068680       ?get@Size@IRandomAccessStream@Streams@Storage@Windows@@U$AAA_KXZ 100a6680 f i WinRTVFS.obj
 0002:00068760       ?get@Status@IAsyncInfo@Foundation@Windows@@U$AAA?AW4AsyncStatus@34@XZ 100a6760 f i WinRTVFS.obj
 0002:00068840       ?get@scheduler_ptr@Concurrency@@QBEPAUscheduler_interface@2@XZ 100a6840 f i WinRTVFS.obj
 0002:00068880       ?get_ambient_scheduler@Concurrency@@YA?AV?$shared_ptr@Uscheduler_interface@Concurrency@@@std@@XZ 100a6880 f i WinRTVFS.obj
 0002:000688f0       ?get_cancellation_token@task_options@Concurrency@@QBE?AVcancellation_token@2@XZ 100a68f0 f i WinRTVFS.obj
 0002:00068970       ?get_continuation_context@task_options@Concurrency@@QBE?AVtask_continuation_context@2@XZ 100a6970 f i WinRTVFS.obj
 0002:000689f0       ?get_scheduler@task_options@Concurrency@@QBE?AUscheduler_ptr@2@XZ 100a69f0 f i WinRTVFS.obj
 0002:00068a70       ?has_cancellation_token@task_options@Concurrency@@QBE_NXZ 100a6a70 f i WinRTVFS.obj
 0002:00068ab0       ?has_scheduler@task_options@Concurrency@@QBE_NXZ 100a6ab0 f i WinRTVFS.obj
 0002:00068af0       ?initialize@?$ordered_message_processor@H@Concurrency@@QAEXPAVScheduler@2@PAVScheduleGroup@2@ABV?$function@$$A6AXPAV?$message@H@Concurrency@@@Z@std@@@Z 100a6af0 f i WinRTVFS.obj
 0002:00068b70       ?initialize_batched_processing@?$ordered_message_processor@H@Concurrency@@UAEXABV?$function@$$A6AXPAV?$message@H@Concurrency@@@Z@std@@ABV?$function@$$A6AXXZ@4@@Z 100a6b70 f i WinRTVFS.obj
 0002:00068be0       ?initialize_source@?$source_block@V?$single_link_registry@V?$ITarget@H@Concurrency@@@Concurrency@@V?$ordered_message_processor@H@2@@Concurrency@@IAEXPAVScheduler@2@PAVScheduleGroup@2@@Z 100a6be0 f i WinRTVFS.obj
 0002:00068cc0       ?initialize_target@?$target_block@V?$multi_link_registry@V?$ISource@H@Concurrency@@@Concurrency@@V?$ordered_message_processor@H@2@@Concurrency@@IAEXPAVScheduler@2@PAVScheduleGroup@2@@Z 100a6cc0 f i WinRTVFS.obj
 0002:00068db0       ?invoke@?$_PPLTaskHandle@EU?$_ContinuationTaskHandle@XXV<lambda_9fc58f08a03183e50e06176727aeb396>@@U?$integral_constant@_N$0A@@std@@U_TypeSelectorNoAsync@details@Concurrency@@@?$task@E@Concurrency@@U_ContinuationTaskHandleBase@details@3@@details@Concurrency@@UBEXXZ 100a6db0 f i WinRTVFS.obj
 0002:00069040       ?link_source@?$target_block@V?$multi_link_registry@V?$ISource@H@Concurrency@@@Concurrency@@V?$ordered_message_processor@H@2@@Concurrency@@MAEXPAV?$ISource@H@2@@Z 100a7040 f i WinRTVFS.obj
 0002:000690e0       ?link_target@?$source_block@V?$single_link_registry@V?$ITarget@H@Concurrency@@@Concurrency@@V?$ordered_message_processor@H@2@@Concurrency@@UAEXPAV?$ITarget@H@2@@Z 100a70e0 f i WinRTVFS.obj
 0002:00069280       ?link_target_notification@?$source_block@V?$single_link_registry@V?$ITarget@H@Concurrency@@@Concurrency@@V?$ordered_message_processor@H@2@@Concurrency@@MAEXPAV?$ITarget@H@2@@Z 100a7280 f i WinRTVFS.obj
 0002:000692f0       ?link_target_notification@?$timer@H@Concurrency@@MAEXPAV?$ITarget@H@2@@Z 100a72f0 f i WinRTVFS.obj
 0002:000693a0       ?lock@?$weak_ptr@U_Task_impl_base@details@Concurrency@@@std@@QBE?AV?$shared_ptr@U_Task_impl_base@details@Concurrency@@@2@XZ 100a73a0 f i WinRTVFS.obj
 0002:00069400       ?max_size@?$_Wrap_alloc@V?$allocator@PAX@std@@@std@@QBEIXZ 100a7400 f i WinRTVFS.obj
 0002:00069460       ?max_size@?$_Wrap_alloc@V?$allocator@V?$shared_ptr@U?$_Task_impl@E@details@Concurrency@@@std@@@std@@@std@@QBEIXZ 100a7460 f i WinRTVFS.obj
 0002:000694c0       ?max_size@?$allocator@PAX@std@@QBEIXZ 100a74c0 f i WinRTVFS.obj
 0002:00069500       ?max_size@?$allocator@V?$shared_ptr@U?$_Task_impl@E@details@Concurrency@@@std@@@std@@QBEIXZ 100a7500 f i WinRTVFS.obj
 0002:00069540       ?max_size@?$allocator_traits@V?$allocator@PAX@std@@@std@@SAIABV?$allocator@PAX@2@@Z 100a7540 f i WinRTVFS.obj
 0002:00069590       ?max_size@?$allocator_traits@V?$allocator@V?$shared_ptr@U?$_Task_impl@E@details@Concurrency@@@std@@@std@@@std@@SAIABV?$allocator@V?$shared_ptr@U?$_Task_impl@E@details@Concurrency@@@std@@@2@@Z 100a7590 f i WinRTVFS.obj
 0002:000695e0       ?max_size@?$vector@PAXV?$allocator@PAX@std@@@std@@QBEIXZ 100a75e0 f i WinRTVFS.obj
 0002:00069640       ?max_size@?$vector@V?$shared_ptr@U?$_Task_impl@E@details@Concurrency@@@std@@V?$allocator@V?$shared_ptr@U?$_Task_impl@E@details@Concurrency@@@std@@@2@@std@@QBEIXZ 100a7640 f i WinRTVFS.obj
 0002:000696a0       ?msg_id@?$message@H@Concurrency@@QBEHXZ 100a76a0 f i WinRTVFS.obj
 0002:000696e0       ?none@cancellation_token@Concurrency@@SA?AV12@XZ 100a76e0 f i WinRTVFS.obj
 0002:00069750       ?process_incoming_message@?$ordered_message_processor@H@Concurrency@@MAEXXZ 100a7750 f i WinRTVFS.obj
 0002:00069810       ?process_input_messages@?$call@HV?$function@$$A6AXABH@Z@std@@@Concurrency@@MAEXPAV?$message@H@2@@Z 100a7810 f i WinRTVFS.obj
 0002:00069920       ?process_input_messages@?$source_block@V?$single_link_registry@V?$ITarget@H@Concurrency@@@Concurrency@@V?$ordered_message_processor@H@2@@Concurrency@@MAEXPAV?$message@H@2@@Z 100a7920 f i WinRTVFS.obj
 0002:00069960       ?process_input_messages@?$target_block@V?$multi_link_registry@V?$ISource@H@Concurrency@@@Concurrency@@V?$ordered_message_processor@H@2@@Concurrency@@MAEXPAV?$message@H@2@@Z 100a7960 f i WinRTVFS.obj
 0002:000699e0       ?process_message@?$call@HV?$function@$$A6AXABH@Z@std@@@Concurrency@@MAEXPAV?$message@H@2@@Z 100a79e0 f i WinRTVFS.obj
 0002:00069a20       ?process_message@?$target_block@V?$multi_link_registry@V?$ISource@H@Concurrency@@@Concurrency@@V?$ordered_message_processor@H@2@@Concurrency@@MAEXPAV?$message@H@2@@Z 100a7a20 f i WinRTVFS.obj
 0002:00069a60       ?propagate@?$target_block@V?$multi_link_registry@V?$ISource@H@Concurrency@@@Concurrency@@V?$ordered_message_processor@H@2@@Concurrency@@UAE?AW4message_status@2@PAV?$message@H@2@PAV?$ISource@H@2@@Z 100a7a60 f i WinRTVFS.obj
 0002:00069b80       ?propagate_message@?$call@HV?$function@$$A6AXABH@Z@std@@@Concurrency@@MAE?AW4message_status@2@PAV?$message@H@2@PAV?$ISource@H@2@@Z 100a7b80 f i WinRTVFS.obj
 0002:00069c30       ?propagate_output_messages@?$source_block@V?$single_link_registry@V?$ITarget@H@Concurrency@@@Concurrency@@V?$ordered_message_processor@H@2@@Concurrency@@MAEXXZ 100a7c30 f i WinRTVFS.obj
 0002:00069cb0       ?propagate_to_any_targets@?$source_block@V?$single_link_registry@V?$ITarget@H@Concurrency@@@Concurrency@@V?$ordered_message_processor@H@2@@Concurrency@@MAEXPAV?$message@H@2@@Z 100a7cb0 f i WinRTVFS.obj
 0002:00069d30       ?propagate_to_any_targets@?$timer@H@Concurrency@@MAEXPAV?$message@H@2@@Z 100a7d30 f i WinRTVFS.obj
 0002:00069eb0       ?push@?$concurrent_queue@PAV?$message@H@Concurrency@@V?$allocator@PAV?$message@H@Concurrency@@@std@@@Concurrency@@QAEXABQAV?$message@H@2@@Z 100a7eb0 f i WinRTVFS.obj
 0002:00069f20       ?push_back@?$vector@V?$shared_ptr@U?$_Task_impl@E@details@Concurrency@@@std@@V?$allocator@V?$shared_ptr@U?$_Task_impl@E@details@Concurrency@@@std@@@2@@std@@QAEXABV?$shared_ptr@U?$_Task_impl@E@details@Concurrency@@@2@@Z 100a7f20 f i WinRTVFS.obj
 0002:0006a0b0       ?push_back@TokenRegistrationContainer@_CancellationTokenState@details@Concurrency@@QAEXPAV_CancellationTokenRegistration@34@@Z 100a80b0 f i WinRTVFS.obj
 0002:0006a190       ?register_target_block@?$source_link_manager@V?$multi_link_registry@V?$ISource@H@Concurrency@@@Concurrency@@@Concurrency@@QAEXPAV?$ITarget@H@2@@Z 100a8190 f i WinRTVFS.obj
 0002:0006a1e0       ?release@?$source_block@V?$single_link_registry@V?$ITarget@H@Concurrency@@@Concurrency@@V?$ordered_message_processor@H@2@@Concurrency@@UAEXHPAV?$ITarget@H@2@@Z 100a81e0 f i WinRTVFS.obj
 0002:0006a3b0       ?release@?$source_link_manager@V?$multi_link_registry@V?$ISource@H@Concurrency@@@Concurrency@@@Concurrency@@QAEXXZ 100a83b0 f i WinRTVFS.obj
 0002:0006a610       ?release_message@?$timer@H@Concurrency@@MAEXH@Z 100a8610 f i WinRTVFS.obj
 0002:0006a730       ?release_ref@?$source_block@V?$single_link_registry@V?$ITarget@H@Concurrency@@@Concurrency@@V?$ordered_message_processor@H@2@@Concurrency@@UAEXPAV?$ITarget@H@2@@Z 100a8730 f i WinRTVFS.obj
 0002:0006a880       ?remove@?$multi_link_registry@V?$ISource@H@Concurrency@@@Concurrency@@UAE_NPAV?$ISource@H@2@@Z 100a8880 f i WinRTVFS.obj
 0002:0006a8f0       ?remove@?$single_link_registry@V?$ITarget@H@Concurrency@@@Concurrency@@UAE_NPAV?$ITarget@H@2@@Z 100a88f0 f i WinRTVFS.obj
 0002:0006a950       ?remove@?$source_link_manager@V?$multi_link_registry@V?$ISource@H@Concurrency@@@Concurrency@@@Concurrency@@QAE_NPAV?$ISource@H@2@@Z 100a8950 f i WinRTVFS.obj
 0002:0006ab40       ?remove@TokenRegistrationContainer@_CancellationTokenState@details@Concurrency@@QAEXPAV_CancellationTokenRegistration@34@@Z 100a8b40 f i WinRTVFS.obj
 0002:0006ac20       ?remove_sources@?$target_block@V?$multi_link_registry@V?$ISource@H@Concurrency@@@Concurrency@@V?$ordered_message_processor@H@2@@Concurrency@@IAEXXZ 100a8c20 f i WinRTVFS.obj
 0002:0006ac90       ?remove_targets@?$source_block@V?$single_link_registry@V?$ITarget@H@Concurrency@@@Concurrency@@V?$ordered_message_processor@H@2@@Concurrency@@IAEXXZ 100a8c90 f i WinRTVFS.obj
 0002:0006ad10       ?reserve@?$source_block@V?$single_link_registry@V?$ITarget@H@Concurrency@@@Concurrency@@V?$ordered_message_processor@H@2@@Concurrency@@UAE_NHPAV?$ITarget@H@2@@Z 100a8d10 f i WinRTVFS.obj
 0002:0006af10       ?reserve_message@?$timer@H@Concurrency@@MAE_NH@Z 100a8f10 f i WinRTVFS.obj
 0002:0006af90       ?reset@?$shared_ptr@U?$_Task_impl@E@details@Concurrency@@@std@@QAEXXZ 100a8f90 f i WinRTVFS.obj
 0002:0006b000       ?reset@?$shared_ptr@U?$_Task_impl@I@details@Concurrency@@@std@@QAEXXZ 100a9000 f i WinRTVFS.obj
 0002:0006b070       ?reset@?$shared_ptr@U?$_Task_impl@P$AAUIBuffer@Streams@Storage@Windows@@@details@Concurrency@@@std@@QAEXXZ 100a9070 f i WinRTVFS.obj
 0002:0006b0e0       ?reset@?$shared_ptr@U?$_Task_impl@P$AAUIRandomAccessStream@Streams@Storage@Windows@@@details@Concurrency@@@std@@QAEXXZ 100a90e0 f i WinRTVFS.obj
 0002:0006b150       ?reset@?$shared_ptr@U?$_Task_impl@P$AAVStorageFile@Storage@Windows@@@details@Concurrency@@@std@@QAEXXZ 100a9150 f i WinRTVFS.obj
 0002:0006b1c0       ?reset@?$shared_ptr@U?$_Task_impl@P$AAVStorageFolder@Storage@Windows@@@details@Concurrency@@@std@@QAEXXZ 100a91c0 f i WinRTVFS.obj
 0002:0006b230       ?reset@?$shared_ptr@U?$_Task_impl@_N@details@Concurrency@@@std@@QAEXXZ 100a9230 f i WinRTVFS.obj
 0002:0006b2a0       ?reset@?$shared_ptr@U_ExceptionHolder@details@Concurrency@@@std@@QAEXXZ 100a92a0 f i WinRTVFS.obj
 0002:0006b310       ?resize@?$vector@PAXV?$allocator@PAX@std@@@std@@QAEXI@Z 100a9310 f i WinRTVFS.obj
 0002:0006b4d0       ?resume_propagation@?$timer@H@Concurrency@@MAEXXZ 100a94d0 f i WinRTVFS.obj
 0002:0006b510       ?rethrow_exception@std@@YAXVexception_ptr@1@@Z 100a9510 f i WinRTVFS.obj
 0002:0006b5b0       ?select_on_container_copy_construction@?$_Wrap_alloc@V?$allocator@PAX@std@@@std@@QBE?AU12@XZ 100a95b0 f i WinRTVFS.obj
 0002:0006b620       ?select_on_container_copy_construction@?$allocator@PAX@std@@QBE?AV12@XZ 100a9620 f i WinRTVFS.obj
 0002:0006b680       ?select_on_container_copy_construction@?$allocator_traits@V?$allocator@PAX@std@@@std@@SA?AV?$allocator@PAX@2@ABV32@@Z 100a9680 f i WinRTVFS.obj
 0002:0006b6e0       ?send@?$target_block@V?$multi_link_registry@V?$ISource@H@Concurrency@@@Concurrency@@V?$ordered_message_processor@H@2@@Concurrency@@UAE?AW4message_status@2@PAV?$message@H@2@PAV?$ISource@H@2@@Z 100a96e0 f i WinRTVFS.obj
 0002:0006b800       ?send_message@?$call@HV?$function@$$A6AXABH@Z@std@@@Concurrency@@MAE?AW4message_status@2@PAV?$message@H@2@PAV?$ISource@H@2@@Z 100a9800 f i WinRTVFS.obj
 0002:0006b8b0       ?send_message@?$target_block@V?$multi_link_registry@V?$ISource@H@Concurrency@@@Concurrency@@V?$ordered_message_processor@H@2@@Concurrency@@MAE?AW4message_status@2@PAV?$message@H@2@PAV?$ISource@H@2@@Z 100a98b0 f i WinRTVFS.obj
 0002:0006b8f0       ?set@?$task_completion_event@E@Concurrency@@QBE_NE@Z 100a98f0 f i WinRTVFS.obj
 0002:0006bc80       ?set@?$task_completion_event@X@Concurrency@@QBE_NXZ 100a9c80 f i WinRTVFS.obj
 0002:0006bce0       ?set@?Q?$IAsyncOperation@E@Foundation@Windows@@Completed@?$_AsyncInfoImpl@P$AAUIAsyncAction@Foundation@Windows@@VAsyncActionCompletedHandler@23@E@details@Concurrency@@U$AAAXP$AAV?$AsyncOperationCompletedHandler@E@23@@Z 100a9ce0 f i WinRTVFS.obj
 0002:0006be58       ?set@?Q?$IAsyncOperation@E@Foundation@Windows@@Completed@?$_AsyncInfoImpl@P$AAUIAsyncAction@Foundation@Windows@@VAsyncActionCompletedHandler@23@E@details@Concurrency@@W3$AAAXP$AAV?$AsyncOperationCompletedHandler@E@23@@Z 100a9e58 f i WinRTVFS.obj
 0002:0006be70       ?set@?Q?$IAsyncOperation@I@Foundation@Windows@@Completed@?$_AsyncInfoImpl@P$AAU?$IAsyncOperationWithProgress@II@Foundation@Windows@@V?$AsyncOperationWithProgressCompletedHandler@II@23@I@details@Concurrency@@U$AAAXP$AAV?$AsyncOperationCompletedHandler@I@23@@Z 100a9e70 f i WinRTVFS.obj
 0002:0006bfe8       ?set@?Q?$IAsyncOperation@I@Foundation@Windows@@Completed@?$_AsyncInfoImpl@P$AAU?$IAsyncOperationWithProgress@II@Foundation@Windows@@V?$AsyncOperationWithProgressCompletedHandler@II@23@I@details@Concurrency@@W3$AAAXP$AAV?$AsyncOperationCompletedHandler@I@23@@Z 100a9fe8 f i WinRTVFS.obj
 0002:0006c000       ?set@?Q?$IAsyncOperation@P$AAUIBuffer@Streams@Storage@Windows@@@Foundation@Windows@@Completed@?$_AsyncInfoImpl@P$AAU?$IAsyncOperationWithProgress@P$AAUIBuffer@Streams@Storage@Windows@@I@Foundation@Windows@@V?$AsyncOperationWithProgressCompletedHandler@P$AAUIBuffer@Streams@Storage@Windows@@I@23@P$AAUIBuffer@Streams@Storage@3@@details@Concurrency@@U$AAAXP$AAV?$AsyncOperationCompletedHandler@P$AAUIBuffer@Streams@Storage@Windows@@@23@@Z 100aa000 f i WinRTVFS.obj
 0002:0006c178       ?set@?Q?$IAsyncOperation@P$AAUIBuffer@Streams@Storage@Windows@@@Foundation@Windows@@Completed@?$_AsyncInfoImpl@P$AAU?$IAsyncOperationWithProgress@P$AAUIBuffer@Streams@Storage@Windows@@I@Foundation@Windows@@V?$AsyncOperationWithProgressCompletedHandler@P$AAUIBuffer@Streams@Storage@Windows@@I@23@P$AAUIBuffer@Streams@Storage@3@@details@Concurrency@@W3$AAAXP$AAV?$AsyncOperationCompletedHandler@P$AAUIBuffer@Streams@Storage@Windows@@@23@@Z 100aa178 f i WinRTVFS.obj
 0002:0006c190       ?set@Completed@?$IAsyncOperation@E@Foundation@Windows@@U$AAAXP$AAV?$AsyncOperationCompletedHandler@E@34@@Z 100aa190 f i WinRTVFS.obj
 0002:0006c210       ?set@Completed@?$IAsyncOperation@I@Foundation@Windows@@U$AAAXP$AAV?$AsyncOperationCompletedHandler@I@34@@Z 100aa210 f i WinRTVFS.obj
 0002:0006c290       ?set@Completed@?$IAsyncOperation@P$AAUIBuffer@Streams@Storage@Windows@@@Foundation@Windows@@U$AAAXP$AAV?$AsyncOperationCompletedHandler@P$AAUIBuffer@Streams@Storage@Windows@@@34@@Z 100aa290 f i WinRTVFS.obj
 0002:0006c310       ?set@Completed@?$IAsyncOperation@P$AAUIRandomAccessStream@Streams@Storage@Windows@@@Foundation@Windows@@U$AAAXP$AAV?$AsyncOperationCompletedHandler@P$AAUIRandomAccessStream@Streams@Storage@Windows@@@34@@Z 100aa310 f i WinRTVFS.obj
 0002:0006c390       ?set@Completed@?$IAsyncOperation@P$AAVStorageFile@Storage@Windows@@@Foundation@Windows@@U$AAAXP$AAV?$AsyncOperationCompletedHandler@P$AAVStorageFile@Storage@Windows@@@34@@Z 100aa390 f i WinRTVFS.obj
 0002:0006c410       ?set@Completed@?$IAsyncOperation@P$AAVStorageFolder@Storage@Windows@@@Foundation@Windows@@U$AAAXP$AAV?$AsyncOperationCompletedHandler@P$AAVStorageFolder@Storage@Windows@@@34@@Z 100aa410 f i WinRTVFS.obj
 0002:0006c490       ?set@Completed@?$IAsyncOperation@_N@Foundation@Windows@@U$AAAXP$AAV?$AsyncOperationCompletedHandler@_N@34@@Z 100aa490 f i WinRTVFS.obj
 0002:0006c510       ?set@Completed@?$IAsyncOperationWithProgress@II@Foundation@Windows@@U$AAAXP$AAV?$AsyncOperationWithProgressCompletedHandler@II@34@@Z 100aa510 f i WinRTVFS.obj
 0002:0006c590       ?set@Completed@?$IAsyncOperationWithProgress@P$AAUIBuffer@Streams@Storage@Windows@@I@Foundation@Windows@@U$AAAXP$AAV?$AsyncOperationWithProgressCompletedHandler@P$AAUIBuffer@Streams@Storage@Windows@@I@34@@Z 100aa590 f i WinRTVFS.obj
 0002:0006c610       ?set@Completed@IAsyncAction@Foundation@Windows@@U$AAAXP$AAVAsyncActionCompletedHandler@34@@Z 100aa610 f i WinRTVFS.obj
 0002:0006c690       ?set@Length@IBuffer@Streams@Storage@Windows@@U$AAAXI@Z 100aa690 f i WinRTVFS.obj
 0002:0006c710       ?set@Size@IRandomAccessStream@Streams@Storage@Windows@@U$AAAX_K@Z 100aa710 f i WinRTVFS.obj
 0002:0006c790       ?size@?$vector@PAXV?$allocator@PAX@std@@@std@@QBEIXZ 100aa790 f i WinRTVFS.obj
 0002:0006c7e0       ?size@?$vector@V?$shared_ptr@U?$_Task_impl@E@details@Concurrency@@@std@@V?$allocator@V?$shared_ptr@U?$_Task_impl@E@details@Concurrency@@@std@@@2@@std@@QBEIXZ 100aa7e0 f i WinRTVFS.obj
 0002:0006c830       ?start@?$timer@H@Concurrency@@QAEXXZ 100aa830 f i WinRTVFS.obj
 0002:0006c8c0       ?supports_anonymous_source@?$ITarget@H@Concurrency@@UAE_NXZ 100aa8c0 f i WinRTVFS.obj
 0002:0006c900       ?supports_anonymous_source@?$call@HV?$function@$$A6AXABH@Z@std@@@Concurrency@@MAE_NXZ 100aa900 f i WinRTVFS.obj
 0002:0006c940       ?swap@?$shared_ptr@U?$_Task_impl@E@details@Concurrency@@@std@@QAEXAAV12@@Z 100aa940 f i WinRTVFS.obj
 0002:0006c9a0       ?swap@?$shared_ptr@U?$_Task_impl@I@details@Concurrency@@@std@@QAEXAAV12@@Z 100aa9a0 f i WinRTVFS.obj
 0002:0006ca00       ?swap@?$shared_ptr@U?$_Task_impl@P$AAUIBuffer@Streams@Storage@Windows@@@details@Concurrency@@@std@@QAEXAAV12@@Z 100aaa00 f i WinRTVFS.obj
 0002:0006ca60       ?swap@?$shared_ptr@U?$_Task_impl@P$AAUIRandomAccessStream@Streams@Storage@Windows@@@details@Concurrency@@@std@@QAEXAAV12@@Z 100aaa60 f i WinRTVFS.obj
 0002:0006cac0       ?swap@?$shared_ptr@U?$_Task_impl@P$AAVStorageFile@Storage@Windows@@@details@Concurrency@@@std@@QAEXAAV12@@Z 100aaac0 f i WinRTVFS.obj
 0002:0006cb20       ?swap@?$shared_ptr@U?$_Task_impl@P$AAVStorageFolder@Storage@Windows@@@details@Concurrency@@@std@@QAEXAAV12@@Z 100aab20 f i WinRTVFS.obj
 0002:0006cb80       ?swap@?$shared_ptr@U?$_Task_impl@_N@details@Concurrency@@@std@@QAEXAAV12@@Z 100aab80 f i WinRTVFS.obj
 0002:0006cbe0       ?swap@?$shared_ptr@U_ExceptionHolder@details@Concurrency@@@std@@QAEXAAV12@@Z 100aabe0 f i WinRTVFS.obj
 0002:0006cc40       ?swap@?$vector@V?$shared_ptr@U?$_Task_impl@E@details@Concurrency@@@std@@V?$allocator@V?$shared_ptr@U?$_Task_impl@E@details@Concurrency@@@std@@@2@@std@@QAEXAAV12@@Z 100aac40 f i WinRTVFS.obj
 0002:0006cde0       ?sync_send@?$ordered_message_processor@H@Concurrency@@UAEXPAV?$message@H@2@@Z 100aade0 f i WinRTVFS.obj
 0002:0006ce90       ?sync_send@?$source_block@V?$single_link_registry@V?$ITarget@H@Concurrency@@@Concurrency@@V?$ordered_message_processor@H@2@@Concurrency@@MAEXPAV?$message@H@2@@Z 100aae90 f i WinRTVFS.obj
 0002:0006cf00       ?sync_send@?$target_block@V?$multi_link_registry@V?$ISource@H@Concurrency@@@Concurrency@@V?$ordered_message_processor@H@2@@Concurrency@@IAEXPAV?$message@H@2@@Z 100aaf00 f i WinRTVFS.obj
 0002:0006cf70       ?try_pop@?$concurrent_queue@PAV?$message@H@Concurrency@@V?$allocator@PAV?$message@H@Concurrency@@@std@@@Concurrency@@QAE_NAAPAV?$message@H@2@@Z 100aaf70 f i WinRTVFS.obj
 0002:0006cfe0       ?unlink_source@?$target_block@V?$multi_link_registry@V?$ISource@H@Concurrency@@@Concurrency@@V?$ordered_message_processor@H@2@@Concurrency@@MAEXPAV?$ISource@H@2@@Z 100aafe0 f i WinRTVFS.obj
 0002:0006d080       ?unlink_sources@?$target_block@V?$multi_link_registry@V?$ISource@H@Concurrency@@@Concurrency@@V?$ordered_message_processor@H@2@@Concurrency@@MAEXXZ 100ab080 f i WinRTVFS.obj
 0002:0006d1d0       ?unlink_target@?$source_block@V?$single_link_registry@V?$ITarget@H@Concurrency@@@Concurrency@@V?$ordered_message_processor@H@2@@Concurrency@@UAEXPAV?$ITarget@H@2@@Z 100ab1d0 f i WinRTVFS.obj
 0002:0006d350       ?unlink_target_notification@?$source_block@V?$single_link_registry@V?$ITarget@H@Concurrency@@@Concurrency@@V?$ordered_message_processor@H@2@@Concurrency@@MAEXPAV?$ITarget@H@2@@Z 100ab350 f i WinRTVFS.obj
 0002:0006d3d0       ?unlink_targets@?$source_block@V?$single_link_registry@V?$ITarget@H@Concurrency@@@Concurrency@@V?$ordered_message_processor@H@2@@Concurrency@@UAEXXZ 100ab3d0 f i WinRTVFS.obj
 0002:0006d630       ?use_default@task_continuation_context@Concurrency@@SA?AV12@XZ 100ab630 f i WinRTVFS.obj
 0002:0006d6a0       ?wait@?$ordered_message_processor@H@Concurrency@@UAEXXZ 100ab6a0 f i WinRTVFS.obj
 0002:0006d820       ?wait@?$task@E@Concurrency@@QBE?AW4task_group_status@2@XZ 100ab820 f i WinRTVFS.obj
 0002:0006d8c0       ?wait@?$task@I@Concurrency@@QBE?AW4task_group_status@2@XZ 100ab8c0 f i WinRTVFS.obj
 0002:0006d960       ?wait@?$task@X@Concurrency@@QBE?AW4task_group_status@2@XZ 100ab960 f i WinRTVFS.obj
 0002:0006d9b0       ?wait@?$task@_N@Concurrency@@QBE?AW4task_group_status@2@XZ 100ab9b0 f i WinRTVFS.obj
 0002:0006da50       ?wait_for_async_sends@?$target_block@V?$multi_link_registry@V?$ISource@H@Concurrency@@@Concurrency@@V?$ordered_message_processor@H@2@@Concurrency@@IAEXXZ 100aba50 f i WinRTVFS.obj
 0002:0006dac0       ?wait_for_outstanding_async_sends@?$source_block@V?$single_link_registry@V?$ITarget@H@Concurrency@@@Concurrency@@V?$ordered_message_processor@H@2@@Concurrency@@IAEXXZ 100abac0 f i WinRTVFS.obj
 0002:0006db30       ?what@bad_weak_ptr@std@@UBEPBDXZ 100abb30 f i WinRTVFS.obj
 0002:0006dbca       _sqlite3_vfs_register      100abbca f   sqlite3:sqlite3.dll
 0002:0006dbd0       _MultiByteToWideChar@24    100abbd0 f   kernel32:KERNEL32.dll
 0002:0006dbe0       ?Initialize@Details@Platform@@YAHXZ 100abbe0 f   vccorlibd:init.obj
 0002:0006dc40       ?<Dispose>@?QIDisposable@Platform@@?$Array@E$00@2@U$AAAXXZ 100abc40 f i vccorlibd:init.obj
 0002:0006dc74       ?<Dispose>@?QIDisposable@Platform@@?$Array@E$00@2@WBE@$AAAXXZ 100abc74 f i vccorlibd:init.obj
 0002:0006dc80       ?<Dispose>@?QIDisposable@Platform@@?$Array@E$00@2@WM@$AAAXXZ 100abc80 f i vccorlibd:init.obj
 0002:0006dc90       ?<Dispose>@?QIDisposable@Platform@@?$WriteOnlyArray@E$00@2@U$AAAXXZ 100abc90 f i vccorlibd:init.obj
 0002:0006dcc4       ?<Dispose>@?QIDisposable@Platform@@?$WriteOnlyArray@E$00@2@W3$AAAXXZ 100abcc4 f i vccorlibd:init.obj
 0002:0006e070       ??$?9UIRestrictedErrorInfo@@@WRL@Microsoft@@YA_NABV?$ComPtr@UIRestrictedErrorInfo@@@01@$$T@Z 100ac070 f i vccorlibd:init.obj
 0002:0006e0c0       ??$CheckForDuplicateEntries@V<lambda_14a9148e9e7b958cc4256656b4582dff>@@@Details@WRL@Microsoft@@YAXPAPBUCreatorMap@012@0V<lambda_14a9148e9e7b958cc4256656b4582dff>@@@Z 100ac0c0 f i vccorlibd:init.obj
 0002:0006e1c0       ??$CheckForDuplicateEntries@V<lambda_62841ec4fac0a9d00a2c951f01a8f3c0>@@@Details@WRL@Microsoft@@YAXPAPBUCreatorMap@012@0V<lambda_62841ec4fac0a9d00a2c951f01a8f3c0>@@@Z 100ac1c0 f i vccorlibd:init.obj
 0002:0006e2c0       ??$__abi_array_attach@E$00@Details@Platform@@YAP$01$AAV?$Array@E$00@1@PAXI_N1@Z 100ac2c0 f i vccorlibd:init.obj
 0002:0006e3e0       ??$__abi_array_copy_to_and_release@E$00@Details@Platform@@YAXP$01$AAV?$Array@E$00@1@PAPAXPAI@Z 100ac3e0 f i vccorlibd:init.obj
 0002:0006e460       ??$__abi_winrt_ptrto_array_ctor@E$00@@YAPAXQ$01$ADV?$Array@E$00@Platform@@@Z 100ac460 f i vccorlibd:init.obj
 0002:0006e5a0       ??0?$Array@E$00@Platform@@Q$AAA@PAEI@Z 100ac5a0 f i vccorlibd:init.obj
 0002:0006e6e0       ??0?$Module@$00VInProcModule@Details@Platform@@@WRL@Microsoft@@IAE@XZ 100ac6e0 f i vccorlibd:init.obj
 0002:0006e730       ??0?$Module@$04VInProcModule@Details@Platform@@@WRL@Microsoft@@QAE@XZ 100ac730 f i vccorlibd:init.obj
 0002:0006e770       ??0?$SyncLockT@USRWLockExclusiveTraits@HandleTraits@Wrappers@WRL@Microsoft@@@Details@Wrappers@WRL@Microsoft@@IAE@PAU_RTL_SRWLOCK@@@Z 100ac770 f i vccorlibd:init.obj
 0002:0006e7a0       ??0?$WriteOnlyArray@E$00@Platform@@I$AAA@PAEI@Z 100ac7a0 f i vccorlibd:init.obj
 0002:0006e8c0       ??0CornerRadius@Xaml@UI@Windows@@QAA@N@Z 100ac8c0 f i vccorlibd:init.obj
 0002:0006e900       ??0CornerRadius@Xaml@UI@Windows@@QAA@NNNN@Z 100ac900 f i vccorlibd:init.obj
 0002:0006e940       ??0CustomEnum@Details@Platform@@Q$AAA@XZ 100ac940 f i vccorlibd:init.obj
 0002:0006e9b0       ??0CustomValueType@Details@Platform@@Q$AAA@XZ 100ac9b0 f i vccorlibd:init.obj
 0002:0006ea20       ??0Duration@Xaml@UI@Windows@@QAA@VTimeSpan@Foundation@3@@Z 100aca20 f i vccorlibd:init.obj
 0002:0006ea50       ??0GridLength@Xaml@UI@Windows@@QAA@N@Z 100aca50 f i vccorlibd:init.obj
 0002:0006eac0       ??0Guid@Platform@@QAA@ABU_GUID@@@Z 100acac0 f i vccorlibd:init.obj
 0002:0006ebd0       ??0Guid@Platform@@QAA@IGGP$01$ABV?$Array@E$00@1@@Z 100acbd0 f i vccorlibd:init.obj
 0002:0006ed10       ??0Guid@Platform@@QAA@XZ   100acd10 f i vccorlibd:init.obj
 0002:0006ed90       ??0InProcModule@Details@Platform@@QAE@XZ 100acd90 f i vccorlibd:init.obj
 0002:0006ee10       ??0KeyTime@Animation@Media@Xaml@UI@Windows@@QAA@VTimeSpan@Foundation@5@@Z 100ace10 f i vccorlibd:init.obj
 0002:0006ee50       ??0Matrix3D@Media3D@Media@Xaml@UI@Windows@@QAA@NNNNNNNNNNNNNNNN@Z 100ace50 f i vccorlibd:init.obj
 0002:0006ef10       ??0Matrix@Media@Xaml@UI@Windows@@QAA@NNNNNN@Z 100acf10 f i vccorlibd:init.obj
 0002:0006ef60       ??0ModuleBase@Details@WRL@Microsoft@@QAE@XZ 100acf60 f i vccorlibd:init.obj
 0002:0006f0a0       ??0Point@Foundation@Windows@@QAA@MM@Z 100ad0a0 f i vccorlibd:init.obj
 0002:0006f0c0       ??0Rect@Foundation@Windows@@QAA@MMMM@Z 100ad0c0 f i vccorlibd:init.obj
 0002:0006f130       ??0RepeatBehavior@Animation@Media@Xaml@UI@Windows@@QAA@VTimeSpan@Foundation@5@@Z 100ad130 f i vccorlibd:init.obj
 0002:0006f190       ??0Size@Foundation@Windows@@QAA@MM@Z 100ad190 f i vccorlibd:init.obj
 0002:0006f1f0       ??0String@Platform@@Q$AAA@PAUHSTRING__@@@Z 100ad1f0 f i vccorlibd:init.obj
 0002:0006f280       ??0String@Platform@@Q$AAA@PB_W@Z 100ad280 f i vccorlibd:init.obj
 0002:0006f340       ??0String@Platform@@Q$AAA@XZ 100ad340 f i vccorlibd:init.obj
 0002:0006f350       ??0Thickness@Xaml@UI@Windows@@QAA@N@Z 100ad350 f i vccorlibd:init.obj
 0002:0006f390       ??0Thickness@Xaml@UI@Windows@@QAA@NNNN@Z 100ad390 f i vccorlibd:init.obj
 0002:0006f3d0       ??1?$Array@E$00@Platform@@Q$AAA@XZ 100ad3d0 f i vccorlibd:init.obj
 0002:0006f420       ??1?$Module@$00VInProcModule@Details@Platform@@@WRL@Microsoft@@UAE@XZ 100ad420 f i vccorlibd:init.obj
 0002:0006f470       ??1?$Module@$04VInProcModule@Details@Platform@@@WRL@Microsoft@@UAE@XZ 100ad470 f i vccorlibd:init.obj
 0002:0006f4a0       ??1?$SyncLockT@USRWLockExclusiveTraits@HandleTraits@Wrappers@WRL@Microsoft@@@Details@Wrappers@WRL@Microsoft@@QAE@XZ 100ad4a0 f i vccorlibd:init.obj
 0002:0006f4d0       ??1?$WriteOnlyArray@E$00@Platform@@Q$AAA@XZ 100ad4d0 f i vccorlibd:init.obj
 0002:0006f530       ??1InProcModule@Details@Platform@@UAE@XZ 100ad530 f i vccorlibd:init.obj
 0002:0006f590       ??1ModuleBase@Details@WRL@Microsoft@@UAE@XZ 100ad590 f i vccorlibd:init.obj
 0002:0006f620       ??8CornerRadius@Xaml@UI@Windows@@SA_NV0123@0@Z 100ad620 f i vccorlibd:init.obj
 0002:0006f6a0       ??8Duration@Xaml@UI@Windows@@SA_NV0123@0@Z 100ad6a0 f i vccorlibd:init.obj
 0002:0006f760       ??8GridLength@Xaml@UI@Windows@@SA_NV0123@0@Z 100ad760 f i vccorlibd:init.obj
 0002:0006f7d0       ??8Guid@Platform@@SA_NV01@0@Z 100ad7d0 f i vccorlibd:init.obj
 0002:0006f8c0       ??8KeyTime@Animation@Media@Xaml@UI@Windows@@SA_NV012345@0@Z 100ad8c0 f i vccorlibd:init.obj
 0002:0006f900       ??8Matrix3D@Media3D@Media@Xaml@UI@Windows@@SA_NV012345@0@Z 100ad900 f i vccorlibd:init.obj
 0002:0006fad0       ??8Matrix@Media@Xaml@UI@Windows@@SA_NV01234@0@Z 100adad0 f i vccorlibd:init.obj
 0002:0006fb70       ??8Point@Foundation@Windows@@SA_NV012@0@Z 100adb70 f i vccorlibd:init.obj
 0002:0006fbc0       ??8Rect@Foundation@Windows@@SA_NV012@0@Z 100adbc0 f i vccorlibd:init.obj
 0002:0006fc40       ??8RepeatBehavior@Animation@Media@Xaml@UI@Windows@@SA_NV012345@0@Z 100adc40 f i vccorlibd:init.obj
 0002:0006fd00       ??8Size@Foundation@Windows@@SA_NV012@0@Z 100add00 f i vccorlibd:init.obj
 0002:0006fd50       ??8String@Platform@@SA_NP$AAV01@0@Z 100add50 f i vccorlibd:init.obj
 0002:0006fe00       ??8Thickness@Xaml@UI@Windows@@SA_NV0123@0@Z 100ade00 f i vccorlibd:init.obj
 0002:0006fe80       ??9CornerRadius@Xaml@UI@Windows@@SA_NV0123@0@Z 100ade80 f i vccorlibd:init.obj
 0002:0006ff00       ??9Duration@Xaml@UI@Windows@@SA_NV0123@0@Z 100adf00 f i vccorlibd:init.obj
 0002:0006ff90       ??9GridLength@Xaml@UI@Windows@@SA_NV0123@0@Z 100adf90 f i vccorlibd:init.obj
 0002:00070020       ??9Guid@Platform@@SA_NV01@0@Z 100ae020 f i vccorlibd:init.obj
 0002:000700b0       ??9KeyTime@Animation@Media@Xaml@UI@Windows@@SA_NV012345@0@Z 100ae0b0 f i vccorlibd:init.obj
 0002:00070110       ??9Matrix3D@Media3D@Media@Xaml@UI@Windows@@SA_NV012345@0@Z 100ae110 f i vccorlibd:init.obj
 0002:000701a0       ??9Matrix@Media@Xaml@UI@Windows@@SA_NV01234@0@Z 100ae1a0 f i vccorlibd:init.obj
 0002:00070220       ??9Point@Foundation@Windows@@SA_NV012@0@Z 100ae220 f i vccorlibd:init.obj
 0002:00070280       ??9Rect@Foundation@Windows@@SA_NV012@0@Z 100ae280 f i vccorlibd:init.obj
 0002:00070310       ??9RepeatBehavior@Animation@Media@Xaml@UI@Windows@@SA_NV012345@0@Z 100ae310 f i vccorlibd:init.obj
 0002:000703c0       ??9Size@Foundation@Windows@@SA_NV012@0@Z 100ae3c0 f i vccorlibd:init.obj
 0002:00070420       ??9String@Platform@@SA_NP$AAV01@0@Z 100ae420 f i vccorlibd:init.obj
 0002:000704d0       ??9Thickness@Xaml@UI@Windows@@SA_NV0123@0@Z 100ae4d0 f i vccorlibd:init.obj
 0002:00070610       ??BGuid@Platform@@QAAABU_GUID@@XZ 100ae610 f i vccorlibd:init.obj
 0002:00070620       ??MGuid@Platform@@SA_NV01@0@Z 100ae620 f i vccorlibd:init.obj
 0002:00070800       ??MString@Platform@@SA_NP$AAV01@0@Z 100ae800 f i vccorlibd:init.obj
 0002:000708b0       ??NString@Platform@@SA_NP$AAV01@0@Z 100ae8b0 f i vccorlibd:init.obj
 0002:00070960       ??OString@Platform@@SA_NP$AAV01@0@Z 100ae960 f i vccorlibd:init.obj
 0002:00070a10       ??PString@Platform@@SA_NP$AAV01@0@Z 100aea10 f i vccorlibd:init.obj
 0002:00070c00       ??_G?$Module@$00VInProcModule@Details@Platform@@@WRL@Microsoft@@UAEPAXI@Z 100aec00 f i vccorlibd:init.obj
 0002:00070c00       ??_E?$Module@$00VInProcModule@Details@Platform@@@WRL@Microsoft@@UAEPAXI@Z 100aec00 f i vccorlibd:init.obj
 0002:00070c50       ??_E?$Module@$04VInProcModule@Details@Platform@@@WRL@Microsoft@@UAEPAXI@Z 100aec50 f i vccorlibd:init.obj
 0002:00070c50       ??_G?$Module@$04VInProcModule@Details@Platform@@@WRL@Microsoft@@UAEPAXI@Z 100aec50 f i vccorlibd:init.obj
 0002:00070ca0       ??_GInProcModule@Details@Platform@@UAEPAXI@Z 100aeca0 f i vccorlibd:init.obj
 0002:00070ca0       ??_EInProcModule@Details@Platform@@UAEPAXI@Z 100aeca0 f i vccorlibd:init.obj
 0002:00070cf0       ?AllocateAndCopyElements@?$WriteOnlyArray@E$00@Platform@@KAPAEPBEI@Z 100aecf0 f i vccorlibd:init.obj
 0002:00070d70       ?AllocateAndZeroInitialize@?$WriteOnlyArray@E$00@Platform@@KAPAEI@Z 100aed70 f i vccorlibd:init.obj
 0002:00070e00       ?Attach@?$Array@E$00@Platform@@A$AAAXPAEI@Z 100aee00 f i vccorlibd:init.obj
 0002:00070e50       ?AttachFastPass@?$Array@E$00@Platform@@A$AAAXPAEI@Z 100aee50 f i vccorlibd:init.obj
 0002:00070ea0       ?Begin@String@Platform@@Q$AAAPB_WXZ 100aeea0 f i vccorlibd:init.obj
 0002:00070ec0       ?Cleanup@Details@Platform@@YAXXZ 100aeec0 f   vccorlibd:init.obj
 0002:00070ee0       ?Clear@?$WriteOnlyArray@E$00@Platform@@I$AAAXXZ 100aeee0 f i vccorlibd:init.obj
 0002:00070f10       ?CompareOrdinal@String@Platform@@SAHP$AAV12@0@Z 100aef10 f i vccorlibd:init.obj
 0002:00070fb0       ?Concat@String@Platform@@SAP$AAV12@P$AAV12@0@Z 100aefb0 f i vccorlibd:init.obj
 0002:000710b0       ?Concat@String@Platform@@SAP$AAV12@P$AAVObject@2@0@Z 100af0b0 f i vccorlibd:init.obj
 0002:00071210       ?CopyToOrDetach@?$Array@E$00@Platform@@A$AAAXPAPAEPAI@Z 100af210 f i vccorlibd:init.obj
 0002:00071320       ?Create@?$Module@$00VInProcModule@Details@Platform@@@WRL@Microsoft@@SAAAVInProcModule@Details@Platform@@XZ 100af320 f i vccorlibd:init.obj
 0002:00071380       ?Data@String@Platform@@Q$AAAPB_WXZ 100af380 f i vccorlibd:init.obj
 0002:000713a0       ?DecrementObjectCount@?$Module@$00VInProcModule@Details@Platform@@@WRL@Microsoft@@UAGKXZ 100af3a0 f i vccorlibd:init.obj
 0002:000713c0       ?DestructElementsAndFree@?$array_helper@E$0A@@Details@Platform@@SAXPAEI@Z 100af3c0 f i vccorlibd:init.obj
 0002:00071420       ?End@String@Platform@@Q$AAAPB_WXZ 100af420 f i vccorlibd:init.obj
 0002:00071460       ?Equals@Guid@Platform@@QAA_NV12@@Z 100af460 f i vccorlibd:init.obj
 0002:00071550       ?Equals@String@Platform@@Q$AAA_NP$AAV12@@Z 100af550 f i vccorlibd:init.obj
 0002:00071600       ?Equals@String@Platform@@U$AAA_NP$AAVObject@2@@Z 100af600 f i vccorlibd:init.obj
 0002:000716e0       ?Get@?$ComPtr@UIRestrictedErrorInfo@@@WRL@Microsoft@@QBEPAUIRestrictedErrorInfo@@XZ 100af6e0 f i vccorlibd:init.obj
 0002:00071700       ?Get@__abi_FTMWeakRefData@@QCGJXZ 100af700 f i vccorlibd:init.obj
 0002:00071730       ?GetFirstEntryPointer@ModuleBase@Details@WRL@Microsoft@@UBGPAPBUCreatorMap@234@XZ 100af730 f i vccorlibd:init.obj
 0002:00071740       ?GetHashCode@String@Platform@@U$AAAHXZ 100af740 f i vccorlibd:init.obj
 0002:000717c0       ?GetInvalidValue@SRWLockExclusiveTraits@HandleTraits@Wrappers@WRL@Microsoft@@SAPAU_RTL_SRWLOCK@@XZ 100af7c0 f i vccorlibd:init.obj
 0002:000717d0       ?GetLastEntryPointer@ModuleBase@Details@WRL@Microsoft@@UBGPAPBUCreatorMap@234@XZ 100af7d0 f i vccorlibd:init.obj
 0002:000717e0       ?GetLock@ModuleBase@Details@WRL@Microsoft@@UBGPAU_RTL_SRWLOCK@@XZ 100af7e0 f i vccorlibd:init.obj
 0002:000717f0       ?GetMidEntryPointer@ModuleBase@Details@WRL@Microsoft@@UBGPAPBUCreatorMap@234@XZ 100af7f0 f i vccorlibd:init.obj
 0002:00071800       ?GetObjectCount@ModuleBase@Details@WRL@Microsoft@@UBGKXZ 100af800 f i vccorlibd:init.obj
 0002:00071810       ?GetWeakReference@?QIWeakReferenceSource@Details@Platform@@?$Array@E$00@3@U$AAAP$AAUIWeakReference@23@XZ 100af810 f i vccorlibd:init.obj
 0002:000718b7       ?GetWeakReference@?QIWeakReferenceSource@Details@Platform@@?$Array@E$00@3@WBM@$AAAP$AAUIWeakReference@23@XZ 100af8b7 f i vccorlibd:init.obj
 0002:000718c3       ?GetWeakReference@?QIWeakReferenceSource@Details@Platform@@?$Array@E$00@3@WDM@$AAAP$AAUIWeakReference@23@XZ 100af8c3 f i vccorlibd:init.obj
 0002:000718d0       ?GetWeakReference@?QIWeakReferenceSource@Details@Platform@@?$WriteOnlyArray@E$00@3@U$AAAP$AAUIWeakReference@23@XZ 100af8d0 f i vccorlibd:init.obj
 0002:00071977       ?GetWeakReference@?QIWeakReferenceSource@Details@Platform@@?$WriteOnlyArray@E$00@3@WM@$AAAP$AAUIWeakReference@23@XZ 100af977 f i vccorlibd:init.obj
 0002:00071990       ?GetWeakReference@?QIWeakReferenceSource@Details@Platform@@CustomEnum@23@U$AAAP$AAUIWeakReference@23@XZ 100af990 f i vccorlibd:init.obj
 0002:00071a37       ?GetWeakReference@?QIWeakReferenceSource@Details@Platform@@CustomEnum@23@W7$AAAP$AAUIWeakReference@23@XZ 100afa37 f i vccorlibd:init.obj
 0002:00071a50       ?GetWeakReference@?QIWeakReferenceSource@Details@Platform@@CustomValueType@23@U$AAAP$AAUIWeakReference@23@XZ 100afa50 f i vccorlibd:init.obj
 0002:00071af7       ?GetWeakReference@?QIWeakReferenceSource@Details@Platform@@CustomValueType@23@W7$AAAP$AAUIWeakReference@23@XZ 100afaf7 f i vccorlibd:init.obj
 0002:00071b10       ?GetWinRTExceptionInfo@Platform@@YAPAU_WinRTExceptionInfo@1@PAX@Z 100afb10 f i vccorlibd:init.obj
 0002:00071b40       ?IncrementObjectCount@?$Module@$00VInProcModule@Details@Platform@@@WRL@Microsoft@@UAGKXZ 100afb40 f i vccorlibd:init.obj
 0002:00071b60       ?InternalUnlock@?$SyncLockT@USRWLockExclusiveTraits@HandleTraits@Wrappers@WRL@Microsoft@@@Details@Wrappers@WRL@Microsoft@@AAEXXZ 100afb60 f i vccorlibd:init.obj
 0002:00071bc0       ?IsEmpty@String@Platform@@Q$AAA_NXZ 100afbc0 f i vccorlibd:init.obj
 0002:00071c00       ?IsFastPass@String@Platform@@Q$AAA_NXZ 100afc00 f i vccorlibd:init.obj
 0002:00071c10       ?IsLocked@?$SyncLockT@USRWLockExclusiveTraits@HandleTraits@Wrappers@WRL@Microsoft@@@Details@Wrappers@WRL@Microsoft@@QBE_NXZ 100afc10 f i vccorlibd:init.obj
 0002:00071c70       ?IsServerNameEqual@Details@WRL@Microsoft@@YA_NPBUCreatorMap@123@PB_W@Z 100afc70 f i vccorlibd:init.obj
 0002:00071d00       ?Length@String@Platform@@Q$AAAIXZ 100afd00 f i vccorlibd:init.obj
 0002:00071d20       ?LockExclusive@SRWLock@Wrappers@WRL@Microsoft@@SA?AV?$SyncLockT@USRWLockExclusiveTraits@HandleTraits@Wrappers@WRL@Microsoft@@@Details@234@PAU_RTL_SRWLOCK@@@Z 100afd20 f i vccorlibd:init.obj
 0002:00071d60       ?RegisterCOMObject@?$Module@$00VInProcModule@Details@Platform@@@WRL@Microsoft@@UAGJPB_WPAU_GUID@@PAPAUIClassFactory@@PAKI@Z 100afd60 f i vccorlibd:init.obj
 0002:00071d70       ?RegisterWinRTObject@?$Module@$00VInProcModule@Details@Platform@@@WRL@Microsoft@@UAGJPB_WPAPB_WPAPAU<unnamed-type-RO_REGISTRATION_COOKIE>@@I@Z 100afd70 f i vccorlibd:init.obj
 0002:00071d80       ?ReportUnhandledError@Details@Platform@@YAXP$AAVException@2@@Z 100afd80 f   vccorlibd:init.obj
 0002:00071e50       ?TerminateMap@Details@WRL@Microsoft@@YA_NPAVModuleBase@123@PB_W_N@Z 100afe50 f i vccorlibd:init.obj
 0002:000720e0       ?ToString@IPrintable@Details@Platform@@U$AAAP$AAVString@3@XZ 100b00e0 f i vccorlibd:init.obj
 0002:00072210       ?ToString@Object@Platform@@Q$AAAP$AAVString@2@XZ 100b0210 f i vccorlibd:init.obj
 0002:000722c0       ?ToString@String@Platform@@U$AAAP$AAV12@XZ 100b02c0 f i vccorlibd:init.obj
 0002:000723b0       ?Transform@Matrix@Media@Xaml@UI@Windows@@QAA?AVPoint@Foundation@5@V675@@Z 100b03b0 f i vccorlibd:init.obj
 0002:00072490       ?Unlock@SRWLockExclusiveTraits@HandleTraits@Wrappers@WRL@Microsoft@@SAXPAU_RTL_SRWLOCK@@@Z 100b0490 f i vccorlibd:init.obj
 0002:000724c0       ?UnregisterCOMObject@?$Module@$00VInProcModule@Details@Platform@@@WRL@Microsoft@@UAGJPB_WPAKI@Z 100b04c0 f i vccorlibd:init.obj
 0002:000724d0       ?UnregisterWinRTObject@?$Module@$00VInProcModule@Details@Platform@@@WRL@Microsoft@@UAGJPB_WPAU<unnamed-type-RO_REGISTRATION_COOKIE>@@@Z 100b04d0 f i vccorlibd:init.obj
 0002:000724e0       ?VerifyEntries@?$Module@$00VInProcModule@Details@Platform@@@WRL@Microsoft@@AAEXXZ 100b04e0 f i vccorlibd:init.obj
 0002:000726a0       ?__abi_AddRef@?QObject@Platform@@?$Array@E$00@2@U$AAGKXZ 100b06a0 f i vccorlibd:init.obj
 0002:000726d8       ?__abi_AddRef@?QObject@Platform@@?$Array@E$00@2@W3$AAGKXZ 100b06d8 f i vccorlibd:init.obj
 0002:000726e4       ?__abi_AddRef@?QObject@Platform@@?$Array@E$00@2@W7$AAGKXZ 100b06e4 f i vccorlibd:init.obj
 0002:000726f0       ?__abi_AddRef@?QObject@Platform@@?$Array@E$00@2@WBA@$AAGKXZ 100b06f0 f i vccorlibd:init.obj
 0002:000726fc       ?__abi_AddRef@?QObject@Platform@@?$Array@E$00@2@WBE@$AAGKXZ 100b06fc f i vccorlibd:init.obj
 0002:00072708       ?__abi_AddRef@?QObject@Platform@@?$Array@E$00@2@WBI@$AAGKXZ 100b0708 f i vccorlibd:init.obj
 0002:00072714       ?__abi_AddRef@?QObject@Platform@@?$Array@E$00@2@WBM@$AAGKXZ 100b0714 f i vccorlibd:init.obj
 0002:00072720       ?__abi_AddRef@?QObject@Platform@@?$Array@E$00@2@WCA@$AAGKXZ 100b0720 f i vccorlibd:init.obj
 0002:0007272c       ?__abi_AddRef@?QObject@Platform@@?$Array@E$00@2@WDM@$AAGKXZ 100b072c f i vccorlibd:init.obj
 0002:00072738       ?__abi_AddRef@?QObject@Platform@@?$Array@E$00@2@WEA@$AAGKXZ 100b0738 f i vccorlibd:init.obj
 0002:00072744       ?__abi_AddRef@?QObject@Platform@@?$Array@E$00@2@WM@$AAGKXZ 100b0744 f i vccorlibd:init.obj
 0002:00072750       ?__abi_AddRef@?QObject@Platform@@?$WriteOnlyArray@E$00@2@U$AAGKXZ 100b0750 f i vccorlibd:init.obj
 0002:00072788       ?__abi_AddRef@?QObject@Platform@@?$WriteOnlyArray@E$00@2@W3$AAGKXZ 100b0788 f i vccorlibd:init.obj
 0002:00072794       ?__abi_AddRef@?QObject@Platform@@?$WriteOnlyArray@E$00@2@W7$AAGKXZ 100b0794 f i vccorlibd:init.obj
 0002:000727a0       ?__abi_AddRef@?QObject@Platform@@?$WriteOnlyArray@E$00@2@WBA@$AAGKXZ 100b07a0 f i vccorlibd:init.obj
 0002:000727ac       ?__abi_AddRef@?QObject@Platform@@?$WriteOnlyArray@E$00@2@WM@$AAGKXZ 100b07ac f i vccorlibd:init.obj
 0002:000727c0       ?__abi_AddRef@?QObject@Platform@@CustomEnum@Details@2@U$AAGKXZ 100b07c0 f i vccorlibd:init.obj
 0002:000727f8       ?__abi_AddRef@?QObject@Platform@@CustomEnum@Details@2@W3$AAGKXZ 100b07f8 f i vccorlibd:init.obj
 0002:00072804       ?__abi_AddRef@?QObject@Platform@@CustomEnum@Details@2@W7$AAGKXZ 100b0804 f i vccorlibd:init.obj
 0002:00072810       ?__abi_AddRef@?QObject@Platform@@CustomEnum@Details@2@WM@$AAGKXZ 100b0810 f i vccorlibd:init.obj
 0002:00072820       ?__abi_AddRef@?QObject@Platform@@CustomValueType@Details@2@U$AAGKXZ 100b0820 f i vccorlibd:init.obj
 0002:00072858       ?__abi_AddRef@?QObject@Platform@@CustomValueType@Details@2@W3$AAGKXZ 100b0858 f i vccorlibd:init.obj
 0002:00072864       ?__abi_AddRef@?QObject@Platform@@CustomValueType@Details@2@W7$AAGKXZ 100b0864 f i vccorlibd:init.obj
 0002:00072870       ?__abi_AddRef@?QObject@Platform@@CustomValueType@Details@2@WM@$AAGKXZ 100b0870 f i vccorlibd:init.obj
 0002:00072880       ?__abi_AddRef@Exception@Platform@@U$AAGKXZ 100b0880 f i vccorlibd:init.obj
 0002:000728c0       ?__abi_AddRef@RuntimeClassNameAttribute@Metadata@Platform@@U$AAGKXZ 100b08c0 f i vccorlibd:init.obj
 0002:00072900       ?__abi_AddRef@String@Platform@@U$AAGKXZ 100b0900 f i vccorlibd:init.obj
 0002:00072940       ?__abi_DecrementObjectCount@InProcModule@Details@Platform@@UAGKXZ 100b0940 f i vccorlibd:init.obj
 0002:00072960       ?__abi_GetIids@?QObject@Platform@@?$Array@E$00@2@U$AAGJPAKPAPAVGuid@2@@Z 100b0960 f i vccorlibd:init.obj
 0002:00072b1d       ?__abi_GetIids@?QObject@Platform@@?$Array@E$00@2@W3$AAGJPAKPAPAVGuid@2@@Z 100b0b1d f i vccorlibd:init.obj
 0002:00072b29       ?__abi_GetIids@?QObject@Platform@@?$Array@E$00@2@W7$AAGJPAKPAPAVGuid@2@@Z 100b0b29 f i vccorlibd:init.obj
 0002:00072b35       ?__abi_GetIids@?QObject@Platform@@?$Array@E$00@2@WBA@$AAGJPAKPAPAVGuid@2@@Z 100b0b35 f i vccorlibd:init.obj
 0002:00072b41       ?__abi_GetIids@?QObject@Platform@@?$Array@E$00@2@WBE@$AAGJPAKPAPAVGuid@2@@Z 100b0b41 f i vccorlibd:init.obj
 0002:00072b4d       ?__abi_GetIids@?QObject@Platform@@?$Array@E$00@2@WBI@$AAGJPAKPAPAVGuid@2@@Z 100b0b4d f i vccorlibd:init.obj
 0002:00072b59       ?__abi_GetIids@?QObject@Platform@@?$Array@E$00@2@WCA@$AAGJPAKPAPAVGuid@2@@Z 100b0b59 f i vccorlibd:init.obj
 0002:00072b65       ?__abi_GetIids@?QObject@Platform@@?$Array@E$00@2@WEA@$AAGJPAKPAPAVGuid@2@@Z 100b0b65 f i vccorlibd:init.obj
 0002:00072b71       ?__abi_GetIids@?QObject@Platform@@?$Array@E$00@2@WM@$AAGJPAKPAPAVGuid@2@@Z 100b0b71 f i vccorlibd:init.obj
 0002:00072b80       ?__abi_GetIids@?QObject@Platform@@?$WriteOnlyArray@E$00@2@U$AAGJPAKPAPAVGuid@2@@Z 100b0b80 f i vccorlibd:init.obj
 0002:00072cf2       ?__abi_GetIids@?QObject@Platform@@?$WriteOnlyArray@E$00@2@W3$AAGJPAKPAPAVGuid@2@@Z 100b0cf2 f i vccorlibd:init.obj
 0002:00072cfe       ?__abi_GetIids@?QObject@Platform@@?$WriteOnlyArray@E$00@2@W7$AAGJPAKPAPAVGuid@2@@Z 100b0cfe f i vccorlibd:init.obj
 0002:00072d0a       ?__abi_GetIids@?QObject@Platform@@?$WriteOnlyArray@E$00@2@WBA@$AAGJPAKPAPAVGuid@2@@Z 100b0d0a f i vccorlibd:init.obj
 0002:00072d20       ?__abi_GetIids@?QObject@Platform@@CustomEnum@Details@2@U$AAGJPAKPAPAVGuid@2@@Z 100b0d20 f i vccorlibd:init.obj
 0002:00072e4c       ?__abi_GetIids@?QObject@Platform@@CustomEnum@Details@2@W3$AAGJPAKPAPAVGuid@2@@Z 100b0e4c f i vccorlibd:init.obj
 0002:00072e58       ?__abi_GetIids@?QObject@Platform@@CustomEnum@Details@2@WM@$AAGJPAKPAPAVGuid@2@@Z 100b0e58 f i vccorlibd:init.obj
 0002:00072e70       ?__abi_GetIids@?QObject@Platform@@CustomValueType@Details@2@U$AAGJPAKPAPAVGuid@2@@Z 100b0e70 f i vccorlibd:init.obj
 0002:00072f9c       ?__abi_GetIids@?QObject@Platform@@CustomValueType@Details@2@W3$AAGJPAKPAPAVGuid@2@@Z 100b0f9c f i vccorlibd:init.obj
 0002:00072fa8       ?__abi_GetIids@?QObject@Platform@@CustomValueType@Details@2@WM@$AAGJPAKPAPAVGuid@2@@Z 100b0fa8 f i vccorlibd:init.obj
 0002:00072fc0       ?__abi_GetIids@Exception@Platform@@U$AAGJPAKPAPAVGuid@2@@Z 100b0fc0 f i vccorlibd:init.obj
 0002:00073140       ?__abi_GetIids@RuntimeClassNameAttribute@Metadata@Platform@@U$AAGJPAKPAPAVGuid@3@@Z 100b1140 f i vccorlibd:init.obj
 0002:00073170       ?__abi_GetIids@String@Platform@@U$AAGJPAKPAPAVGuid@2@@Z 100b1170 f i vccorlibd:init.obj
 0002:000732f0       ?__abi_GetRuntimeClassName@?QObject@Platform@@?$Array@E$00@2@U$AAGJPAPAUHSTRING__@@@Z 100b12f0 f i vccorlibd:init.obj
 0002:00073315       ?__abi_GetRuntimeClassName@?QObject@Platform@@?$Array@E$00@2@W3$AAGJPAPAUHSTRING__@@@Z 100b1315 f i vccorlibd:init.obj
 0002:00073321       ?__abi_GetRuntimeClassName@?QObject@Platform@@?$Array@E$00@2@W7$AAGJPAPAUHSTRING__@@@Z 100b1321 f i vccorlibd:init.obj
 0002:0007332d       ?__abi_GetRuntimeClassName@?QObject@Platform@@?$Array@E$00@2@WBA@$AAGJPAPAUHSTRING__@@@Z 100b132d f i vccorlibd:init.obj
 0002:00073339       ?__abi_GetRuntimeClassName@?QObject@Platform@@?$Array@E$00@2@WBE@$AAGJPAPAUHSTRING__@@@Z 100b1339 f i vccorlibd:init.obj
 0002:00073345       ?__abi_GetRuntimeClassName@?QObject@Platform@@?$Array@E$00@2@WBI@$AAGJPAPAUHSTRING__@@@Z 100b1345 f i vccorlibd:init.obj
 0002:00073351       ?__abi_GetRuntimeClassName@?QObject@Platform@@?$Array@E$00@2@WCA@$AAGJPAPAUHSTRING__@@@Z 100b1351 f i vccorlibd:init.obj
 0002:0007335d       ?__abi_GetRuntimeClassName@?QObject@Platform@@?$Array@E$00@2@WEA@$AAGJPAPAUHSTRING__@@@Z 100b135d f i vccorlibd:init.obj
 0002:00073369       ?__abi_GetRuntimeClassName@?QObject@Platform@@?$Array@E$00@2@WM@$AAGJPAPAUHSTRING__@@@Z 100b1369 f i vccorlibd:init.obj
 0002:00073380       ?__abi_GetRuntimeClassName@?QObject@Platform@@?$WriteOnlyArray@E$00@2@U$AAGJPAPAUHSTRING__@@@Z 100b1380 f i vccorlibd:init.obj
 0002:000733a5       ?__abi_GetRuntimeClassName@?QObject@Platform@@?$WriteOnlyArray@E$00@2@W3$AAGJPAPAUHSTRING__@@@Z 100b13a5 f i vccorlibd:init.obj
 0002:000733b1       ?__abi_GetRuntimeClassName@?QObject@Platform@@?$WriteOnlyArray@E$00@2@W7$AAGJPAPAUHSTRING__@@@Z 100b13b1 f i vccorlibd:init.obj
 0002:000733bd       ?__abi_GetRuntimeClassName@?QObject@Platform@@?$WriteOnlyArray@E$00@2@WBA@$AAGJPAPAUHSTRING__@@@Z 100b13bd f i vccorlibd:init.obj
 0002:000733d0       ?__abi_GetRuntimeClassName@?QObject@Platform@@CustomEnum@Details@2@U$AAGJPAPAUHSTRING__@@@Z 100b13d0 f i vccorlibd:init.obj
 0002:000733f5       ?__abi_GetRuntimeClassName@?QObject@Platform@@CustomEnum@Details@2@W3$AAGJPAPAUHSTRING__@@@Z 100b13f5 f i vccorlibd:init.obj
 0002:00073401       ?__abi_GetRuntimeClassName@?QObject@Platform@@CustomEnum@Details@2@WM@$AAGJPAPAUHSTRING__@@@Z 100b1401 f i vccorlibd:init.obj
 0002:00073410       ?__abi_GetRuntimeClassName@?QObject@Platform@@CustomValueType@Details@2@U$AAGJPAPAUHSTRING__@@@Z 100b1410 f i vccorlibd:init.obj
 0002:00073435       ?__abi_GetRuntimeClassName@?QObject@Platform@@CustomValueType@Details@2@W3$AAGJPAPAUHSTRING__@@@Z 100b1435 f i vccorlibd:init.obj
 0002:00073441       ?__abi_GetRuntimeClassName@?QObject@Platform@@CustomValueType@Details@2@WM@$AAGJPAPAUHSTRING__@@@Z 100b1441 f i vccorlibd:init.obj
 0002:00073450       ?__abi_GetRuntimeClassName@Exception@Platform@@U$AAGJPAPAUHSTRING__@@@Z 100b1450 f i vccorlibd:init.obj
 0002:00073480       ?__abi_GetRuntimeClassName@RuntimeClassNameAttribute@Metadata@Platform@@U$AAGJPAPAUHSTRING__@@@Z 100b1480 f i vccorlibd:init.obj
 0002:000734b0       ?__abi_GetRuntimeClassName@String@Platform@@U$AAGJPAPAUHSTRING__@@@Z 100b14b0 f i vccorlibd:init.obj
 0002:000734e0       ?__abi_GetTrustLevel@?QObject@Platform@@?$Array@E$00@2@U$AAGJPAW4__abi_TrustLevel@@@Z 100b14e0 f i vccorlibd:init.obj
 0002:000734f6       ?__abi_GetTrustLevel@?QObject@Platform@@?$Array@E$00@2@W3$AAGJPAW4__abi_TrustLevel@@@Z 100b14f6 f i vccorlibd:init.obj
 0002:00073502       ?__abi_GetTrustLevel@?QObject@Platform@@?$Array@E$00@2@W7$AAGJPAW4__abi_TrustLevel@@@Z 100b1502 f i vccorlibd:init.obj
 0002:0007350e       ?__abi_GetTrustLevel@?QObject@Platform@@?$Array@E$00@2@WBA@$AAGJPAW4__abi_TrustLevel@@@Z 100b150e f i vccorlibd:init.obj
 0002:0007351a       ?__abi_GetTrustLevel@?QObject@Platform@@?$Array@E$00@2@WBE@$AAGJPAW4__abi_TrustLevel@@@Z 100b151a f i vccorlibd:init.obj
 0002:00073526       ?__abi_GetTrustLevel@?QObject@Platform@@?$Array@E$00@2@WBI@$AAGJPAW4__abi_TrustLevel@@@Z 100b1526 f i vccorlibd:init.obj
 0002:00073532       ?__abi_GetTrustLevel@?QObject@Platform@@?$Array@E$00@2@WCA@$AAGJPAW4__abi_TrustLevel@@@Z 100b1532 f i vccorlibd:init.obj
 0002:0007353e       ?__abi_GetTrustLevel@?QObject@Platform@@?$Array@E$00@2@WEA@$AAGJPAW4__abi_TrustLevel@@@Z 100b153e f i vccorlibd:init.obj
 0002:0007354a       ?__abi_GetTrustLevel@?QObject@Platform@@?$Array@E$00@2@WM@$AAGJPAW4__abi_TrustLevel@@@Z 100b154a f i vccorlibd:init.obj
 0002:00073560       ?__abi_GetTrustLevel@?QObject@Platform@@?$WriteOnlyArray@E$00@2@U$AAGJPAW4__abi_TrustLevel@@@Z 100b1560 f i vccorlibd:init.obj
 0002:00073576       ?__abi_GetTrustLevel@?QObject@Platform@@?$WriteOnlyArray@E$00@2@W3$AAGJPAW4__abi_TrustLevel@@@Z 100b1576 f i vccorlibd:init.obj
 0002:00073582       ?__abi_GetTrustLevel@?QObject@Platform@@?$WriteOnlyArray@E$00@2@W7$AAGJPAW4__abi_TrustLevel@@@Z 100b1582 f i vccorlibd:init.obj
 0002:0007358e       ?__abi_GetTrustLevel@?QObject@Platform@@?$WriteOnlyArray@E$00@2@WBA@$AAGJPAW4__abi_TrustLevel@@@Z 100b158e f i vccorlibd:init.obj
 0002:000735a0       ?__abi_GetTrustLevel@?QObject@Platform@@CustomEnum@Details@2@U$AAGJPAW4__abi_TrustLevel@@@Z 100b15a0 f i vccorlibd:init.obj
 0002:000735b6       ?__abi_GetTrustLevel@?QObject@Platform@@CustomEnum@Details@2@W3$AAGJPAW4__abi_TrustLevel@@@Z 100b15b6 f i vccorlibd:init.obj
 0002:000735c2       ?__abi_GetTrustLevel@?QObject@Platform@@CustomEnum@Details@2@WM@$AAGJPAW4__abi_TrustLevel@@@Z 100b15c2 f i vccorlibd:init.obj
 0002:000735d0       ?__abi_GetTrustLevel@?QObject@Platform@@CustomValueType@Details@2@U$AAGJPAW4__abi_TrustLevel@@@Z 100b15d0 f i vccorlibd:init.obj
 0002:000735e6       ?__abi_GetTrustLevel@?QObject@Platform@@CustomValueType@Details@2@W3$AAGJPAW4__abi_TrustLevel@@@Z 100b15e6 f i vccorlibd:init.obj
 0002:000735f2       ?__abi_GetTrustLevel@?QObject@Platform@@CustomValueType@Details@2@WM@$AAGJPAW4__abi_TrustLevel@@@Z 100b15f2 f i vccorlibd:init.obj
 0002:00073600       ?__abi_GetTrustLevel@Exception@Platform@@U$AAGJPAW4__abi_TrustLevel@@@Z 100b1600 f i vccorlibd:init.obj
 0002:00073620       ?__abi_GetTrustLevel@RuntimeClassNameAttribute@Metadata@Platform@@U$AAGJPAW4__abi_TrustLevel@@@Z 100b1620 f i vccorlibd:init.obj
 0002:00073640       ?__abi_GetTrustLevel@String@Platform@@U$AAGJPAW4__abi_TrustLevel@@@Z 100b1640 f i vccorlibd:init.obj
 0002:00073660       ?__abi_IncrementObjectCount@InProcModule@Details@Platform@@UAGKXZ 100b1660 f i vccorlibd:init.obj
 0002:00073680       ?__abi_Platform_?$IBoxArray@E____abi_get_Value@?Q?$IBoxArray@E@Platform@@?$Array@E$00@2@U$AAGJPAIPAPAE@Z 100b1680 f i vccorlibd:init.obj
 0002:000737b0       ?__abi_Platform_Details_IEquatable____abi_Equals@?QIEquatable@Details@Platform@@Exception@3@U$AAGJP$AAVObject@3@PA_N@Z 100b17b0 f i vccorlibd:init.obj
 0002:000738c0       ?__abi_Platform_Details_IEquatable____abi_Equals@?QIEquatable@Details@Platform@@String@3@U$AAGJP$AAVObject@3@PA_N@Z 100b18c0 f i vccorlibd:init.obj
 0002:000739c0       ?__abi_Platform_Details_IEquatable____abi_GetHashCode@?QIEquatable@Details@Platform@@Exception@3@U$AAGJPAH@Z 100b19c0 f i vccorlibd:init.obj
 0002:00073ad0       ?__abi_Platform_Details_IEquatable____abi_GetHashCode@?QIEquatable@Details@Platform@@String@3@U$AAGJPAH@Z 100b1ad0 f i vccorlibd:init.obj
 0002:00073bd0       ?__abi_Platform_Details_IPrintable____abi_ToString@?QIPrintable@Details@Platform@@Exception@3@U$AAGJPAP$AAVString@3@@Z 100b1bd0 f i vccorlibd:init.obj
 0002:00073ce0       ?__abi_Platform_Details_IPrintable____abi_ToString@?QIPrintable@Details@Platform@@String@3@U$AAGJPAP$AAV43@@Z 100b1ce0 f i vccorlibd:init.obj
 0002:00073de0       ?__abi_Platform_Details_IWeakReferenceSource____abi_GetWeakReference@?QIWeakReferenceSource@Details@Platform@@?$Array@E$00@3@U$AAGJPAP$AAUIWeakReference@23@@Z 100b1de0 f i vccorlibd:init.obj
 0002:00073eda       ?__abi_Platform_Details_IWeakReferenceSource____abi_GetWeakReference@?QIWeakReferenceSource@Details@Platform@@?$Array@E$00@3@WBM@$AAGJPAP$AAUIWeakReference@23@@Z 100b1eda f i vccorlibd:init.obj
 0002:00073ee6       ?__abi_Platform_Details_IWeakReferenceSource____abi_GetWeakReference@?QIWeakReferenceSource@Details@Platform@@?$Array@E$00@3@WDM@$AAGJPAP$AAUIWeakReference@23@@Z 100b1ee6 f i vccorlibd:init.obj
 0002:00073f00       ?__abi_Platform_Details_IWeakReferenceSource____abi_GetWeakReference@?QIWeakReferenceSource@Details@Platform@@?$WriteOnlyArray@E$00@3@U$AAGJPAP$AAUIWeakReference@23@@Z 100b1f00 f i vccorlibd:init.obj
 0002:00074010       ?__abi_Platform_Details_IWeakReferenceSource____abi_GetWeakReference@?QIWeakReferenceSource@Details@Platform@@?$WriteOnlyArray@E$00@3@WM@$AAGJPAP$AAUIWeakReference@23@@Z 100b2010 f i vccorlibd:init.obj
 0002:00074020       ?__abi_Platform_Details_IWeakReferenceSource____abi_GetWeakReference@?QIWeakReferenceSource@Details@Platform@@CustomEnum@23@U$AAGJPAP$AAUIWeakReference@23@@Z 100b2020 f i vccorlibd:init.obj
 0002:0007411c       ?__abi_Platform_Details_IWeakReferenceSource____abi_GetWeakReference@?QIWeakReferenceSource@Details@Platform@@CustomEnum@23@W7$AAGJPAP$AAUIWeakReference@23@@Z 100b211c f i vccorlibd:init.obj
 0002:00074130       ?__abi_Platform_Details_IWeakReferenceSource____abi_GetWeakReference@?QIWeakReferenceSource@Details@Platform@@CustomValueType@23@U$AAGJPAP$AAUIWeakReference@23@@Z 100b2130 f i vccorlibd:init.obj
 0002:0007422c       ?__abi_Platform_Details_IWeakReferenceSource____abi_GetWeakReference@?QIWeakReferenceSource@Details@Platform@@CustomValueType@23@W7$AAGJPAP$AAUIWeakReference@23@@Z 100b222c f i vccorlibd:init.obj
 0002:00074240       ?__abi_Platform_IDisposable____abi_<Dispose>@?QIDisposable@Platform@@?$Array@E$00@2@U$AAGJXZ 100b2240 f i vccorlibd:init.obj
 0002:000742f1       ?__abi_Platform_IDisposable____abi_<Dispose>@?QIDisposable@Platform@@?$Array@E$00@2@WBE@$AAGJXZ 100b22f1 f i vccorlibd:init.obj
 0002:000742fd       ?__abi_Platform_IDisposable____abi_<Dispose>@?QIDisposable@Platform@@?$Array@E$00@2@WM@$AAGJXZ 100b22fd f i vccorlibd:init.obj
 0002:00074310       ?__abi_Platform_IDisposable____abi_<Dispose>@?QIDisposable@Platform@@?$WriteOnlyArray@E$00@2@U$AAGJXZ 100b2310 f i vccorlibd:init.obj
 0002:000743d8       ?__abi_Platform_IDisposable____abi_<Dispose>@?QIDisposable@Platform@@?$WriteOnlyArray@E$00@2@W3$AAGJXZ 100b23d8 f i vccorlibd:init.obj
 0002:000743f0       ?__abi_Platform_IDisposable____abi_<Dispose>@?QIDisposable@Platform@@Exception@2@U$AAGJXZ 100b23f0 f i vccorlibd:init.obj
 0002:000744c0       ?__abi_Platform_IDisposable____abi_<Dispose>@?QIDisposable@Platform@@String@2@U$AAGJXZ 100b24c0 f i vccorlibd:init.obj
 0002:00074580       ?__abi_QueryInterface@?QObject@Platform@@?$Array@E$00@2@U$AAGJAAVGuid@2@PAPAX@Z 100b2580 f i vccorlibd:init.obj
 0002:000748b4       ?__abi_QueryInterface@?QObject@Platform@@?$Array@E$00@2@W3$AAGJAAVGuid@2@PAPAX@Z 100b28b4 f i vccorlibd:init.obj
 0002:000748c0       ?__abi_QueryInterface@?QObject@Platform@@?$Array@E$00@2@W7$AAGJAAVGuid@2@PAPAX@Z 100b28c0 f i vccorlibd:init.obj
 0002:000748cc       ?__abi_QueryInterface@?QObject@Platform@@?$Array@E$00@2@WBA@$AAGJAAVGuid@2@PAPAX@Z 100b28cc f i vccorlibd:init.obj
 0002:000748d8       ?__abi_QueryInterface@?QObject@Platform@@?$Array@E$00@2@WBE@$AAGJAAVGuid@2@PAPAX@Z 100b28d8 f i vccorlibd:init.obj
 0002:000748e4       ?__abi_QueryInterface@?QObject@Platform@@?$Array@E$00@2@WBI@$AAGJAAVGuid@2@PAPAX@Z 100b28e4 f i vccorlibd:init.obj
 0002:000748f0       ?__abi_QueryInterface@?QObject@Platform@@?$Array@E$00@2@WBM@$AAGJAAVGuid@2@PAPAX@Z 100b28f0 f i vccorlibd:init.obj
 0002:000748fc       ?__abi_QueryInterface@?QObject@Platform@@?$Array@E$00@2@WCA@$AAGJAAVGuid@2@PAPAX@Z 100b28fc f i vccorlibd:init.obj
 0002:00074908       ?__abi_QueryInterface@?QObject@Platform@@?$Array@E$00@2@WDM@$AAGJAAVGuid@2@PAPAX@Z 100b2908 f i vccorlibd:init.obj
 0002:00074914       ?__abi_QueryInterface@?QObject@Platform@@?$Array@E$00@2@WEA@$AAGJAAVGuid@2@PAPAX@Z 100b2914 f i vccorlibd:init.obj
 0002:00074920       ?__abi_QueryInterface@?QObject@Platform@@?$Array@E$00@2@WM@$AAGJAAVGuid@2@PAPAX@Z 100b2920 f i vccorlibd:init.obj
 0002:00074930       ?__abi_QueryInterface@?QObject@Platform@@?$WriteOnlyArray@E$00@2@U$AAGJAAVGuid@2@PAPAX@Z 100b2930 f i vccorlibd:init.obj
 0002:00074b22       ?__abi_QueryInterface@?QObject@Platform@@?$WriteOnlyArray@E$00@2@W3$AAGJAAVGuid@2@PAPAX@Z 100b2b22 f i vccorlibd:init.obj
 0002:00074b2e       ?__abi_QueryInterface@?QObject@Platform@@?$WriteOnlyArray@E$00@2@W7$AAGJAAVGuid@2@PAPAX@Z 100b2b2e f i vccorlibd:init.obj
 0002:00074b3a       ?__abi_QueryInterface@?QObject@Platform@@?$WriteOnlyArray@E$00@2@WBA@$AAGJAAVGuid@2@PAPAX@Z 100b2b3a f i vccorlibd:init.obj
 0002:00074b46       ?__abi_QueryInterface@?QObject@Platform@@?$WriteOnlyArray@E$00@2@WM@$AAGJAAVGuid@2@PAPAX@Z 100b2b46 f i vccorlibd:init.obj
 0002:00074b60       ?__abi_QueryInterface@?QObject@Platform@@CustomEnum@Details@2@U$AAGJAAVGuid@2@PAPAX@Z 100b2b60 f i vccorlibd:init.obj
 0002:00074ce6       ?__abi_QueryInterface@?QObject@Platform@@CustomEnum@Details@2@W3$AAGJAAVGuid@2@PAPAX@Z 100b2ce6 f i vccorlibd:init.obj
 0002:00074cf2       ?__abi_QueryInterface@?QObject@Platform@@CustomEnum@Details@2@W7$AAGJAAVGuid@2@PAPAX@Z 100b2cf2 f i vccorlibd:init.obj
 0002:00074cfe       ?__abi_QueryInterface@?QObject@Platform@@CustomEnum@Details@2@WM@$AAGJAAVGuid@2@PAPAX@Z 100b2cfe f i vccorlibd:init.obj
 0002:00074d10       ?__abi_QueryInterface@?QObject@Platform@@CustomValueType@Details@2@U$AAGJAAVGuid@2@PAPAX@Z 100b2d10 f i vccorlibd:init.obj
 0002:00074e96       ?__abi_QueryInterface@?QObject@Platform@@CustomValueType@Details@2@W3$AAGJAAVGuid@2@PAPAX@Z 100b2e96 f i vccorlibd:init.obj
 0002:00074ea2       ?__abi_QueryInterface@?QObject@Platform@@CustomValueType@Details@2@W7$AAGJAAVGuid@2@PAPAX@Z 100b2ea2 f i vccorlibd:init.obj
 0002:00074eae       ?__abi_QueryInterface@?QObject@Platform@@CustomValueType@Details@2@WM@$AAGJAAVGuid@2@PAPAX@Z 100b2eae f i vccorlibd:init.obj
 0002:00074ec0       ?__abi_QueryInterface@Exception@Platform@@U$AAGJAAVGuid@2@PAPAX@Z 100b2ec0 f i vccorlibd:init.obj
 0002:00075100       ?__abi_QueryInterface@RuntimeClassNameAttribute@Metadata@Platform@@U$AAGJAAVGuid@3@PAPAX@Z 100b3100 f i vccorlibd:init.obj
 0002:00075200       ?__abi_QueryInterface@String@Platform@@U$AAGJAAVGuid@2@PAPAX@Z 100b3200 f i vccorlibd:init.obj
 0002:00075470       ?__abi_Release@?QObject@Platform@@?$Array@E$00@2@U$AAGKXZ 100b3470 f i vccorlibd:init.obj
 0002:00075527       ?__abi_Release@?QObject@Platform@@?$Array@E$00@2@W3$AAGKXZ 100b3527 f i vccorlibd:init.obj
 0002:00075533       ?__abi_Release@?QObject@Platform@@?$Array@E$00@2@W7$AAGKXZ 100b3533 f i vccorlibd:init.obj
 0002:0007553f       ?__abi_Release@?QObject@Platform@@?$Array@E$00@2@WBA@$AAGKXZ 100b353f f i vccorlibd:init.obj
 0002:0007554b       ?__abi_Release@?QObject@Platform@@?$Array@E$00@2@WBE@$AAGKXZ 100b354b f i vccorlibd:init.obj
 0002:00075557       ?__abi_Release@?QObject@Platform@@?$Array@E$00@2@WBI@$AAGKXZ 100b3557 f i vccorlibd:init.obj
 0002:00075563       ?__abi_Release@?QObject@Platform@@?$Array@E$00@2@WBM@$AAGKXZ 100b3563 f i vccorlibd:init.obj
 0002:0007556f       ?__abi_Release@?QObject@Platform@@?$Array@E$00@2@WCA@$AAGKXZ 100b356f f i vccorlibd:init.obj
 0002:0007557b       ?__abi_Release@?QObject@Platform@@?$Array@E$00@2@WDM@$AAGKXZ 100b357b f i vccorlibd:init.obj
 0002:00075587       ?__abi_Release@?QObject@Platform@@?$Array@E$00@2@WEA@$AAGKXZ 100b3587 f i vccorlibd:init.obj
 0002:00075593       ?__abi_Release@?QObject@Platform@@?$Array@E$00@2@WM@$AAGKXZ 100b3593 f i vccorlibd:init.obj
 0002:000755a0       ?__abi_Release@?QObject@Platform@@?$WriteOnlyArray@E$00@2@U$AAGKXZ 100b35a0 f i vccorlibd:init.obj
 0002:00075657       ?__abi_Release@?QObject@Platform@@?$WriteOnlyArray@E$00@2@W3$AAGKXZ 100b3657 f i vccorlibd:init.obj
 0002:00075663       ?__abi_Release@?QObject@Platform@@?$WriteOnlyArray@E$00@2@W7$AAGKXZ 100b3663 f i vccorlibd:init.obj
 0002:0007566f       ?__abi_Release@?QObject@Platform@@?$WriteOnlyArray@E$00@2@WBA@$AAGKXZ 100b366f f i vccorlibd:init.obj
 0002:0007567b       ?__abi_Release@?QObject@Platform@@?$WriteOnlyArray@E$00@2@WM@$AAGKXZ 100b367b f i vccorlibd:init.obj
 0002:00075690       ?__abi_Release@?QObject@Platform@@CustomEnum@Details@2@U$AAGKXZ 100b3690 f i vccorlibd:init.obj
 0002:000756dd       ?__abi_Release@?QObject@Platform@@CustomEnum@Details@2@W3$AAGKXZ 100b36dd f i vccorlibd:init.obj
 0002:000756e9       ?__abi_Release@?QObject@Platform@@CustomEnum@Details@2@W7$AAGKXZ 100b36e9 f i vccorlibd:init.obj
 0002:000756f5       ?__abi_Release@?QObject@Platform@@CustomEnum@Details@2@WM@$AAGKXZ 100b36f5 f i vccorlibd:init.obj
 0002:00075710       ?__abi_Release@?QObject@Platform@@CustomValueType@Details@2@U$AAGKXZ 100b3710 f i vccorlibd:init.obj
 0002:0007575d       ?__abi_Release@?QObject@Platform@@CustomValueType@Details@2@W3$AAGKXZ 100b375d f i vccorlibd:init.obj
 0002:00075769       ?__abi_Release@?QObject@Platform@@CustomValueType@Details@2@W7$AAGKXZ 100b3769 f i vccorlibd:init.obj
 0002:00075775       ?__abi_Release@?QObject@Platform@@CustomValueType@Details@2@WM@$AAGKXZ 100b3775 f i vccorlibd:init.obj
 0002:00075790       ?__abi_Release@Exception@Platform@@U$AAGKXZ 100b3790 f i vccorlibd:init.obj
 0002:00075850       ?__abi_Release@RuntimeClassNameAttribute@Metadata@Platform@@U$AAGKXZ 100b3850 f i vccorlibd:init.obj
 0002:000758a0       ?__abi_Release@String@Platform@@U$AAGKXZ 100b38a0 f i vccorlibd:init.obj
 0002:000758f0       ?__abi_winrt_cast_from_string_to_object@@YAP$AAVObject@Platform@@_NP$AAVString@2@@Z 100b38f0 f i vccorlibd:init.obj
 0002:00075910       ?__abi_winrt_cast_from_string_to_other@@YAP$AAVObject@Platform@@_NP$AAVString@2@@Z 100b3910 f i vccorlibd:init.obj
 0002:00075930       ?__abi_winrt_cast_to_string@@YAP$AAVString@Platform@@_NP$AAVObject@2@@Z 100b3930 f i vccorlibd:init.obj
 0002:00075950       ?begin@?$WriteOnlyArray@E$00@Platform@@Q$ABAPAEXZ 100b3950 f i vccorlibd:init.obj
 0002:00075980       ?get@?$Array@E$00@Platform@@Q$ABAAAEI@Z 100b3980 f i vccorlibd:init.obj
 0002:000759b0       ?get@?$WriteOnlyArray@E$00@Platform@@I$ABAAAEI@Z 100b39b0 f i vccorlibd:init.obj
 0002:00075a00       ?get@?Q?$IBoxArray@E@Platform@@Value@?$Array@E$00@2@U$AAAP$01$AAV42@XZ 100b3a00 f i vccorlibd:init.obj
 0002:00075a20       ?get@Auto@GridLength@Xaml@UI@Windows@@SA?AV2345@XZ 100b3a20 f i vccorlibd:init.obj
 0002:00075a50       ?get@Automatic@Duration@Xaml@UI@Windows@@SA?AV2345@XZ 100b3a50 f i vccorlibd:init.obj
 0002:00075af0       ?get@Count@RepeatBehavior@Animation@Media@Xaml@UI@Windows@@QAANXZ 100b3af0 f i vccorlibd:init.obj
 0002:00075b00       ?get@Data@?$WriteOnlyArray@E$00@Platform@@Q$ABAPAEXZ 100b3b00 f i vccorlibd:init.obj
 0002:00075b20       ?get@Duration@RepeatBehavior@Animation@Media@Xaml@UI@Windows@@QAA?AVTimeSpan@Foundation@7@XZ 100b3b20 f i vccorlibd:init.obj
 0002:00075b40       ?get@FastPass@?$WriteOnlyArray@E$00@Platform@@Q$ABA_NXZ 100b3b40 f i vccorlibd:init.obj
 0002:00075b50       ?get@Forever@Duration@Xaml@UI@Windows@@SA?AV2345@XZ 100b3b50 f i vccorlibd:init.obj
 0002:00075bf0       ?get@Forever@RepeatBehavior@Animation@Media@Xaml@UI@Windows@@SA?AV234567@XZ 100b3bf0 f i vccorlibd:init.obj
 0002:00075cc0       ?get@GridUnitType@GridLength@Xaml@UI@Windows@@QAA?AW41345@XZ 100b3cc0 f i vccorlibd:init.obj
 0002:00075cd0       ?get@HResult@Exception@Platform@@Q$AAAHXZ 100b3cd0 f i vccorlibd:init.obj
 0002:00075ce0       ?get@HasCount@RepeatBehavior@Animation@Media@Xaml@UI@Windows@@QAA_NXZ 100b3ce0 f i vccorlibd:init.obj
 0002:00075d20       ?get@HasDuration@RepeatBehavior@Animation@Media@Xaml@UI@Windows@@QAA_NXZ 100b3d20 f i vccorlibd:init.obj
 0002:00075d60       ?get@HasTimeSpan@Duration@Xaml@UI@Windows@@QAA_NXZ 100b3d60 f i vccorlibd:init.obj
 0002:00075da0       ?get@Identity@Matrix3D@Media3D@Media@Xaml@UI@Windows@@SA?AV234567@XZ 100b3da0 f i vccorlibd:init.obj
 0002:00075e70       ?get@Identity@Matrix@Media@Xaml@UI@Windows@@SA?AV23456@XZ 100b3e70 f i vccorlibd:init.obj
 0002:00075ed0       ?get@IsAbsolute@GridLength@Xaml@UI@Windows@@QAA_NXZ 100b3ed0 f i vccorlibd:init.obj
 0002:00075f10       ?get@IsAuto@GridLength@Xaml@UI@Windows@@QAA_NXZ 100b3f10 f i vccorlibd:init.obj
 0002:00075f50       ?get@IsEmpty@Rect@Foundation@Windows@@QAA_NXZ 100b3f50 f i vccorlibd:init.obj
 0002:00075fa0       ?get@IsEmpty@Size@Foundation@Windows@@QAA_NXZ 100b3fa0 f i vccorlibd:init.obj
 0002:00075ff0       ?get@IsIdentity@Matrix3D@Media3D@Media@Xaml@UI@Windows@@QAA_NXZ 100b3ff0 f i vccorlibd:init.obj
 0002:000761a0       ?get@IsIdentity@Matrix@Media@Xaml@UI@Windows@@QAA_NXZ 100b41a0 f i vccorlibd:init.obj
 0002:00076250       ?get@IsStar@GridLength@Xaml@UI@Windows@@QAA_NXZ 100b4250 f i vccorlibd:init.obj
 0002:00076290       ?get@Left@Rect@Foundation@Windows@@QAAMXZ 100b4290 f i vccorlibd:init.obj
 0002:000762a0       ?get@Length@?$WriteOnlyArray@E$00@Platform@@Q$ABAIXZ 100b42a0 f i vccorlibd:init.obj
 0002:000762b0       ?get@TimeSpan@Duration@Xaml@UI@Windows@@QAA?AV1Foundation@5@XZ 100b42b0 f i vccorlibd:init.obj
 0002:00076380       ?get@Top@Rect@Foundation@Windows@@QAAMXZ 100b4380 f i vccorlibd:init.obj
 0002:00076390       ?get@Type@RepeatBehavior@Animation@Media@Xaml@UI@Windows@@QAA?AW4RepeatBehaviorType@34567@XZ 100b4390 f i vccorlibd:init.obj
 0002:000763a0       ?get@Value@?$IBoxArray@E@Platform@@U$AAAP$01$AAV?$Array@E$00@3@XZ 100b43a0 f i vccorlibd:init.obj
 0002:00076520       ?get@Value@GridLength@Xaml@UI@Windows@@QAANXZ 100b4520 f i vccorlibd:init.obj
 0002:000765a0       __InlineInterlockedCompareExchangePointer 100b45a0 f i vccorlibd:init.obj
 0002:000765b6       ?__abi_WinRTraiseNotImplementedException@@YGXXZ 100b45b6 f   vccorlibd:vccorlib120d_app.DLL
 0002:000765bc       ?__abi_WinRTraiseInvalidCastException@@YGXXZ 100b45bc f   vccorlibd:vccorlib120d_app.DLL
 0002:000765c2       ?__abi_WinRTraiseNullReferenceException@@YGXXZ 100b45c2 f   vccorlibd:vccorlib120d_app.DLL
 0002:000765c8       ?__abi_WinRTraiseOperationCanceledException@@YGXXZ 100b45c8 f   vccorlibd:vccorlib120d_app.DLL
 0002:000765ce       ?__abi_WinRTraiseFailureException@@YGXXZ 100b45ce f   vccorlibd:vccorlib120d_app.DLL
 0002:000765d4       ?__abi_WinRTraiseAccessDeniedException@@YGXXZ 100b45d4 f   vccorlibd:vccorlib120d_app.DLL
 0002:000765da       ?__abi_WinRTraiseOutOfMemoryException@@YGXXZ 100b45da f   vccorlibd:vccorlib120d_app.DLL
 0002:000765e0       ?__abi_WinRTraiseInvalidArgumentException@@YGXXZ 100b45e0 f   vccorlibd:vccorlib120d_app.DLL
 0002:000765e6       ?__abi_WinRTraiseOutOfBoundsException@@YGXXZ 100b45e6 f   vccorlibd:vccorlib120d_app.DLL
 0002:000765ec       ?__abi_WinRTraiseChangedStateException@@YGXXZ 100b45ec f   vccorlibd:vccorlib120d_app.DLL
 0002:000765f2       ?__abi_WinRTraiseClassNotRegisteredException@@YGXXZ 100b45f2 f   vccorlibd:vccorlib120d_app.DLL
 0002:000765f8       ?__abi_WinRTraiseWrongThreadException@@YGXXZ 100b45f8 f   vccorlibd:vccorlib120d_app.DLL
 0002:000765fe       ?__abi_WinRTraiseDisconnectedException@@YGXXZ 100b45fe f   vccorlibd:vccorlib120d_app.DLL
 0002:00076604       ?__abi_WinRTraiseObjectDisposedException@@YGXXZ 100b4604 f   vccorlibd:vccorlib120d_app.DLL
 0002:0007660a       ?__abi_WinRTraiseCOMException@@YGXJ@Z 100b460a f   vccorlibd:vccorlib120d_app.DLL
 0002:00076610       ?__abi_translateCurrentException@@YGJ_N@Z 100b4610 f   vccorlibd:vccorlib120d_app.DLL
 0002:00076620       ?__getIids@__winRT@@YGJHPAKPBU__s_GUID@@PAPAVGuid@Platform@@@Z 100b4620 f   vccorlibd:compiler.obj
 0002:00076650       ?__windowsCreateString@__winRT@@YGJPB_WHPAPAUHSTRING__@@@Z 100b4650 f   vccorlibd:compiler.obj
 0002:00076676       ??0Object@Platform@@Q$AAA@XZ 100b4676 f   vccorlibd:vccorlib120d_app.DLL
 0002:0007667c       ?ReleaseTarget@ControlBlock@Details@Platform@@AAEXXZ 100b467c f   vccorlibd:vccorlib120d_app.DLL
 0002:00076682       ?Allocate@Heap@Details@Platform@@SAPAXII@Z 100b4682 f   vccorlibd:vccorlib120d_app.DLL
 0002:00076688       ?Free@Heap@Details@Platform@@SAXPAX@Z 100b4688 f   vccorlibd:vccorlib120d_app.DLL
 0002:0007668e       ?AlignedFree@Heap@Details@Platform@@SAXPAX@Z 100b468e f   vccorlibd:vccorlib120d_app.DLL
 0002:000766a0       ?__getActivationFactoryByPCWSTR@__winRT@@YGJPAXAAVGuid@Platform@@PAPAX@Z 100b46a0 f   vccorlibd:activation.obj
 0002:000766c6       ?Allocate@Heap@Details@Platform@@SAPAXI@Z 100b46c6 f   vccorlibd:vccorlib120d_app.DLL
 0002:000766cc       ?AllocateException@Heap@Details@Platform@@SAPAXII@Z 100b46cc f   vccorlibd:vccorlib120d_app.DLL
 0002:000766d2       ??0Delegate@Platform@@Q$AAA@XZ 100b46d2 f   vccorlibd:vccorlib120d_app.DLL
 0002:000766d8       ??0Exception@Platform@@Q$AAA@HP$AAVString@1@@Z 100b46d8 f   vccorlibd:vccorlib120d_app.DLL
 0002:000766de       ?CreateException@Exception@Platform@@SAP$AAV12@H@Z 100b46de f   vccorlibd:vccorlib120d_app.DLL
 0002:000766e4       ?ReCreateException@Exception@Platform@@SAP$AAV12@H@Z 100b46e4 f   vccorlibd:vccorlib120d_app.DLL
 0002:000766ea       ?GetObjectContext@Details@Platform@@YGPAUIUnknown@@XZ 100b46ea f   vccorlibd:vccorlib120d_app.DLL
 0002:000766f0       ?GetProxyImpl@Details@Platform@@YGJPAUIUnknown@@ABU_GUID@@0PAPAU3@@Z 100b46f0 f   vccorlibd:vccorlib120d_app.DLL
 0002:000766f6       ?ReleaseInContextImpl@Details@Platform@@YGJPAUIUnknown@@0@Z 100b46f6 f   vccorlibd:vccorlib120d_app.DLL
 0002:000766fc       ?__abi_cast_String_to_Object@__abi_details@@YGP$AAVObject@Platform@@P$AAVString@3@@Z 100b46fc f   vccorlibd:vccorlib120d_app.DLL
 0002:00076702       ?__abi_cast_Object_to_String@__abi_details@@YGP$AAVString@Platform@@_NP$AAVObject@3@@Z 100b4702 f   vccorlibd:vccorlib120d_app.DLL
 0002:00076708       ?__abi_ObjectToString@__abi_details@@YGP$AAVString@Platform@@P$AAVObject@3@_N@Z 100b4708 f   vccorlibd:vccorlib120d_app.DLL
 0002:0007670e       ??0ValueType@Platform@@Q$AAA@XZ 100b470e f   vccorlibd:vccorlib120d_app.DLL
 0002:00076714       ??0Enum@Platform@@Q$AAA@XZ 100b4714 f   vccorlibd:vccorlib120d_app.DLL
 0002:0007671a       ?<Dispose>@String@Platform@@U$AAAXXZ 100b471a f   vccorlibd:vccorlib120d_app.DLL
 0002:00076720       ?GetIBoxArrayVtable@Details@Platform@@YGPAXPAX@Z 100b4720 f   vccorlibd:vccorlib120d_app.DLL
 0002:00076726       ??0GridLength@Xaml@UI@Windows@@QAA@NW4GridUnitType@123@@Z 100b4726 f   vccorlibd:vccorlib120d_app.DLL
 0002:0007672c       ?InitializeData@Details@Platform@@YAJH@Z 100b472c f   vccorlibd:vccorlib120d_app.DLL
 0002:00076732       ?UninitializeData@Details@Platform@@YAXH@Z 100b4732 f   vccorlibd:vccorlib120d_app.DLL
 0002:00076738       ?GetIidsFn@@YGJHPAKPBU__s_GUID@@PAPAVGuid@Platform@@@Z 100b4738 f   vccorlibd:vccorlib120d_app.DLL
 0002:0007673e       ?GetActivationFactoryByPCWSTR@@YGJPAXAAVGuid@Platform@@PAPAX@Z 100b473e f   vccorlibd:vccorlib120d_app.DLL
 0002:00076744       ?_Debug_message@std@@YAXPB_W0I@Z 100b4744 f   msvcprtd:msvcp120d_app.dll
 0002:0007674a       ??0_Container_base12@std@@QAE@XZ 100b474a f   msvcprtd:msvcp120d_app.dll
 0002:00076750       ??1_Container_base12@std@@QAE@XZ 100b4750 f   msvcprtd:msvcp120d_app.dll
 0002:00076756       ?_Orphan_all@_Container_base12@std@@QAEXXZ 100b4756 f   msvcprtd:msvcp120d_app.dll
 0002:0007675c       ?_Xbad_alloc@std@@YAXXZ    100b475c f   msvcprtd:msvcp120d_app.dll
 0002:00076762       ?_Xlength_error@std@@YAXPBD@Z 100b4762 f   msvcprtd:msvcp120d_app.dll
 0002:00076768       ?_Xout_of_range@std@@YAXPBD@Z 100b4768 f   msvcprtd:msvcp120d_app.dll
 0002:0007676e       ?_Syserror_map@std@@YAPBDH@Z 100b476e f   msvcprtd:msvcp120d_app.dll
 0002:00076774       ?_Winerror_map@std@@YAPBDH@Z 100b4774 f   msvcprtd:msvcp120d_app.dll
 0002:0007677a       ??0_Lockit@std@@QAE@H@Z    100b477a f   msvcprtd:msvcp120d_app.dll
 0002:00076780       ??1_Lockit@std@@QAE@XZ     100b4780 f   msvcprtd:msvcp120d_app.dll
 0002:00076790       ??_U@YAPAXI@Z              100b4790 f   msvcprtd:newaop_s.obj
 0002:000767a6       ?_Getpfirst@_Container_base12@std@@QBEPAPAU_Iterator_base12@2@XZ 100b47a6 f   msvcprtd:msvcp120d_app.dll
 0002:000767ac       ?_Swap_all@_Container_base12@std@@QAEXAAU12@@Z 100b47ac f   msvcprtd:msvcp120d_app.dll
 0002:000767b2       ??0id@locale@std@@QAE@I@Z  100b47b2 f   msvcprtd:msvcp120d_app.dll
 0002:000767b8       ?_Xbad_function_call@std@@YAXXZ 100b47b8 f   msvcprtd:msvcp120d_app.dll
 0002:000767be       ??0_Concurrent_queue_base_v4@details@Concurrency@@IAE@I@Z 100b47be f   msvcprtd:msvcp120d_app.dll
 0002:000767c4       ??1_Concurrent_queue_base_v4@details@Concurrency@@MAE@XZ 100b47c4 f   msvcprtd:msvcp120d_app.dll
 0002:000767ca       ?_Internal_push@_Concurrent_queue_base_v4@details@Concurrency@@IAEXPBX@Z 100b47ca f   msvcprtd:msvcp120d_app.dll
 0002:000767d0       ?_Internal_pop_if_present@_Concurrent_queue_base_v4@details@Concurrency@@IAE_NPAX@Z 100b47d0 f   msvcprtd:msvcp120d_app.dll
 0002:000767d6       ?_Internal_empty@_Concurrent_queue_base_v4@details@Concurrency@@IBE_NXZ 100b47d6 f   msvcprtd:msvcp120d_app.dll
 0002:000767dc       ?_Internal_finish_clear@_Concurrent_queue_base_v4@details@Concurrency@@IAEXXZ 100b47dc f   msvcprtd:msvcp120d_app.dll
 0002:000767e2       ?_Internal_throw_exception@_Concurrent_queue_base_v4@details@Concurrency@@IBEXXZ 100b47e2 f   msvcprtd:msvcp120d_app.dll
 0002:000767e8       ??0_Runtime_object@details@Concurrency@@QAE@XZ 100b47e8 f   msvcprtd:msvcp120d_app.dll
 0002:000767f0       ??_M@YGXPAXIHP6EX0@Z@Z     100b47f0 f   MSVCRTD:ehvecdtr.obj
 0002:00076910       ?__ArrayUnwind@@YGXPAXIHP6EX0@Z@Z 100b4910 f   MSVCRTD:ehvecdtr.obj
 0002:000769bc       __purecall                 100b49bc f   MSVCRTD:msvcr120d_app.dll
 0002:000769c2       ??2@YAPAXI@Z               100b49c2 f   MSVCRTD:msvcr120d_app.dll
 0002:000769c8       ??3@YAXPAX@Z               100b49c8 f   MSVCRTD:msvcr120d_app.dll
 0002:000769d0       ___atonexitinit            100b49d0 f   MSVCRTD:atonexit.obj
 0002:00076ab0       __onexit                   100b4ab0 f   MSVCRTD:atonexit.obj
 0002:00076bf0       _atexit                    100b4bf0 f   MSVCRTD:atonexit.obj
 0002:00076c26       __hypot                    100b4c26 f   MSVCRTD:msvcr120d_app.dll
 0002:00076c2c       _memmove                   100b4c2c f   MSVCRTD:msvcr120d_app.dll
 0002:00076c32       _memcpy                    100b4c32 f   MSVCRTD:msvcr120d_app.dll
 0002:00076c38       _strlen                    100b4c38 f   MSVCRTD:msvcr120d_app.dll
 0002:00076c3e       ??_V@YAXPAX@Z              100b4c3e f   MSVCRTD:msvcr120d_app.dll
 0002:00076c50       @_RTC_AllocaHelper@12      100b4c50 f   MSVCRTD:stack.obj
 0002:00076c90       @_RTC_CheckStackVars2@12   100b4c90 f   MSVCRTD:stack.obj
 0002:00076da0       @_RTC_CheckStackVars@8     100b4da0 f   MSVCRTD:stack.obj
 0002:00076e10       __RTC_CheckEsp             100b4e10 f   MSVCRTD:stack.obj
 0002:00076e40       @__security_check_cookie@4 100b4e40 f   MSVCRTD:secchk.obj
 0002:00076e52       __CxxThrowException@8      100b4e52 f   MSVCRTD:msvcr120d_app.dll
 0002:00076e60       __RTC_InitBase             100b4e60 f   MSVCRTD:init.obj
 0002:00076ea0       __RTC_Shutdown             100b4ea0 f   MSVCRTD:init.obj
 0002:00076eb8       ___CxxFrameHandler3        100b4eb8 f   MSVCRTD:msvcr120d_app.dll
 0002:00076ec0       ??0type_info@@AAE@ABV0@@Z  100b4ec0 f   MSVCRTD:ti_inst.obj
 0002:00076ee0       ??4type_info@@AAEAAV0@ABV0@@Z 100b4ee0 f   MSVCRTD:ti_inst.obj
 0002:00076f00       ??_Etype_info@@UAEPAXI@Z   100b4f00 f i MSVCRTD:ti_inst.obj
 0002:00076f90       __invalid_parameter        100b4f90 f   MSVCRTD:msvcr120d_app.dll
 0002:00076f96       _free                      100b4f96 f   MSVCRTD:msvcr120d_app.dll
 0002:00076f9c       _malloc                    100b4f9c f   MSVCRTD:msvcr120d_app.dll
 0002:00076fa2       _memset                    100b4fa2 f   MSVCRTD:msvcr120d_app.dll
 0002:00076fa2       ___Platform_memset         100b4fa2 f   MSVCRTD:msvcr120d_app.dll
 0002:00076fa8       ??0exception@std@@QAE@XZ   100b4fa8 f   MSVCRTD:msvcr120d_app.dll
 0002:00076fae       ??0exception@std@@QAE@ABQBD@Z 100b4fae f   MSVCRTD:msvcr120d_app.dll
 0002:00076fb4       ??0exception@std@@QAE@ABQBDH@Z 100b4fb4 f   MSVCRTD:msvcr120d_app.dll
 0002:00076fba       ??0exception@std@@QAE@ABV01@@Z 100b4fba f   MSVCRTD:msvcr120d_app.dll
 0002:00076fc0       ??1exception@std@@UAE@XZ   100b4fc0 f   MSVCRTD:msvcr120d_app.dll
 0002:00076fc6       ?__ExceptionPtrCreate@@YAXPAX@Z 100b4fc6 f   MSVCRTD:msvcr120d_app.dll
 0002:00076fcc       ?__ExceptionPtrDestroy@@YAXPAX@Z 100b4fcc f   MSVCRTD:msvcr120d_app.dll
 0002:00076fd2       ?__ExceptionPtrCopy@@YAXPAXPBX@Z 100b4fd2 f   MSVCRTD:msvcr120d_app.dll
 0002:00076fd8       ?__ExceptionPtrCurrentException@@YAXPAX@Z 100b4fd8 f   MSVCRTD:msvcr120d_app.dll
 0002:00076fde       ?__ExceptionPtrRethrow@@YAXPBX@Z 100b4fde f   MSVCRTD:msvcr120d_app.dll
 0002:00076fe4       __CrtDbgReportW            100b4fe4 f   MSVCRTD:msvcr120d_app.dll
 0002:00076fea       __wassert                  100b4fea f   MSVCRTD:msvcr120d_app.dll
 0002:00076ff0       ?Alloc@Concurrency@@YAPAXI@Z 100b4ff0 f   MSVCRTD:msvcr120d_app.dll
 0002:00076ff6       ?Free@Concurrency@@YAXPAX@Z 100b4ff6 f   MSVCRTD:msvcr120d_app.dll
 0002:00076ffc       ?_Yield@_Context@details@Concurrency@@SAXXZ 100b4ffc f   MSVCRTD:msvcr120d_app.dll
 0002:00077002       ??0_Scheduler@details@Concurrency@@QAE@PAVScheduler@2@@Z 100b5002 f   MSVCRTD:msvcr120d_app.dll
 0002:00077008       ?_Reference@_Scheduler@details@Concurrency@@QAEIXZ 100b5008 f   MSVCRTD:msvcr120d_app.dll
 0002:0007700e       ?_Release@_Scheduler@details@Concurrency@@QAEIXZ 100b500e f   MSVCRTD:msvcr120d_app.dll
 0002:00077014       ?_GetScheduler@_Scheduler@details@Concurrency@@QAEPAVScheduler@3@XZ 100b5014 f   MSVCRTD:msvcr120d_app.dll
 0002:0007701a       ?_ScheduleTask@_CurrentScheduler@details@Concurrency@@SAXP6AXPAX@Z0@Z 100b501a f   MSVCRTD:msvcr120d_app.dll
 0002:00077020       ?_Get@_CurrentScheduler@details@Concurrency@@SA?AV_Scheduler@23@XZ 100b5020 f   MSVCRTD:msvcr120d_app.dll
 0002:00077026       ?_UnderlyingYield@details@Concurrency@@YAXXZ 100b5026 f   MSVCRTD:msvcr120d_app.dll
 0002:0007702c       ??0bad_target@Concurrency@@QAE@XZ 100b502c f   MSVCRTD:msvcr120d_app.dll
 0002:00077032       ??0message_not_found@Concurrency@@QAE@XZ 100b5032 f   MSVCRTD:msvcr120d_app.dll
 0002:00077038       ??0invalid_link_target@Concurrency@@QAE@PBD@Z 100b5038 f   MSVCRTD:msvcr120d_app.dll
 0002:0007703e       ??0invalid_operation@Concurrency@@QAE@PBD@Z 100b503e f   MSVCRTD:msvcr120d_app.dll
 0002:00077044       ??0task_canceled@Concurrency@@QAE@XZ 100b5044 f   MSVCRTD:msvcr120d_app.dll
 0002:0007704a       ??0critical_section@Concurrency@@QAE@XZ 100b504a f   MSVCRTD:msvcr120d_app.dll
 0002:00077050       ??1critical_section@Concurrency@@QAE@XZ 100b5050 f   MSVCRTD:msvcr120d_app.dll
 0002:00077056       ??0scoped_lock@critical_section@Concurrency@@QAE@AAV12@@Z 100b5056 f   MSVCRTD:msvcr120d_app.dll
 0002:0007705c       ??1scoped_lock@critical_section@Concurrency@@QAE@XZ 100b505c f   MSVCRTD:msvcr120d_app.dll
 0002:00077062       ??0event@Concurrency@@QAE@XZ 100b5062 f   MSVCRTD:msvcr120d_app.dll
 0002:00077068       ??1event@Concurrency@@QAE@XZ 100b5068 f   MSVCRTD:msvcr120d_app.dll
 0002:0007706e       ?wait@event@Concurrency@@QAEII@Z 100b506e f   MSVCRTD:msvcr120d_app.dll
 0002:00077074       ?set@event@Concurrency@@QAEXXZ 100b5074 f   MSVCRTD:msvcr120d_app.dll
 0002:0007707a       ??0_NonReentrantPPLLock@details@Concurrency@@QAE@XZ 100b507a f   MSVCRTD:msvcr120d_app.dll
 0002:00077080       ??0_Scoped_lock@_NonReentrantPPLLock@details@Concurrency@@QAE@AAV123@@Z 100b5080 f   MSVCRTD:msvcr120d_app.dll
 0002:00077086       ??1_Scoped_lock@_NonReentrantPPLLock@details@Concurrency@@QAE@XZ 100b5086 f   MSVCRTD:msvcr120d_app.dll
 0002:0007708c       ??0_ReentrantPPLLock@details@Concurrency@@QAE@XZ 100b508c f   MSVCRTD:msvcr120d_app.dll
 0002:00077092       ??0_Scoped_lock@_ReentrantPPLLock@details@Concurrency@@QAE@AAV123@@Z 100b5092 f   MSVCRTD:msvcr120d_app.dll
 0002:00077098       ??1_Scoped_lock@_ReentrantPPLLock@details@Concurrency@@QAE@XZ 100b5098 f   MSVCRTD:msvcr120d_app.dll
 0002:0007709e       ?_Schedule@_TaskCollection@details@Concurrency@@QAEXPAV_UnrealizedChore@23@@Z 100b509e f   MSVCRTD:msvcr120d_app.dll
 0002:000770a4       ?_Cancel@_TaskCollection@details@Concurrency@@QAEXXZ 100b50a4 f   MSVCRTD:msvcr120d_app.dll
 0002:000770aa       ?_RunAndWait@_TaskCollection@details@Concurrency@@QAG?AW4_TaskCollectionStatus@23@PAV_UnrealizedChore@23@@Z 100b50aa f   MSVCRTD:msvcr120d_app.dll
 0002:000770b0       ?_GetCurrentInlineDepth@_StackGuard@details@Concurrency@@CAAAIXZ 100b50b0 f   MSVCRTD:msvcr120d_app.dll
 0002:000770b6       ?_NewCollection@_AsyncTaskCollection@details@Concurrency@@SAPAV123@PAV_CancellationTokenState@23@@Z 100b50b6 f   MSVCRTD:msvcr120d_app.dll
 0002:000770bc       ?_ReportUnobservedException@details@Concurrency@@YAXXZ 100b50bc f   MSVCRTD:msvcr120d_app.dll
 0002:000770c2       ??0_Timer@details@Concurrency@@IAE@I_N@Z 100b50c2 f   MSVCRTD:msvcr120d_app.dll
 0002:000770c8       ??1_Timer@details@Concurrency@@MAE@XZ 100b50c8 f   MSVCRTD:msvcr120d_app.dll
 0002:000770ce       ?_Start@_Timer@details@Concurrency@@IAEXXZ 100b50ce f   MSVCRTD:msvcr120d_app.dll
 0002:000770d4       ?_Stop@_Timer@details@Concurrency@@IAEXXZ 100b50d4 f   MSVCRTD:msvcr120d_app.dll
 0002:000770da       ?_Trace_agents@Concurrency@@YAXW4Agents_EventType@1@_JZZ 100b50da f   MSVCRTD:msvcr120d_app.dll
 0002:000770e0       ?CaptureCallstack@platform@details@Concurrency@@YAIPAPAXII@Z 100b50e0 f   MSVCRTD:msvcr120d_app.dll
 0002:000770e6       ?GetCurrentThreadId@platform@details@Concurrency@@YAJXZ 100b50e6 f   MSVCRTD:msvcr120d_app.dll
 0002:000770ec       __time64                   100b50ec f   MSVCRTD:msvcr120d_app.dll
 0002:000770f2       ??0?$_SpinWait@$00@details@Concurrency@@QAE@P6AXXZ@Z 100b50f2 f   MSVCRTD:msvcr120d_app.dll
 0002:000770f8       ?_SpinOnce@?$_SpinWait@$00@details@Concurrency@@QAE_NXZ 100b50f8 f   MSVCRTD:msvcr120d_app.dll
 0002:000770fe       ?what@exception@std@@UBEPBDXZ 100b50fe f   MSVCRTD:msvcr120d_app.dll
 0002:00077110       __ftoui3                   100b5110 f   MSVCRTD:ftol3.obj
 0002:0007711f       __ftoul3                   100b511f f   MSVCRTD:ftol3.obj
 0002:0007712e       __ftol3                    100b512e f   MSVCRTD:ftol3.obj
 0002:0007713b       __ftol3_NaN                100b513b f   MSVCRTD:ftol3.obj
 0002:00077153       __ftol3_work               100b5153 f   MSVCRTD:ftol3.obj
 0002:000771d9       __ftol3_common             100b51d9 f   MSVCRTD:ftol3.obj
 0002:0007729b       __ftol3_arg_error          100b529b f   MSVCRTD:ftol3.obj
 0002:000772ad       __ftol3_except             100b52ad f   MSVCRTD:ftol3.obj
 0002:000772ef       __dtoui3                   100b52ef f   MSVCRTD:ftol3.obj
 0002:000772fe       __dtoul3                   100b52fe f   MSVCRTD:ftol3.obj
 0002:0007730d       __dtol3                    100b530d f   MSVCRTD:ftol3.obj
 0002:0007731a       __dtol3_NaN                100b531a f   MSVCRTD:ftol3.obj
 0002:00077337       __dtol3_work               100b5337 f   MSVCRTD:ftol3.obj
 0002:0007741c       __ultod3                   100b541c f   MSVCRTD:ftol3.obj
 0002:000774ad       __ltod3                    100b54ad f   MSVCRTD:ftol3.obj
 0002:00077670       _NtCurrentTeb              100b5670 f i MSVCRTD:crtdll.obj
 0002:00077680       __CRT_INIT@12              100b5680 f   MSVCRTD:crtdll.obj
 0002:00077a10       __DllMainCRTStartup@12     100b5a10 f   MSVCRTD:crtdll.obj
 0002:00077c70       _wcscmp                    100b5c70 f   MSVCRTD:msvcr120d_app.dll
 0002:00077c76       _wcslen                    100b5c76 f   MSVCRTD:msvcr120d_app.dll
 0002:00077c7c       ?terminate@@YAXXZ          100b5c7c f   MSVCRTD:msvcr120d_app.dll
 0002:00077c90       __except_handler4          100b5c90 f   MSVCRTD:chandler4gs.obj
 0002:00077cc0       __lock                     100b5cc0 f   MSVCRTD:msvcr120d_app.dll
 0002:00077cc6       __unlock                   100b5cc6 f   MSVCRTD:msvcr120d_app.dll
 0002:00077ccc       __calloc_dbg               100b5ccc f   MSVCRTD:msvcr120d_app.dll
 0002:00077cd2       ___dllonexit               100b5cd2 f   MSVCRTD:msvcr120d_app.dll
 0002:00077e80       ?_RTC_AllocaFailure@@YAXPAXPAU_RTC_ALLOCA_NODE@@H@Z 100b5e80 f   MSVCRTD:error.obj
 0002:00077ff0       ?_RTC_Failure@@YAXPAXH@Z   100b5ff0 f   MSVCRTD:error.obj
 0002:00078060       ?_RTC_StackFailure@@YAXPAXPBD@Z 100b6060 f   MSVCRTD:error.obj
 0002:000784c0       __RTC_UninitUse            100b64c0 f   MSVCRTD:error.obj
 0002:000785f0       ___report_gsfailure        100b65f0 f   MSVCRTD:gs_report.obj
 0002:00078600       ___report_rangecheckfailure 100b6600 f   MSVCRTD:gs_report.obj
 0002:00078610       ___report_securityfailure  100b6610 f   MSVCRTD:gs_report.obj
 0002:00078620       ___report_securityfailureEx 100b6620 f   MSVCRTD:gs_report.obj
 0002:00078630       ?_RTC_GetErrorFunc@@YAP6AHHPBDH00ZZPBX@Z 100b6630 f   MSVCRTD:userapi.obj
 0002:00078640       ?_RTC_GetErrorFuncW@@YAP6AHHPB_WH00ZZPBX@Z 100b6640 f   MSVCRTD:userapi.obj
 0002:00078650       __RTC_GetErrDesc           100b6650 f   MSVCRTD:userapi.obj
 0002:00078670       __RTC_NumErrors            100b6670 f   MSVCRTD:userapi.obj
 0002:00078680       __RTC_SetErrorFunc         100b6680 f   MSVCRTD:userapi.obj
 0002:000786b0       __RTC_SetErrorFuncW        100b66b0 f   MSVCRTD:userapi.obj
 0002:000786e0       __RTC_SetErrorType         100b66e0 f   MSVCRTD:userapi.obj
 0002:0007870c       __CRT_RTC_INITW            100b670c f   MSVCRTD:msvcr120d_app.dll
 0002:00078712       ??1type_info@@UAE@XZ       100b6712 f   MSVCRTD:msvcr120d_app.dll
 0002:00078718       __except1                  100b6718 f   MSVCRTD:msvcr120d_app.dll
 0002:0007871e       ___CppXcptFilter           100b671e f   MSVCRTD:msvcr120d_app.dll
 0002:00078724       __amsg_exit                100b6724 f   MSVCRTD:msvcr120d_app.dll
 0002:0007872a       __malloc_dbg               100b672a f   MSVCRTD:msvcr120d_app.dll
 0002:00078730       __free_dbg                 100b6730 f   MSVCRTD:msvcr120d_app.dll
 0002:00078736       __CrtSetCheckCount         100b6736 f   MSVCRTD:msvcr120d_app.dll
 0002:00078740       __FindPESection            100b6740 f   MSVCRTD:pesect.obj
 0002:000787d0       __IsNonwritableInCurrentImage 100b67d0 f   MSVCRTD:pesect.obj
 0002:00078950       __ValidateImageBase        100b6950 f   MSVCRTD:pesect.obj
 0002:000789d0       ___security_init_cookie    100b69d0 f   MSVCRTD:gs_support.obj
 0002:00078b00       _DllMain@12                100b6b00 f   MSVCRTD:dllmain.obj
 0002:00078b30       __RTC_Initialize           100b6b30 f   MSVCRTD:initsect.obj
 0002:00078b60       __RTC_Terminate            100b6b60 f   MSVCRTD:initsect.obj
 0002:00078b8e       __initterm                 100b6b8e f   MSVCRTD:msvcr120d_app.dll
 0002:00078b94       __initterm_e               100b6b94 f   MSVCRTD:msvcr120d_app.dll
 0002:00078ba0       ___clean_type_info_names   100b6ba0 f   MSVCRTD:tncleanup.obj
 0002:00078bb6       __except_handler4_common   100b6bb6 f   MSVCRTD:msvcr120d_app.dll
 0002:00079120       ?_RTC_GetSrcLine@@YAHPAEPA_WKPAH1K@Z 100b7120 f   MSVCRTD:pdblkup.obj
 0002:0007947a       _sprintf_s                 100b747a f   MSVCRTD:msvcr120d_app.dll
 0002:00079480       ___clean_type_info_names_internal 100b7480 f   MSVCRTD:msvcr120d_app.dll
 0002:00079486       _wcscpy_s                  100b7486 f   MSVCRTD:msvcr120d_app.dll
 0002:0007948c       __wmakepath_s              100b748c f   MSVCRTD:msvcr120d_app.dll
 0002:00079492       __wsplitpath_s             100b7492 f   MSVCRTD:msvcr120d_app.dll
 0002:00079498       _CoGetContextToken@4       100b7498 f   ole32:ole32.dll
 0002:0007949e       _CoGetApartmentType@8      100b749e f   ole32:ole32.dll
 0002:000794a4       _CoGetObjectContext@8      100b74a4 f   ole32:ole32.dll
 0002:000794aa       _CoCreateFreeThreadedMarshaler@8 100b74aa f   ole32:ole32.dll
 0002:000794aa       ___Platform_CoCreateFreeThreadedMarshaler@8 100b74aa f   ole32:ole32.dll
 0002:000794b0       _CoTaskMemAlloc@4          100b74b0 f   ole32:ole32.dll
 0002:000794b6       _CoTaskMemFree@4           100b74b6 f   ole32:ole32.dll
 0002:000794bc       _WindowsCreateString@12    100b74bc f   runtimeobject:api-ms-win-core-winrt-string-l1-1-0.dll
 0002:000794bc       ___Platform_WindowsCreateString@12 100b74bc f   runtimeobject:api-ms-win-core-winrt-string-l1-1-0.dll
 0002:000794c2       ___Platform_WindowsDeleteString@4 100b74c2 f   runtimeobject:api-ms-win-core-winrt-string-l1-1-0.dll
 0002:000794c2       _WindowsDeleteString@4     100b74c2 f   runtimeobject:api-ms-win-core-winrt-string-l1-1-0.dll
 0002:000794c8       _WindowsDuplicateString@8  100b74c8 f   runtimeobject:api-ms-win-core-winrt-string-l1-1-0.dll
 0002:000794c8       ___Platform_WindowsDuplicateString@8 100b74c8 f   runtimeobject:api-ms-win-core-winrt-string-l1-1-0.dll
 0002:000794ce       _WindowsGetStringLen@4     100b74ce f   runtimeobject:api-ms-win-core-winrt-string-l1-1-0.dll
 0002:000794d4       _WindowsGetStringRawBuffer@8 100b74d4 f   runtimeobject:api-ms-win-core-winrt-string-l1-1-0.dll
 0002:000794da       _WindowsIsStringEmpty@4    100b74da f   runtimeobject:api-ms-win-core-winrt-string-l1-1-0.dll
 0002:000794e0       _WindowsCompareStringOrdinal@12 100b74e0 f   runtimeobject:api-ms-win-core-winrt-string-l1-1-0.dll
 0002:000794e6       _WindowsConcatString@12    100b74e6 f   runtimeobject:api-ms-win-core-winrt-string-l1-1-0.dll
 0002:000794ec       _SetRestrictedErrorInfo@4  100b74ec f   runtimeobject:api-ms-win-core-winrt-error-l1-1-0.dll
 0002:000794f2       _RoFailFastWithErrorContext@4 100b74f2 f   runtimeobject:api-ms-win-core-winrt-error-l1-1-0.dll
 0002:000794f8       _RoReportUnhandledError@4  100b74f8 f   runtimeobject:api-ms-win-core-winrt-error-l1-1-1.dll
 0002:000794fe       _WindowsCreateStringReference@16 100b74fe f   runtimeobject:api-ms-win-core-winrt-string-l1-1-0.dll
 0002:000794fe       ___Platform_WindowsCreateStringReference@16 100b74fe f   runtimeobject:api-ms-win-core-winrt-string-l1-1-0.dll
 0002:00079504       _DecodePointer@4           100b7504 f   kernel32:KERNEL32.dll
 0002:0007950a       _ReleaseSRWLockExclusive@4 100b750a f   kernel32:KERNEL32.dll
 0002:00079510       _AcquireSRWLockExclusive@4 100b7510 f   kernel32:KERNEL32.dll
 0002:00079516       _EncodePointer@4           100b7516 f   kernel32:KERNEL32.dll
 0002:0007951c       _IsDebuggerPresent@0       100b751c f   kernel32:KERNEL32.dll
 0002:00079522       _RaiseException@16         100b7522 f   kernel32:KERNEL32.dll
 0002:00079528       _WideCharToMultiByte@32    100b7528 f   kernel32:KERNEL32.dll
 0002:0007952e       _QueryPerformanceCounter@4 100b752e f   kernel32:KERNEL32.dll
 0002:00079534       _GetCurrentProcessId@0     100b7534 f   kernel32:KERNEL32.dll
 0002:0007953a       _GetCurrentThreadId@0      100b753a f   kernel32:KERNEL32.dll
 0002:00079540       _GetSystemTimeAsFileTime@4 100b7540 f   kernel32:KERNEL32.dll
 0002:00079546       _GetTickCount64@0          100b7546 f   kernel32:KERNEL32.dll
 0002:0007954c       _DisableThreadLibraryCalls@4 100b754c f   kernel32:KERNEL32.dll
 0002:00079552       _GetLastError@0            100b7552 f   kernel32:KERNEL32.dll
 0002:00079558       _HeapAlloc@12              100b7558 f   kernel32:KERNEL32.dll
 0002:0007955e       _HeapFree@12               100b755e f   kernel32:KERNEL32.dll
 0002:00079564       _GetProcessHeap@0          100b7564 f   kernel32:KERNEL32.dll
 0002:0007956a       _VirtualQuery@12           100b756a f   kernel32:KERNEL32.dll
 0002:00079570       _FreeLibrary@4             100b7570 f   kernel32:KERNEL32.dll
 0002:00079576       _GetModuleFileNameW@12     100b7576 f   kernel32:KERNEL32.dll
 0002:0007957c       _GetModuleHandleW@4        100b757c f   kernel32:KERNEL32.dll
 0002:00079582       _GetProcAddress@8          100b7582 f   kernel32:KERNEL32.dll
 0002:00079588       _LoadLibraryExW@12         100b7588 f   kernel32:KERNEL32.dll
 0002:00079590       _DllCanUnloadNow@0         100b7590 f   vccorlibd:dllexports.obj
 0002:000795e0       _DllGetActivationFactory@8 100b75e0 f   vccorlibd:dllexports.obj
 0002:0007960a       ?GetActivationFactory@Details@Platform@@YGJPAVModuleBase@1WRL@Microsoft@@PAUHSTRING__@@PAPAUIActivationFactory@@@Z 100b760a f   vccorlibd:vccorlib120d_app.DLL
 0002:00079610       ?TerminateModule@Details@Platform@@YG_NPAVModuleBase@1WRL@Microsoft@@@Z 100b7610 f   vccorlibd:vccorlib120d_app.DLL
 0002:00086280       ??__Fmodule@?1??Create@?$Module@$00VInProcModule@Details@Platform@@@WRL@Microsoft@@SAAAVInProcModule@Details@Platform@@XZ@YAXXZ 100c4280 f i vccorlibd:init.obj
 0003:00000000       ___xc_a                    100c6000     MSVCRTD:cinitexe.obj
 0003:00000344       ___xc_z                    100c6344     MSVCRTD:cinitexe.obj
 0003:00000448       ___xi_a                    100c6448     MSVCRTD:cinitexe.obj
 0003:00000754       ___abi__initialize         100c6754     vccorlibd:init.obj
 0003:00000858       ___xi_z                    100c6858     MSVCRTD:cinitexe.obj
 0003:00000998       ___uuidof_.?AU__abi_IDelegate@AsyncActionCompletedHandler@Foundation@Windows@@ 100c6998     pch.obj
 0003:000009ac       ___uuidof_.?AU__abi_IDelegate@BindableVectorChangedEventHandler@Interop@Xaml@UI@Windows@@ 100c69ac     pch.obj
 0003:000009c0       ___uuidof_.?AU__abi_IDelegate@?$AsyncOperationCompletedHandler@E@Foundation@Windows@@ 100c69c0     pch.obj
 0003:000009d4       ___uuidof_.?AU__I?$WriteOnlyArray@E$00PublicNonVirtuals@Platform@@ 100c69d4     pch.obj
 0003:000009e8       ___uuidof_.?AV?$WriteOnlyArray@E$00@Platform@@ 100c69e8     pch.obj
 0003:000009fc       _ConcRT_ProviderGuid       100c69fc     pch.obj
 0003:00000a10       _ConcRTEventGuid           100c6a10     pch.obj
 0003:00000a24       _SchedulerEventGuid        100c6a24     pch.obj
 0003:00000a38       _ScheduleGroupEventGuid    100c6a38     pch.obj
 0003:00000a4c       _ContextEventGuid          100c6a4c     pch.obj
 0003:00000a60       _ChoreEventGuid            100c6a60     pch.obj
 0003:00000a74       _VirtualProcessorEventGuid 100c6a74     pch.obj
 0003:00000a88       _LockEventGuid             100c6a88     pch.obj
 0003:00000a9c       _ResourceManagerEventGuid  100c6a9c     pch.obj
 0003:00000ab0       _PPLParallelInvokeEventGuid 100c6ab0     pch.obj
 0003:00000ac4       _PPLParallelForEventGuid   100c6ac4     pch.obj
 0003:00000ad8       _PPLParallelForeachEventGuid 100c6ad8     pch.obj
 0003:00000aec       _AgentEventGuid            100c6aec     pch.obj
 0003:00000b00       ___uuidof_.?AU__I?$Array@E$00PublicNonVirtuals@Platform@@ 100c6b00     pch.obj
 0003:00000b14       ___uuidof_.?AU__I?$_AsyncInfoImpl@P$AAUIAsyncAction@Foundation@Windows@@VAsyncActionCompletedHandler@23@EPublicNonVirtuals@details@Concurrency@@ 100c6b14     pch.obj
 0003:00000b28       ___uuidof_.?AV?$Array@E$00@Platform@@ 100c6b28     pch.obj
 0003:00000b3c       ___uuidof_.?AU__I_ZipPublicNonVirtuals@details@Concurrency@@ 100c6b3c     pch.obj
 0003:00000b50       ___uuidof_.?AU?$_AsyncInfoImpl@P$AAUIAsyncAction@Foundation@Windows@@VAsyncActionCompletedHandler@23@E@details@Concurrency@@ 100c6b50     pch.obj
 0003:00000b64       ___uuidof_.?AV_Zip@details@Concurrency@@ 100c6b64     pch.obj
 0003:00000b78       ___uuidof_.?AU__I_IAsyncActionToAsyncOperationConverterPublicNonVirtuals@details@Concurrency@@ 100c6b78     pch.obj
 0003:00000b8c       ___uuidof_.?AU_IAsyncActionToAsyncOperationConverter@details@Concurrency@@ 100c6b8c     pch.obj
 0003:00000ba0       ___uuidof_.?AU__IVectorChangedEventArgsPublicNonVirtuals@Details@Collections@Platform@@ 100c6ba0     pch.obj
 0003:00000bb4       ___uuidof_.?AVVectorChangedEventArgs@Details@Collections@Platform@@ 100c6bb4     pch.obj
 0003:00000bc8       ___uuidof_.?AU__ICustomValueTypePublicNonVirtuals@Details@Platform@@ 100c6bc8     pch.obj
 0003:00000bdc       ___uuidof_.?AU__abi_IDelegate@?$EventHandler@P$AAVTracingStatusChangedEventArgs@Diagnostics@Foundation@Windows@@@Foundation@Windows@@ 100c6bdc     pch.obj
 0003:00000bf0       ___uuidof_.?AVCustomValueType@Details@Platform@@ 100c6bf0     pch.obj
 0003:00000c04       ___uuidof_.?AU__ICustomEnumPublicNonVirtuals@Details@Platform@@ 100c6c04     pch.obj
 0003:00000c18       ___uuidof_.?AVCustomEnum@Details@Platform@@ 100c6c18     pch.obj
 0003:00000c2c       ??_C@_07DCLBNMLN@generic?$AA@ 100c6c2c     pch.obj
 0003:00000c38       ??_C@_0O@BFJCFAAK@unknown?5error?$AA@ 100c6c38     pch.obj
 0003:00000c48       ??_C@_08LLGCOLLL@iostream?$AA@ 100c6c48     pch.obj
 0003:00000c54       ??_C@_0BG@PADBLCHM@iostream?5stream?5error?$AA@ 100c6c54     pch.obj
 0003:00000c70       ??_C@_06FHFOAHML@system?$AA@ 100c6c70     pch.obj
 0003:00000c78       ??_C@_1IO@JLPDPDPD@?$AAc?$AA?3?$AA?2?$AAp?$AAr?$AAo?$AAg?$AAr?$AAa?$AAm?$AA?5?$AAf?$AAi?$AAl?$AAe?$AAs?$AA?5?$AA?$CI?$AAx?$AA8?$AA6?$AA?$CJ?$AA?2?$AAm?$AAi?$AAc?$AAr?$AAo?$AAs?$AAo?$AAf?$AAt@ 100c6c78     pch.obj
 0003:00000d24       ??_C@_0BA@JFNIOLAK@string?5too?5long?$AA@ 100c6d24     pch.obj
 0003:00000d38       ??_C@_0BI@CFPLBAOH@invalid?5string?5position?$AA@ 100c6d38     pch.obj
 0003:00000d54       ??_C@_1CK@EOPGIILJ@?$AAi?$AAn?$AAv?$AAa?$AAl?$AAi?$AAd?$AA?5?$AAn?$AAu?$AAl?$AAl?$AA?5?$AAp?$AAo?$AAi?$AAn?$AAt?$AAe?$AAr?$AA?$AA@ 100c6d54     pch.obj
 0003:00000d88       ___uuidof_.?AU__IWinRTVFSPublicNonVirtuals@SQLiteWinRTExtensions@@ 100c6d88     SQLiteWinRTExtensions.obj
 0003:00000d9c       ___uuidof_.?AU__IWinRTVFSStatics@SQLiteWinRTExtensions@@ 100c6d9c     SQLiteWinRTExtensions.obj
 0003:00000db0       ___uuidof_.?AV__WinRTVFSActivationFactory@SQLiteWinRTExtensions@@ 100c6db0     SQLiteWinRTExtensions.obj
 0003:00000dc4       ___uuidof_.?AVWinRTVFS@SQLiteWinRTExtensions@@ 100c6dc4     SQLiteWinRTExtensions.obj
 0003:00000df0       ___uuidof_.?AUIActivationFactory@Details@Platform@@ 100c6df0     SQLiteWinRTExtensions.obj
 0003:00000e04       ___uuidof_.?AUIWeakReferenceSource@Details@Platform@@ 100c6e04     SQLiteWinRTExtensions.obj
 0003:00000e18       ___uuidof_.?AUIAgileObject@Details@Platform@@ 100c6e18     SQLiteWinRTExtensions.obj
 0003:00000e2c       __GUID_00000003_0000_0000_c000_000000000046 100c6e2c     SQLiteWinRTExtensions.obj
 0003:00000e40       __GUID_00000000_0000_0000_c000_000000000046 100c6e40     SQLiteWinRTExtensions.obj
 0003:00000e54       __GUID_af86e2e0_b12d_4c6a_9c5a_d7aa65101e90 100c6e54     SQLiteWinRTExtensions.obj
 0003:00000e68       ??_C@_08JMNKCEKK@WinRTVFS?$AA@ 100c6e68     SQLiteWinRTExtensions.obj
 0003:00000e78       ??_C@_1GE@IBAPPLC@?$AAS?$AAQ?$AAL?$AAi?$AAt?$AAe?$AAW?$AAi?$AAn?$AAR?$AAT?$AAE?$AAx?$AAt?$AAe?$AAn?$AAs?$AAi?$AAo?$AAn?$AAs?$AA?4?$AA_?$AA_?$AAW?$AAi?$AAn?$AAR?$AAT?$AAV?$AAF?$AAS@ 100c6e78     SQLiteWinRTExtensions.obj
 0003:00000ef0       ??_C@_1DO@GABHJPKD@?$AAS?$AAQ?$AAL?$AAi?$AAt?$AAe?$AAW?$AAi?$AAn?$AAR?$AAT?$AAE?$AAx?$AAt?$AAe?$AAn?$AAs?$AAi?$AAo?$AAn?$AAs?$AA?4?$AAW?$AAi?$AAn?$AAR?$AAT?$AAV?$AAF?$AAS?$AA?$AA@ 100c6ef0     SQLiteWinRTExtensions.obj
 0003:00000f3c       ___uuidof_.?AU__abi_IDelegate@?$AsyncOperationCompletedHandler@_N@Foundation@Windows@@ 100c6f3c     WinRTVFS.obj
 0003:00000f50       ___uuidof_.?AU__abi_IDelegate@?$AsyncOperationWithProgressCompletedHandler@P$AAUIBuffer@Streams@Storage@Windows@@I@Foundation@Windows@@ 100c6f50     WinRTVFS.obj
 0003:00000f64       ___uuidof_.?AU__abi_IDelegate@?$AsyncOperationCompletedHandler@P$AAUIBuffer@Streams@Storage@Windows@@@Foundation@Windows@@ 100c6f64     WinRTVFS.obj
 0003:00000f78       ___uuidof_.?AU__I?$_AsyncInfoImpl@P$AAU?$IAsyncOperationWithProgress@P$AAUIBuffer@Streams@Storage@Windows@@I@Foundation@Windows@@V?$AsyncOperationWithProgressCompletedHandler@P$AAUIBuffer@Streams@Storage@Windows@@I@23@P$AAUIBuffer@Streams@Storage@3@PublicNonVirtuals@details@Concurrency@@ 100c6f78     WinRTVFS.obj
 0003:00000f8c       ___uuidof_.?AU__abi_IDelegate@?$AsyncOperationCompletedHandler@P$AAUIRandomAccessStream@Streams@Storage@Windows@@@Foundation@Windows@@ 100c6f8c     WinRTVFS.obj
 0003:00000fa0       ___uuidof_.?AU?$_AsyncInfoImpl@P$AAU?$IAsyncOperationWithProgress@P$AAUIBuffer@Streams@Storage@Windows@@I@Foundation@Windows@@V?$AsyncOperationWithProgressCompletedHandler@P$AAUIBuffer@Streams@Storage@Windows@@I@23@P$AAUIBuffer@Streams@Storage@3@@details@Concurrency@@ 100c6fa0     WinRTVFS.obj
 0003:00000fb4       ___uuidof_.?AU__I?$_IAsyncOperationWithProgressToAsyncOperationConverter@P$AAUIBuffer@Streams@Storage@Windows@@IPublicNonVirtuals@details@Concurrency@@ 100c6fb4     WinRTVFS.obj
 0003:00000fc8       ___uuidof_.?AU__abi_IDelegate@StreamedFileDataRequestedHandler@Storage@Windows@@ 100c6fc8     WinRTVFS.obj
 0003:00000fdc       ___uuidof_.?AU?$_IAsyncOperationWithProgressToAsyncOperationConverter@P$AAUIBuffer@Streams@Storage@Windows@@I@details@Concurrency@@ 100c6fdc     WinRTVFS.obj
 0003:00000ff0       ___uuidof_.?AU__abi_IDelegate@?$AsyncOperationCompletedHandler@P$AAVStorageFolder@Storage@Windows@@@Foundation@Windows@@ 100c6ff0     WinRTVFS.obj
 0003:00001004       ___uuidof_.?AU__abi_IDelegate@?$AsyncOperationWithProgressCompletedHandler@II@Foundation@Windows@@ 100c7004     WinRTVFS.obj
 0003:00001018       ___uuidof_.?AU__abi_IDelegate@?$AsyncOperationCompletedHandler@I@Foundation@Windows@@ 100c7018     WinRTVFS.obj
 0003:0000102c       ___uuidof_.?AU__I?$_AsyncInfoImpl@P$AAU?$IAsyncOperationWithProgress@II@Foundation@Windows@@V?$AsyncOperationWithProgressCompletedHandler@II@23@IPublicNonVirtuals@details@Concurrency@@ 100c702c     WinRTVFS.obj
 0003:00001040       ___uuidof_.?AU__abi_IDelegate@?$AsyncOperationCompletedHandler@P$AAVStorageFile@Storage@Windows@@@Foundation@Windows@@ 100c7040     WinRTVFS.obj
 0003:00001054       ___uuidof_.?AU?$_AsyncInfoImpl@P$AAU?$IAsyncOperationWithProgress@II@Foundation@Windows@@V?$AsyncOperationWithProgressCompletedHandler@II@23@I@details@Concurrency@@ 100c7054     WinRTVFS.obj
 0003:00001068       ___uuidof_.?AU__I?$_IAsyncOperationWithProgressToAsyncOperationConverter@IIPublicNonVirtuals@details@Concurrency@@ 100c7068     WinRTVFS.obj
 0003:0000107c       ___uuidof_.?AU?$_IAsyncOperationWithProgressToAsyncOperationConverter@II@details@Concurrency@@ 100c707c     WinRTVFS.obj
 0003:00001090       ___uuidof_.?AUIDisposable@Platform@@ 100c7090     WinRTVFS.obj
 0003:000010a4       ___uuidof_.?AUIBuffer@Streams@Storage@Windows@@ 100c70a4     WinRTVFS.obj
 0003:000010b8       ___uuidof_.?AUIStorageItem@Storage@Windows@@ 100c70b8     WinRTVFS.obj
 0003:000010cc       ___uuidof_.?AUIOutputStream@Streams@Storage@Windows@@ 100c70cc     WinRTVFS.obj
 0003:000010e0       ___uuidof_.?AUIRandomAccessStream@Streams@Storage@Windows@@ 100c70e0     WinRTVFS.obj
 0003:000010f4       ___uuidof_.?AVAsyncActionCompletedHandler@Foundation@Windows@@ 100c70f4     WinRTVFS.obj
 0003:00001108       ___uuidof_.?AUIAsyncInfo@Foundation@Windows@@ 100c7108     WinRTVFS.obj
 0003:0000111c       ___uuidof_.?AUIAsyncAction@Foundation@Windows@@ 100c711c     WinRTVFS.obj
 0003:00001130       ??_C@_0P@GHFPNOJB@bad?5allocation?$AA@ 100c7130     WinRTVFS.obj
 0003:00001148       ??_C@_1JA@EKKHPHED@?$AAc?$AA?3?$AA?2?$AAp?$AAr?$AAo?$AAg?$AAr?$AAa?$AAm?$AA?5?$AAf?$AAi?$AAl?$AAe?$AAs?$AA?5?$AA?$CI?$AAx?$AA8?$AA6?$AA?$CJ?$AA?2?$AAm?$AAi?$AAc?$AAr?$AAo?$AAs?$AAo?$AAf?$AAt@ 100c7148     WinRTVFS.obj
 0003:000011f4       ??_C@_1DC@POOIKBAO@?$AAI?$AAT?$AAE?$AAR?$AAA?$AAT?$AAO?$AAR?$AA?5?$AAL?$AAI?$AAS?$AAT?$AA?5?$AAC?$AAO?$AAR?$AAR?$AAU?$AAP?$AAT?$AAE?$AAD?$AA?$CB?$AA?$AA@ 100c71f4     WinRTVFS.obj
 0003:00001230       ??_C@_0N@FJHHFFAF@bad_weak_ptr?$AA@ 100c7230     WinRTVFS.obj
 0003:00001240       ??_C@_15GANGMFKL@?$AA?$CF?$AAs?$AA?$AA@ 100c7240     WinRTVFS.obj
 0003:00001248       ?_Upper@?1??_Memory_order_upper_bound@std@@YA?AW4memory_order@2@W432@0@Z@4QAY05$$CBW432@A 100c7248     WinRTVFS.obj
 0003:000012f8       ??_C@_1JC@CHIGGCII@?$AAc?$AA?3?$AA?2?$AAp?$AAr?$AAo?$AAg?$AAr?$AAa?$AAm?$AA?5?$AAf?$AAi?$AAl?$AAe?$AAs?$AA?5?$AA?$CI?$AAx?$AA8?$AA6?$AA?$CJ?$AA?2?$AAm?$AAi?$AAc?$AAr?$AAo?$AAs?$AAo?$AAf?$AAt@ 100c72f8     WinRTVFS.obj
 0003:000013a8       ??_C@_1CK@BEGEBJJG@?$AAI?$AAn?$AAv?$AAa?$AAl?$AAi?$AAd?$AA?5?$AAm?$AAe?$AAm?$AAo?$AAr?$AAy?$AA_?$AAo?$AAr?$AAd?$AAe?$AAr?$AA?$AA@ 100c73a8     WinRTVFS.obj
 0003:000013dc       ??_C@_0CI@FNPHFCCM@Standard?5C?$CL?$CL?5Libraries?5Invalid?5A@ 100c73dc     WinRTVFS.obj
 0003:00001410       ??_C@_1FO@GJIHNDLM@?$AA?$CC?$AAS?$AAt?$AAa?$AAn?$AAd?$AAa?$AAr?$AAd?$AA?5?$AAC?$AA?$CL?$AA?$CL?$AA?5?$AAL?$AAi?$AAb?$AAr?$AAa?$AAr?$AAi?$AAe?$AAs?$AA?5?$AAI?$AAn?$AAv?$AAa?$AAl?$AAi?$AAd?$AA?5@ 100c7410     WinRTVFS.obj
 0003:00001480       ??_C@_1DO@IPIHFMCO@?$AAs?$AAt?$AAd?$AA?3?$AA?3?$AA_?$AAM?$AAe?$AAm?$AAo?$AAr?$AAy?$AA_?$AAo?$AAr?$AAd?$AAe?$AAr?$AA_?$AAu?$AAp?$AAp?$AAe?$AAr?$AA_?$AAb?$AAo?$AAu?$AAn?$AAd?$AA?$AA@ 100c7480     WinRTVFS.obj
 0003:000014cc       ??_C@_1CG@JNLFBNGN@?$AA?$CC?$AAi?$AAn?$AAv?$AAa?$AAl?$AAi?$AAd?$AA?5?$AAa?$AAr?$AAg?$AAu?$AAm?$AAe?$AAn?$AAt?$AA?$CC?$AA?$AA@ 100c74cc     WinRTVFS.obj
 0003:00001500       ??_C@_1FK@DEIKLEED@?$AAs?$AAt?$AAd?$AA?3?$AA?3?$AA_?$AAV?$AAa?$AAl?$AAi?$AAd?$AAa?$AAt?$AAe?$AA_?$AAc?$AAo?$AAm?$AAp?$AAa?$AAr?$AAe?$AA_?$AAe?$AAx?$AAc?$AAh?$AAa?$AAn?$AAg?$AAe?$AA_@ 100c7500     WinRTVFS.obj
 0003:0000156c       ??_C@_1CK@BEBCCGEN@?$AAs?$AAt?$AAd?$AA?3?$AA?3?$AA_?$AAA?$AAt?$AAo?$AAm?$AAi?$AAc?$AA_?$AAs?$AAt?$AAo?$AAr?$AAe?$AA_?$AA4?$AA?$AA@ 100c756c     WinRTVFS.obj
 0003:000015a0       ??_C@_1CI@NMHCEFB@?$AAs?$AAt?$AAd?$AA?3?$AA?3?$AA_?$AAA?$AAt?$AAo?$AAm?$AAi?$AAc?$AA_?$AAl?$AAo?$AAa?$AAd?$AA_?$AA4?$AA?$AA@ 100c75a0     WinRTVFS.obj
 0003:000015d0       ??_C@_1DA@MELMDEAM@?$AAs?$AAt?$AAd?$AA?3?$AA?3?$AA_?$AAA?$AAt?$AAo?$AAm?$AAi?$AAc?$AA_?$AAe?$AAx?$AAc?$AAh?$AAa?$AAn?$AAg?$AAe?$AA_?$AA4?$AA?$AA@ 100c75d0     WinRTVFS.obj
 0003:00001610       ??_C@_1EO@LLLDEDBN@?$AAs?$AAt?$AAd?$AA?3?$AA?3?$AA_?$AAA?$AAt?$AAo?$AAm?$AAi?$AAc?$AA_?$AAc?$AAo?$AAm?$AAp?$AAa?$AAr?$AAe?$AA_?$AAe?$AAx?$AAc?$AAh?$AAa?$AAn?$AAg?$AAe?$AA_?$AAs?$AAt@ 100c7610     WinRTVFS.obj
 0003:00001670       ??_C@_1JA@NMNKBIEO@?$AAc?$AA?3?$AA?2?$AAp?$AAr?$AAo?$AAg?$AAr?$AAa?$AAm?$AA?5?$AAf?$AAi?$AAl?$AAe?$AAs?$AA?5?$AA?$CI?$AAx?$AA8?$AA6?$AA?$CJ?$AA?2?$AAm?$AAi?$AAc?$AAr?$AAo?$AAs?$AAo?$AAf?$AAt@ 100c7670     WinRTVFS.obj
 0003:00001720       ??_C@_1EA@PBBAOHDG@?$AA_?$AAO?$AAr?$AAd?$AAe?$AAr?$AA2?$AA?5?$AA?$CB?$AA?$DN?$AA?5?$AAm?$AAe?$AAm?$AAo?$AAr?$AAy?$AA_?$AAo?$AAr?$AAd?$AAe?$AAr?$AA_?$AAr?$AAe?$AAl?$AAe?$AAa?$AAs?$AAe?$AA?$AA@ 100c7720     WinRTVFS.obj
 0003:00001770       ??_C@_1EA@HBOIEAML@?$AA_?$AAO?$AAr?$AAd?$AAe?$AAr?$AA2?$AA?5?$AA?$CB?$AA?$DN?$AA?5?$AAm?$AAe?$AAm?$AAo?$AAr?$AAy?$AA_?$AAo?$AAr?$AAd?$AAe?$AAr?$AA_?$AAa?$AAc?$AAq?$AA_?$AAr?$AAe?$AAl?$AA?$AA@ 100c7770     WinRTVFS.obj
 0003:000017bc       ??_C@_1CG@ODFOEAGL@?$AA_?$AAO?$AAr?$AAd?$AAe?$AAr?$AA2?$AA?5?$AA?$DM?$AA?$DN?$AA?5?$AA_?$AAO?$AAr?$AAd?$AAe?$AAr?$AA1?$AA?$AA@ 100c77bc     WinRTVFS.obj
 0003:000017ec       ??_C@_1CC@FIFNJCOI@?$AA_?$AAM?$AA_?$AAr?$AAe?$AAf?$AAC?$AAo?$AAu?$AAn?$AAt?$AA?5?$AA?$DN?$AA?$DN?$AA?5?$AA0?$AA?$AA@ 100c77ec     WinRTVFS.obj
 0003:00001818       ??_C@_1JA@EOJMNMNL@?$AAc?$AA?3?$AA?2?$AAp?$AAr?$AAo?$AAg?$AAr?$AAa?$AAm?$AA?5?$AAf?$AAi?$AAl?$AAe?$AAs?$AA?5?$AA?$CI?$AAx?$AA8?$AA6?$AA?$CJ?$AA?2?$AAm?$AAi?$AAc?$AAr?$AAo?$AAs?$AAo?$AAf?$AAt@ 100c7818     WinRTVFS.obj
 0003:000018c4       ??_C@_1BM@LPMPGBJF@?$AA_?$AAR?$AAe?$AAf?$AAc?$AAo?$AAu?$AAn?$AAt?$AA?5?$AA?$DO?$AA?5?$AA1?$AA?$AA@ 100c78c4     WinRTVFS.obj
 0003:000018e8       ??_C@_1BO@OJJMJNDL@?$AA_?$AAR?$AAe?$AAf?$AAc?$AAo?$AAu?$AAn?$AAt?$AA?5?$AA?$DO?$AA?$DN?$AA?5?$AA0?$AA?$AA@ 100c78e8     WinRTVFS.obj
 0003:0000190c       ??_C@_1CA@NFMJLAOC@?$AA_?$AAM?$AA_?$AAr?$AAe?$AAf?$AAC?$AAo?$AAu?$AAn?$AAt?$AA?5?$AA?$DO?$AA?5?$AA0?$AA?$AA@ 100c790c     WinRTVFS.obj
 0003:00001934       ??_C@_1BA@LEOIOIAB@?$AA_?$AAP?$AAC?$AAh?$AAo?$AAr?$AAe?$AA?$AA@ 100c7934     WinRTVFS.obj
 0003:00001948       ??_C@_1KO@OKAOBIGD@?$AAc?$AA?3?$AA?2?$AAp?$AAr?$AAo?$AAg?$AAr?$AAa?$AAm?$AA?5?$AAf?$AAi?$AAl?$AAe?$AAs?$AA?5?$AA?$CI?$AAx?$AA8?$AA6?$AA?$CJ?$AA?2?$AAm?$AAi?$AAc?$AAr?$AAo?$AAs?$AAo?$AAf?$AAt@ 100c7948     WinRTVFS.obj
 0003:00001a18       ??_C@_1DC@PENDFFBE@?$AA_?$AAM?$AA_?$AAs?$AAt?$AAa?$AAt?$AAe?$AA?5?$AA?$CB?$AA?$DN?$AA?5?$AA_?$AAS?$AAT?$AAA?$AAT?$AAE?$AA_?$AAC?$AAL?$AAE?$AAA?$AAR?$AA?$AA@ 100c7a18     WinRTVFS.obj
 0003:00001a54       ??_C@_1CC@DDKOAOPH@?$AA?$CI?$AAt?$AAi?$AAd?$AA?5?$AA?$CG?$AA?5?$AA0?$AAx?$AA3?$AA?$CJ?$AA?5?$AA?$DN?$AA?$DN?$AA?5?$AA0?$AA?$AA@ 100c7a54     WinRTVFS.obj
 0003:00001a7c       ??_C@_1M@HLGKFCJM@?$AAf?$AAa?$AAl?$AAs?$AAe?$AA?$AA@ 100c7a7c     WinRTVFS.obj
 0003:00001a90       ??_C@_1GE@HEJBLLIH@?$AA_?$AAM?$AA_?$AAc?$AAo?$AAn?$AAt?$AAe?$AAx?$AAt?$AA?4?$AA_?$AAM?$AA_?$AAc?$AAa?$AAp?$AAt?$AAu?$AAr?$AAe?$AAM?$AAe?$AAt?$AAh?$AAo?$AAd?$AA?5?$AA?$CB?$AA?$DN?$AA?5?$AA_@ 100c7a90     WinRTVFS.obj
 0003:00001b08       ??_C@_1JE@NPLHGACL@?$AAc?$AA?3?$AA?2?$AAp?$AAr?$AAo?$AAg?$AAr?$AAa?$AAm?$AA?5?$AAf?$AAi?$AAl?$AAe?$AAs?$AA?5?$AA?$CI?$AAx?$AA8?$AA6?$AA?$CJ?$AA?2?$AAm?$AAi?$AAc?$AAr?$AAo?$AAs?$AAo?$AAf?$AAt@ 100c7b08     WinRTVFS.obj
 0003:00001bbc       ___uuidof_.?AU?$IAsyncOperation@E@Foundation@Windows@@ 100c7bbc     WinRTVFS.obj
 0003:00001bd0       ??_C@_1FO@CJHLDIHC@?$AAC?$AAo?$AAn?$AAc?$AAu?$AAr?$AAr?$AAe?$AAn?$AAc?$AAy?$AA?3?$AA?3?$AAP?$AAP?$AAL?$AAT?$AAa?$AAs?$AAk?$AA?3?$AA?3?$AAS?$AAc?$AAh?$AAe?$AAd?$AAu?$AAl?$AAe?$AAC?$AAo@ 100c7bd0     WinRTVFS.obj
 0003:00001c40       ??_C@_1EG@BAPEFNAM@?$AAC?$AAo?$AAn?$AAc?$AAu?$AAr?$AAr?$AAe?$AAn?$AAc?$AAy?$AA?3?$AA?3?$AAP?$AAP?$AAL?$AAT?$AAa?$AAs?$AAk?$AA?3?$AA?3?$AAS?$AAc?$AAh?$AAe?$AAd?$AAu?$AAl?$AAe?$AAT?$AAa@ 100c7c40     WinRTVFS.obj
 0003:00001c94       ??_C@_1DE@HKLLFL@?$AA_?$AAM?$AA_?$AAp?$AAT?$AAo?$AAk?$AAe?$AAn?$AAS?$AAt?$AAa?$AAt?$AAe?$AA?5?$AA?$CB?$AA?$DN?$AA?5?$AAn?$AAu?$AAl?$AAl?$AAp?$AAt?$AAr?$AA?$AA@ 100c7c94     WinRTVFS.obj
 0003:00001cd4       ??_C@_0DD@NJEIIHCG@Illegal?5to?5wait?5on?5a?5task?5in?5a?5W@ 100c7cd4     WinRTVFS.obj
 0003:00001d14       ??_C@_1BM@KOCOFLMI@?$AA_?$AAI?$AAs?$AAC?$AAa?$AAn?$AAc?$AAe?$AAl?$AAe?$AAd?$AA?$CI?$AA?$CJ?$AA?$AA@ 100c7d14     WinRTVFS.obj
 0003:00001d38       ??_C@_1BO@DMKCBEKE@?$AA_?$AAI?$AAs?$AAC?$AAo?$AAm?$AAp?$AAl?$AAe?$AAt?$AAe?$AAd?$AA?$CI?$AA?$CJ?$AA?$AA@ 100c7d38     WinRTVFS.obj
 0003:00001d5c       ??_C@_1CK@HDFGAOGN@?$AA?$CB?$AA_?$AAH?$AAa?$AAs?$AAU?$AAs?$AAe?$AAr?$AAE?$AAx?$AAc?$AAe?$AAp?$AAt?$AAi?$AAo?$AAn?$AA?$CI?$AA?$CJ?$AA?$AA@ 100c7d5c     WinRTVFS.obj
 0003:00001d90       ??_C@_1HG@NEMKJKCM@?$AAd?$AAe?$AAt?$AAa?$AAi?$AAl?$AAs?$AA?3?$AA?3?$AA_?$AAC?$AAa?$AAn?$AAc?$AAe?$AAl?$AAl?$AAa?$AAt?$AAi?$AAo?$AAn?$AAT?$AAo?$AAk?$AAe?$AAn?$AAS?$AAt?$AAa?$AAt?$AAe@ 100c7d90     WinRTVFS.obj
 0003:00001e20       ??_C@_1CI@PJIAENBF@?$AA_?$AAH?$AAa?$AAs?$AAU?$AAs?$AAe?$AAr?$AAE?$AAx?$AAc?$AAe?$AAp?$AAt?$AAi?$AAo?$AAn?$AA?$CI?$AA?$CJ?$AA?$AA@ 100c7e20     WinRTVFS.obj
 0003:00001e50       ??_C@_1HG@JIMEIBOF@?$AA_?$AAI?$AAs?$AAC?$AAo?$AAm?$AAp?$AAl?$AAe?$AAt?$AAe?$AAd?$AA?$CI?$AA?$CJ?$AA?5?$AA?$HM?$AA?$HM?$AA?5?$AA_?$AAP?$AAT?$AAa?$AAs?$AAk?$AAH?$AAa?$AAn?$AAd?$AAl?$AAe?$AA?9?$AA?$DO@ 100c7e50     WinRTVFS.obj
 0003:00001ee0       ??_C@_1DE@GNFOBFIL@?$AA?$CB?$AA_?$AAI?$AAm?$AAp?$AAl?$AAB?$AAa?$AAs?$AAe?$AA?9?$AA?$DO?$AA_?$AAI?$AAs?$AAC?$AAa?$AAn?$AAc?$AAe?$AAl?$AAe?$AAd?$AA?$CI?$AA?$CJ?$AA?$AA@ 100c7ee0     WinRTVFS.obj
 0003:00001f20       ??_C@_1HG@EMHIMOFK@?$AAC?$AAo?$AAn?$AAc?$AAu?$AAr?$AAr?$AAe?$AAn?$AAc?$AAy?$AA?4?$AAd?$AAe?$AAt?$AAa?$AAi?$AAl?$AAs?$AA?4?$AA_?$AAI?$AAA?$AAs?$AAy?$AAn?$AAc?$AAA?$AAc?$AAt?$AAi?$AAo@ 100c7f20     WinRTVFS.obj
 0003:00001fb0       ??_C@_1GI@ONMPCME@?$AAW?$AAi?$AAn?$AAd?$AAo?$AAw?$AAs?$AA?4?$AAF?$AAo?$AAu?$AAn?$AAd?$AAa?$AAt?$AAi?$AAo?$AAn?$AA?4?$AAD?$AAi?$AAa?$AAg?$AAn?$AAo?$AAs?$AAt?$AAi?$AAc?$AAs?$AA?4?$AAA@ 100c7fb0     WinRTVFS.obj
 0003:00002030       ??_C@_1IM@COBDDANL@?$AAc?$AA?3?$AA?2?$AAp?$AAr?$AAo?$AAg?$AAr?$AAa?$AAm?$AA?5?$AAf?$AAi?$AAl?$AAe?$AAs?$AA?5?$AA?$CI?$AAx?$AA8?$AA6?$AA?$CJ?$AA?2?$AAm?$AAi?$AAc?$AAr?$AAo?$AAs?$AAo?$AAf?$AAt@ 100c8030     WinRTVFS.obj
 0003:000020d8       ??_C@_1DM@LHGCHCBA@?$AAv?$AAe?$AAc?$AAt?$AAo?$AAr?$AA?5?$AAs?$AAu?$AAb?$AAs?$AAc?$AAr?$AAi?$AAp?$AAt?$AA?5?$AAo?$AAu?$AAt?$AA?5?$AAo?$AAf?$AA?5?$AAr?$AAa?$AAn?$AAg?$AAe?$AA?$AA@ 100c80d8     WinRTVFS.obj
 0003:00002120       ??_C@_0CE@OFMIGAMM@Standard?5C?$CL?$CL?5Libraries?5Out?5of?5Ra@ 100c8120     WinRTVFS.obj
 0003:00002150       ??_C@_1FG@IBPIFFN@?$AA?$CC?$AAS?$AAt?$AAa?$AAn?$AAd?$AAa?$AAr?$AAd?$AA?5?$AAC?$AA?$CL?$AA?$CL?$AA?5?$AAL?$AAi?$AAb?$AAr?$AAa?$AAr?$AAi?$AAe?$AAs?$AA?5?$AAO?$AAu?$AAt?$AA?5?$AAo?$AAf?$AA?5?$AAR@ 100c8150     WinRTVFS.obj
 0003:000021b8       ??_C@_1HO@FOFOMKFB@?$AAs?$AAt?$AAd?$AA?3?$AA?3?$AAv?$AAe?$AAc?$AAt?$AAo?$AAr?$AA?$DM?$AAv?$AAo?$AAi?$AAd?$AA?5?$AA?$CK?$AA?0?$AAc?$AAl?$AAa?$AAs?$AAs?$AA?5?$AAs?$AAt?$AAd?$AA?3?$AA?3?$AAa?$AAl@ 100c81b8     WinRTVFS.obj
 0003:00002250       ??_C@_1BO@MEPPHOO@?$AA?$CC?$AAo?$AAu?$AAt?$AA?5?$AAo?$AAf?$AA?5?$AAr?$AAa?$AAn?$AAg?$AAe?$AA?$CC?$AA?$AA@ 100c8250     WinRTVFS.obj
 0003:00002274       ??_C@_0BN@MNEGDHPD@derived?5class?5must?5implement?$AA@ 100c8274     WinRTVFS.obj
 0003:00002298       __GUID_94ea2b94_e9cc_49e0_c0ff_ee64ca8f5b90 100c8298     WinRTVFS.obj
 0003:000022ac       ___uuidof_.?AV?$AsyncOperationCompletedHandler@E@Foundation@Windows@@ 100c82ac     WinRTVFS.obj
 0003:000022c0       ??_C@_1FO@BJPPPDOI@?$AAW?$AAi?$AAn?$AAd?$AAo?$AAw?$AAs?$AA?4?$AAF?$AAo?$AAu?$AAn?$AAd?$AAa?$AAt?$AAi?$AAo?$AAn?$AA?4?$AAA?$AAs?$AAy?$AAn?$AAc?$AAA?$AAc?$AAt?$AAi?$AAo?$AAn?$AAC?$AAo@ 100c82c0     WinRTVFS.obj
 0003:00002330       ??_C@_1HG@EOHCBGNB@?$AAW?$AAi?$AAn?$AAd?$AAo?$AAw?$AAs?$AA?4?$AAF?$AAo?$AAu?$AAn?$AAd?$AAa?$AAt?$AAi?$AAo?$AAn?$AA?4?$AAA?$AAs?$AAy?$AAn?$AAc?$AAO?$AAp?$AAe?$AAr?$AAa?$AAt?$AAi?$AAo@ 100c8330     WinRTVFS.obj
 0003:000023c0       ??_C@_0DH@GGJANAPG@wait?$CI?$CJ?5cannot?5be?5called?5on?5a?5def@ 100c83c0     WinRTVFS.obj
 0003:00002404       ??_C@_0DG@PCMCHPEJ@get?$CI?$CJ?5cannot?5be?5called?5on?5a?5defa@ 100c8404     WinRTVFS.obj
 0003:00002444       ??_C@_1BO@KCPPHOIC@?$AA_?$AAC?$AAt?$AA?5?$AA?$CB?$AA?$DN?$AA?5?$AAn?$AAu?$AAl?$AAl?$AAp?$AAt?$AAr?$AA?$AA@ 100c8444     WinRTVFS.obj
 0003:00002468       ??_C@_1EM@DFKPPGCC@?$AA_?$AAS?$AAy?$AAn?$AAc?$AAh?$AAr?$AAo?$AAn?$AAo?$AAu?$AAs?$AAC?$AAa?$AAn?$AAc?$AAe?$AAl?$AA?5?$AA?$CG?$AA?$CG?$AA?5?$AA?$CB?$AA_?$AAI?$AAs?$AAC?$AAo?$AAm?$AAp?$AAl?$AAe@ 100c8468     WinRTVFS.obj
 0003:000024c8       ??_C@_1FE@DLHNFJCN@?$AA?$CB?$AA_?$AAI?$AAs?$AAC?$AAa?$AAn?$AAc?$AAe?$AAl?$AAe?$AAd?$AA?$CI?$AA?$CJ?$AA?5?$AA?$HM?$AA?$HM?$AA?5?$AA_?$AAP?$AAr?$AAo?$AAp?$AAa?$AAg?$AAa?$AAt?$AAe?$AAd?$AAF?$AAr?$AAo@ 100c84c8     WinRTVFS.obj
 0003:0000252c       ??_C@_1DG@CPLNFBGJ@?$AA_?$AAM?$AA_?$AAT?$AAa?$AAs?$AAk?$AAS?$AAt?$AAa?$AAt?$AAe?$AA?5?$AA?$CB?$AA?$DN?$AA?5?$AA_?$AAC?$AAo?$AAm?$AAp?$AAl?$AAe?$AAt?$AAe?$AAd?$AA?$AA@ 100c852c     WinRTVFS.obj
 0003:00002570       ??_C@_1FA@OOAEPECB@?$AA?$CB?$AA_?$AAI?$AAs?$AAC?$AAo?$AAm?$AAp?$AAl?$AAe?$AAt?$AAe?$AAd?$AA?$CI?$AA?$CJ?$AA?5?$AA?$HM?$AA?$HM?$AA?5?$AA?$CB?$AA_?$AAH?$AAa?$AAs?$AAU?$AAs?$AAe?$AAr?$AAE?$AAx?$AAc?$AAe@ 100c8570     WinRTVFS.obj
 0003:000025d0       ??_C@_1FI@GGEDPMOK@?$AA?$CB?$AA_?$AAS?$AAy?$AAn?$AAc?$AAh?$AAr?$AAo?$AAn?$AAo?$AAu?$AAs?$AAC?$AAa?$AAn?$AAc?$AAe?$AAl?$AA?5?$AA?$HM?$AA?$HM?$AA?5?$AA?$CB?$AA_?$AAH?$AAa?$AAs?$AAU?$AAs?$AAe?$AAr@ 100c85d0     WinRTVFS.obj
 0003:0000263c       ??_C@_1CA@LBFIIMIE@?$AA?$CB?$AA_?$AAU?$AAs?$AAe?$AAr?$AAE?$AAx?$AAc?$AAe?$AAp?$AAt?$AAi?$AAo?$AAn?$AA?$AA@ 100c863c     WinRTVFS.obj
 0003:00002668       ??_C@_1FA@HOJIAEBI@?$AAv?$AAe?$AAc?$AAt?$AAo?$AAr?$AA?5?$AAc?$AAo?$AAn?$AAt?$AAa?$AAi?$AAn?$AAe?$AAr?$AAs?$AA?5?$AAi?$AAn?$AAc?$AAo?$AAm?$AAp?$AAa?$AAt?$AAi?$AAb?$AAl?$AAe?$AA?5?$AAf@ 100c8668     WinRTVFS.obj
 0003:000026c8       ??_C@_1FA@CMEHBBKL@?$AA?$CB?$AA_?$AAH?$AAa?$AAs?$AAU?$AAs?$AAe?$AAr?$AAE?$AAx?$AAc?$AAe?$AAp?$AAt?$AAi?$AAo?$AAn?$AA?$CI?$AA?$CJ?$AA?5?$AA?$CG?$AA?$CG?$AA?5?$AA?$CB?$AA_?$AAI?$AAs?$AAC?$AAo?$AAm?$AAp@ 100c86c8     WinRTVFS.obj
 0003:00002728       ??_C@_0BD@OLBABOEK@vector?$DMT?$DO?5too?5long?$AA@ 100c8728     WinRTVFS.obj
 0003:00002740       ??_C@_1EG@FOHJJHAC@?$AAv?$AAe?$AAc?$AAt?$AAo?$AAr?$AA?5?$AAi?$AAt?$AAe?$AAr?$AAa?$AAt?$AAo?$AAr?$AA?5?$AAn?$AAo?$AAt?$AA?5?$AAd?$AAe?$AAr?$AAe?$AAf?$AAe?$AAr?$AAe?$AAn?$AAc?$AAa?$AAb@ 100c8740     WinRTVFS.obj
 0003:00002798       ??_C@_1BFM@LAPPHHHD@?$AAs?$AAt?$AAd?$AA?3?$AA?3?$AA_?$AAV?$AAe?$AAc?$AAt?$AAo?$AAr?$AA_?$AAc?$AAo?$AAn?$AAs?$AAt?$AA_?$AAi?$AAt?$AAe?$AAr?$AAa?$AAt?$AAo?$AAr?$AA?$DM?$AAc?$AAl?$AAa?$AAs@ 100c8798     WinRTVFS.obj
 0003:00002940       ??_C@_1EE@EJDKCLKB@?$AAv?$AAe?$AAc?$AAt?$AAo?$AAr?$AA?5?$AAi?$AAt?$AAe?$AAr?$AAa?$AAt?$AAo?$AAr?$AA?5?$AAn?$AAo?$AAt?$AA?5?$AAi?$AAn?$AAc?$AAr?$AAe?$AAm?$AAe?$AAn?$AAt?$AAa?$AAb?$AAl@ 100c8940     WinRTVFS.obj
 0003:00002998       ??_C@_1BFO@HGBMIFMP@?$AAs?$AAt?$AAd?$AA?3?$AA?3?$AA_?$AAV?$AAe?$AAc?$AAt?$AAo?$AAr?$AA_?$AAc?$AAo?$AAn?$AAs?$AAt?$AA_?$AAi?$AAt?$AAe?$AAr?$AAa?$AAt?$AAo?$AAr?$AA?$DM?$AAc?$AAl?$AAa?$AAs@ 100c8998     WinRTVFS.obj
 0003:00002b3c       ??_C@_1DM@HINDPMBP@?$AAv?$AAe?$AAc?$AAt?$AAo?$AAr?$AA?5?$AAi?$AAt?$AAe?$AAr?$AAa?$AAt?$AAo?$AAr?$AAs?$AA?5?$AAi?$AAn?$AAc?$AAo?$AAm?$AAp?$AAa?$AAt?$AAi?$AAb?$AAl?$AAe?$AA?$AA@ 100c8b3c     WinRTVFS.obj
 0003:00002b88       ??_C@_1BFG@JLLOGCC@?$AAs?$AAt?$AAd?$AA?3?$AA?3?$AA_?$AAV?$AAe?$AAc?$AAt?$AAo?$AAr?$AA_?$AAc?$AAo?$AAn?$AAs?$AAt?$AA_?$AAi?$AAt?$AAe?$AAr?$AAa?$AAt?$AAo?$AAr?$AA?$DM?$AAc?$AAl?$AAa?$AAs@ 100c8b88     WinRTVFS.obj
 0003:00002d28       ??_C@_1GO@PMHCGFPC@?$AA_?$AAS?$AAt?$AAa?$AAt?$AAu?$AAs?$AA?5?$AA?$DN?$AA?$DN?$AA?5?$AAW?$AAi?$AAn?$AAd?$AAo?$AAw?$AAs?$AA?3?$AA?3?$AAF?$AAo?$AAu?$AAn?$AAd?$AAa?$AAt?$AAi?$AAo?$AAn?$AA?3?$AA?3@ 100c8d28     WinRTVFS.obj
 0003:00002dac       ??_C@_1BO@PDOCIJJI@?$AA?$CB?$AA_?$AAI?$AAs?$AAC?$AAa?$AAn?$AAc?$AAe?$AAl?$AAe?$AAd?$AA?$CI?$AA?$CJ?$AA?$AA@ 100c8dac     WinRTVFS.obj
 0003:00002dd0       ??_C@_1EC@JLHDLONA@?$AA?$CB?$AA_?$AAM?$AA_?$AAf?$AAH?$AAa?$AAs?$AAV?$AAa?$AAl?$AAu?$AAe?$AA?5?$AA?$CG?$AA?$CG?$AA?5?$AA?$CB?$AA_?$AAM?$AA_?$AAf?$AAI?$AAs?$AAC?$AAa?$AAn?$AAc?$AAe?$AAl?$AAe?$AAd@ 100c8dd0     WinRTVFS.obj
 0003:00002e20       ??_C@_1CO@DGLIKNHI@?$AAi?$AAn?$AAv?$AAa?$AAl?$AAi?$AAd?$AA?5?$AAi?$AAt?$AAe?$AAr?$AAa?$AAt?$AAo?$AAr?$AA?5?$AAr?$AAa?$AAn?$AAg?$AAe?$AA?$AA@ 100c8e20     WinRTVFS.obj
 0003:00002e58       ??_C@_0DH@GNEOGDGK@then?$CI?$CJ?5cannot?5be?5called?5on?5a?5def@ 100c8e58     WinRTVFS.obj
 0003:00002e9c       ??_C@_1BO@BLOIMFDG@?$AA?$CI?$AAb?$AAo?$AAo?$AAl?$AA?$CJ?$AA_?$AAM?$AA_?$AAp?$AAT?$AAa?$AAs?$AAk?$AA?$AA@ 100c8e9c     WinRTVFS.obj
 0003:00002ec0       ??_C@_1BK@GCBKEOON@?$AA_?$AAI?$AAs?$AAC?$AAr?$AAe?$AAa?$AAt?$AAe?$AAd?$AA?$CI?$AA?$CJ?$AA?$AA@ 100c8ec0     WinRTVFS.obj
 0003:00002ee0       ??_C@_1IO@HFHPAKCC@?$AAc?$AA?3?$AA?2?$AAp?$AAr?$AAo?$AAg?$AAr?$AAa?$AAm?$AA?5?$AAf?$AAi?$AAl?$AAe?$AAs?$AA?5?$AA?$CI?$AAx?$AA8?$AA6?$AA?$CJ?$AA?2?$AAm?$AAi?$AAc?$AAr?$AAo?$AAs?$AAo?$AAf?$AAt@ 100c8ee0     WinRTVFS.obj
 0003:00002f90       ??_C@_1HA@NLKMHAMM@?$AAW?$AAi?$AAn?$AAR?$AAT?$AAV?$AAF?$AAS?$AA?5?$AAE?$AAx?$AAc?$AAe?$AAp?$AAt?$AAi?$AAo?$AAn?$AA?3?$AA?5?$AAS?$AAQ?$AAL?$AAi?$AAt?$AAe?$AA?5?$AAd?$AAa?$AAt?$AAa?$AAb@ 100c8f90     WinRTVFS.obj
 0003:00003018       ___uuidof_.?AU?$IAsyncOperationWithProgress@P$AAUIBuffer@Streams@Storage@Windows@@I@Foundation@Windows@@ 100c9018     WinRTVFS.obj
 0003:0000302c       __GUID_905a0fef_bc53_11df_8c49_001e4fc686da 100c902c     WinRTVFS.obj
 0003:00003040       ___uuidof_.?AU?$IAsyncOperationWithProgress@II@Foundation@Windows@@ 100c9040     WinRTVFS.obj
 0003:00003058       ??_C@_1HC@HCAACPAG@?$AAW?$AAi?$AAn?$AAR?$AAT?$AAV?$AAF?$AAS?$AA?5?$AAE?$AAx?$AAc?$AAe?$AAp?$AAt?$AAi?$AAo?$AAn?$AA?5?$AA?3?$AA?5?$AAS?$AAQ?$AAL?$AAi?$AAt?$AAe?$AA?5?$AAd?$AAa?$AAt?$AAa@ 100c9058     WinRTVFS.obj
 0003:000030e0       ??_C@_1DO@FLHJJFDA@?$AAW?$AAi?$AAn?$AAd?$AAo?$AAw?$AAs?$AA?4?$AAS?$AAt?$AAo?$AAr?$AAa?$AAg?$AAe?$AA?4?$AAS?$AAt?$AAr?$AAe?$AAa?$AAm?$AAs?$AA?4?$AAB?$AAu?$AAf?$AAf?$AAe?$AAr?$AA?$AA@ 100c90e0     WinRTVFS.obj
 0003:0000312c       ??_C@_1DM@IEIEGAEB@?$AAW?$AAi?$AAn?$AAd?$AAo?$AAw?$AAs?$AA?4?$AAS?$AAt?$AAo?$AAr?$AAa?$AAg?$AAe?$AA?4?$AAS?$AAt?$AAo?$AAr?$AAa?$AAg?$AAe?$AAF?$AAo?$AAl?$AAd?$AAe?$AAr?$AA?$AA@ 100c912c     WinRTVFS.obj
 0003:00003174       ??_C@_0DF@NJGLEKMJ@Deleting?5link?5registry?5before?5re@ 100c9174     WinRTVFS.obj
 0003:000031b4       ??_C@_05KMIILNPJ@_Link?$AA@ 100c91b4     WinRTVFS.obj
 0003:000031c0       ??_C@_1JA@OOBHGLEK@?$AAc?$AA?3?$AA?2?$AAp?$AAr?$AAo?$AAg?$AAr?$AAa?$AAm?$AA?5?$AAf?$AAi?$AAl?$AAe?$AAs?$AA?5?$AA?$CI?$AAx?$AA8?$AA6?$AA?$CJ?$AA?2?$AAm?$AAi?$AAc?$AAr?$AAo?$AAs?$AAo?$AAf?$AAt@ 100c91c0     WinRTVFS.obj
 0003:0000326c       ??_C@_09KIGCIIBF@_PMessage?$AA@ 100c926c     WinRTVFS.obj
 0003:00003278       ??_C@_08KILLDFKG@_PSource?$AA@ 100c9278     WinRTVFS.obj
 0003:00003288       ??_C@_0FK@LCNLODJH@To?5use?5batched?5processing?0?5you?5m@ 100c9288     WinRTVFS.obj
 0003:000032f8       ??_C@_1EC@DNFJDIGP@?$AA_?$AAM?$AA_?$AAc?$AAo?$AAn?$AAn?$AAe?$AAc?$AAt?$AAe?$AAd?$AAT?$AAa?$AAr?$AAg?$AAe?$AAt?$AAs?$AA?4?$AAc?$AAo?$AAu?$AAn?$AAt?$AA?$CI?$AA?$CJ?$AA?5?$AA?$DN?$AA?$DN?$AA?5?$AA0@ 100c92f8     WinRTVFS.obj
 0003:00003348       ??_C@_08NFKFEOEH@_PTarget?$AA@ 100c9348     WinRTVFS.obj
 0003:00003354       ??_C@_1BM@OJBKHMBH@?$AA_?$AAP?$AAT?$AAa?$AAr?$AAg?$AAe?$AAt?$AA?5?$AA?$CB?$AA?$DN?$AA?5?$AA0?$AA?$AA@ 100c9354     WinRTVFS.obj
 0003:00003378       ??_C@_1EO@PDAIDJIM@?$AA_?$AAM?$AA_?$AAc?$AAo?$AAn?$AAn?$AAe?$AAc?$AAt?$AAe?$AAd?$AAT?$AAa?$AAr?$AAg?$AAe?$AAt?$AAs?$AA?4?$AAc?$AAo?$AAn?$AAt?$AAa?$AAi?$AAn?$AAs?$AA?$CI?$AA_?$AAP?$AAT@ 100c9378     WinRTVFS.obj
 0003:000033d8       ??_C@_0FN@HODAMJJJ@To?5use?5batched?5processing?0?5you?5m@ 100c93d8     WinRTVFS.obj
 0003:00003448       ??_C@_0GE@CJLOELHK@To?5use?5ordered?5message?5processin@ 100c9448     WinRTVFS.obj
 0003:000034c0       ??_C@_0DA@EMGPPPMG@sync_send?5called?5without?5registe@ 100c94c0     WinRTVFS.obj
 0003:000034fc       ??_C@_0DB@IGEIKGDJ@async_send?5called?5without?5regist@ 100c94fc     WinRTVFS.obj
 0003:00003538       ??_C@_1CA@DEJLCLGE@?$AA_?$AAM?$AA_?$AAl?$AAw?$AAt?$AAC?$AAo?$AAu?$AAn?$AAt?$AA?5?$AA?$DO?$AA?5?$AA0?$AA?$AA@ 100c9538     WinRTVFS.obj
 0003:00003560       ??_C@_1BO@CHHKANBE@?$AA_?$AAP?$AAM?$AAe?$AAs?$AAs?$AAa?$AAg?$AAe?$AA?5?$AA?$CB?$AA?$DN?$AA?5?$AA0?$AA?$AA@ 100c9560     WinRTVFS.obj
 0003:00003588       ??_C@_1EC@KOKKNEAN@?$AA_?$AAM?$AA_?$AAc?$AAo?$AAn?$AAn?$AAe?$AAc?$AAt?$AAe?$AAd?$AAS?$AAo?$AAu?$AAr?$AAc?$AAe?$AAs?$AA?4?$AAc?$AAo?$AAu?$AAn?$AAt?$AA?$CI?$AA?$CJ?$AA?5?$AA?$DN?$AA?$DN?$AA?5?$AA0@ 100c9588     WinRTVFS.obj
 0003:000035d8       ??_C@_1BG@JKDELFFM@?$AA_?$AAL?$AAi?$AAn?$AAk?$AA?5?$AA?$CB?$AA?$DN?$AA?5?$AA0?$AA?$AA@ 100c95d8     WinRTVFS.obj
 0003:000035f4       ??_C@_1BO@CDGJNEFI@?$AA_?$AAP?$AAo?$AAs?$AA?5?$AA?$DM?$AA?5?$AA_?$AAM?$AA_?$AAs?$AAi?$AAz?$AAe?$AA?$AA@ 100c95f4     WinRTVFS.obj
 0003:00003618       ??_C@_1CA@MLLBEJBC@?$AA_?$AAO?$AAr?$AAi?$AAg?$AA?5?$AA?$DO?$AA?$DN?$AA?5?$AA_?$AAC?$AAo?$AAu?$AAn?$AAt?$AA?$AA@ 100c9618     WinRTVFS.obj
 0003:00003640       ??_C@_1CO@DIOLBGBO@?$AA_?$AAI?$AAn?$AAd?$AAe?$AAx?$AA?$DM?$AA_?$AAI?$AAt?$AAe?$AAm?$AAs?$AA_?$AAp?$AAe?$AAr?$AA_?$AAp?$AAa?$AAg?$AAe?$AA?$AA@ 100c9640     WinRTVFS.obj
 0003:00003678       ??_C@_1KE@DNIIDMOO@?$AAc?$AA?3?$AA?2?$AAp?$AAr?$AAo?$AAg?$AAr?$AAa?$AAm?$AA?5?$AAf?$AAi?$AAl?$AAe?$AAs?$AA?5?$AA?$CI?$AAx?$AA8?$AA6?$AA?$CJ?$AA?2?$AAm?$AAi?$AAc?$AAr?$AAo?$AAs?$AAo?$AAf?$AAt@ 100c9678     WinRTVFS.obj
 0003:0000373c       ??_C@_1DM@PCJGKNFF@?$AA_?$AAM?$AA_?$AAp?$AAe?$AAn?$AAd?$AAi?$AAn?$AAg?$AAR?$AAe?$AAm?$AAo?$AAv?$AAe?$AA?4?$AA_?$AAS?$AAi?$AAz?$AAe?$AA?$CI?$AA?$CJ?$AA?5?$AA?$DN?$AA?$DN?$AA?5?$AA0?$AA?$AA@ 100c973c     WinRTVFS.obj
 0003:00003784       ___uuidof_.?AU?$IAsyncOperation@I@Foundation@Windows@@ 100c9784     WinRTVFS.obj
 0003:00003798       ___uuidof_.?AU?$IAsyncOperation@P$AAUIBuffer@Streams@Storage@Windows@@@Foundation@Windows@@ 100c9798     WinRTVFS.obj
 0003:000037ac       ??_C@_1CG@FIKIDILL@?$AA_?$AAM?$AA_?$AAi?$AAn?$AAd?$AAe?$AAx?$AA?5?$AA?$DM?$AA?5?$AA_?$AAM?$AA_?$AAs?$AAi?$AAz?$AAe?$AA?$AA@ 100c97ac     WinRTVFS.obj
 0003:000037dc       ??_C@_1CG@KDOMDFLI@?$AA_?$AAM?$AA_?$AAp?$AAr?$AAo?$AAp?$AAa?$AAg?$AAa?$AAt?$AAo?$AAr?$AA?5?$AA?$DN?$AA?$DN?$AA?5?$AA0?$AA?$AA@ 100c97dc     WinRTVFS.obj
 0003:0000380c       ??_C@_1CK@MBFFPELD@?$AA_?$AAM?$AA_?$AAi?$AAt?$AAe?$AAr?$AAa?$AAt?$AAo?$AAr?$AAC?$AAo?$AAu?$AAn?$AAt?$AA?5?$AA?$DO?$AA?5?$AA0?$AA?$AA@ 100c980c     WinRTVFS.obj
 0003:00003840       ??_C@_1CG@JFKIBOIE@?$AA_?$AAN?$AAe?$AAw?$AAS?$AAi?$AAz?$AAe?$AA?5?$AA?$DO?$AA?5?$AA_?$AAM?$AA_?$AAs?$AAi?$AAz?$AAe?$AA?$AA@ 100c9840     WinRTVFS.obj
 0003:00003870       ??_C@_1BA@DFEJFCAL@?$AAe?$AAm?$AAp?$AAt?$AAy?$AA?$CI?$AA?$CJ?$AA?$AA@ 100c9870     WinRTVFS.obj
 0003:00003888       ??_C@_1OI@KCCMBBLP@?$AAC?$AAo?$AAn?$AAc?$AAu?$AAr?$AAr?$AAe?$AAn?$AAc?$AAy?$AA?4?$AAd?$AAe?$AAt?$AAa?$AAi?$AAl?$AAs?$AA?4?$AA?$DP?$AA$?$AA_?$AAI?$AAA?$AAs?$AAy?$AAn?$AAc?$AAO?$AAp?$AAe@ 100c9888     WinRTVFS.obj
 0003:000039a0       ??_C@_1JO@BNIMPKHN@?$AAC?$AAo?$AAn?$AAc?$AAu?$AAr?$AAr?$AAe?$AAn?$AAc?$AAy?$AA?4?$AAd?$AAe?$AAt?$AAa?$AAi?$AAl?$AAs?$AA?4?$AA?$DP?$AA$?$AA_?$AAI?$AAA?$AAs?$AAy?$AAn?$AAc?$AAO?$AAp?$AAe@ 100c99a0     WinRTVFS.obj
 0003:00003a60       ___uuidof_.?AV?$AsyncOperationCompletedHandler@_N@Foundation@Windows@@ 100c9a60     WinRTVFS.obj
 0003:00003a78       ??_C@_1HK@PEPAEFGG@?$AAW?$AAi?$AAn?$AAd?$AAo?$AAw?$AAs?$AA?4?$AAF?$AAo?$AAu?$AAn?$AAd?$AAa?$AAt?$AAi?$AAo?$AAn?$AA?4?$AAA?$AAs?$AAy?$AAn?$AAc?$AAO?$AAp?$AAe?$AAr?$AAa?$AAt?$AAi?$AAo@ 100c9a78     WinRTVFS.obj
 0003:00003b0c       ___uuidof_.?AV?$AsyncOperationCompletedHandler@P$AAUIRandomAccessStream@Streams@Storage@Windows@@@Foundation@Windows@@ 100c9b0c     WinRTVFS.obj
 0003:00003b20       ??_C@_1MC@DGANCOCB@?$AAW?$AAi?$AAn?$AAd?$AAo?$AAw?$AAs?$AA?4?$AAF?$AAo?$AAu?$AAn?$AAd?$AAa?$AAt?$AAi?$AAo?$AAn?$AA?4?$AAA?$AAs?$AAy?$AAn?$AAc?$AAO?$AAp?$AAe?$AAr?$AAa?$AAt?$AAi?$AAo@ 100c9b20     WinRTVFS.obj
 0003:00003c08       ___uuidof_.?AV?$AsyncOperationCompletedHandler@P$AAVStorageFolder@Storage@Windows@@@Foundation@Windows@@ 100c9c08     WinRTVFS.obj
 0003:00003c20       ??_C@_1KG@LKBJEDDP@?$AAW?$AAi?$AAn?$AAd?$AAo?$AAw?$AAs?$AA?4?$AAF?$AAo?$AAu?$AAn?$AAd?$AAa?$AAt?$AAi?$AAo?$AAn?$AA?4?$AAA?$AAs?$AAy?$AAn?$AAc?$AAO?$AAp?$AAe?$AAr?$AAa?$AAt?$AAi?$AAo@ 100c9c20     WinRTVFS.obj
 0003:00003ce8       ___uuidof_.?AV?$AsyncOperationCompletedHandler@P$AAVStorageFile@Storage@Windows@@@Foundation@Windows@@ 100c9ce8     WinRTVFS.obj
 0003:00003d00       ??_C@_1KC@BEJILDB@?$AAW?$AAi?$AAn?$AAd?$AAo?$AAw?$AAs?$AA?4?$AAF?$AAo?$AAu?$AAn?$AAd?$AAa?$AAt?$AAi?$AAo?$AAn?$AA?4?$AAA?$AAs?$AAy?$AAn?$AAc?$AAO?$AAp?$AAe?$AAr?$AAa?$AAt?$AAi?$AAo@ 100c9d00     WinRTVFS.obj
 0003:00003dc4       ___uuidof_.?AV?$AsyncOperationWithProgressCompletedHandler@P$AAUIBuffer@Streams@Storage@Windows@@I@Foundation@Windows@@ 100c9dc4     WinRTVFS.obj
 0003:00003dd8       ___uuidof_.?AV?$AsyncOperationCompletedHandler@P$AAUIBuffer@Streams@Storage@Windows@@@Foundation@Windows@@ 100c9dd8     WinRTVFS.obj
 0003:00003df0       ??_C@_1NC@JPOFCGNN@?$AAW?$AAi?$AAn?$AAd?$AAo?$AAw?$AAs?$AA?4?$AAF?$AAo?$AAu?$AAn?$AAd?$AAa?$AAt?$AAi?$AAo?$AAn?$AA?4?$AAA?$AAs?$AAy?$AAn?$AAc?$AAO?$AAp?$AAe?$AAr?$AAa?$AAt?$AAi?$AAo@ 100c9df0     WinRTVFS.obj
 0003:00003ef0       ??_C@_1KK@KFDOKEA@?$AAW?$AAi?$AAn?$AAd?$AAo?$AAw?$AAs?$AA?4?$AAF?$AAo?$AAu?$AAn?$AAd?$AAa?$AAt?$AAi?$AAo?$AAn?$AA?4?$AAA?$AAs?$AAy?$AAn?$AAc?$AAO?$AAp?$AAe?$AAr?$AAa?$AAt?$AAi?$AAo@ 100c9ef0     WinRTVFS.obj
 0003:00003fbc       ___uuidof_.?AV?$AsyncOperationWithProgressCompletedHandler@II@Foundation@Windows@@ 100c9fbc     WinRTVFS.obj
 0003:00003fd0       ___uuidof_.?AV?$AsyncOperationCompletedHandler@I@Foundation@Windows@@ 100c9fd0     WinRTVFS.obj
 0003:00003fe8       ??_C@_1KA@BPKFFCDM@?$AAW?$AAi?$AAn?$AAd?$AAo?$AAw?$AAs?$AA?4?$AAF?$AAo?$AAu?$AAn?$AAd?$AAa?$AAt?$AAi?$AAo?$AAn?$AA?4?$AAA?$AAs?$AAy?$AAn?$AAc?$AAO?$AAp?$AAe?$AAr?$AAa?$AAt?$AAi?$AAo@ 100c9fe8     WinRTVFS.obj
 0003:000040a8       ??_C@_1HI@FGKLFMMC@?$AAW?$AAi?$AAn?$AAd?$AAo?$AAw?$AAs?$AA?4?$AAF?$AAo?$AAu?$AAn?$AAd?$AAa?$AAt?$AAi?$AAo?$AAn?$AA?4?$AAA?$AAs?$AAy?$AAn?$AAc?$AAO?$AAp?$AAe?$AAr?$AAa?$AAt?$AAi?$AAo@ 100ca0a8     WinRTVFS.obj
 0003:00004138       __real@40f5180000000000    100ca138     WinRTVFS.obj
 0003:00004148       __real@41429ec5c0000000    100ca148     WinRTVFS.obj
 0003:00004154       ?value@?$RuntimeClassFlags@$01@WRL@Microsoft@@2IB 100ca154     vccorlibd:init.obj
 0003:00004158       __GUID_00000035_0000_0000_c000_000000000046 100ca158     vccorlibd:init.obj
 0003:0000416c       ___uuidof_.?AU?$IBoxArray@E@Platform@@ 100ca16c     vccorlibd:init.obj
 0003:00004180       ?__smallCaptureSize@__abi_CaptureBase@Details@Platform@@2IB 100ca180     vccorlibd:init.obj
 0003:00004184       __GUID_4edb8ee2_96dd_49a7_94f7_4607ddab8e3c 100ca184     vccorlibd:init.obj
 0003:00004198       __GUID_00000037_0000_0000_c000_000000000046 100ca198     vccorlibd:init.obj
 0003:000041ac       ___uuidof_.?AUIValueType@Platform@@ 100ca1ac     vccorlibd:init.obj
 0003:000041c0       ___uuidof_.?AUIPrintable@Details@Platform@@ 100ca1c0     vccorlibd:init.obj
 0003:000041d4       ___uuidof_.?AUIEquatable@Details@Platform@@ 100ca1d4     vccorlibd:init.obj
 0003:000041e8       ?value@?$RuntimeClassFlags@$05@WRL@Microsoft@@2IB 100ca1e8     vccorlibd:init.obj
 0003:000041ec       ?value@?$RuntimeClassFlags@$0N@@WRL@Microsoft@@2IB 100ca1ec     vccorlibd:init.obj
 0003:000041f0       ?IidCount@?$InterfaceTraits@VNil@Details@WRL@Microsoft@@@Details@WRL@Microsoft@@2KB 100ca1f0     vccorlibd:init.obj
 0003:000041f4       __GUID_00000146_0000_0000_c000_000000000046 100ca1f4     vccorlibd:init.obj
 0003:00004208       ?value@?$RuntimeClassFlags@$03@WRL@Microsoft@@2IB 100ca208     vccorlibd:init.obj
 0003:0000420c       ?value@?$RuntimeClassFlags@$02@WRL@Microsoft@@2IB 100ca20c     vccorlibd:init.obj
 0003:00004210       ?value@?$RuntimeClassFlags@$04@WRL@Microsoft@@2IB 100ca210     vccorlibd:init.obj
 0003:00004214       ?value@?$RuntimeClassFlags@$00@WRL@Microsoft@@2IB 100ca214     vccorlibd:init.obj
 0003:00004218       ?isIInspectable@?$HasIInspectable@VIGetActivationFactoryAbiType@Details@WRL@Microsoft@@$0A@@Details@WRL@Microsoft@@2_NB 100ca218     vccorlibd:init.obj
 0003:0000421c       ??_C@_0CE@JDLOEBHJ@The?5module?5was?5already?5instantia@ 100ca21c     vccorlibd:init.obj
 0003:00004248       ??_C@_1BDG@JCNGKAPI@?$AA?3?$AA?3?$AA_?$AAI?$AAn?$AAl?$AAi?$AAn?$AAe?$AAI?$AAn?$AAt?$AAe?$AAr?$AAl?$AAo?$AAc?$AAk?$AAe?$AAd?$AAC?$AAo?$AAm?$AAp?$AAa?$AAr?$AAe?$AAE?$AAx?$AAc?$AAh?$AAa@ 100ca248     vccorlibd:init.obj
 0003:000043c0       ??_C@_1HI@FDOIJFGP@?$AAf?$AA?3?$AA?2?$AAd?$AAd?$AA?2?$AAe?$AAx?$AAt?$AAe?$AAr?$AAn?$AAa?$AAl?$AAa?$AAp?$AAi?$AAs?$AA?2?$AAw?$AAi?$AAn?$AAd?$AAo?$AAw?$AAs?$AA?2?$AAw?$AAi?$AAn?$AAb?$AAl@ 100ca3c0     vccorlibd:init.obj
 0003:00004450       ??_C@_0DC@NHIMCJIC@Different?5value?5for?5moduleLock_?5@ 100ca450     vccorlibd:init.obj
 0003:00004490       ??_C@_1PA@MBEJKLDK@?$AAr?$AAe?$AAi?$AAn?$AAt?$AAe?$AAr?$AAp?$AAr?$AAe?$AAt?$AA_?$AAc?$AAa?$AAs?$AAt?$AA?$DM?$AAS?$AAR?$AAW?$AAL?$AAO?$AAC?$AAK?$AA?$CK?$AA?$DO?$AA?$CI?$AA?$CG?$AAm?$AAo?$AAd?$AAu@ 100ca490     vccorlibd:init.obj
 0003:000045b0       ??_C@_1BDA@BPDFEHJ@?$AA?3?$AA?3?$AA_?$AAI?$AAn?$AAl?$AAi?$AAn?$AAe?$AAI?$AAn?$AAt?$AAe?$AAr?$AAl?$AAo?$AAc?$AAk?$AAe?$AAd?$AAC?$AAo?$AAm?$AAp?$AAa?$AAr?$AAe?$AAE?$AAx?$AAc?$AAh?$AAa@ 100ca5b0     vccorlibd:init.obj
 0003:0000471c       ??_C@_1DE@LGCONHOH@?$AAf?$AAa?$AAc?$AAt?$AAo?$AAr?$AAy?$AAP?$AAo?$AAi?$AAn?$AAt?$AAe?$AAr?$AA?5?$AA?$CB?$AA?$DN?$AA?5?$AAn?$AAu?$AAl?$AAl?$AAp?$AAt?$AAr?$AA?$AA@ 100ca71c     vccorlibd:init.obj
 0003:00004760       ??_C@_1HA@HOKFFBHJ@?$AAf?$AA?3?$AA?2?$AAd?$AAd?$AA?2?$AAe?$AAx?$AAt?$AAe?$AAr?$AAn?$AAa?$AAl?$AAa?$AAp?$AAi?$AAs?$AA?2?$AAw?$AAi?$AAn?$AAd?$AAo?$AAw?$AAs?$AA?2?$AAw?$AAi?$AAn?$AAb?$AAl@ 100ca760     vccorlibd:init.obj
 0003:000047e8       ??_C@_1CE@LOBGOGNC@?$AAe?$AAx?$AAI?$AAn?$AAf?$AAo?$AA?5?$AA?$CB?$AA?$DN?$AA?5?$AAn?$AAu?$AAl?$AAl?$AAp?$AAt?$AAr?$AA?$AA@ 100ca7e8     vccorlibd:init.obj
 0003:00004818       ??_C@_1EM@NHPDLPLN@?$AAf?$AA?3?$AA?2?$AAd?$AAd?$AA?2?$AAv?$AAc?$AAt?$AAo?$AAo?$AAl?$AAs?$AA?2?$AAw?$AAi?$AAn?$AAr?$AAt?$AA?2?$AAv?$AAc?$AAc?$AAo?$AAr?$AAl?$AAi?$AAb?$AA?2?$AAi?$AAn?$AAi@ 100ca818     vccorlibd:init.obj
 0003:00004874       ??_C@_1CA@CKAFCDNA@?$AAP?$AAl?$AAa?$AAt?$AAf?$AAo?$AAr?$AAm?$AA?4?$AAS?$AAt?$AAr?$AAi?$AAn?$AAg?$AA?$AA@ 100ca874     vccorlibd:init.obj
 0003:000048a0       ??_C@_1EC@HKGGLLEH@?$AAP?$AAl?$AAa?$AAt?$AAf?$AAo?$AAr?$AAm?$AA?4?$AAD?$AAe?$AAt?$AAa?$AAi?$AAl?$AAs?$AA?4?$AAC?$AAu?$AAs?$AAt?$AAo?$AAm?$AAV?$AAa?$AAl?$AAu?$AAe?$AAT?$AAy?$AAp?$AAe@ 100ca8a0     vccorlibd:init.obj
 0003:000048f0       ??_C@_1DI@NLCGGKKB@?$AAP?$AAl?$AAa?$AAt?$AAf?$AAo?$AAr?$AAm?$AA?4?$AAD?$AAe?$AAt?$AAa?$AAi?$AAl?$AAs?$AA?4?$AAC?$AAu?$AAs?$AAt?$AAo?$AAm?$AAE?$AAn?$AAu?$AAm?$AA?$AA@ 100ca8f0     vccorlibd:init.obj
 0003:00004934       ??_C@_1DO@OFHIGPBO@?$AAP?$AAl?$AAa?$AAt?$AAf?$AAo?$AAr?$AAm?$AA?4?$AA?$DP?$AA$?$AAW?$AAr?$AAi?$AAt?$AAe?$AAO?$AAn?$AAl?$AAy?$AAA?$AAr?$AAr?$AAa?$AAy?$AA?$EA?$AAE?$AA$?$AA0?$AA0?$AA?$AA@ 100ca934     vccorlibd:init.obj
 0003:00004980       ??_C@_1FI@JEFDKMJG@?$AAP?$AAl?$AAa?$AAt?$AAf?$AAo?$AAr?$AAm?$AA?4?$AAM?$AAe?$AAt?$AAa?$AAd?$AAa?$AAt?$AAa?$AA?4?$AAR?$AAu?$AAn?$AAt?$AAi?$AAm?$AAe?$AAC?$AAl?$AAa?$AAs?$AAs?$AAN?$AAa@ 100ca980     vccorlibd:init.obj
 0003:000049f0       ??_C@_1FI@KEDAFGCP@?$AAW?$AAi?$AAn?$AAd?$AAo?$AAw?$AAs?$AA?4?$AAF?$AAo?$AAu?$AAn?$AAd?$AAa?$AAt?$AAi?$AAo?$AAn?$AA?4?$AAI?$AAR?$AAe?$AAf?$AAe?$AAr?$AAe?$AAn?$AAc?$AAe?$AAA?$AAr?$AAr@ 100ca9f0     vccorlibd:init.obj
 0003:00004a5c       ??_C@_1CG@EILCIJAB@?$AAP?$AAl?$AAa?$AAt?$AAf?$AAo?$AAr?$AAm?$AA?4?$AAE?$AAx?$AAc?$AAe?$AAp?$AAt?$AAi?$AAo?$AAn?$AA?$AA@ 100caa5c     vccorlibd:init.obj
 0003:00004a90       ??_C@_1EO@NOEFGKEL@?$AAn?$AAa?$AAm?$AAe?$AA?5?$AA?$CB?$AA?$DN?$AA?5?$AAn?$AAu?$AAl?$AAl?$AAp?$AAt?$AAr?$AA?5?$AA?$CG?$AA?$CG?$AA?5?$AA?3?$AA?3?$AAw?$AAc?$AAs?$AAl?$AAe?$AAn?$AA?$CI?$AAn?$AAa?$AAm?$AAe@ 100caa90     vccorlibd:init.obj
 0003:00004af0       ??_C@_0BB@CFBPHFJH@Duplicate?5CLSID?$CB?$AA@ 100caaf0     vccorlibd:init.obj
 0003:00004b08       ??_C@_1JM@DKIGHONO@?$AAe?$AAn?$AAt?$AAr?$AAy?$AA?9?$AA?$DO?$AAa?$AAc?$AAt?$AAi?$AAv?$AAa?$AAt?$AAi?$AAo?$AAn?$AAI?$AAd?$AA?4?$AAc?$AAl?$AAs?$AAi?$AAd?$AA?5?$AA?$CB?$AA?$DN?$AA?5?$AAe?$AAn?$AAt@ 100cab08     vccorlibd:init.obj
 0003:00004bc4       ??_C@_0BO@DGCEHPIO@Duplicate?5runtime?5class?5name?$CB?$AA@ 100cabc4     vccorlibd:init.obj
 0003:00004be8       ??_C@_1BAE@DEFAAIFA@?$AA?3?$AA?3?$AAw?$AAc?$AAs?$AAc?$AAm?$AAp?$AA?$CI?$AA?$CI?$AAe?$AAn?$AAt?$AAr?$AAy?$AA?9?$AA?$DO?$AAa?$AAc?$AAt?$AAi?$AAv?$AAa?$AAt?$AAi?$AAo?$AAn?$AAI?$AAd?$AA?4?$AAg?$AAe@ 100cabe8     vccorlibd:init.obj
 0003:00004d20       ??_C@_1DA@HFJOCILJ@?$AAf?$AAi?$AAr?$AAs?$AAt?$AAE?$AAn?$AAt?$AAr?$AAy?$AA?5?$AA?$DM?$AA?$DN?$AA?5?$AAl?$AAa?$AAs?$AAt?$AAE?$AAn?$AAt?$AAr?$AAy?$AA?$AA@ 100cad20     vccorlibd:init.obj
 0003:00004d60       __real@0000000000000000    100cad60     vccorlibd:init.obj
 0003:00004d70       __real@3ff0000000000000    100cad70     vccorlibd:init.obj
 0003:00004d79       ?value@?$integral_constant@_N$0A@@std@@2_NB 100cad79     msvcprtd:newaop_s.obj
 0003:00004d7a       ?value@?$integral_constant@_N$00@std@@2_NB 100cad7a     msvcprtd:newaop_s.obj
 0003:00004d7c       _GUID_NULL                 100cad7c     uuid:cguid_i.obj
 0003:00004d90       _CATID_MARSHALER           100cad90     uuid:cguid_i.obj
 0003:00004da4       _IID_IRpcChannel           100cada4     uuid:cguid_i.obj
 0003:00004db8       _IID_IRpcStub              100cadb8     uuid:cguid_i.obj
 0003:00004dcc       _IID_IStubManager          100cadcc     uuid:cguid_i.obj
 0003:00004de0       _IID_IRpcProxy             100cade0     uuid:cguid_i.obj
 0003:00004df4       _IID_IProxyManager         100cadf4     uuid:cguid_i.obj
 0003:00004e08       _IID_IPSFactory            100cae08     uuid:cguid_i.obj
 0003:00004e1c       _IID_IInternalMoniker      100cae1c     uuid:cguid_i.obj
 0003:00004e30       _IID_IDfReserved1          100cae30     uuid:cguid_i.obj
 0003:00004e44       _IID_IDfReserved2          100cae44     uuid:cguid_i.obj
 0003:00004e58       _IID_IDfReserved3          100cae58     uuid:cguid_i.obj
 0003:00004e6c       _CLSID_StdMarshal          100cae6c     uuid:cguid_i.obj
 0003:00004e80       _IID_IStub                 100cae80     uuid:cguid_i.obj
 0003:00004e94       _IID_IProxy                100cae94     uuid:cguid_i.obj
 0003:00004ea8       _IID_IEnumGeneric          100caea8     uuid:cguid_i.obj
 0003:00004ebc       _IID_IEnumHolder           100caebc     uuid:cguid_i.obj
 0003:00004ed0       _IID_IEnumCallback         100caed0     uuid:cguid_i.obj
 0003:00004ee4       _IID_IOleManager           100caee4     uuid:cguid_i.obj
 0003:00004ef8       _IID_IOlePresObj           100caef8     uuid:cguid_i.obj
 0003:00004f0c       _IID_IDebug                100caf0c     uuid:cguid_i.obj
 0003:00004f20       _IID_IDebugStream          100caf20     uuid:cguid_i.obj
 0003:00004f34       _CLSID_PSGenObject         100caf34     uuid:cguid_i.obj
 0003:00004f48       _CLSID_PSClientSite        100caf48     uuid:cguid_i.obj
 0003:00004f5c       _CLSID_PSClassObject       100caf5c     uuid:cguid_i.obj
 0003:00004f70       _CLSID_PSInPlaceActive     100caf70     uuid:cguid_i.obj
 0003:00004f84       _CLSID_PSInPlaceFrame      100caf84     uuid:cguid_i.obj
 0003:00004f98       _CLSID_PSDragDrop          100caf98     uuid:cguid_i.obj
 0003:00004fac       _CLSID_PSBindCtx           100cafac     uuid:cguid_i.obj
 0003:00004fc0       _CLSID_PSEnumerators       100cafc0     uuid:cguid_i.obj
 0003:00004fd4       _CLSID_StaticMetafile      100cafd4     uuid:cguid_i.obj
 0003:00004fe8       _CLSID_StaticDib           100cafe8     uuid:cguid_i.obj
 0003:00004ffc       _CLSID_Picture_Metafile    100caffc     uuid:cguid_i.obj
 0003:00005010       _CLSID_Picture_EnhMetafile 100cb010     uuid:cguid_i.obj
 0003:00005024       _CLSID_Picture_Dib         100cb024     uuid:cguid_i.obj
 0003:00005038       _CLSID_DCOMAccessControl   100cb038     uuid:cguid_i.obj
 0003:0000504c       _CLSID_StdGlobalInterfaceTable 100cb04c     uuid:cguid_i.obj
 0003:00005060       _CLSID_ManualResetEvent    100cb060     uuid:cguid_i.obj
 0003:00005074       _CLSID_StdEvent            100cb074     uuid:cguid_i.obj
 0003:00005088       _CLSID_SynchronizeContainer 100cb088     uuid:cguid_i.obj
 0003:0000509c       _CLSID_ComBinding          100cb09c     uuid:cguid_i.obj
 0003:000050b0       _CLSID_StdAsyncActManager  100cb0b0     uuid:cguid_i.obj
 0003:000050c4       _CLSID_InProcFreeMarshaler 100cb0c4     uuid:cguid_i.obj
 0003:000050d8       _CLSID_RemoteUnknownPSFactory 100cb0d8     uuid:cguid_i.obj
 0003:000050ec       _IID_IRichEditOle          100cb0ec     uuid:cguid_i.obj
 0003:00005100       _IID_IRichEditOleCallback  100cb100     uuid:cguid_i.obj
 0003:00005114       _CLSID_AllClasses          100cb114     uuid:cguid_i.obj
 0003:00005128       _CLSID_LocalMachineClasses 100cb128     uuid:cguid_i.obj
 0003:0000513c       _CLSID_CurrentUserClasses  100cb13c     uuid:cguid_i.obj
 0003:00005150       _CLSID_AddrControl         100cb150     uuid:cguid_i.obj
 0003:00005164       _CLSID_GlobalOptions       100cb164     uuid:cguid_i.obj
 0003:00005178       _CLSID_SurrogateManager    100cb178     uuid:cguid_i.obj
 0003:0000518c       _CLSID_ContextSwitcher     100cb18c     uuid:cguid_i.obj
 0003:000051a0       _CLSID_ActivationStore     100cb1a0     uuid:cguid_i.obj
 0003:000051b4       _IID_IPropertyFrame        100cb1b4     uuid:cguid_i.obj
 0003:000051c8       _CLSID_CFontPropPage       100cb1c8     uuid:cguid_i.obj
 0003:000051dc       _CLSID_CColorPropPage      100cb1dc     uuid:cguid_i.obj
 0003:000051f0       _CLSID_CPicturePropPage    100cb1f0     uuid:cguid_i.obj
 0003:00005204       _CLSID_StockFontPage       100cb204     uuid:cguid_i.obj
 0003:00005218       _CLSID_StockColorPage      100cb218     uuid:cguid_i.obj
 0003:0000522c       _CLSID_StockPicturePage    100cb22c     uuid:cguid_i.obj
 0003:00005240       _CLSID_PersistPropset      100cb240     uuid:cguid_i.obj
 0003:00005254       _CLSID_ConvertVBX          100cb254     uuid:cguid_i.obj
 0003:00005268       _CLSID_StdFont             100cb268     uuid:cguid_i.obj
 0003:0000527c       _CLSID_StdPicture          100cb27c     uuid:cguid_i.obj
 0003:00005290       _GUID_HIMETRIC             100cb290     uuid:cguid_i.obj
 0003:000052a4       _GUID_COLOR                100cb2a4     uuid:cguid_i.obj
 0003:000052b8       _GUID_XPOSPIXEL            100cb2b8     uuid:cguid_i.obj
 0003:000052cc       _GUID_YPOSPIXEL            100cb2cc     uuid:cguid_i.obj
 0003:000052e0       _GUID_XSIZEPIXEL           100cb2e0     uuid:cguid_i.obj
 0003:000052f4       _GUID_YSIZEPIXEL           100cb2f4     uuid:cguid_i.obj
 0003:00005308       _GUID_XPOS                 100cb308     uuid:cguid_i.obj
 0003:0000531c       _GUID_YPOS                 100cb31c     uuid:cguid_i.obj
 0003:00005330       _GUID_XSIZE                100cb330     uuid:cguid_i.obj
 0003:00005344       _GUID_YSIZE                100cb344     uuid:cguid_i.obj
 0003:00005358       _GUID_TRISTATE             100cb358     uuid:cguid_i.obj
 0003:0000536c       _GUID_OPTIONVALUEEXCLUSIVE 100cb36c     uuid:cguid_i.obj
 0003:00005380       _GUID_CHECKVALUEEXCLUSIVE  100cb380     uuid:cguid_i.obj
 0003:00005394       _GUID_FONTNAME             100cb394     uuid:cguid_i.obj
 0003:000053a8       _GUID_FONTSIZE             100cb3a8     uuid:cguid_i.obj
 0003:000053bc       _GUID_FONTBOLD             100cb3bc     uuid:cguid_i.obj
 0003:000053d0       _GUID_FONTITALIC           100cb3d0     uuid:cguid_i.obj
 0003:000053e4       _GUID_FONTUNDERSCORE       100cb3e4     uuid:cguid_i.obj
 0003:000053f8       _GUID_FONTSTRIKETHROUGH    100cb3f8     uuid:cguid_i.obj
 0003:0000540c       _GUID_HANDLE               100cb40c     uuid:cguid_i.obj
 0003:00005420       _IID_StdOle                100cb420     uuid:cguid_i.obj
 0003:00005434       _IID_ICursor               100cb434     uuid:cguid_i.obj
 0003:00005448       _IID_ICursorMove           100cb448     uuid:cguid_i.obj
 0003:0000545c       _IID_ICursorScroll         100cb45c     uuid:cguid_i.obj
 0003:00005470       _IID_ICursorUpdateARow     100cb470     uuid:cguid_i.obj
 0003:00005484       _IID_INotifyDBEvents       100cb484     uuid:cguid_i.obj
 0003:00005498       _IID_ICursorFind           100cb498     uuid:cguid_i.obj
 0003:000054ac       _IID_IEntryID              100cb4ac     uuid:cguid_i.obj
 0003:000054c0       __GUID_NAMEONLY            100cb4c0     uuid:cguid_i.obj
 0003:000054d4       __DBBMKGUID                100cb4d4     uuid:cguid_i.obj
 0003:000054e8       __DBCIDGUID                100cb4e8     uuid:cguid_i.obj
 0003:000054fc       _IID_IBoundObject          100cb4fc     uuid:cguid_i.obj
 0003:00005510       _IID_IBoundObjectSite      100cb510     uuid:cguid_i.obj
 0003:00005524       _CLSID_GblComponentCategoriesMgr 100cb524     uuid:cguid_i.obj
 0003:00005538       _CLSID_ThumbnailFCNHandler 100cb538     uuid:cguid_i.obj
 0003:0000554c       _CLSID_ThumbnailUpdater    100cb54c     uuid:cguid_i.obj
 0003:00005560       _IID_ICallbackWithNoReentrancyToApplicationSTA 100cb560     uuid:cguid_i.obj
 0003:00005574       _GUID_DEVCLASS_1394        100cb574     uuid:cguid_i.obj
 0003:00005588       _GUID_DEVCLASS_1394DEBUG   100cb588     uuid:cguid_i.obj
 0003:0000559c       _GUID_DEVCLASS_61883       100cb59c     uuid:cguid_i.obj
 0003:000055b0       _GUID_DEVCLASS_ADAPTER     100cb5b0     uuid:cguid_i.obj
 0003:000055c4       _GUID_DEVCLASS_APMSUPPORT  100cb5c4     uuid:cguid_i.obj
 0003:000055d8       _GUID_DEVCLASS_AVC         100cb5d8     uuid:cguid_i.obj
 0003:000055ec       _GUID_DEVCLASS_BATTERY     100cb5ec     uuid:cguid_i.obj
 0003:00005600       _GUID_DEVCLASS_BIOMETRIC   100cb600     uuid:cguid_i.obj
 0003:00005614       _GUID_DEVCLASS_BLUETOOTH   100cb614     uuid:cguid_i.obj
 0003:00005628       _GUID_DEVCLASS_CDROM       100cb628     uuid:cguid_i.obj
 0003:0000563c       _GUID_DEVCLASS_COMPUTER    100cb63c     uuid:cguid_i.obj
 0003:00005650       _GUID_DEVCLASS_DECODER     100cb650     uuid:cguid_i.obj
 0003:00005664       _GUID_DEVCLASS_DISKDRIVE   100cb664     uuid:cguid_i.obj
 0003:00005678       _GUID_DEVCLASS_DISPLAY     100cb678     uuid:cguid_i.obj
 0003:0000568c       _GUID_DEVCLASS_DOT4        100cb68c     uuid:cguid_i.obj
 0003:000056a0       _GUID_DEVCLASS_DOT4PRINT   100cb6a0     uuid:cguid_i.obj
 0003:000056b4       _GUID_DEVCLASS_ENUM1394    100cb6b4     uuid:cguid_i.obj
 0003:000056c8       _GUID_DEVCLASS_FDC         100cb6c8     uuid:cguid_i.obj
 0003:000056dc       _GUID_DEVCLASS_FLOPPYDISK  100cb6dc     uuid:cguid_i.obj
 0003:000056f0       _GUID_DEVCLASS_GPS         100cb6f0     uuid:cguid_i.obj
 0003:00005704       _GUID_DEVCLASS_HDC         100cb704     uuid:cguid_i.obj
 0003:00005718       _GUID_DEVCLASS_HIDCLASS    100cb718     uuid:cguid_i.obj
 0003:0000572c       _GUID_DEVCLASS_IMAGE       100cb72c     uuid:cguid_i.obj
 0003:00005740       _GUID_DEVCLASS_INFINIBAND  100cb740     uuid:cguid_i.obj
 0003:00005754       _GUID_DEVCLASS_INFRARED    100cb754     uuid:cguid_i.obj
 0003:00005768       _GUID_DEVCLASS_KEYBOARD    100cb768     uuid:cguid_i.obj
 0003:0000577c       _GUID_DEVCLASS_LEGACYDRIVER 100cb77c     uuid:cguid_i.obj
 0003:00005790       _GUID_DEVCLASS_MEDIA       100cb790     uuid:cguid_i.obj
 0003:000057a4       _GUID_DEVCLASS_MEDIUM_CHANGER 100cb7a4     uuid:cguid_i.obj
 0003:000057b8       _GUID_DEVCLASS_MEMORY      100cb7b8     uuid:cguid_i.obj
 0003:000057cc       _GUID_DEVCLASS_MODEM       100cb7cc     uuid:cguid_i.obj
 0003:000057e0       _GUID_DEVCLASS_MONITOR     100cb7e0     uuid:cguid_i.obj
 0003:000057f4       _GUID_DEVCLASS_MOUSE       100cb7f4     uuid:cguid_i.obj
 0003:00005808       _GUID_DEVCLASS_MTD         100cb808     uuid:cguid_i.obj
 0003:0000581c       _GUID_DEVCLASS_MULTIFUNCTION 100cb81c     uuid:cguid_i.obj
 0003:00005830       _GUID_DEVCLASS_MULTIPORTSERIAL 100cb830     uuid:cguid_i.obj
 0003:00005844       _GUID_DEVCLASS_NET         100cb844     uuid:cguid_i.obj
 0003:00005858       _GUID_DEVCLASS_NETCLIENT   100cb858     uuid:cguid_i.obj
 0003:0000586c       _GUID_DEVCLASS_NETSERVICE  100cb86c     uuid:cguid_i.obj
 0003:00005880       _GUID_DEVCLASS_NETTRANS    100cb880     uuid:cguid_i.obj
 0003:00005894       _GUID_DEVCLASS_NODRIVER    100cb894     uuid:cguid_i.obj
 0003:000058a8       _GUID_DEVCLASS_PCMCIA      100cb8a8     uuid:cguid_i.obj
 0003:000058bc       _GUID_DEVCLASS_PNPPRINTERS 100cb8bc     uuid:cguid_i.obj
 0003:000058d0       _GUID_DEVCLASS_PORTS       100cb8d0     uuid:cguid_i.obj
 0003:000058e4       _GUID_DEVCLASS_PRINTER     100cb8e4     uuid:cguid_i.obj
 0003:000058f8       _GUID_DEVCLASS_PRINTERUPGRADE 100cb8f8     uuid:cguid_i.obj
 0003:0000590c       _GUID_DEVCLASS_PROCESSOR   100cb90c     uuid:cguid_i.obj
 0003:00005920       _GUID_DEVCLASS_SBP2        100cb920     uuid:cguid_i.obj
 0003:00005934       _GUID_DEVCLASS_SCSIADAPTER 100cb934     uuid:cguid_i.obj
 0003:00005948       _GUID_DEVCLASS_SECURITYACCELERATOR 100cb948     uuid:cguid_i.obj
 0003:0000595c       _GUID_DEVCLASS_SENSOR      100cb95c     uuid:cguid_i.obj
 0003:00005970       _GUID_DEVCLASS_SIDESHOW    100cb970     uuid:cguid_i.obj
 0003:00005984       _GUID_DEVCLASS_SMARTCARDREADER 100cb984     uuid:cguid_i.obj
 0003:00005998       _GUID_DEVCLASS_SOUND       100cb998     uuid:cguid_i.obj
 0003:000059ac       _GUID_DEVCLASS_SYSTEM      100cb9ac     uuid:cguid_i.obj
 0003:000059c0       _GUID_DEVCLASS_TAPEDRIVE   100cb9c0     uuid:cguid_i.obj
 0003:000059d4       _GUID_DEVCLASS_UNKNOWN     100cb9d4     uuid:cguid_i.obj
 0003:000059e8       _GUID_DEVCLASS_USB         100cb9e8     uuid:cguid_i.obj
 0003:000059fc       _GUID_DEVCLASS_VOLUME      100cb9fc     uuid:cguid_i.obj
 0003:00005a10       _GUID_DEVCLASS_VOLUMESNAPSHOT 100cba10     uuid:cguid_i.obj
 0003:00005a24       _GUID_DEVCLASS_WCEUSBS     100cba24     uuid:cguid_i.obj
 0003:00005a38       _GUID_DEVCLASS_WPD         100cba38     uuid:cguid_i.obj
 0003:00005a4c       _GUID_DEVCLASS_EHSTORAGESILO 100cba4c     uuid:cguid_i.obj
 0003:00005a60       _GUID_DEVCLASS_FIRMWARE    100cba60     uuid:cguid_i.obj
 0003:00005a74       _GUID_DEVCLASS_EXTENSION   100cba74     uuid:cguid_i.obj
 0003:00005a88       _GUID_DEVCLASS_FSFILTER_TOP 100cba88     uuid:cguid_i.obj
 0003:00005a9c       _GUID_DEVCLASS_FSFILTER_ACTIVITYMONITOR 100cba9c     uuid:cguid_i.obj
 0003:00005ab0       _GUID_DEVCLASS_FSFILTER_UNDELETE 100cbab0     uuid:cguid_i.obj
 0003:00005ac4       _GUID_DEVCLASS_FSFILTER_ANTIVIRUS 100cbac4     uuid:cguid_i.obj
 0003:00005ad8       _GUID_DEVCLASS_FSFILTER_REPLICATION 100cbad8     uuid:cguid_i.obj
 0003:00005aec       _GUID_DEVCLASS_FSFILTER_CONTINUOUSBACKUP 100cbaec     uuid:cguid_i.obj
 0003:00005b00       _GUID_DEVCLASS_FSFILTER_CONTENTSCREENER 100cbb00     uuid:cguid_i.obj
 0003:00005b14       _GUID_DEVCLASS_FSFILTER_QUOTAMANAGEMENT 100cbb14     uuid:cguid_i.obj
 0003:00005b28       _GUID_DEVCLASS_FSFILTER_SYSTEMRECOVERY 100cbb28     uuid:cguid_i.obj
 0003:00005b3c       _GUID_DEVCLASS_FSFILTER_CFSMETADATASERVER 100cbb3c     uuid:cguid_i.obj
 0003:00005b50       _GUID_DEVCLASS_FSFILTER_HSM 100cbb50     uuid:cguid_i.obj
 0003:00005b64       _GUID_DEVCLASS_FSFILTER_COMPRESSION 100cbb64     uuid:cguid_i.obj
 0003:00005b78       _GUID_DEVCLASS_FSFILTER_ENCRYPTION 100cbb78     uuid:cguid_i.obj
 0003:00005b8c       _GUID_DEVCLASS_FSFILTER_VIRTUALIZATION 100cbb8c     uuid:cguid_i.obj
 0003:00005ba0       _GUID_DEVCLASS_FSFILTER_PHYSICALQUOTAMANAGEMENT 100cbba0     uuid:cguid_i.obj
 0003:00005bb4       _GUID_DEVCLASS_FSFILTER_OPENFILEBACKUP 100cbbb4     uuid:cguid_i.obj
 0003:00005bc8       _GUID_DEVCLASS_FSFILTER_SECURITYENHANCER 100cbbc8     uuid:cguid_i.obj
 0003:00005bdc       _GUID_DEVCLASS_FSFILTER_COPYPROTECTION 100cbbdc     uuid:cguid_i.obj
 0003:00005bf0       _GUID_DEVCLASS_FSFILTER_BOTTOM 100cbbf0     uuid:cguid_i.obj
 0003:00005c04       _GUID_DEVCLASS_FSFILTER_SYSTEM 100cbc04     uuid:cguid_i.obj
 0003:00005c18       _GUID_DEVCLASS_FSFILTER_INFRASTRUCTURE 100cbc18     uuid:cguid_i.obj
 0003:00005c2c       _GUID_DEVINTERFACE_DISK    100cbc2c     uuid:cguid_i.obj
 0003:00005c40       _GUID_DEVINTERFACE_CDROM   100cbc40     uuid:cguid_i.obj
 0003:00005c54       _GUID_DEVINTERFACE_PARTITION 100cbc54     uuid:cguid_i.obj
 0003:00005c68       _GUID_DEVINTERFACE_TAPE    100cbc68     uuid:cguid_i.obj
 0003:00005c7c       _GUID_DEVINTERFACE_WRITEONCEDISK 100cbc7c     uuid:cguid_i.obj
 0003:00005c90       _GUID_DEVINTERFACE_VOLUME  100cbc90     uuid:cguid_i.obj
 0003:00005ca4       _GUID_DEVINTERFACE_MEDIUMCHANGER 100cbca4     uuid:cguid_i.obj
 0003:00005cb8       _GUID_DEVINTERFACE_FLOPPY  100cbcb8     uuid:cguid_i.obj
 0003:00005ccc       _GUID_DEVINTERFACE_CDCHANGER 100cbccc     uuid:cguid_i.obj
 0003:00005ce0       _GUID_DEVINTERFACE_STORAGEPORT 100cbce0     uuid:cguid_i.obj
 0003:00005cf4       _GUID_DEVINTERFACE_VMLUN   100cbcf4     uuid:cguid_i.obj
 0003:00005d08       _GUID_DEVINTERFACE_SES     100cbd08     uuid:cguid_i.obj
 0003:00005d1c       _GUID_DEVINTERFACE_HIDDEN_VOLUME 100cbd1c     uuid:cguid_i.obj
 0003:00005d30       _GUID_DEVINTERFACE_COMPORT 100cbd30     uuid:cguid_i.obj
 0003:00005d44       _GUID_DEVINTERFACE_SERENUM_BUS_ENUMERATOR 100cbd44     uuid:cguid_i.obj
 0003:00005d58       _IID_IContextCallback      100cbd58     uuid:ctxtcall_i.obj
 0003:00005d70       ??_C@_1MC@KPMPFEII@?$AA?$CI?$AA_?$AA_?$AAo?$AAn?$AAe?$AAx?$AAi?$AAt?$AAb?$AAe?$AAg?$AAi?$AAn?$AA?5?$AA?$CB?$AA?$DN?$AA?5?$AAN?$AAU?$AAL?$AAL?$AA?5?$AA?$CG?$AA?$CG?$AA?5?$AA_?$AA_?$AAo?$AAn?$AAe?$AAx@ 100cbd70     MSVCRTD:atonexit.obj
 0003:00005e58       ??_C@_1FK@IGIDCAPD@?$AAf?$AA?3?$AA?2?$AAd?$AAd?$AA?2?$AAv?$AAc?$AAt?$AAo?$AAo?$AAl?$AAs?$AA?2?$AAc?$AAr?$AAt?$AA?2?$AAc?$AAr?$AAt?$AAw?$AA3?$AA2?$AA?2?$AAd?$AAl?$AAl?$AAs?$AAt?$AAu?$AAf@ 100cbe58     MSVCRTD:atonexit.obj
 0003:00005ec4       ??_C@_0CN@LMJJPMEG@f?3?2dd?2vctools?2crt?2crtw32?2dllstuf@ 100cbec4     MSVCRTD:atonexit.obj
 0003:00005f00       ??_7type_info@@6B@         100cbf00     MSVCRTD:ti_inst.obj
 0003:00005fac       __pDefaultRawDllMain       100cbfac     MSVCRTD:crtdll.obj
 0003:00005fac       __pRawDllMain              100cbfac     MSVCRTD:crtdll.obj
 0003:00005fb0       ??_C@_0CL@CCAGLLEM@f?3?2dd?2vctools?2crt?2crtw32?2dllstuf@ 100cbfb0     MSVCRTD:crtdll.obj
 0003:000060a0       ??_C@_0NN@NGPKDKPD@The?5value?5of?5ESP?5was?5not?5properl@ 100cc0a0     MSVCRTD:error.obj
 0003:000061b0       ??_C@_0BBN@GPMLNJCF@A?5cast?5to?5a?5smaller?5data?5type?5ha@ 100cc1b0     MSVCRTD:error.obj
 0003:00006308       ??_C@_0BN@FFOINMNJ@Stack?5memory?5was?5corrupted?6?$AN?$AA@ 100cc308     MSVCRTD:error.obj
 0003:0000632c       ??_C@_0DG@HKJMLLLP@A?5local?5variable?5was?5used?5before@ 100cc32c     MSVCRTD:error.obj
 0003:0000636c       ??_C@_0CM@NGINOKPC@Stack?5memory?5around?5_alloca?5was?5@ 100cc36c     MSVCRTD:error.obj
 0003:000063a0       ??_C@_0BO@GNIAFIKK@Unknown?5Runtime?5Check?5Error?6?$AN?$AA@ 100cc3a0     MSVCRTD:error.obj
 0003:000063c8       ??_C@_1GM@OLMCBDMB@?$AAR?$AAu?$AAn?$AAt?$AAi?$AAm?$AAe?$AA?5?$AAC?$AAh?$AAe?$AAc?$AAk?$AA?5?$AAE?$AAr?$AAr?$AAo?$AAr?$AA?4?$AA?6?$AA?$AN?$AA?5?$AAU?$AAn?$AAa?$AAb?$AAl?$AAe?$AA?5?$AAt?$AAo@ 100cc3c8     MSVCRTD:error.obj
 0003:00006450       ??_C@_1EA@NFKNIFJP@?$AAR?$AAu?$AAn?$AA?9?$AAT?$AAi?$AAm?$AAe?$AA?5?$AAC?$AAh?$AAe?$AAc?$AAk?$AA?5?$AAF?$AAa?$AAi?$AAl?$AAu?$AAr?$AAe?$AA?5?$AA?$CD?$AA?$CF?$AAd?$AA?5?$AA?9?$AA?5?$AA?$CF?$AAs?$AA?$AA@ 100cc450     MSVCRTD:error.obj
 0003:0000649c       ??_C@_0BB@PFFGGCJP@Unknown?5Filename?$AA@ 100cc49c     MSVCRTD:error.obj
 0003:000064b0       ??_C@_0BE@GNBOBNCK@Unknown?5Module?5Name?$AA@ 100cc4b0     MSVCRTD:error.obj
 0003:000064c8       ??_C@_0CA@IODNCDPG@Run?9Time?5Check?5Failure?5?$CD?$CFd?5?9?5?$CFs?$AA@ 100cc4c8     MSVCRTD:error.obj
 0003:000064f0       ??_C@_0CG@IAFNJNEE@Stack?5corrupted?5near?5unknown?5var@ 100cc4f0     MSVCRTD:error.obj
 0003:00006520       ??_C@_05MKKEDADM@?$CF?42X?5?$AA@ 100cc520     MSVCRTD:error.obj
 0003:00006528       ??_C@_0EJ@LJKNEOLN@Stack?5area?5around?5_alloca?5memory@ 100cc528     MSVCRTD:error.obj
 0003:00006580       ??_C@_08OMAHNMHJ@?6Data?3?5?$DM?$AA@ 100cc580     MSVCRTD:error.obj
 0003:0000658c       ??_C@_0CK@DKGBICFE@?6Allocation?5number?5within?5this?5f@ 100cc58c     MSVCRTD:error.obj
 0003:000065c0       ??_C@_07DFDJCKFN@?6Size?3?5?$AA@ 100cc5c0     MSVCRTD:error.obj
 0003:000065cc       ??_C@_0N@MHFFIMFG@?6Address?3?50x?$AA@ 100cc5cc     MSVCRTD:error.obj
 0003:000065e0       ??_C@_0EI@CLEPFNGI@Stack?5area?5around?5_alloca?5memory@ 100cc5e0     MSVCRTD:error.obj
 0003:00006638       ??_C@_0BC@KIBAILCI@?$CFs?$CFs?$CFp?$CFs?$CFld?$CFs?$CFd?$CFs?$AA@ 100cc638     MSVCRTD:error.obj
 0003:00006650       ??_C@_01EEMJAFIK@?6?$AA@   100cc650     MSVCRTD:error.obj
 0003:00006654       ??_C@_02LLMPMKNF@?$DO?5?$AA@ 100cc654     MSVCRTD:error.obj
 0003:00006658       ??_C@_08KJEDNCKC@?$CFs?$CFs?$CFs?$CFs?$AA@ 100cc658     MSVCRTD:error.obj
 0003:00006664       ??_C@_0DE@OHJBPMBP@A?5variable?5is?5being?5used?5without@ 100cc664     MSVCRTD:error.obj
 0003:000066c8       ??_C@_0BJ@HEGAHDFO@Stack?5pointer?5corruption?$AA@ 100cc6c8     MSVCRTD:userapi.obj
 0003:000066e8       ??_C@_0CK@FEGOIOPB@Cast?5to?5smaller?5type?5causing?5los@ 100cc6e8     MSVCRTD:userapi.obj
 0003:0000671c       ??_C@_0BI@CIGMDCBH@Stack?5memory?5corruption?$AA@ 100cc71c     MSVCRTD:userapi.obj
 0003:00006738       ??_C@_0CK@CNLNOEPB@Local?5variable?5used?5before?5initi@ 100cc738     MSVCRTD:userapi.obj
 0003:0000676c       ??_C@_0BP@OGBCLIBO@Stack?5around?5_alloca?5corrupted?$AA@ 100cc76c     MSVCRTD:userapi.obj
 0003:00006794       ?ProcessDetach@NativeDll@<CrtImplementationDetails>@@0IB 100cc794     MSVCRTD:initsect.obj
 0003:00006798       ?ProcessAttach@NativeDll@<CrtImplementationDetails>@@0IB 100cc798     MSVCRTD:initsect.obj
 0003:0000679c       ?ThreadAttach@NativeDll@<CrtImplementationDetails>@@0IB 100cc79c     MSVCRTD:initsect.obj
 0003:000067a0       ?ThreadDetach@NativeDll@<CrtImplementationDetails>@@0IB 100cc7a0     MSVCRTD:initsect.obj
 0003:000067a4       ?ProcessVerifier@NativeDll@<CrtImplementationDetails>@@0IB 100cc7a4     MSVCRTD:initsect.obj
 0003:000067a8       ?LocalIdBitWidth@CrossScopeId@CodeViewInfo@@2IB 100cc7a8     MSVCRTD:pdblkup.obj
 0003:000067ac       ?IdScopeBitWidth@CrossScopeId@CodeViewInfo@@2IB 100cc7ac     MSVCRTD:pdblkup.obj
 0003:000067b0       ?StartCrossScopeId@CrossScopeId@CodeViewInfo@@2IB 100cc7b0     MSVCRTD:pdblkup.obj
 0003:000067b4       ?LocalIdMask@CrossScopeId@CodeViewInfo@@2IB 100cc7b4     MSVCRTD:pdblkup.obj
 0003:000067b8       ?ScopeIdMask@CrossScopeId@CodeViewInfo@@2IB 100cc7b8     MSVCRTD:pdblkup.obj
 0003:000067bc       ?MaxLocalId@CrossScopeId@CodeViewInfo@@2IB 100cc7bc     MSVCRTD:pdblkup.obj
 0003:000067c0       ?MaxScopeId@CrossScopeId@CodeViewInfo@@2IB 100cc7c0     MSVCRTD:pdblkup.obj
 0003:00006810       ??_C@_1EI@MLPKHBGE@?$AAa?$AAp?$AAi?$AA?9?$AAm?$AAs?$AA?9?$AAw?$AAi?$AAn?$AA?9?$AAc?$AAo?$AAr?$AAe?$AA?9?$AAr?$AAe?$AAg?$AAi?$AAs?$AAt?$AAr?$AAy?$AA?9?$AAl?$AA1?$AA?9?$AA1?$AA?9?$AA0?$AA?4@ 100cc810     MSVCRTD:pdblkup.obj
 0003:00006868       ??_C@_0O@COHOBMLB@RegOpenKeyExW?$AA@ 100cc868     MSVCRTD:pdblkup.obj
 0003:00006878       ??_C@_0BB@GLNAEDBD@RegQueryValueExW?$AA@ 100cc878     MSVCRTD:pdblkup.obj
 0003:0000688c       ??_C@_0M@HLOHPNFA@RegCloseKey?$AA@ 100cc88c     MSVCRTD:pdblkup.obj
 0003:000068a0       ??_C@_1FM@EGIBBNPP@?$AAS?$AAO?$AAF?$AAT?$AAW?$AAA?$AAR?$AAE?$AA?2?$AAM?$AAi?$AAc?$AAr?$AAo?$AAs?$AAo?$AAf?$AAt?$AA?2?$AAV?$AAi?$AAs?$AAu?$AAa?$AAl?$AAS?$AAt?$AAu?$AAd?$AAi?$AAo?$AA?2@ 100cc8a0     MSVCRTD:pdblkup.obj
 0003:00006910       ??_C@_1BG@EABPBLLF@?$AAP?$AAr?$AAo?$AAd?$AAu?$AAc?$AAt?$AAD?$AAi?$AAr?$AA?$AA@ 100cc910     MSVCRTD:pdblkup.obj
 0003:00006950       ??_C@_1BC@EOIMGOME@?$AAM?$AAS?$AAP?$AAD?$AAB?$AA1?$AA2?$AA0?$AA?$AA@ 100cc950     MSVCRTD:pdblkup.obj
 0003:00006968       ??_C@_0BB@KCIACLNC@PDBOpenValidate5?$AA@ 100cc968     MSVCRTD:pdblkup.obj
 0003:0000697c       ??_C@_01KDCPPGHE@r?$AA@    100cc97c     MSVCRTD:pdblkup.obj
 0003:00006980       __load_config_used         100cc980     MSVCRTD:loadcfg.obj
 0003:00006dc8       ??_R4error_category@std@@6B@ 100ccdc8     pch.obj
 0003:00006de0       ??_R3error_category@std@@8 100ccde0     pch.obj
 0003:00006df4       ??_R2error_category@std@@8 100ccdf4     pch.obj
 0003:00006dfc       ??_R1A@?0A@EA@error_category@std@@8 100ccdfc     pch.obj
 0003:00006e20       ??_R4_Generic_error_category@std@@6B@ 100cce20     pch.obj
 0003:00006e38       ??_R3_Generic_error_category@std@@8 100cce38     pch.obj
 0003:00006e4c       ??_R2_Generic_error_category@std@@8 100cce4c     pch.obj
 0003:00006e58       ??_R1A@?0A@EA@_Generic_error_category@std@@8 100cce58     pch.obj
 0003:00006e7c       ??_R4_Iostream_error_category@std@@6B@ 100cce7c     pch.obj
 0003:00006e94       ??_R3_Iostream_error_category@std@@8 100cce94     pch.obj
 0003:00006ea8       ??_R2_Iostream_error_category@std@@8 100ccea8     pch.obj
 0003:00006eb8       ??_R1A@?0A@EA@_Iostream_error_category@std@@8 100cceb8     pch.obj
 0003:00006edc       ??_R4_System_error_category@std@@6B@ 100ccedc     pch.obj
 0003:00006ef4       ??_R3_System_error_category@std@@8 100ccef4     pch.obj
 0003:00006f08       ??_R2_System_error_category@std@@8 100ccf08     pch.obj
 0003:00006f18       ??_R1A@?0A@EA@_System_error_category@std@@8 100ccf18     pch.obj
 0003:00006f3c       ??_R1A@?0A@EA@__abi_IUnknown@@8 100ccf3c     SQLiteWinRTExtensions.obj
 0003:00006f60       ??_R3__abi_IUnknown@@8     100ccf60     SQLiteWinRTExtensions.obj
 0003:00006f74       ??_R2__abi_IUnknown@@8     100ccf74     SQLiteWinRTExtensions.obj
 0003:00006f7c       ??_R13?0A@EA@Object@Platform@@8 100ccf7c     SQLiteWinRTExtensions.obj
 0003:00006fa0       ??_R3Object@Platform@@8    100ccfa0     SQLiteWinRTExtensions.obj
 0003:00006fb4       ??_R2Object@Platform@@8    100ccfb4     SQLiteWinRTExtensions.obj
 0003:00006fbc       ??_R1A@?0A@EA@Object@Platform@@8 100ccfbc     SQLiteWinRTExtensions.obj
 0003:00006fe0       ??_R13?0A@EC@Object@Platform@@8 100ccfe0     SQLiteWinRTExtensions.obj
 0003:00007004       ??_R17?0A@EC@Object@Platform@@8 100cd004     SQLiteWinRTExtensions.obj
 0003:00007028       ??_R1A@?0A@EC@Object@Platform@@8 100cd028     SQLiteWinRTExtensions.obj
 0003:0000704c       ??_R17?0A@EA@IWeakReferenceSource@Details@Platform@@8 100cd04c     SQLiteWinRTExtensions.obj
 0003:00007070       ??_R3IWeakReferenceSource@Details@Platform@@8 100cd070     SQLiteWinRTExtensions.obj
 0003:00007084       ??_R2IWeakReferenceSource@Details@Platform@@8 100cd084     SQLiteWinRTExtensions.obj
 0003:00007094       ??_R1A@?0A@EA@IWeakReferenceSource@Details@Platform@@8 100cd094     SQLiteWinRTExtensions.obj
 0003:000070b8       ??_R17?0A@EA@__abi_IUnknown@@8 100cd0b8     SQLiteWinRTExtensions.obj
 0003:000070dc       ??_R1M@?0A@EC@Object@Platform@@8 100cd0dc     SQLiteWinRTExtensions.obj
 0003:00007100       ??_R4WinRTVFS@SQLiteWinRTExtensions@@6B__IWinRTVFSPublicNonVirtuals@1@@ 100cd100     SQLiteWinRTExtensions.obj
 0003:00007118       ??_R3WinRTVFS@SQLiteWinRTExtensions@@8 100cd118     SQLiteWinRTExtensions.obj
 0003:0000712c       ??_R2WinRTVFS@SQLiteWinRTExtensions@@8 100cd12c     SQLiteWinRTExtensions.obj
 0003:00007150       ??_R1A@?0A@EA@WinRTVFS@SQLiteWinRTExtensions@@8 100cd150     SQLiteWinRTExtensions.obj
 0003:00007174       ??_R1A@?0A@EA@__IWinRTVFSPublicNonVirtuals@SQLiteWinRTExtensions@@8 100cd174     SQLiteWinRTExtensions.obj
 0003:00007198       ??_R3__IWinRTVFSPublicNonVirtuals@SQLiteWinRTExtensions@@8 100cd198     SQLiteWinRTExtensions.obj
 0003:000071ac       ??_R2__IWinRTVFSPublicNonVirtuals@SQLiteWinRTExtensions@@8 100cd1ac     SQLiteWinRTExtensions.obj
 0003:000071b8       ??_R4WinRTVFS@SQLiteWinRTExtensions@@6BObject@Platform@@@ 100cd1b8     SQLiteWinRTExtensions.obj
 0003:000071d0       ??_R4WinRTVFS@SQLiteWinRTExtensions@@6B__abi_IUnknown@@@ 100cd1d0     SQLiteWinRTExtensions.obj
 0003:000071e8       ??_R4WinRTVFS@SQLiteWinRTExtensions@@6BObject@Platform@@IWeakReferenceSource@Details@3@@ 100cd1e8     SQLiteWinRTExtensions.obj
 0003:00007200       ??_R4__WinRTVFSActivationFactory@SQLiteWinRTExtensions@@6B__IWinRTVFSStatics@1@@ 100cd200     SQLiteWinRTExtensions.obj
 0003:00007218       ??_R3__WinRTVFSActivationFactory@SQLiteWinRTExtensions@@8 100cd218     SQLiteWinRTExtensions.obj
 0003:0000722c       ??_R2__WinRTVFSActivationFactory@SQLiteWinRTExtensions@@8 100cd22c     SQLiteWinRTExtensions.obj
 0003:0000724c       ??_R1A@?0A@EA@__WinRTVFSActivationFactory@SQLiteWinRTExtensions@@8 100cd24c     SQLiteWinRTExtensions.obj
 0003:00007270       ??_R1A@?0A@EA@__IWinRTVFSStatics@SQLiteWinRTExtensions@@8 100cd270     SQLiteWinRTExtensions.obj
 0003:00007294       ??_R3__IWinRTVFSStatics@SQLiteWinRTExtensions@@8 100cd294     SQLiteWinRTExtensions.obj
 0003:000072a8       ??_R2__IWinRTVFSStatics@SQLiteWinRTExtensions@@8 100cd2a8     SQLiteWinRTExtensions.obj
 0003:000072b4       ??_R17?0A@EA@IActivationFactory@Details@Platform@@8 100cd2b4     SQLiteWinRTExtensions.obj
 0003:000072d8       ??_R3IActivationFactory@Details@Platform@@8 100cd2d8     SQLiteWinRTExtensions.obj
 0003:000072ec       ??_R2IActivationFactory@Details@Platform@@8 100cd2ec     SQLiteWinRTExtensions.obj
 0003:000072f8       ??_R1A@?0A@EA@IActivationFactory@Details@Platform@@8 100cd2f8     SQLiteWinRTExtensions.obj
 0003:0000731c       ??_R4__WinRTVFSActivationFactory@SQLiteWinRTExtensions@@6BObject@Platform@@@ 100cd31c     SQLiteWinRTExtensions.obj
 0003:00007334       ??_R4__WinRTVFSActivationFactory@SQLiteWinRTExtensions@@6BIActivationFactory@Details@Platform@@@ 100cd334     SQLiteWinRTExtensions.obj
 0003:0000734c       ??_R4AsyncActionCompletedHandler@Foundation@Windows@@6B__abi_IUnknown@@@ 100cd34c     WinRTVFS.obj
 0003:00007364       ??_R3AsyncActionCompletedHandler@Foundation@Windows@@8 100cd364     WinRTVFS.obj
 0003:00007378       ??_R2AsyncActionCompletedHandler@Foundation@Windows@@8 100cd378     WinRTVFS.obj
 0003:00007398       ??_R1A@?0A@EA@AsyncActionCompletedHandler@Foundation@Windows@@8 100cd398     WinRTVFS.obj
 0003:000073bc       ??_R1A@?0A@EA@__abi_IDelegate@AsyncActionCompletedHandler@Foundation@Windows@@8 100cd3bc     WinRTVFS.obj
 0003:000073e0       ??_R3__abi_IDelegate@AsyncActionCompletedHandler@Foundation@Windows@@8 100cd3e0     WinRTVFS.obj
 0003:000073f4       ??_R2__abi_IDelegate@AsyncActionCompletedHandler@Foundation@Windows@@8 100cd3f4     WinRTVFS.obj
 0003:00007404       ??_R17?0A@EA@Delegate@Platform@@8 100cd404     WinRTVFS.obj
 0003:00007428       ??_R3Delegate@Platform@@8  100cd428     WinRTVFS.obj
 0003:0000743c       ??_R2Delegate@Platform@@8  100cd43c     WinRTVFS.obj
 0003:00007448       ??_R1A@?0A@EA@Delegate@Platform@@8 100cd448     WinRTVFS.obj
 0003:0000746c       ??_R4AsyncActionCompletedHandler@Foundation@Windows@@6BObject@Platform@@@ 100cd46c     WinRTVFS.obj
 0003:00007484       ??_R4AsyncActionCompletedHandler@Foundation@Windows@@6B@ 100cd484     WinRTVFS.obj
 0003:0000749c       ??_R4__abi_CaptureBase@Details@Platform@@6B@ 100cd49c     WinRTVFS.obj
 0003:000074b4       ??_R3__abi_CaptureBase@Details@Platform@@8 100cd4b4     WinRTVFS.obj
 0003:000074c8       ??_R2__abi_CaptureBase@Details@Platform@@8 100cd4c8     WinRTVFS.obj
 0003:000074d0       ??_R1A@?0A@EA@__abi_CaptureBase@Details@Platform@@8 100cd4d0     WinRTVFS.obj
 0003:000074f4       ??_R1BA@?0A@EC@Object@Platform@@8 100cd4f4     WinRTVFS.obj
 0003:00007518       ??_R1A@?0A@EA@exception@std@@8 100cd518     WinRTVFS.obj
 0003:0000753c       ??_R3exception@std@@8      100cd53c     WinRTVFS.obj
 0003:00007550       ??_R2exception@std@@8      100cd550     WinRTVFS.obj
 0003:00007558       ??_R4bad_alloc@std@@6B@    100cd558     WinRTVFS.obj
 0003:00007570       ??_R3bad_alloc@std@@8      100cd570     WinRTVFS.obj
 0003:00007584       ??_R2bad_alloc@std@@8      100cd584     WinRTVFS.obj
 0003:00007590       ??_R1A@?0A@EA@bad_alloc@std@@8 100cd590     WinRTVFS.obj
 0003:000075b4       ??_R4logic_error@std@@6B@  100cd5b4     WinRTVFS.obj
 0003:000075cc       ??_R3logic_error@std@@8    100cd5cc     WinRTVFS.obj
 0003:000075e0       ??_R2logic_error@std@@8    100cd5e0     WinRTVFS.obj
 0003:000075ec       ??_R1A@?0A@EA@logic_error@std@@8 100cd5ec     WinRTVFS.obj
 0003:00007610       ??_R4invalid_argument@std@@6B@ 100cd610     WinRTVFS.obj
 0003:00007628       ??_R3invalid_argument@std@@8 100cd628     WinRTVFS.obj
 0003:0000763c       ??_R2invalid_argument@std@@8 100cd63c     WinRTVFS.obj
 0003:0000764c       ??_R1A@?0A@EA@invalid_argument@std@@8 100cd64c     WinRTVFS.obj
 0003:00007670       ??_R4runtime_error@std@@6B@ 100cd670     WinRTVFS.obj
 0003:00007688       ??_R3runtime_error@std@@8  100cd688     WinRTVFS.obj
 0003:0000769c       ??_R2runtime_error@std@@8  100cd69c     WinRTVFS.obj
 0003:000076a8       ??_R1A@?0A@EA@runtime_error@std@@8 100cd6a8     WinRTVFS.obj
 0003:000076cc       ??_R4bad_weak_ptr@std@@6B@ 100cd6cc     WinRTVFS.obj
 0003:000076e4       ??_R3bad_weak_ptr@std@@8   100cd6e4     WinRTVFS.obj
 0003:000076f8       ??_R2bad_weak_ptr@std@@8   100cd6f8     WinRTVFS.obj
 0003:00007704       ??_R1A@?0A@EA@bad_weak_ptr@std@@8 100cd704     WinRTVFS.obj
 0003:00007728       ??_R4_Ref_count_base@std@@6B@ 100cd728     WinRTVFS.obj
 0003:00007740       ??_R3_Ref_count_base@std@@8 100cd740     WinRTVFS.obj
 0003:00007754       ??_R2_Ref_count_base@std@@8 100cd754     WinRTVFS.obj
 0003:0000775c       ??_R1A@?0A@EA@_Ref_count_base@std@@8 100cd75c     WinRTVFS.obj
 0003:00007780       ??_R4_UnrealizedChore@details@Concurrency@@6B@ 100cd780     WinRTVFS.obj
 0003:00007798       ??_R3_UnrealizedChore@details@Concurrency@@8 100cd798     WinRTVFS.obj
 0003:000077ac       ??_R2_UnrealizedChore@details@Concurrency@@8 100cd7ac     WinRTVFS.obj
 0003:000077bc       ??_R1A@?0A@EA@_UnrealizedChore@details@Concurrency@@8 100cd7bc     WinRTVFS.obj
 0003:000077e0       ??_R1A@?0A@EA@_Chore@details@Concurrency@@8 100cd7e0     WinRTVFS.obj
 0003:00007804       ??_R3_Chore@details@Concurrency@@8 100cd804     WinRTVFS.obj
 0003:00007818       ??_R2_Chore@details@Concurrency@@8 100cd818     WinRTVFS.obj
 0003:00007820       ??_R17?0A@EA@_AllocBase@details@Concurrency@@8 100cd820     WinRTVFS.obj
 0003:00007844       ??_R3_AllocBase@details@Concurrency@@8 100cd844     WinRTVFS.obj
 0003:00007858       ??_R2_AllocBase@details@Concurrency@@8 100cd858     WinRTVFS.obj
 0003:00007860       ??_R1A@?0A@EA@_AllocBase@details@Concurrency@@8 100cd860     WinRTVFS.obj
 0003:00007884       ??_R4invalid_operation@Concurrency@@6B@ 100cd884     WinRTVFS.obj
 0003:0000789c       ??_R3invalid_operation@Concurrency@@8 100cd89c     WinRTVFS.obj
 0003:000078b0       ??_R2invalid_operation@Concurrency@@8 100cd8b0     WinRTVFS.obj
 0003:000078bc       ??_R1A@?0A@EA@invalid_operation@Concurrency@@8 100cd8bc     WinRTVFS.obj
 0003:000078e0       ??_R4task_canceled@Concurrency@@6B@ 100cd8e0     WinRTVFS.obj
 0003:000078f8       ??_R3task_canceled@Concurrency@@8 100cd8f8     WinRTVFS.obj
 0003:0000790c       ??_R2task_canceled@Concurrency@@8 100cd90c     WinRTVFS.obj
 0003:00007918       ??_R1A@?0A@EA@task_canceled@Concurrency@@8 100cd918     WinRTVFS.obj
 0003:0000793c       ??_R1A@?0A@EA@_RefCounter@details@Concurrency@@8 100cd93c     WinRTVFS.obj
 0003:00007960       ??_R3_RefCounter@details@Concurrency@@8 100cd960     WinRTVFS.obj
 0003:00007974       ??_R2_RefCounter@details@Concurrency@@8 100cd974     WinRTVFS.obj
 0003:0000797c       ??_R4_CancellationTokenRegistration@details@Concurrency@@6B@ 100cd97c     WinRTVFS.obj
 0003:00007994       ??_R3_CancellationTokenRegistration@details@Concurrency@@8 100cd994     WinRTVFS.obj
 0003:000079a8       ??_R2_CancellationTokenRegistration@details@Concurrency@@8 100cd9a8     WinRTVFS.obj
 0003:000079b4       ??_R1A@?0A@EA@_CancellationTokenRegistration@details@Concurrency@@8 100cd9b4     WinRTVFS.obj
 0003:000079d8       ??_R4_Chore@details@Concurrency@@6B@ 100cd9d8     WinRTVFS.obj
 0003:000079f0       ??_R4_RefCounter@details@Concurrency@@6B@ 100cd9f0     WinRTVFS.obj
 0003:00007a08       ??_R4_TaskProcHandle@details@Concurrency@@6B@ 100cda08     WinRTVFS.obj
 0003:00007a20       ??_R3_TaskProcHandle@details@Concurrency@@8 100cda20     WinRTVFS.obj
 0003:00007a34       ??_R2_TaskProcHandle@details@Concurrency@@8 100cda34     WinRTVFS.obj
 0003:00007a48       ??_R1A@?0A@EA@_TaskProcHandle@details@Concurrency@@8 100cda48     WinRTVFS.obj
 0003:00007a6c       ??_R4?$_Func_base@X$$$V@std@@6B@ 100cda6c     WinRTVFS.obj
 0003:00007a84       ??_R3?$_Func_base@X$$$V@std@@8 100cda84     WinRTVFS.obj
 0003:00007a98       ??_R2?$_Func_base@X$$$V@std@@8 100cda98     WinRTVFS.obj
 0003:00007aa0       ??_R1A@?0A@EA@?$_Func_base@X$$$V@std@@8 100cdaa0     WinRTVFS.obj
 0003:00007ac4       ??_R4_IAsyncActionToAsyncOperationConverter@details@Concurrency@@6B@ 100cdac4     WinRTVFS.obj
 0003:00007adc       ??_R3_IAsyncActionToAsyncOperationConverter@details@Concurrency@@8 100cdadc     WinRTVFS.obj
 0003:00007af0       ??_R2_IAsyncActionToAsyncOperationConverter@details@Concurrency@@8 100cdaf0     WinRTVFS.obj
 0003:00007b34       ??_R1A@?0A@EA@_IAsyncActionToAsyncOperationConverter@details@Concurrency@@8 100cdb34     WinRTVFS.obj
 0003:00007b58       ??_R1A@?0A@EA@__I_IAsyncActionToAsyncOperationConverterPublicNonVirtuals@details@Concurrency@@8 100cdb58     WinRTVFS.obj
 0003:00007b7c       ??_R3__I_IAsyncActionToAsyncOperationConverterPublicNonVirtuals@details@Concurrency@@8 100cdb7c     WinRTVFS.obj
 0003:00007b90       ??_R2__I_IAsyncActionToAsyncOperationConverterPublicNonVirtuals@details@Concurrency@@8 100cdb90     WinRTVFS.obj
 0003:00007b9c       ??_R13?0A@EA@?$_AsyncInfoImpl@P$AAUIAsyncAction@Foundation@Windows@@VAsyncActionCompletedHandler@23@E@details@Concurrency@@8 100cdb9c     WinRTVFS.obj
 0003:00007bc0       ??_R3?$_AsyncInfoImpl@P$AAUIAsyncAction@Foundation@Windows@@VAsyncActionCompletedHandler@23@E@details@Concurrency@@8 100cdbc0     WinRTVFS.obj
 0003:00007bd4       ??_R2?$_AsyncInfoImpl@P$AAUIAsyncAction@Foundation@Windows@@VAsyncActionCompletedHandler@23@E@details@Concurrency@@8 100cdbd4     WinRTVFS.obj
 0003:00007bfc       ??_R1A@?0A@EA@?$_AsyncInfoImpl@P$AAUIAsyncAction@Foundation@Windows@@VAsyncActionCompletedHandler@23@E@details@Concurrency@@8 100cdbfc     WinRTVFS.obj
 0003:00007c20       ??_R1A@?0A@EA@__I?$_AsyncInfoImpl@P$AAUIAsyncAction@Foundation@Windows@@VAsyncActionCompletedHandler@23@EPublicNonVirtuals@details@Concurrency@@8 100cdc20     WinRTVFS.obj
 0003:00007c44       ??_R3__I?$_AsyncInfoImpl@P$AAUIAsyncAction@Foundation@Windows@@VAsyncActionCompletedHandler@23@EPublicNonVirtuals@details@Concurrency@@8 100cdc44     WinRTVFS.obj
 0003:00007c58       ??_R2__I?$_AsyncInfoImpl@P$AAUIAsyncAction@Foundation@Windows@@VAsyncActionCompletedHandler@23@EPublicNonVirtuals@details@Concurrency@@8 100cdc58     WinRTVFS.obj
 0003:00007c64       ??_R13?0A@EA@?$IAsyncOperation@E@Foundation@Windows@@8 100cdc64     WinRTVFS.obj
 0003:00007c88       ??_R3?$IAsyncOperation@E@Foundation@Windows@@8 100cdc88     WinRTVFS.obj
 0003:00007c9c       ??_R2?$IAsyncOperation@E@Foundation@Windows@@8 100cdc9c     WinRTVFS.obj
 0003:00007cb0       ??_R1A@?0A@EA@?$IAsyncOperation@E@Foundation@Windows@@8 100cdcb0     WinRTVFS.obj
 0003:00007cd4       ??_R13?0A@EA@IAsyncInfo@Foundation@Windows@@8 100cdcd4     WinRTVFS.obj
 0003:00007cf8       ??_R3IAsyncInfo@Foundation@Windows@@8 100cdcf8     WinRTVFS.obj
 0003:00007d0c       ??_R2IAsyncInfo@Foundation@Windows@@8 100cdd0c     WinRTVFS.obj
 0003:00007d18       ??_R1A@?0A@EA@IAsyncInfo@Foundation@Windows@@8 100cdd18     WinRTVFS.obj
 0003:00007d3c       ??_R17?0A@EA@IAsyncInfo@Foundation@Windows@@8 100cdd3c     WinRTVFS.obj
 0003:00007d60       ??_R13?0A@EA@__I?$_AsyncInfoImpl@P$AAUIAsyncAction@Foundation@Windows@@VAsyncActionCompletedHandler@23@EPublicNonVirtuals@details@Concurrency@@8 100cdd60     WinRTVFS.obj
 0003:00007d84       ??_R17?0A@EA@?$IAsyncOperation@E@Foundation@Windows@@8 100cdd84     WinRTVFS.obj
 0003:00007da8       ??_R1M@?0A@EA@IAsyncInfo@Foundation@Windows@@8 100cdda8     WinRTVFS.obj
 0003:00007dcc       ??_R1CM@?0A@EA@IWeakReferenceSource@Details@Platform@@8 100cddcc     WinRTVFS.obj
 0003:00007df0       ??_R1CM@?0A@EA@__abi_IUnknown@@8 100cddf0     WinRTVFS.obj
 0003:00007e14       ??_R1DA@?0A@EC@Object@Platform@@8 100cde14     WinRTVFS.obj
 0003:00007e38       ??_R4_IAsyncActionToAsyncOperationConverter@details@Concurrency@@6B__I?$_AsyncInfoImpl@P$AAUIAsyncAction@Foundation@Windows@@VAsyncActionCompletedHandler@23@EPublicNonVirtuals@12@@ 100cde38     WinRTVFS.obj
 0003:00007e50       ??_R4_IAsyncActionToAsyncOperationConverter@details@Concurrency@@6BObject@Platform@@?$IAsyncOperation@E@Foundation@Windows@@@ 100cde50     WinRTVFS.obj
 0003:00007e68       ??_R4_IAsyncActionToAsyncOperationConverter@details@Concurrency@@6BIAsyncInfo@Foundation@Windows@@@ 100cde68     WinRTVFS.obj
 0003:00007e80       ??_R4_IAsyncActionToAsyncOperationConverter@details@Concurrency@@6BObject@Platform@@?$_AsyncInfoImpl@P$AAUIAsyncAction@Foundation@Windows@@VAsyncActionCompletedHandler@23@E@12@@ 100cde80     WinRTVFS.obj
 0003:00007e98       ??_R4_IAsyncActionToAsyncOperationConverter@details@Concurrency@@6B__abi_IUnknown@@@ 100cde98     WinRTVFS.obj
 0003:00007eb0       ??_R4_IAsyncActionToAsyncOperationConverter@details@Concurrency@@6BObject@Platform@@IWeakReferenceSource@Details@4@@ 100cdeb0     WinRTVFS.obj
 0003:00007ec8       ??_R4?$_AsyncInfoImpl@P$AAUIAsyncAction@Foundation@Windows@@VAsyncActionCompletedHandler@23@E@details@Concurrency@@6B__I?$_AsyncInfoImpl@P$AAUIAsyncAction@Foundation@Windows@@VAsyncActionCompletedHandler@23@EPublicNonVirtuals@12@@ 100cdec8     WinRTVFS.obj
 0003:00007ee0       ??_R4?$_AsyncInfoImpl@P$AAUIAsyncAction@Foundation@Windows@@VAsyncActionCompletedHandler@23@E@details@Concurrency@@6BObject@Platform@@?$IAsyncOperation@E@Foundation@Windows@@@ 100cdee0     WinRTVFS.obj
 0003:00007ef8       ??_R4?$_AsyncInfoImpl@P$AAUIAsyncAction@Foundation@Windows@@VAsyncActionCompletedHandler@23@E@details@Concurrency@@6BIAsyncInfo@Foundation@Windows@@@ 100cdef8     WinRTVFS.obj
 0003:00007f10       ??_R4?$_AsyncInfoImpl@P$AAUIAsyncAction@Foundation@Windows@@VAsyncActionCompletedHandler@23@E@details@Concurrency@@6BObject@Platform@@@ 100cdf10     WinRTVFS.obj
 0003:00007f28       ??_R4?$AsyncOperationCompletedHandler@E@Foundation@Windows@@6B__abi_IUnknown@@@ 100cdf28     WinRTVFS.obj
 0003:00007f40       ??_R3?$AsyncOperationCompletedHandler@E@Foundation@Windows@@8 100cdf40     WinRTVFS.obj
 0003:00007f54       ??_R2?$AsyncOperationCompletedHandler@E@Foundation@Windows@@8 100cdf54     WinRTVFS.obj
 0003:00007f74       ??_R1A@?0A@EA@?$AsyncOperationCompletedHandler@E@Foundation@Windows@@8 100cdf74     WinRTVFS.obj
 0003:00007f98       ??_R1A@?0A@EA@__abi_IDelegate@?$AsyncOperationCompletedHandler@E@Foundation@Windows@@8 100cdf98     WinRTVFS.obj
 0003:00007fbc       ??_R3__abi_IDelegate@?$AsyncOperationCompletedHandler@E@Foundation@Windows@@8 100cdfbc     WinRTVFS.obj
 0003:00007fd0       ??_R2__abi_IDelegate@?$AsyncOperationCompletedHandler@E@Foundation@Windows@@8 100cdfd0     WinRTVFS.obj
 0003:00007fe0       ??_R4?$AsyncOperationCompletedHandler@E@Foundation@Windows@@6BObject@Platform@@@ 100cdfe0     WinRTVFS.obj
 0003:00007ff8       ??_R4?$AsyncOperationCompletedHandler@E@Foundation@Windows@@6B@ 100cdff8     WinRTVFS.obj
 0003:00008010       ??_R4_Task_impl_base@details@Concurrency@@6B@ 100ce010     WinRTVFS.obj
 0003:00008028       ??_R3_Task_impl_base@details@Concurrency@@8 100ce028     WinRTVFS.obj
 0003:0000803c       ??_R2_Task_impl_base@details@Concurrency@@8 100ce03c     WinRTVFS.obj
 0003:00008044       ??_R1A@?0A@EA@_Task_impl_base@details@Concurrency@@8 100ce044     WinRTVFS.obj
 0003:00008068       ??_R4_ContinuationTaskHandleBase@details@Concurrency@@6B@ 100ce068     WinRTVFS.obj
 0003:00008080       ??_R3_ContinuationTaskHandleBase@details@Concurrency@@8 100ce080     WinRTVFS.obj
 0003:00008094       ??_R2_ContinuationTaskHandleBase@details@Concurrency@@8 100ce094     WinRTVFS.obj
 0003:000080b0       ??_R1A@?0A@EA@_ContinuationTaskHandleBase@details@Concurrency@@8 100ce0b0     WinRTVFS.obj
 0003:000080d4       ??_R4?$_CancellationTokenCallback@V<lambda_17cb9174022a2677ccd4c777403439ce>@@@details@Concurrency@@6B@ 100ce0d4     WinRTVFS.obj
 0003:000080ec       ??_R3?$_CancellationTokenCallback@V<lambda_17cb9174022a2677ccd4c777403439ce>@@@details@Concurrency@@8 100ce0ec     WinRTVFS.obj
 0003:00008100       ??_R2?$_CancellationTokenCallback@V<lambda_17cb9174022a2677ccd4c777403439ce>@@@details@Concurrency@@8 100ce100     WinRTVFS.obj
 0003:00008110       ??_R1A@?0A@EA@?$_CancellationTokenCallback@V<lambda_17cb9174022a2677ccd4c777403439ce>@@@details@Concurrency@@8 100ce110     WinRTVFS.obj
 0003:00008134       ??_R4?$_Func_base@EE@std@@6B@ 100ce134     WinRTVFS.obj
 0003:0000814c       ??_R3?$_Func_base@EE@std@@8 100ce14c     WinRTVFS.obj
 0003:00008160       ??_R2?$_Func_base@EE@std@@8 100ce160     WinRTVFS.obj
 0003:00008168       ??_R1A@?0A@EA@?$_Func_base@EE@std@@8 100ce168     WinRTVFS.obj
 0003:0000818c       ??_R4?$_Task_impl@E@details@Concurrency@@6B@ 100ce18c     WinRTVFS.obj
 0003:000081a4       ??_R3?$_Task_impl@E@details@Concurrency@@8 100ce1a4     WinRTVFS.obj
 0003:000081b8       ??_R2?$_Task_impl@E@details@Concurrency@@8 100ce1b8     WinRTVFS.obj
 0003:000081c4       ??_R1A@?0A@EA@?$_Task_impl@E@details@Concurrency@@8 100ce1c4     WinRTVFS.obj
 0003:000081e8       ??_R4?$_Task_impl@_N@details@Concurrency@@6B@ 100ce1e8     WinRTVFS.obj
 0003:00008200       ??_R3?$_Task_impl@_N@details@Concurrency@@8 100ce200     WinRTVFS.obj
 0003:00008214       ??_R2?$_Task_impl@_N@details@Concurrency@@8 100ce214     WinRTVFS.obj
 0003:00008220       ??_R1A@?0A@EA@?$_Task_impl@_N@details@Concurrency@@8 100ce220     WinRTVFS.obj
 0003:00008244       ??_R4?$_Ref_count_obj@U_ExceptionHolder@details@Concurrency@@@std@@6B@ 100ce244     WinRTVFS.obj
 0003:0000825c       ??_R3?$_Ref_count_obj@U_ExceptionHolder@details@Concurrency@@@std@@8 100ce25c     WinRTVFS.obj
 0003:00008270       ??_R2?$_Ref_count_obj@U_ExceptionHolder@details@Concurrency@@@std@@8 100ce270     WinRTVFS.obj
 0003:0000827c       ??_R1A@?0A@EA@?$_Ref_count_obj@U_ExceptionHolder@details@Concurrency@@@std@@8 100ce27c     WinRTVFS.obj
 0003:000082a0       ??_R4?$__abi_FunctorCapture@V<lambda_06940b0a4178dd98f799c96a43aa5761>@@XP$AAUIAsyncAction@Foundation@Windows@@W4AsyncStatus@34@@Details@Platform@@6B@ 100ce2a0     WinRTVFS.obj
 0003:000082b8       ??_R3?$__abi_FunctorCapture@V<lambda_06940b0a4178dd98f799c96a43aa5761>@@XP$AAUIAsyncAction@Foundation@Windows@@W4AsyncStatus@34@@Details@Platform@@8 100ce2b8     WinRTVFS.obj
 0003:000082cc       ??_R2?$__abi_FunctorCapture@V<lambda_06940b0a4178dd98f799c96a43aa5761>@@XP$AAUIAsyncAction@Foundation@Windows@@W4AsyncStatus@34@@Details@Platform@@8 100ce2cc     WinRTVFS.obj
 0003:000082d8       ??_R1A@?0A@EA@?$__abi_FunctorCapture@V<lambda_06940b0a4178dd98f799c96a43aa5761>@@XP$AAUIAsyncAction@Foundation@Windows@@W4AsyncStatus@34@@Details@Platform@@8 100ce2d8     WinRTVFS.obj
 0003:000082fc       ??_R4?$_Ref_count_obj@U?$_Task_completion_event_impl@E@details@Concurrency@@@std@@6B@ 100ce2fc     WinRTVFS.obj
 0003:00008314       ??_R3?$_Ref_count_obj@U?$_Task_completion_event_impl@E@details@Concurrency@@@std@@8 100ce314     WinRTVFS.obj
 0003:00008328       ??_R2?$_Ref_count_obj@U?$_Task_completion_event_impl@E@details@Concurrency@@@std@@8 100ce328     WinRTVFS.obj
 0003:00008334       ??_R1A@?0A@EA@?$_Ref_count_obj@U?$_Task_completion_event_impl@E@details@Concurrency@@@std@@8 100ce334     WinRTVFS.obj
 0003:00008358       ??_R4?$_Ref_count_obj@U?$_Task_impl@E@details@Concurrency@@@std@@6B@ 100ce358     WinRTVFS.obj
 0003:00008370       ??_R3?$_Ref_count_obj@U?$_Task_impl@E@details@Concurrency@@@std@@8 100ce370     WinRTVFS.obj
 0003:00008384       ??_R2?$_Ref_count_obj@U?$_Task_impl@E@details@Concurrency@@@std@@8 100ce384     WinRTVFS.obj
 0003:00008390       ??_R1A@?0A@EA@?$_Ref_count_obj@U?$_Task_impl@E@details@Concurrency@@@std@@8 100ce390     WinRTVFS.obj
 0003:000083b4       ??_R4?$__abi_FunctorCapture@V<lambda_b5ec294d64b7ae7d96b9bd52c133d46d>@@XP$AAU?$IAsyncOperation@E@Foundation@Windows@@W4AsyncStatus@34@@Details@Platform@@6B@ 100ce3b4     WinRTVFS.obj
 0003:000083cc       ??_R3?$__abi_FunctorCapture@V<lambda_b5ec294d64b7ae7d96b9bd52c133d46d>@@XP$AAU?$IAsyncOperation@E@Foundation@Windows@@W4AsyncStatus@34@@Details@Platform@@8 100ce3cc     WinRTVFS.obj
 0003:000083e0       ??_R2?$__abi_FunctorCapture@V<lambda_b5ec294d64b7ae7d96b9bd52c133d46d>@@XP$AAU?$IAsyncOperation@E@Foundation@Windows@@W4AsyncStatus@34@@Details@Platform@@8 100ce3e0     WinRTVFS.obj
 0003:000083ec       ??_R1A@?0A@EA@?$__abi_FunctorCapture@V<lambda_b5ec294d64b7ae7d96b9bd52c133d46d>@@XP$AAU?$IAsyncOperation@E@Foundation@Windows@@W4AsyncStatus@34@@Details@Platform@@8 100ce3ec     WinRTVFS.obj
 0003:00008410       ??_R4?$_Func_impl@U?$_Callable_obj@V<lambda_095a938ce4c5765dcc6b67f548aeb9c7>@@$0A@@std@@V?$allocator@V?$_Func_class@X$$$V@std@@@2@X$$$V@std@@6B@ 100ce410     WinRTVFS.obj
 0003:00008428       ??_R3?$_Func_impl@U?$_Callable_obj@V<lambda_095a938ce4c5765dcc6b67f548aeb9c7>@@$0A@@std@@V?$allocator@V?$_Func_class@X$$$V@std@@@2@X$$$V@std@@8 100ce428     WinRTVFS.obj
 0003:0000843c       ??_R2?$_Func_impl@U?$_Callable_obj@V<lambda_095a938ce4c5765dcc6b67f548aeb9c7>@@$0A@@std@@V?$allocator@V?$_Func_class@X$$$V@std@@@2@X$$$V@std@@8 100ce43c     WinRTVFS.obj
 0003:00008448       ??_R1A@?0A@EA@?$_Func_impl@U?$_Callable_obj@V<lambda_095a938ce4c5765dcc6b67f548aeb9c7>@@$0A@@std@@V?$allocator@V?$_Func_class@X$$$V@std@@@2@X$$$V@std@@8 100ce448     WinRTVFS.obj
 0003:0000846c       ??_R4?$_Func_impl@U?$_Callable_obj@V<lambda_e7ef5f1e4e1eca0ae8efc6086cf9f417>@@$0A@@std@@V?$allocator@V?$_Func_class@X$$$V@std@@@2@X$$$V@std@@6B@ 100ce46c     WinRTVFS.obj
 0003:00008484       ??_R3?$_Func_impl@U?$_Callable_obj@V<lambda_e7ef5f1e4e1eca0ae8efc6086cf9f417>@@$0A@@std@@V?$allocator@V?$_Func_class@X$$$V@std@@@2@X$$$V@std@@8 100ce484     WinRTVFS.obj
 0003:00008498       ??_R2?$_Func_impl@U?$_Callable_obj@V<lambda_e7ef5f1e4e1eca0ae8efc6086cf9f417>@@$0A@@std@@V?$allocator@V?$_Func_class@X$$$V@std@@@2@X$$$V@std@@8 100ce498     WinRTVFS.obj
 0003:000084a4       ??_R1A@?0A@EA@?$_Func_impl@U?$_Callable_obj@V<lambda_e7ef5f1e4e1eca0ae8efc6086cf9f417>@@$0A@@std@@V?$allocator@V?$_Func_class@X$$$V@std@@@2@X$$$V@std@@8 100ce4a4     WinRTVFS.obj
 0003:000084c8       ??_R4?$_Func_impl@U?$_Callable_obj@V<lambda_39cde079c01d1b5b9307ff255a1ccdd9>@@$0A@@std@@V?$allocator@V?$_Func_class@EE@std@@@2@EE@std@@6B@ 100ce4c8     WinRTVFS.obj
 0003:000084e0       ??_R3?$_Func_impl@U?$_Callable_obj@V<lambda_39cde079c01d1b5b9307ff255a1ccdd9>@@$0A@@std@@V?$allocator@V?$_Func_class@EE@std@@@2@EE@std@@8 100ce4e0     WinRTVFS.obj
 0003:000084f4       ??_R2?$_Func_impl@U?$_Callable_obj@V<lambda_39cde079c01d1b5b9307ff255a1ccdd9>@@$0A@@std@@V?$allocator@V?$_Func_class@EE@std@@@2@EE@std@@8 100ce4f4     WinRTVFS.obj
 0003:00008500       ??_R1A@?0A@EA@?$_Func_impl@U?$_Callable_obj@V<lambda_39cde079c01d1b5b9307ff255a1ccdd9>@@$0A@@std@@V?$allocator@V?$_Func_class@EE@std@@@2@EE@std@@8 100ce500     WinRTVFS.obj
 0003:00008524       ??_R4?$_Func_impl@U?$_Callable_obj@V<lambda_02d862f9cfc639ff7c37ca52d43e6a8c>@@$0A@@std@@V?$allocator@V?$_Func_class@X$$$V@std@@@2@X$$$V@std@@6B@ 100ce524     WinRTVFS.obj
 0003:0000853c       ??_R3?$_Func_impl@U?$_Callable_obj@V<lambda_02d862f9cfc639ff7c37ca52d43e6a8c>@@$0A@@std@@V?$allocator@V?$_Func_class@X$$$V@std@@@2@X$$$V@std@@8 100ce53c     WinRTVFS.obj
 0003:00008550       ??_R2?$_Func_impl@U?$_Callable_obj@V<lambda_02d862f9cfc639ff7c37ca52d43e6a8c>@@$0A@@std@@V?$allocator@V?$_Func_class@X$$$V@std@@@2@X$$$V@std@@8 100ce550     WinRTVFS.obj
 0003:0000855c       ??_R1A@?0A@EA@?$_Func_impl@U?$_Callable_obj@V<lambda_02d862f9cfc639ff7c37ca52d43e6a8c>@@$0A@@std@@V?$allocator@V?$_Func_class@X$$$V@std@@@2@X$$$V@std@@8 100ce55c     WinRTVFS.obj
 0003:00008580       ??_R4?$_Ref_count_obj@U?$_Task_impl@_N@details@Concurrency@@@std@@6B@ 100ce580     WinRTVFS.obj
 0003:00008598       ??_R3?$_Ref_count_obj@U?$_Task_impl@_N@details@Concurrency@@@std@@8 100ce598     WinRTVFS.obj
 0003:000085ac       ??_R2?$_Ref_count_obj@U?$_Task_impl@_N@details@Concurrency@@@std@@8 100ce5ac     WinRTVFS.obj
 0003:000085b8       ??_R1A@?0A@EA@?$_Ref_count_obj@U?$_Task_impl@_N@details@Concurrency@@@std@@8 100ce5b8     WinRTVFS.obj
 0003:000085dc       ??_R4?$_Func_impl@U?$_Callable_obj@V<lambda_c1a554f2383dae03f169289aed8c4103>@@$0A@@std@@V?$allocator@V?$_Func_class@X$$$V@std@@@2@X$$$V@std@@6B@ 100ce5dc     WinRTVFS.obj
 0003:000085f4       ??_R3?$_Func_impl@U?$_Callable_obj@V<lambda_c1a554f2383dae03f169289aed8c4103>@@$0A@@std@@V?$allocator@V?$_Func_class@X$$$V@std@@@2@X$$$V@std@@8 100ce5f4     WinRTVFS.obj
 0003:00008608       ??_R2?$_Func_impl@U?$_Callable_obj@V<lambda_c1a554f2383dae03f169289aed8c4103>@@$0A@@std@@V?$allocator@V?$_Func_class@X$$$V@std@@@2@X$$$V@std@@8 100ce608     WinRTVFS.obj
 0003:00008614       ??_R1A@?0A@EA@?$_Func_impl@U?$_Callable_obj@V<lambda_c1a554f2383dae03f169289aed8c4103>@@$0A@@std@@V?$allocator@V?$_Func_class@X$$$V@std@@@2@X$$$V@std@@8 100ce614     WinRTVFS.obj
 0003:00008638       ??_R4bad_target@Concurrency@@6B@ 100ce638     WinRTVFS.obj
 0003:00008650       ??_R3bad_target@Concurrency@@8 100ce650     WinRTVFS.obj
 0003:00008664       ??_R2bad_target@Concurrency@@8 100ce664     WinRTVFS.obj
 0003:00008670       ??_R1A@?0A@EA@bad_target@Concurrency@@8 100ce670     WinRTVFS.obj
 0003:00008694       ??_R4message_not_found@Concurrency@@6B@ 100ce694     WinRTVFS.obj
 0003:000086ac       ??_R3message_not_found@Concurrency@@8 100ce6ac     WinRTVFS.obj
 0003:000086c0       ??_R2message_not_found@Concurrency@@8 100ce6c0     WinRTVFS.obj
 0003:000086cc       ??_R1A@?0A@EA@message_not_found@Concurrency@@8 100ce6cc     WinRTVFS.obj
 0003:000086f0       ??_R4invalid_link_target@Concurrency@@6B@ 100ce6f0     WinRTVFS.obj
 0003:00008708       ??_R3invalid_link_target@Concurrency@@8 100ce708     WinRTVFS.obj
 0003:0000871c       ??_R2invalid_link_target@Concurrency@@8 100ce71c     WinRTVFS.obj
 0003:00008728       ??_R1A@?0A@EA@invalid_link_target@Concurrency@@8 100ce728     WinRTVFS.obj
 0003:0000874c       ??_R4?$_Task_impl@I@details@Concurrency@@6B@ 100ce74c     WinRTVFS.obj
 0003:00008764       ??_R3?$_Task_impl@I@details@Concurrency@@8 100ce764     WinRTVFS.obj
 0003:00008778       ??_R2?$_Task_impl@I@details@Concurrency@@8 100ce778     WinRTVFS.obj
 0003:00008784       ??_R1A@?0A@EA@?$_Task_impl@I@details@Concurrency@@8 100ce784     WinRTVFS.obj
 0003:000087a8       ??_R4?$AsyncOperationCompletedHandler@_N@Foundation@Windows@@6B__abi_IUnknown@@@ 100ce7a8     WinRTVFS.obj
 0003:000087c0       ??_R3?$AsyncOperationCompletedHandler@_N@Foundation@Windows@@8 100ce7c0     WinRTVFS.obj
 0003:000087d4       ??_R2?$AsyncOperationCompletedHandler@_N@Foundation@Windows@@8 100ce7d4     WinRTVFS.obj
 0003:000087f4       ??_R1A@?0A@EA@?$AsyncOperationCompletedHandler@_N@Foundation@Windows@@8 100ce7f4     WinRTVFS.obj
 0003:00008818       ??_R1A@?0A@EA@__abi_IDelegate@?$AsyncOperationCompletedHandler@_N@Foundation@Windows@@8 100ce818     WinRTVFS.obj
 0003:0000883c       ??_R3__abi_IDelegate@?$AsyncOperationCompletedHandler@_N@Foundation@Windows@@8 100ce83c     WinRTVFS.obj
 0003:00008850       ??_R2__abi_IDelegate@?$AsyncOperationCompletedHandler@_N@Foundation@Windows@@8 100ce850     WinRTVFS.obj
 0003:00008860       ??_R4?$AsyncOperationCompletedHandler@_N@Foundation@Windows@@6BObject@Platform@@@ 100ce860     WinRTVFS.obj
 0003:00008878       ??_R4?$AsyncOperationCompletedHandler@_N@Foundation@Windows@@6B@ 100ce878     WinRTVFS.obj
 0003:00008890       ??_R1A@?0A@EA@_Runtime_object@details@Concurrency@@8 100ce890     WinRTVFS.obj
 0003:000088b4       ??_R3_Runtime_object@details@Concurrency@@8 100ce8b4     WinRTVFS.obj
 0003:000088c8       ??_R2_Runtime_object@details@Concurrency@@8 100ce8c8     WinRTVFS.obj
 0003:000088d4       ??_R13?0A@EA@_AllocBase@details@Concurrency@@8 100ce8d4     WinRTVFS.obj
 0003:000088f8       ??_R1A@?0A@EA@_Concurrent_queue_base_v4@details@Concurrency@@8 100ce8f8     WinRTVFS.obj
 0003:0000891c       ??_R3_Concurrent_queue_base_v4@details@Concurrency@@8 100ce91c     WinRTVFS.obj
 0003:00008930       ??_R2_Concurrent_queue_base_v4@details@Concurrency@@8 100ce930     WinRTVFS.obj
 0003:00008938       ??_R4?$AsyncOperationCompletedHandler@P$AAUIRandomAccessStream@Streams@Storage@Windows@@@Foundation@Windows@@6B__abi_IUnknown@@@ 100ce938     WinRTVFS.obj
 0003:00008950       ??_R3?$AsyncOperationCompletedHandler@P$AAUIRandomAccessStream@Streams@Storage@Windows@@@Foundation@Windows@@8 100ce950     WinRTVFS.obj
 0003:00008964       ??_R2?$AsyncOperationCompletedHandler@P$AAUIRandomAccessStream@Streams@Storage@Windows@@@Foundation@Windows@@8 100ce964     WinRTVFS.obj
 0003:00008984       ??_R1A@?0A@EA@?$AsyncOperationCompletedHandler@P$AAUIRandomAccessStream@Streams@Storage@Windows@@@Foundation@Windows@@8 100ce984     WinRTVFS.obj
 0003:000089a8       ??_R1A@?0A@EA@__abi_IDelegate@?$AsyncOperationCompletedHandler@P$AAUIRandomAccessStream@Streams@Storage@Windows@@@Foundation@Windows@@8 100ce9a8     WinRTVFS.obj
 0003:000089cc       ??_R3__abi_IDelegate@?$AsyncOperationCompletedHandler@P$AAUIRandomAccessStream@Streams@Storage@Windows@@@Foundation@Windows@@8 100ce9cc     WinRTVFS.obj
 0003:000089e0       ??_R2__abi_IDelegate@?$AsyncOperationCompletedHandler@P$AAUIRandomAccessStream@Streams@Storage@Windows@@@Foundation@Windows@@8 100ce9e0     WinRTVFS.obj
 0003:000089f0       ??_R4?$AsyncOperationCompletedHandler@P$AAUIRandomAccessStream@Streams@Storage@Windows@@@Foundation@Windows@@6BObject@Platform@@@ 100ce9f0     WinRTVFS.obj
 0003:00008a08       ??_R4?$AsyncOperationCompletedHandler@P$AAUIRandomAccessStream@Streams@Storage@Windows@@@Foundation@Windows@@6B@ 100cea08     WinRTVFS.obj
 0003:00008a20       ??_R4?$_Task_impl@P$AAUIRandomAccessStream@Streams@Storage@Windows@@@details@Concurrency@@6B@ 100cea20     WinRTVFS.obj
 0003:00008a38       ??_R3?$_Task_impl@P$AAUIRandomAccessStream@Streams@Storage@Windows@@@details@Concurrency@@8 100cea38     WinRTVFS.obj
 0003:00008a4c       ??_R2?$_Task_impl@P$AAUIRandomAccessStream@Streams@Storage@Windows@@@details@Concurrency@@8 100cea4c     WinRTVFS.obj
 0003:00008a58       ??_R1A@?0A@EA@?$_Task_impl@P$AAUIRandomAccessStream@Streams@Storage@Windows@@@details@Concurrency@@8 100cea58     WinRTVFS.obj
 0003:00008a7c       ??_R4?$AsyncOperationWithProgressCompletedHandler@P$AAUIBuffer@Streams@Storage@Windows@@I@Foundation@Windows@@6B__abi_IUnknown@@@ 100cea7c     WinRTVFS.obj
 0003:00008a94       ??_R3?$AsyncOperationWithProgressCompletedHandler@P$AAUIBuffer@Streams@Storage@Windows@@I@Foundation@Windows@@8 100cea94     WinRTVFS.obj
 0003:00008aa8       ??_R2?$AsyncOperationWithProgressCompletedHandler@P$AAUIBuffer@Streams@Storage@Windows@@I@Foundation@Windows@@8 100ceaa8     WinRTVFS.obj
 0003:00008ac8       ??_R1A@?0A@EA@?$AsyncOperationWithProgressCompletedHandler@P$AAUIBuffer@Streams@Storage@Windows@@I@Foundation@Windows@@8 100ceac8     WinRTVFS.obj
 0003:00008aec       ??_R1A@?0A@EA@__abi_IDelegate@?$AsyncOperationWithProgressCompletedHandler@P$AAUIBuffer@Streams@Storage@Windows@@I@Foundation@Windows@@8 100ceaec     WinRTVFS.obj
 0003:00008b10       ??_R3__abi_IDelegate@?$AsyncOperationWithProgressCompletedHandler@P$AAUIBuffer@Streams@Storage@Windows@@I@Foundation@Windows@@8 100ceb10     WinRTVFS.obj
 0003:00008b24       ??_R2__abi_IDelegate@?$AsyncOperationWithProgressCompletedHandler@P$AAUIBuffer@Streams@Storage@Windows@@I@Foundation@Windows@@8 100ceb24     WinRTVFS.obj
 0003:00008b34       ??_R4?$AsyncOperationWithProgressCompletedHandler@P$AAUIBuffer@Streams@Storage@Windows@@I@Foundation@Windows@@6BObject@Platform@@@ 100ceb34     WinRTVFS.obj
 0003:00008b4c       ??_R4?$AsyncOperationWithProgressCompletedHandler@P$AAUIBuffer@Streams@Storage@Windows@@I@Foundation@Windows@@6B@ 100ceb4c     WinRTVFS.obj
 0003:00008b64       ??_R4?$_Task_impl@P$AAUIBuffer@Streams@Storage@Windows@@@details@Concurrency@@6B@ 100ceb64     WinRTVFS.obj
 0003:00008b7c       ??_R3?$_Task_impl@P$AAUIBuffer@Streams@Storage@Windows@@@details@Concurrency@@8 100ceb7c     WinRTVFS.obj
 0003:00008b90       ??_R2?$_Task_impl@P$AAUIBuffer@Streams@Storage@Windows@@@details@Concurrency@@8 100ceb90     WinRTVFS.obj
 0003:00008b9c       ??_R1A@?0A@EA@?$_Task_impl@P$AAUIBuffer@Streams@Storage@Windows@@@details@Concurrency@@8 100ceb9c     WinRTVFS.obj
 0003:00008bc0       ??_R4?$AsyncOperationWithProgressCompletedHandler@II@Foundation@Windows@@6B__abi_IUnknown@@@ 100cebc0     WinRTVFS.obj
 0003:00008bd8       ??_R3?$AsyncOperationWithProgressCompletedHandler@II@Foundation@Windows@@8 100cebd8     WinRTVFS.obj
 0003:00008bec       ??_R2?$AsyncOperationWithProgressCompletedHandler@II@Foundation@Windows@@8 100cebec     WinRTVFS.obj
 0003:00008c0c       ??_R1A@?0A@EA@?$AsyncOperationWithProgressCompletedHandler@II@Foundation@Windows@@8 100cec0c     WinRTVFS.obj
 0003:00008c30       ??_R1A@?0A@EA@__abi_IDelegate@?$AsyncOperationWithProgressCompletedHandler@II@Foundation@Windows@@8 100cec30     WinRTVFS.obj
 0003:00008c54       ??_R3__abi_IDelegate@?$AsyncOperationWithProgressCompletedHandler@II@Foundation@Windows@@8 100cec54     WinRTVFS.obj
 0003:00008c68       ??_R2__abi_IDelegate@?$AsyncOperationWithProgressCompletedHandler@II@Foundation@Windows@@8 100cec68     WinRTVFS.obj
 0003:00008c78       ??_R4?$AsyncOperationWithProgressCompletedHandler@II@Foundation@Windows@@6BObject@Platform@@@ 100cec78     WinRTVFS.obj
 0003:00008c90       ??_R4?$AsyncOperationWithProgressCompletedHandler@II@Foundation@Windows@@6B@ 100cec90     WinRTVFS.obj
 0003:00008ca8       ??_R4?$timer@H@Concurrency@@6B_Timer@details@1@@ 100ceca8     WinRTVFS.obj
 0003:00008cc0       ??_R3?$timer@H@Concurrency@@8 100cecc0     WinRTVFS.obj
 0003:00008cd4       ??_R2?$timer@H@Concurrency@@8 100cecd4     WinRTVFS.obj
 0003:00008ce8       ??_R1A@?0A@EA@?$timer@H@Concurrency@@8 100cece8     WinRTVFS.obj
 0003:00008d0c       ??_R1A@?0A@EA@_Timer@details@Concurrency@@8 100ced0c     WinRTVFS.obj
 0003:00008d30       ??_R3_Timer@details@Concurrency@@8 100ced30     WinRTVFS.obj
 0003:00008d44       ??_R2_Timer@details@Concurrency@@8 100ced44     WinRTVFS.obj
 0003:00008d4c       ??_R1BA@?0A@EA@?$source_block@V?$single_link_registry@V?$ITarget@H@Concurrency@@@Concurrency@@V?$ordered_message_processor@H@2@@Concurrency@@8 100ced4c     WinRTVFS.obj
 0003:00008d70       ??_R3?$source_block@V?$single_link_registry@V?$ITarget@H@Concurrency@@@Concurrency@@V?$ordered_message_processor@H@2@@Concurrency@@8 100ced70     WinRTVFS.obj
 0003:00008d84       ??_R2?$source_block@V?$single_link_registry@V?$ITarget@H@Concurrency@@@Concurrency@@V?$ordered_message_processor@H@2@@Concurrency@@8 100ced84     WinRTVFS.obj
 0003:00008d90       ??_R1A@?0A@EA@?$source_block@V?$single_link_registry@V?$ITarget@H@Concurrency@@@Concurrency@@V?$ordered_message_processor@H@2@@Concurrency@@8 100ced90     WinRTVFS.obj
 0003:00008db4       ??_R1A@?0A@EA@?$ISource@H@Concurrency@@8 100cedb4     WinRTVFS.obj
 0003:00008dd8       ??_R3?$ISource@H@Concurrency@@8 100cedd8     WinRTVFS.obj
 0003:00008dec       ??_R2?$ISource@H@Concurrency@@8 100cedec     WinRTVFS.obj
 0003:00008df4       ??_R1BA@?0A@EA@?$ISource@H@Concurrency@@8 100cedf4     WinRTVFS.obj
 0003:00008e18       ??_R4?$timer@H@Concurrency@@6B?$source_block@V?$single_link_registry@V?$ITarget@H@Concurrency@@@Concurrency@@V?$ordered_message_processor@H@2@@1@@ 100cee18     WinRTVFS.obj
 0003:00008e30       ??_R4?$ITarget@H@Concurrency@@6B@ 100cee30     WinRTVFS.obj
 0003:00008e48       ??_R3?$ITarget@H@Concurrency@@8 100cee48     WinRTVFS.obj
 0003:00008e5c       ??_R2?$ITarget@H@Concurrency@@8 100cee5c     WinRTVFS.obj
 0003:00008e64       ??_R1A@?0A@EA@?$ITarget@H@Concurrency@@8 100cee64     WinRTVFS.obj
 0003:00008e88       ??_R4?$single_link_registry@V?$ITarget@H@Concurrency@@@Concurrency@@6B@ 100cee88     WinRTVFS.obj
 0003:00008ea0       ??_R3?$single_link_registry@V?$ITarget@H@Concurrency@@@Concurrency@@8 100ceea0     WinRTVFS.obj
 0003:00008eb4       ??_R2?$single_link_registry@V?$ITarget@H@Concurrency@@@Concurrency@@8 100ceeb4     WinRTVFS.obj
 0003:00008ec0       ??_R1A@?0A@EA@?$single_link_registry@V?$ITarget@H@Concurrency@@@Concurrency@@8 100ceec0     WinRTVFS.obj
 0003:00008ee4       ??_R1A@?0A@EA@?$network_link_registry@V?$ITarget@H@Concurrency@@@Concurrency@@8 100ceee4     WinRTVFS.obj
 0003:00008f08       ??_R3?$network_link_registry@V?$ITarget@H@Concurrency@@@Concurrency@@8 100cef08     WinRTVFS.obj
 0003:00008f1c       ??_R2?$network_link_registry@V?$ITarget@H@Concurrency@@@Concurrency@@8 100cef1c     WinRTVFS.obj
 0003:00008f24       ??_R4?$network_link_registry@V?$ITarget@H@Concurrency@@@Concurrency@@6B@ 100cef24     WinRTVFS.obj
 0003:00008f3c       ??_R4?$ISource@H@Concurrency@@6B@ 100cef3c     WinRTVFS.obj
 0003:00008f54       ??_R4?$message@H@Concurrency@@6B@ 100cef54     WinRTVFS.obj
 0003:00008f6c       ??_R3?$message@H@Concurrency@@8 100cef6c     WinRTVFS.obj
 0003:00008f80       ??_R2?$message@H@Concurrency@@8 100cef80     WinRTVFS.obj
 0003:00008f90       ??_R1A@?0A@EA@?$message@H@Concurrency@@8 100cef90     WinRTVFS.obj
 0003:00008fb4       ??_R4?$ordered_message_processor@H@Concurrency@@6B@ 100cefb4     WinRTVFS.obj
 0003:00008fcc       ??_R3?$ordered_message_processor@H@Concurrency@@8 100cefcc     WinRTVFS.obj
 0003:00008fe0       ??_R2?$ordered_message_processor@H@Concurrency@@8 100cefe0     WinRTVFS.obj
 0003:00008fec       ??_R1A@?0A@EA@?$ordered_message_processor@H@Concurrency@@8 100cefec     WinRTVFS.obj
 0003:00009010       ??_R1A@?0A@EA@?$message_processor@H@Concurrency@@8 100cf010     WinRTVFS.obj
 0003:00009034       ??_R3?$message_processor@H@Concurrency@@8 100cf034     WinRTVFS.obj
 0003:00009048       ??_R2?$message_processor@H@Concurrency@@8 100cf048     WinRTVFS.obj
 0003:00009050       ??_R4?$source_block@V?$single_link_registry@V?$ITarget@H@Concurrency@@@Concurrency@@V?$ordered_message_processor@H@2@@Concurrency@@6B@ 100cf050     WinRTVFS.obj
 0003:00009068       ??_R4?$message_processor@H@Concurrency@@6B@ 100cf068     WinRTVFS.obj
 0003:00009080       ??_R4?$concurrent_queue@PAV?$message@H@Concurrency@@V?$allocator@PAV?$message@H@Concurrency@@@std@@@Concurrency@@6B@ 100cf080     WinRTVFS.obj
 0003:00009098       ??_R3?$concurrent_queue@PAV?$message@H@Concurrency@@V?$allocator@PAV?$message@H@Concurrency@@@std@@@Concurrency@@8 100cf098     WinRTVFS.obj
 0003:000090ac       ??_R2?$concurrent_queue@PAV?$message@H@Concurrency@@V?$allocator@PAV?$message@H@Concurrency@@@std@@@Concurrency@@8 100cf0ac     WinRTVFS.obj
 0003:000090b8       ??_R1A@?0A@EA@?$concurrent_queue@PAV?$message@H@Concurrency@@V?$allocator@PAV?$message@H@Concurrency@@@std@@@Concurrency@@8 100cf0b8     WinRTVFS.obj
 0003:000090dc       ??_R4?$_Func_base@XPAV?$message@H@Concurrency@@@std@@6B@ 100cf0dc     WinRTVFS.obj
 0003:000090f4       ??_R3?$_Func_base@XPAV?$message@H@Concurrency@@@std@@8 100cf0f4     WinRTVFS.obj
 0003:00009108       ??_R2?$_Func_base@XPAV?$message@H@Concurrency@@@std@@8 100cf108     WinRTVFS.obj
 0003:00009110       ??_R1A@?0A@EA@?$_Func_base@XPAV?$message@H@Concurrency@@@std@@8 100cf110     WinRTVFS.obj
 0003:00009134       ??_R4?$call@HV?$function@$$A6AXABH@Z@std@@@Concurrency@@6B@ 100cf134     WinRTVFS.obj
 0003:0000914c       ??_R3?$call@HV?$function@$$A6AXABH@Z@std@@@Concurrency@@8 100cf14c     WinRTVFS.obj
 0003:00009160       ??_R2?$call@HV?$function@$$A6AXABH@Z@std@@@Concurrency@@8 100cf160     WinRTVFS.obj
 0003:00009170       ??_R1A@?0A@EA@?$call@HV?$function@$$A6AXABH@Z@std@@@Concurrency@@8 100cf170     WinRTVFS.obj
 0003:00009194       ??_R1A@?0A@EA@?$target_block@V?$multi_link_registry@V?$ISource@H@Concurrency@@@Concurrency@@V?$ordered_message_processor@H@2@@Concurrency@@8 100cf194     WinRTVFS.obj
 0003:000091b8       ??_R3?$target_block@V?$multi_link_registry@V?$ISource@H@Concurrency@@@Concurrency@@V?$ordered_message_processor@H@2@@Concurrency@@8 100cf1b8     WinRTVFS.obj
 0003:000091cc       ??_R2?$target_block@V?$multi_link_registry@V?$ISource@H@Concurrency@@@Concurrency@@V?$ordered_message_processor@H@2@@Concurrency@@8 100cf1cc     WinRTVFS.obj
 0003:000091d8       ??_R4?$multi_link_registry@V?$ISource@H@Concurrency@@@Concurrency@@6B@ 100cf1d8     WinRTVFS.obj
 0003:000091f0       ??_R3?$multi_link_registry@V?$ISource@H@Concurrency@@@Concurrency@@8 100cf1f0     WinRTVFS.obj
 0003:00009204       ??_R2?$multi_link_registry@V?$ISource@H@Concurrency@@@Concurrency@@8 100cf204     WinRTVFS.obj
 0003:00009210       ??_R1A@?0A@EA@?$multi_link_registry@V?$ISource@H@Concurrency@@@Concurrency@@8 100cf210     WinRTVFS.obj
 0003:00009234       ??_R1A@?0A@EA@?$network_link_registry@V?$ISource@H@Concurrency@@@Concurrency@@8 100cf234     WinRTVFS.obj
 0003:00009258       ??_R3?$network_link_registry@V?$ISource@H@Concurrency@@@Concurrency@@8 100cf258     WinRTVFS.obj
 0003:0000926c       ??_R2?$network_link_registry@V?$ISource@H@Concurrency@@@Concurrency@@8 100cf26c     WinRTVFS.obj
 0003:00009274       ??_R4?$network_link_registry@V?$ISource@H@Concurrency@@@Concurrency@@6B@ 100cf274     WinRTVFS.obj
 0003:0000928c       ??_R4?$target_block@V?$multi_link_registry@V?$ISource@H@Concurrency@@@Concurrency@@V?$ordered_message_processor@H@2@@Concurrency@@6B@ 100cf28c     WinRTVFS.obj
 0003:000092a4       ??_R4?$_Source_link_iterator@V?$multi_link_registry@V?$ISource@H@Concurrency@@@Concurrency@@@Concurrency@@6B@ 100cf2a4     WinRTVFS.obj
 0003:000092bc       ??_R3?$_Source_link_iterator@V?$multi_link_registry@V?$ISource@H@Concurrency@@@Concurrency@@@Concurrency@@8 100cf2bc     WinRTVFS.obj
 0003:000092d0       ??_R2?$_Source_link_iterator@V?$multi_link_registry@V?$ISource@H@Concurrency@@@Concurrency@@@Concurrency@@8 100cf2d0     WinRTVFS.obj
 0003:000092d8       ??_R1A@?0A@EA@?$_Source_link_iterator@V?$multi_link_registry@V?$ISource@H@Concurrency@@@Concurrency@@@Concurrency@@8 100cf2d8     WinRTVFS.obj
 0003:000092fc       ??_R4?$_Func_base@XABH@std@@6B@ 100cf2fc     WinRTVFS.obj
 0003:00009314       ??_R3?$_Func_base@XABH@std@@8 100cf314     WinRTVFS.obj
 0003:00009328       ??_R2?$_Func_base@XABH@std@@8 100cf328     WinRTVFS.obj
 0003:00009330       ??_R1A@?0A@EA@?$_Func_base@XABH@std@@8 100cf330     WinRTVFS.obj
 0003:00009354       ??_R4?$AsyncOperationCompletedHandler@P$AAVStorageFolder@Storage@Windows@@@Foundation@Windows@@6B__abi_IUnknown@@@ 100cf354     WinRTVFS.obj
 0003:0000936c       ??_R3?$AsyncOperationCompletedHandler@P$AAVStorageFolder@Storage@Windows@@@Foundation@Windows@@8 100cf36c     WinRTVFS.obj
 0003:00009380       ??_R2?$AsyncOperationCompletedHandler@P$AAVStorageFolder@Storage@Windows@@@Foundation@Windows@@8 100cf380     WinRTVFS.obj
 0003:000093a0       ??_R1A@?0A@EA@?$AsyncOperationCompletedHandler@P$AAVStorageFolder@Storage@Windows@@@Foundation@Windows@@8 100cf3a0     WinRTVFS.obj
 0003:000093c4       ??_R1A@?0A@EA@__abi_IDelegate@?$AsyncOperationCompletedHandler@P$AAVStorageFolder@Storage@Windows@@@Foundation@Windows@@8 100cf3c4     WinRTVFS.obj
 0003:000093e8       ??_R3__abi_IDelegate@?$AsyncOperationCompletedHandler@P$AAVStorageFolder@Storage@Windows@@@Foundation@Windows@@8 100cf3e8     WinRTVFS.obj
 0003:000093fc       ??_R2__abi_IDelegate@?$AsyncOperationCompletedHandler@P$AAVStorageFolder@Storage@Windows@@@Foundation@Windows@@8 100cf3fc     WinRTVFS.obj
 0003:0000940c       ??_R4?$AsyncOperationCompletedHandler@P$AAVStorageFolder@Storage@Windows@@@Foundation@Windows@@6BObject@Platform@@@ 100cf40c     WinRTVFS.obj
 0003:00009424       ??_R4?$AsyncOperationCompletedHandler@P$AAVStorageFolder@Storage@Windows@@@Foundation@Windows@@6B@ 100cf424     WinRTVFS.obj
 0003:0000943c       ??_R4?$_Task_impl@P$AAVStorageFolder@Storage@Windows@@@details@Concurrency@@6B@ 100cf43c     WinRTVFS.obj
 0003:00009454       ??_R3?$_Task_impl@P$AAVStorageFolder@Storage@Windows@@@details@Concurrency@@8 100cf454     WinRTVFS.obj
 0003:00009468       ??_R2?$_Task_impl@P$AAVStorageFolder@Storage@Windows@@@details@Concurrency@@8 100cf468     WinRTVFS.obj
 0003:00009474       ??_R1A@?0A@EA@?$_Task_impl@P$AAVStorageFolder@Storage@Windows@@@details@Concurrency@@8 100cf474     WinRTVFS.obj
 0003:00009498       ??_R4?$AsyncOperationCompletedHandler@P$AAVStorageFile@Storage@Windows@@@Foundation@Windows@@6B__abi_IUnknown@@@ 100cf498     WinRTVFS.obj
 0003:000094b0       ??_R3?$AsyncOperationCompletedHandler@P$AAVStorageFile@Storage@Windows@@@Foundation@Windows@@8 100cf4b0     WinRTVFS.obj
 0003:000094c4       ??_R2?$AsyncOperationCompletedHandler@P$AAVStorageFile@Storage@Windows@@@Foundation@Windows@@8 100cf4c4     WinRTVFS.obj
 0003:000094e4       ??_R1A@?0A@EA@?$AsyncOperationCompletedHandler@P$AAVStorageFile@Storage@Windows@@@Foundation@Windows@@8 100cf4e4     WinRTVFS.obj
 0003:00009508       ??_R1A@?0A@EA@__abi_IDelegate@?$AsyncOperationCompletedHandler@P$AAVStorageFile@Storage@Windows@@@Foundation@Windows@@8 100cf508     WinRTVFS.obj
 0003:0000952c       ??_R3__abi_IDelegate@?$AsyncOperationCompletedHandler@P$AAVStorageFile@Storage@Windows@@@Foundation@Windows@@8 100cf52c     WinRTVFS.obj
 0003:00009540       ??_R2__abi_IDelegate@?$AsyncOperationCompletedHandler@P$AAVStorageFile@Storage@Windows@@@Foundation@Windows@@8 100cf540     WinRTVFS.obj
 0003:00009550       ??_R4?$AsyncOperationCompletedHandler@P$AAVStorageFile@Storage@Windows@@@Foundation@Windows@@6BObject@Platform@@@ 100cf550     WinRTVFS.obj
 0003:00009568       ??_R4?$AsyncOperationCompletedHandler@P$AAVStorageFile@Storage@Windows@@@Foundation@Windows@@6B@ 100cf568     WinRTVFS.obj
 0003:00009580       ??_R4?$_Task_impl@P$AAVStorageFile@Storage@Windows@@@details@Concurrency@@6B@ 100cf580     WinRTVFS.obj
 0003:00009598       ??_R3?$_Task_impl@P$AAVStorageFile@Storage@Windows@@@details@Concurrency@@8 100cf598     WinRTVFS.obj
 0003:000095ac       ??_R2?$_Task_impl@P$AAVStorageFile@Storage@Windows@@@details@Concurrency@@8 100cf5ac     WinRTVFS.obj
 0003:000095b8       ??_R1A@?0A@EA@?$_Task_impl@P$AAVStorageFile@Storage@Windows@@@details@Concurrency@@8 100cf5b8     WinRTVFS.obj
 0003:000095dc       ??_R4?$AsyncOperationCompletedHandler@I@Foundation@Windows@@6B__abi_IUnknown@@@ 100cf5dc     WinRTVFS.obj
 0003:000095f4       ??_R3?$AsyncOperationCompletedHandler@I@Foundation@Windows@@8 100cf5f4     WinRTVFS.obj
 0003:00009608       ??_R2?$AsyncOperationCompletedHandler@I@Foundation@Windows@@8 100cf608     WinRTVFS.obj
 0003:00009628       ??_R1A@?0A@EA@?$AsyncOperationCompletedHandler@I@Foundation@Windows@@8 100cf628     WinRTVFS.obj
 0003:0000964c       ??_R1A@?0A@EA@__abi_IDelegate@?$AsyncOperationCompletedHandler@I@Foundation@Windows@@8 100cf64c     WinRTVFS.obj
 0003:00009670       ??_R3__abi_IDelegate@?$AsyncOperationCompletedHandler@I@Foundation@Windows@@8 100cf670     WinRTVFS.obj
 0003:00009684       ??_R2__abi_IDelegate@?$AsyncOperationCompletedHandler@I@Foundation@Windows@@8 100cf684     WinRTVFS.obj
 0003:00009694       ??_R4?$AsyncOperationCompletedHandler@I@Foundation@Windows@@6BObject@Platform@@@ 100cf694     WinRTVFS.obj
 0003:000096ac       ??_R4?$AsyncOperationCompletedHandler@I@Foundation@Windows@@6B@ 100cf6ac     WinRTVFS.obj
 0003:000096c4       ??_R4?$AsyncOperationCompletedHandler@P$AAUIBuffer@Streams@Storage@Windows@@@Foundation@Windows@@6B__abi_IUnknown@@@ 100cf6c4     WinRTVFS.obj
 0003:000096dc       ??_R3?$AsyncOperationCompletedHandler@P$AAUIBuffer@Streams@Storage@Windows@@@Foundation@Windows@@8 100cf6dc     WinRTVFS.obj
 0003:000096f0       ??_R2?$AsyncOperationCompletedHandler@P$AAUIBuffer@Streams@Storage@Windows@@@Foundation@Windows@@8 100cf6f0     WinRTVFS.obj
 0003:00009710       ??_R1A@?0A@EA@?$AsyncOperationCompletedHandler@P$AAUIBuffer@Streams@Storage@Windows@@@Foundation@Windows@@8 100cf710     WinRTVFS.obj
 0003:00009734       ??_R1A@?0A@EA@__abi_IDelegate@?$AsyncOperationCompletedHandler@P$AAUIBuffer@Streams@Storage@Windows@@@Foundation@Windows@@8 100cf734     WinRTVFS.obj
 0003:00009758       ??_R3__abi_IDelegate@?$AsyncOperationCompletedHandler@P$AAUIBuffer@Streams@Storage@Windows@@@Foundation@Windows@@8 100cf758     WinRTVFS.obj
 0003:0000976c       ??_R2__abi_IDelegate@?$AsyncOperationCompletedHandler@P$AAUIBuffer@Streams@Storage@Windows@@@Foundation@Windows@@8 100cf76c     WinRTVFS.obj
 0003:0000977c       ??_R4?$AsyncOperationCompletedHandler@P$AAUIBuffer@Streams@Storage@Windows@@@Foundation@Windows@@6BObject@Platform@@@ 100cf77c     WinRTVFS.obj
 0003:00009794       ??_R4?$AsyncOperationCompletedHandler@P$AAUIBuffer@Streams@Storage@Windows@@@Foundation@Windows@@6B@ 100cf794     WinRTVFS.obj
 0003:000097ac       ??_R4?$_Func_impl@U?$_Callable_obj@V<lambda_1a93da980d6fe77644a4eefc4e1ad756>@@$0A@@std@@V?$allocator@V?$_Func_class@XABH@std@@@2@XABH@std@@6B@ 100cf7ac     WinRTVFS.obj
 0003:000097c4       ??_R3?$_Func_impl@U?$_Callable_obj@V<lambda_1a93da980d6fe77644a4eefc4e1ad756>@@$0A@@std@@V?$allocator@V?$_Func_class@XABH@std@@@2@XABH@std@@8 100cf7c4     WinRTVFS.obj
 0003:000097d8       ??_R2?$_Func_impl@U?$_Callable_obj@V<lambda_1a93da980d6fe77644a4eefc4e1ad756>@@$0A@@std@@V?$allocator@V?$_Func_class@XABH@std@@@2@XABH@std@@8 100cf7d8     WinRTVFS.obj
 0003:000097e4       ??_R1A@?0A@EA@?$_Func_impl@U?$_Callable_obj@V<lambda_1a93da980d6fe77644a4eefc4e1ad756>@@$0A@@std@@V?$allocator@V?$_Func_class@XABH@std@@@2@XABH@std@@8 100cf7e4     WinRTVFS.obj
 0003:00009808       ??_R4?$_ContinuationTaskHandle@XXV<lambda_9fc58f08a03183e50e06176727aeb396>@@U?$integral_constant@_N$0A@@std@@U_TypeSelectorNoAsync@details@Concurrency@@@?$task@E@Concurrency@@6B@ 100cf808     WinRTVFS.obj
 0003:00009820       ??_R3?$_ContinuationTaskHandle@XXV<lambda_9fc58f08a03183e50e06176727aeb396>@@U?$integral_constant@_N$0A@@std@@U_TypeSelectorNoAsync@details@Concurrency@@@?$task@E@Concurrency@@8 100cf820     WinRTVFS.obj
 0003:00009834       ??_R2?$_ContinuationTaskHandle@XXV<lambda_9fc58f08a03183e50e06176727aeb396>@@U?$integral_constant@_N$0A@@std@@U_TypeSelectorNoAsync@details@Concurrency@@@?$task@E@Concurrency@@8 100cf834     WinRTVFS.obj
 0003:00009858       ??_R1A@?0A@EA@?$_ContinuationTaskHandle@XXV<lambda_9fc58f08a03183e50e06176727aeb396>@@U?$integral_constant@_N$0A@@std@@U_TypeSelectorNoAsync@details@Concurrency@@@?$task@E@Concurrency@@8 100cf858     WinRTVFS.obj
 0003:0000987c       ??_R1A@?0A@EA@?$_PPLTaskHandle@EU?$_ContinuationTaskHandle@XXV<lambda_9fc58f08a03183e50e06176727aeb396>@@U?$integral_constant@_N$0A@@std@@U_TypeSelectorNoAsync@details@Concurrency@@@?$task@E@Concurrency@@U_ContinuationTaskHandleBase@details@3@@details@Concurrency@@8 100cf87c     WinRTVFS.obj
 0003:000098a0       ??_R3?$_PPLTaskHandle@EU?$_ContinuationTaskHandle@XXV<lambda_9fc58f08a03183e50e06176727aeb396>@@U?$integral_constant@_N$0A@@std@@U_TypeSelectorNoAsync@details@Concurrency@@@?$task@E@Concurrency@@U_ContinuationTaskHandleBase@details@3@@details@Concurrency@@8 100cf8a0     WinRTVFS.obj
 0003:000098b4       ??_R2?$_PPLTaskHandle@EU?$_ContinuationTaskHandle@XXV<lambda_9fc58f08a03183e50e06176727aeb396>@@U?$integral_constant@_N$0A@@std@@U_TypeSelectorNoAsync@details@Concurrency@@@?$task@E@Concurrency@@U_ContinuationTaskHandleBase@details@3@@details@Concurrency@@8 100cf8b4     WinRTVFS.obj
 0003:000098d4       ??_R4?$_PPLTaskHandle@EU?$_ContinuationTaskHandle@XXV<lambda_9fc58f08a03183e50e06176727aeb396>@@U?$integral_constant@_N$0A@@std@@U_TypeSelectorNoAsync@details@Concurrency@@@?$task@E@Concurrency@@U_ContinuationTaskHandleBase@details@3@@details@Concurrency@@6B@ 100cf8d4     WinRTVFS.obj
 0003:000098ec       ??_R4?$_Func_impl@U?$_Callable_obj@V<lambda_295bc5f846209cba149a5e74d0d63a72>@@$0A@@std@@V?$allocator@V?$_Func_class@XPAV?$message@H@Concurrency@@@std@@@2@XPAV?$message@H@Concurrency@@@std@@6B@ 100cf8ec     WinRTVFS.obj
 0003:00009904       ??_R3?$_Func_impl@U?$_Callable_obj@V<lambda_295bc5f846209cba149a5e74d0d63a72>@@$0A@@std@@V?$allocator@V?$_Func_class@XPAV?$message@H@Concurrency@@@std@@@2@XPAV?$message@H@Concurrency@@@std@@8 100cf904     WinRTVFS.obj
 0003:00009918       ??_R2?$_Func_impl@U?$_Callable_obj@V<lambda_295bc5f846209cba149a5e74d0d63a72>@@$0A@@std@@V?$allocator@V?$_Func_class@XPAV?$message@H@Concurrency@@@std@@@2@XPAV?$message@H@Concurrency@@@std@@8 100cf918     WinRTVFS.obj
 0003:00009924       ??_R1A@?0A@EA@?$_Func_impl@U?$_Callable_obj@V<lambda_295bc5f846209cba149a5e74d0d63a72>@@$0A@@std@@V?$allocator@V?$_Func_class@XPAV?$message@H@Concurrency@@@std@@@2@XPAV?$message@H@Concurrency@@@std@@8 100cf924     WinRTVFS.obj
 0003:00009948       ??_R4?$_Func_impl@U?$_Callable_obj@V<lambda_c28a53003ed51cdfe295a7d756f98c2f>@@$0A@@std@@V?$allocator@V?$_Func_class@XPAV?$message@H@Concurrency@@@std@@@2@XPAV?$message@H@Concurrency@@@std@@6B@ 100cf948     WinRTVFS.obj
 0003:00009960       ??_R3?$_Func_impl@U?$_Callable_obj@V<lambda_c28a53003ed51cdfe295a7d756f98c2f>@@$0A@@std@@V?$allocator@V?$_Func_class@XPAV?$message@H@Concurrency@@@std@@@2@XPAV?$message@H@Concurrency@@@std@@8 100cf960     WinRTVFS.obj
 0003:00009974       ??_R2?$_Func_impl@U?$_Callable_obj@V<lambda_c28a53003ed51cdfe295a7d756f98c2f>@@$0A@@std@@V?$allocator@V?$_Func_class@XPAV?$message@H@Concurrency@@@std@@@2@XPAV?$message@H@Concurrency@@@std@@8 100cf974     WinRTVFS.obj
 0003:00009980       ??_R1A@?0A@EA@?$_Func_impl@U?$_Callable_obj@V<lambda_c28a53003ed51cdfe295a7d756f98c2f>@@$0A@@std@@V?$allocator@V?$_Func_class@XPAV?$message@H@Concurrency@@@std@@@2@XPAV?$message@H@Concurrency@@@std@@8 100cf980     WinRTVFS.obj
 0003:000099a4       ??_R4?$_Func_impl@U?$_Callable_obj@V<lambda_0fe479da16d43edb8e9a254c493d643e>@@$0A@@std@@V?$allocator@V?$_Func_class@X$$$V@std@@@2@X$$$V@std@@6B@ 100cf9a4     WinRTVFS.obj
 0003:000099bc       ??_R3?$_Func_impl@U?$_Callable_obj@V<lambda_0fe479da16d43edb8e9a254c493d643e>@@$0A@@std@@V?$allocator@V?$_Func_class@X$$$V@std@@@2@X$$$V@std@@8 100cf9bc     WinRTVFS.obj
 0003:000099d0       ??_R2?$_Func_impl@U?$_Callable_obj@V<lambda_0fe479da16d43edb8e9a254c493d643e>@@$0A@@std@@V?$allocator@V?$_Func_class@X$$$V@std@@@2@X$$$V@std@@8 100cf9d0     WinRTVFS.obj
 0003:000099dc       ??_R1A@?0A@EA@?$_Func_impl@U?$_Callable_obj@V<lambda_0fe479da16d43edb8e9a254c493d643e>@@$0A@@std@@V?$allocator@V?$_Func_class@X$$$V@std@@@2@X$$$V@std@@8 100cf9dc     WinRTVFS.obj
 0003:00009a00       ??_R4?$_Func_impl@U?$_Callable_obj@V<lambda_0b7f78ec4ced38495cec46e0d346e0b9>@@$0A@@std@@V?$allocator@V?$_Func_class@X$$$V@std@@@2@X$$$V@std@@6B@ 100cfa00     WinRTVFS.obj
 0003:00009a18       ??_R3?$_Func_impl@U?$_Callable_obj@V<lambda_0b7f78ec4ced38495cec46e0d346e0b9>@@$0A@@std@@V?$allocator@V?$_Func_class@X$$$V@std@@@2@X$$$V@std@@8 100cfa18     WinRTVFS.obj
 0003:00009a2c       ??_R2?$_Func_impl@U?$_Callable_obj@V<lambda_0b7f78ec4ced38495cec46e0d346e0b9>@@$0A@@std@@V?$allocator@V?$_Func_class@X$$$V@std@@@2@X$$$V@std@@8 100cfa2c     WinRTVFS.obj
 0003:00009a38       ??_R1A@?0A@EA@?$_Func_impl@U?$_Callable_obj@V<lambda_0b7f78ec4ced38495cec46e0d346e0b9>@@$0A@@std@@V?$allocator@V?$_Func_class@X$$$V@std@@@2@X$$$V@std@@8 100cfa38     WinRTVFS.obj
 0003:00009a5c       ??_R4?$_Func_impl@U?$_Callable_obj@V<lambda_a66b3ee15e662226a0b0b15ae647d32f>@@$0A@@std@@V?$allocator@V?$_Func_class@X$$$V@std@@@2@X$$$V@std@@6B@ 100cfa5c     WinRTVFS.obj
 0003:00009a74       ??_R3?$_Func_impl@U?$_Callable_obj@V<lambda_a66b3ee15e662226a0b0b15ae647d32f>@@$0A@@std@@V?$allocator@V?$_Func_class@X$$$V@std@@@2@X$$$V@std@@8 100cfa74     WinRTVFS.obj
 0003:00009a88       ??_R2?$_Func_impl@U?$_Callable_obj@V<lambda_a66b3ee15e662226a0b0b15ae647d32f>@@$0A@@std@@V?$allocator@V?$_Func_class@X$$$V@std@@@2@X$$$V@std@@8 100cfa88     WinRTVFS.obj
 0003:00009a94       ??_R1A@?0A@EA@?$_Func_impl@U?$_Callable_obj@V<lambda_a66b3ee15e662226a0b0b15ae647d32f>@@$0A@@std@@V?$allocator@V?$_Func_class@X$$$V@std@@@2@X$$$V@std@@8 100cfa94     WinRTVFS.obj
 0003:00009ab8       ??_R4?$_Func_impl@U?$_Callable_obj@V<lambda_364e75aa895e992ae8821732ca646aa2>@@$0A@@std@@V?$allocator@V?$_Func_class@X$$$V@std@@@2@X$$$V@std@@6B@ 100cfab8     WinRTVFS.obj
 0003:00009ad0       ??_R3?$_Func_impl@U?$_Callable_obj@V<lambda_364e75aa895e992ae8821732ca646aa2>@@$0A@@std@@V?$allocator@V?$_Func_class@X$$$V@std@@@2@X$$$V@std@@8 100cfad0     WinRTVFS.obj
 0003:00009ae4       ??_R2?$_Func_impl@U?$_Callable_obj@V<lambda_364e75aa895e992ae8821732ca646aa2>@@$0A@@std@@V?$allocator@V?$_Func_class@X$$$V@std@@@2@X$$$V@std@@8 100cfae4     WinRTVFS.obj
 0003:00009af0       ??_R1A@?0A@EA@?$_Func_impl@U?$_Callable_obj@V<lambda_364e75aa895e992ae8821732ca646aa2>@@$0A@@std@@V?$allocator@V?$_Func_class@X$$$V@std@@@2@X$$$V@std@@8 100cfaf0     WinRTVFS.obj
 0003:00009b14       ??_R4?$_Func_impl@U?$_Callable_obj@V<lambda_528650821c608ced6534641e311542a5>@@$0A@@std@@V?$allocator@V?$_Func_class@X$$$V@std@@@2@X$$$V@std@@6B@ 100cfb14     WinRTVFS.obj
 0003:00009b2c       ??_R3?$_Func_impl@U?$_Callable_obj@V<lambda_528650821c608ced6534641e311542a5>@@$0A@@std@@V?$allocator@V?$_Func_class@X$$$V@std@@@2@X$$$V@std@@8 100cfb2c     WinRTVFS.obj
 0003:00009b40       ??_R2?$_Func_impl@U?$_Callable_obj@V<lambda_528650821c608ced6534641e311542a5>@@$0A@@std@@V?$allocator@V?$_Func_class@X$$$V@std@@@2@X$$$V@std@@8 100cfb40     WinRTVFS.obj
 0003:00009b4c       ??_R1A@?0A@EA@?$_Func_impl@U?$_Callable_obj@V<lambda_528650821c608ced6534641e311542a5>@@$0A@@std@@V?$allocator@V?$_Func_class@X$$$V@std@@@2@X$$$V@std@@8 100cfb4c     WinRTVFS.obj
 0003:00009b70       ??_R4?$_Func_impl@U?$_Callable_obj@V<lambda_579ccd68d569251046038e8620afec85>@@$0A@@std@@V?$allocator@V?$_Func_class@XPAV?$message@H@Concurrency@@@std@@@2@XPAV?$message@H@Concurrency@@@std@@6B@ 100cfb70     WinRTVFS.obj
 0003:00009b88       ??_R3?$_Func_impl@U?$_Callable_obj@V<lambda_579ccd68d569251046038e8620afec85>@@$0A@@std@@V?$allocator@V?$_Func_class@XPAV?$message@H@Concurrency@@@std@@@2@XPAV?$message@H@Concurrency@@@std@@8 100cfb88     WinRTVFS.obj
 0003:00009b9c       ??_R2?$_Func_impl@U?$_Callable_obj@V<lambda_579ccd68d569251046038e8620afec85>@@$0A@@std@@V?$allocator@V?$_Func_class@XPAV?$message@H@Concurrency@@@std@@@2@XPAV?$message@H@Concurrency@@@std@@8 100cfb9c     WinRTVFS.obj
 0003:00009ba8       ??_R1A@?0A@EA@?$_Func_impl@U?$_Callable_obj@V<lambda_579ccd68d569251046038e8620afec85>@@$0A@@std@@V?$allocator@V?$_Func_class@XPAV?$message@H@Concurrency@@@std@@@2@XPAV?$message@H@Concurrency@@@std@@8 100cfba8     WinRTVFS.obj
 0003:00009bcc       ??_R4?$_Ref_count_obj@U?$_Task_impl@I@details@Concurrency@@@std@@6B@ 100cfbcc     WinRTVFS.obj
 0003:00009be4       ??_R3?$_Ref_count_obj@U?$_Task_impl@I@details@Concurrency@@@std@@8 100cfbe4     WinRTVFS.obj
 0003:00009bf8       ??_R2?$_Ref_count_obj@U?$_Task_impl@I@details@Concurrency@@@std@@8 100cfbf8     WinRTVFS.obj
 0003:00009c04       ??_R1A@?0A@EA@?$_Ref_count_obj@U?$_Task_impl@I@details@Concurrency@@@std@@8 100cfc04     WinRTVFS.obj
 0003:00009c28       ??_R4?$_Ref_count_obj@U?$_Task_impl@P$AAUIRandomAccessStream@Streams@Storage@Windows@@@details@Concurrency@@@std@@6B@ 100cfc28     WinRTVFS.obj
 0003:00009c40       ??_R3?$_Ref_count_obj@U?$_Task_impl@P$AAUIRandomAccessStream@Streams@Storage@Windows@@@details@Concurrency@@@std@@8 100cfc40     WinRTVFS.obj
 0003:00009c54       ??_R2?$_Ref_count_obj@U?$_Task_impl@P$AAUIRandomAccessStream@Streams@Storage@Windows@@@details@Concurrency@@@std@@8 100cfc54     WinRTVFS.obj
 0003:00009c60       ??_R1A@?0A@EA@?$_Ref_count_obj@U?$_Task_impl@P$AAUIRandomAccessStream@Streams@Storage@Windows@@@details@Concurrency@@@std@@8 100cfc60     WinRTVFS.obj
 0003:00009c84       ??_R4?$_Ref_count_obj@U?$_Task_impl@P$AAUIBuffer@Streams@Storage@Windows@@@details@Concurrency@@@std@@6B@ 100cfc84     WinRTVFS.obj
 0003:00009c9c       ??_R3?$_Ref_count_obj@U?$_Task_impl@P$AAUIBuffer@Streams@Storage@Windows@@@details@Concurrency@@@std@@8 100cfc9c     WinRTVFS.obj
 0003:00009cb0       ??_R2?$_Ref_count_obj@U?$_Task_impl@P$AAUIBuffer@Streams@Storage@Windows@@@details@Concurrency@@@std@@8 100cfcb0     WinRTVFS.obj
 0003:00009cbc       ??_R1A@?0A@EA@?$_Ref_count_obj@U?$_Task_impl@P$AAUIBuffer@Streams@Storage@Windows@@@details@Concurrency@@@std@@8 100cfcbc     WinRTVFS.obj
 0003:00009ce0       ??_R4?$_Ref_count_obj@U?$_Task_impl@P$AAVStorageFolder@Storage@Windows@@@details@Concurrency@@@std@@6B@ 100cfce0     WinRTVFS.obj
 0003:00009cf8       ??_R3?$_Ref_count_obj@U?$_Task_impl@P$AAVStorageFolder@Storage@Windows@@@details@Concurrency@@@std@@8 100cfcf8     WinRTVFS.obj
 0003:00009d0c       ??_R2?$_Ref_count_obj@U?$_Task_impl@P$AAVStorageFolder@Storage@Windows@@@details@Concurrency@@@std@@8 100cfd0c     WinRTVFS.obj
 0003:00009d18       ??_R1A@?0A@EA@?$_Ref_count_obj@U?$_Task_impl@P$AAVStorageFolder@Storage@Windows@@@details@Concurrency@@@std@@8 100cfd18     WinRTVFS.obj
 0003:00009d3c       ??_R4?$_Ref_count_obj@U?$_Task_impl@P$AAVStorageFile@Storage@Windows@@@details@Concurrency@@@std@@6B@ 100cfd3c     WinRTVFS.obj
 0003:00009d54       ??_R3?$_Ref_count_obj@U?$_Task_impl@P$AAVStorageFile@Storage@Windows@@@details@Concurrency@@@std@@8 100cfd54     WinRTVFS.obj
 0003:00009d68       ??_R2?$_Ref_count_obj@U?$_Task_impl@P$AAVStorageFile@Storage@Windows@@@details@Concurrency@@@std@@8 100cfd68     WinRTVFS.obj
 0003:00009d74       ??_R1A@?0A@EA@?$_Ref_count_obj@U?$_Task_impl@P$AAVStorageFile@Storage@Windows@@@details@Concurrency@@@std@@8 100cfd74     WinRTVFS.obj
 0003:00009d98       ??_R4?$_IAsyncOperationWithProgressToAsyncOperationConverter@P$AAUIBuffer@Streams@Storage@Windows@@I@details@Concurrency@@6B@ 100cfd98     WinRTVFS.obj
 0003:00009db0       ??_R3?$_IAsyncOperationWithProgressToAsyncOperationConverter@P$AAUIBuffer@Streams@Storage@Windows@@I@details@Concurrency@@8 100cfdb0     WinRTVFS.obj
 0003:00009dc4       ??_R2?$_IAsyncOperationWithProgressToAsyncOperationConverter@P$AAUIBuffer@Streams@Storage@Windows@@I@details@Concurrency@@8 100cfdc4     WinRTVFS.obj
 0003:00009e08       ??_R1A@?0A@EA@?$_IAsyncOperationWithProgressToAsyncOperationConverter@P$AAUIBuffer@Streams@Storage@Windows@@I@details@Concurrency@@8 100cfe08     WinRTVFS.obj
 0003:00009e2c       ??_R1A@?0A@EA@__I?$_IAsyncOperationWithProgressToAsyncOperationConverter@P$AAUIBuffer@Streams@Storage@Windows@@IPublicNonVirtuals@details@Concurrency@@8 100cfe2c     WinRTVFS.obj
 0003:00009e50       ??_R3__I?$_IAsyncOperationWithProgressToAsyncOperationConverter@P$AAUIBuffer@Streams@Storage@Windows@@IPublicNonVirtuals@details@Concurrency@@8 100cfe50     WinRTVFS.obj
 0003:00009e64       ??_R2__I?$_IAsyncOperationWithProgressToAsyncOperationConverter@P$AAUIBuffer@Streams@Storage@Windows@@IPublicNonVirtuals@details@Concurrency@@8 100cfe64     WinRTVFS.obj
 0003:00009e70       ??_R13?0A@EA@?$_AsyncInfoImpl@P$AAU?$IAsyncOperationWithProgress@P$AAUIBuffer@Streams@Storage@Windows@@I@Foundation@Windows@@V?$AsyncOperationWithProgressCompletedHandler@P$AAUIBuffer@Streams@Storage@Windows@@I@23@P$AAUIBuffer@Streams@Storage@3@@details@Concurrency@@8 100cfe70     WinRTVFS.obj
 0003:00009e94       ??_R3?$_AsyncInfoImpl@P$AAU?$IAsyncOperationWithProgress@P$AAUIBuffer@Streams@Storage@Windows@@I@Foundation@Windows@@V?$AsyncOperationWithProgressCompletedHandler@P$AAUIBuffer@Streams@Storage@Windows@@I@23@P$AAUIBuffer@Streams@Storage@3@@details@Concurrency@@8 100cfe94     WinRTVFS.obj
 0003:00009ea8       ??_R2?$_AsyncInfoImpl@P$AAU?$IAsyncOperationWithProgress@P$AAUIBuffer@Streams@Storage@Windows@@I@Foundation@Windows@@V?$AsyncOperationWithProgressCompletedHandler@P$AAUIBuffer@Streams@Storage@Windows@@I@23@P$AAUIBuffer@Streams@Storage@3@@details@Concurrency@@8 100cfea8     WinRTVFS.obj
 0003:00009ed0       ??_R1A@?0A@EA@?$_AsyncInfoImpl@P$AAU?$IAsyncOperationWithProgress@P$AAUIBuffer@Streams@Storage@Windows@@I@Foundation@Windows@@V?$AsyncOperationWithProgressCompletedHandler@P$AAUIBuffer@Streams@Storage@Windows@@I@23@P$AAUIBuffer@Streams@Storage@3@@details@Concurrency@@8 100cfed0     WinRTVFS.obj
 0003:00009ef4       ??_R1A@?0A@EA@__I?$_AsyncInfoImpl@P$AAU?$IAsyncOperationWithProgress@P$AAUIBuffer@Streams@Storage@Windows@@I@Foundation@Windows@@V?$AsyncOperationWithProgressCompletedHandler@P$AAUIBuffer@Streams@Storage@Windows@@I@23@P$AAUIBuffer@Streams@Storage@3@PublicNonVirtuals@details@Concurrency@@8 100cfef4     WinRTVFS.obj
 0003:00009f18       ??_R3__I?$_AsyncInfoImpl@P$AAU?$IAsyncOperationWithProgress@P$AAUIBuffer@Streams@Storage@Windows@@I@Foundation@Windows@@V?$AsyncOperationWithProgressCompletedHandler@P$AAUIBuffer@Streams@Storage@Windows@@I@23@P$AAUIBuffer@Streams@Storage@3@PublicNonVirtuals@details@Concurrency@@8 100cff18     WinRTVFS.obj
 0003:00009f2c       ??_R2__I?$_AsyncInfoImpl@P$AAU?$IAsyncOperationWithProgress@P$AAUIBuffer@Streams@Storage@Windows@@I@Foundation@Windows@@V?$AsyncOperationWithProgressCompletedHandler@P$AAUIBuffer@Streams@Storage@Windows@@I@23@P$AAUIBuffer@Streams@Storage@3@PublicNonVirtuals@details@Concurrency@@8 100cff2c     WinRTVFS.obj
 0003:00009f38       ??_R13?0A@EA@?$IAsyncOperation@P$AAUIBuffer@Streams@Storage@Windows@@@Foundation@Windows@@8 100cff38     WinRTVFS.obj
 0003:00009f5c       ??_R3?$IAsyncOperation@P$AAUIBuffer@Streams@Storage@Windows@@@Foundation@Windows@@8 100cff5c     WinRTVFS.obj
 0003:00009f70       ??_R2?$IAsyncOperation@P$AAUIBuffer@Streams@Storage@Windows@@@Foundation@Windows@@8 100cff70     WinRTVFS.obj
 0003:00009f84       ??_R1A@?0A@EA@?$IAsyncOperation@P$AAUIBuffer@Streams@Storage@Windows@@@Foundation@Windows@@8 100cff84     WinRTVFS.obj
 0003:00009fa8       ??_R13?0A@EA@__I?$_AsyncInfoImpl@P$AAU?$IAsyncOperationWithProgress@P$AAUIBuffer@Streams@Storage@Windows@@I@Foundation@Windows@@V?$AsyncOperationWithProgressCompletedHandler@P$AAUIBuffer@Streams@Storage@Windows@@I@23@P$AAUIBuffer@Streams@Storage@3@PublicNonVirtuals@details@Concurrency@@8 100cffa8     WinRTVFS.obj
 0003:00009fcc       ??_R17?0A@EA@?$IAsyncOperation@P$AAUIBuffer@Streams@Storage@Windows@@@Foundation@Windows@@8 100cffcc     WinRTVFS.obj
 0003:00009ff0       ??_R4?$_IAsyncOperationWithProgressToAsyncOperationConverter@P$AAUIBuffer@Streams@Storage@Windows@@I@details@Concurrency@@6B__I?$_AsyncInfoImpl@P$AAU?$IAsyncOperationWithProgress@P$AAUIBuffer@Streams@Storage@Windows@@I@Foundation@Windows@@V?$AsyncOperationWithProgressCompletedHandler@P$AAUIBuffer@Streams@Storage@Windows@@I@23@P$AAUIBuffer@Streams@Storage@3@PublicNonVirtuals@12@@ 100cfff0     WinRTVFS.obj
 0003:0000a008       ??_R4?$_IAsyncOperationWithProgressToAsyncOperationConverter@P$AAUIBuffer@Streams@Storage@Windows@@I@details@Concurrency@@6BObject@Platform@@?$IAsyncOperation@P$AAUIBuffer@Streams@Storage@Windows@@@Foundation@Windows@@@ 100d0008     WinRTVFS.obj
 0003:0000a020       ??_R4?$_IAsyncOperationWithProgressToAsyncOperationConverter@P$AAUIBuffer@Streams@Storage@Windows@@I@details@Concurrency@@6BIAsyncInfo@Foundation@Windows@@@ 100d0020     WinRTVFS.obj
 0003:0000a038       ??_R4?$_IAsyncOperationWithProgressToAsyncOperationConverter@P$AAUIBuffer@Streams@Storage@Windows@@I@details@Concurrency@@6BObject@Platform@@?$_AsyncInfoImpl@P$AAU?$IAsyncOperationWithProgress@P$AAUIBuffer@Streams@Storage@Windows@@I@Foundation@Windows@@V?$AsyncOperationWithProgressCompletedHandler@P$AAUIBuffer@Streams@Storage@Windows@@I@23@P$AAUIBuffer@Streams@Storage@3@@12@@ 100d0038     WinRTVFS.obj
 0003:0000a050       ??_R4?$_IAsyncOperationWithProgressToAsyncOperationConverter@P$AAUIBuffer@Streams@Storage@Windows@@I@details@Concurrency@@6B__abi_IUnknown@@@ 100d0050     WinRTVFS.obj
 0003:0000a068       ??_R4?$_IAsyncOperationWithProgressToAsyncOperationConverter@P$AAUIBuffer@Streams@Storage@Windows@@I@details@Concurrency@@6BObject@Platform@@IWeakReferenceSource@Details@4@@ 100d0068     WinRTVFS.obj
 0003:0000a080       ??_R4?$_AsyncInfoImpl@P$AAU?$IAsyncOperationWithProgress@P$AAUIBuffer@Streams@Storage@Windows@@I@Foundation@Windows@@V?$AsyncOperationWithProgressCompletedHandler@P$AAUIBuffer@Streams@Storage@Windows@@I@23@P$AAUIBuffer@Streams@Storage@3@@details@Concurrency@@6B__I?$_AsyncInfoImpl@P$AAU?$IAsyncOperationWithProgress@P$AAUIBuffer@Streams@Storage@Windows@@I@Foundation@Windows@@V?$AsyncOperationWithProgressCompletedHandler@P$AAUIBuffer@Streams@Storage@Windows@@I@23@P$AAUIBuffer@Streams@Storage@3@PublicNonVirtuals@12@@ 100d0080     WinRTVFS.obj
 0003:0000a098       ??_R4?$_AsyncInfoImpl@P$AAU?$IAsyncOperationWithProgress@P$AAUIBuffer@Streams@Storage@Windows@@I@Foundation@Windows@@V?$AsyncOperationWithProgressCompletedHandler@P$AAUIBuffer@Streams@Storage@Windows@@I@23@P$AAUIBuffer@Streams@Storage@3@@details@Concurrency@@6BObject@Platform@@?$IAsyncOperation@P$AAUIBuffer@Streams@Storage@Windows@@@Foundation@Windows@@@ 100d0098     WinRTVFS.obj
 0003:0000a0b0       ??_R4?$_AsyncInfoImpl@P$AAU?$IAsyncOperationWithProgress@P$AAUIBuffer@Streams@Storage@Windows@@I@Foundation@Windows@@V?$AsyncOperationWithProgressCompletedHandler@P$AAUIBuffer@Streams@Storage@Windows@@I@23@P$AAUIBuffer@Streams@Storage@3@@details@Concurrency@@6BIAsyncInfo@Foundation@Windows@@@ 100d00b0     WinRTVFS.obj
 0003:0000a0c8       ??_R4?$_AsyncInfoImpl@P$AAU?$IAsyncOperationWithProgress@P$AAUIBuffer@Streams@Storage@Windows@@I@Foundation@Windows@@V?$AsyncOperationWithProgressCompletedHandler@P$AAUIBuffer@Streams@Storage@Windows@@I@23@P$AAUIBuffer@Streams@Storage@3@@details@Concurrency@@6BObject@Platform@@@ 100d00c8     WinRTVFS.obj
 0003:0000a0e0       ??_R4?$_IAsyncOperationWithProgressToAsyncOperationConverter@II@details@Concurrency@@6B@ 100d00e0     WinRTVFS.obj
 0003:0000a0f8       ??_R3?$_IAsyncOperationWithProgressToAsyncOperationConverter@II@details@Concurrency@@8 100d00f8     WinRTVFS.obj
 0003:0000a10c       ??_R2?$_IAsyncOperationWithProgressToAsyncOperationConverter@II@details@Concurrency@@8 100d010c     WinRTVFS.obj
 0003:0000a150       ??_R1A@?0A@EA@?$_IAsyncOperationWithProgressToAsyncOperationConverter@II@details@Concurrency@@8 100d0150     WinRTVFS.obj
 0003:0000a174       ??_R1A@?0A@EA@__I?$_IAsyncOperationWithProgressToAsyncOperationConverter@IIPublicNonVirtuals@details@Concurrency@@8 100d0174     WinRTVFS.obj
 0003:0000a198       ??_R3__I?$_IAsyncOperationWithProgressToAsyncOperationConverter@IIPublicNonVirtuals@details@Concurrency@@8 100d0198     WinRTVFS.obj
 0003:0000a1ac       ??_R2__I?$_IAsyncOperationWithProgressToAsyncOperationConverter@IIPublicNonVirtuals@details@Concurrency@@8 100d01ac     WinRTVFS.obj
 0003:0000a1b8       ??_R13?0A@EA@?$_AsyncInfoImpl@P$AAU?$IAsyncOperationWithProgress@II@Foundation@Windows@@V?$AsyncOperationWithProgressCompletedHandler@II@23@I@details@Concurrency@@8 100d01b8     WinRTVFS.obj
 0003:0000a1dc       ??_R3?$_AsyncInfoImpl@P$AAU?$IAsyncOperationWithProgress@II@Foundation@Windows@@V?$AsyncOperationWithProgressCompletedHandler@II@23@I@details@Concurrency@@8 100d01dc     WinRTVFS.obj
 0003:0000a1f0       ??_R2?$_AsyncInfoImpl@P$AAU?$IAsyncOperationWithProgress@II@Foundation@Windows@@V?$AsyncOperationWithProgressCompletedHandler@II@23@I@details@Concurrency@@8 100d01f0     WinRTVFS.obj
 0003:0000a218       ??_R1A@?0A@EA@?$_AsyncInfoImpl@P$AAU?$IAsyncOperationWithProgress@II@Foundation@Windows@@V?$AsyncOperationWithProgressCompletedHandler@II@23@I@details@Concurrency@@8 100d0218     WinRTVFS.obj
 0003:0000a23c       ??_R1A@?0A@EA@__I?$_AsyncInfoImpl@P$AAU?$IAsyncOperationWithProgress@II@Foundation@Windows@@V?$AsyncOperationWithProgressCompletedHandler@II@23@IPublicNonVirtuals@details@Concurrency@@8 100d023c     WinRTVFS.obj
 0003:0000a260       ??_R3__I?$_AsyncInfoImpl@P$AAU?$IAsyncOperationWithProgress@II@Foundation@Windows@@V?$AsyncOperationWithProgressCompletedHandler@II@23@IPublicNonVirtuals@details@Concurrency@@8 100d0260     WinRTVFS.obj
 0003:0000a274       ??_R2__I?$_AsyncInfoImpl@P$AAU?$IAsyncOperationWithProgress@II@Foundation@Windows@@V?$AsyncOperationWithProgressCompletedHandler@II@23@IPublicNonVirtuals@details@Concurrency@@8 100d0274     WinRTVFS.obj
 0003:0000a280       ??_R13?0A@EA@?$IAsyncOperation@I@Foundation@Windows@@8 100d0280     WinRTVFS.obj
 0003:0000a2a4       ??_R3?$IAsyncOperation@I@Foundation@Windows@@8 100d02a4     WinRTVFS.obj
 0003:0000a2b8       ??_R2?$IAsyncOperation@I@Foundation@Windows@@8 100d02b8     WinRTVFS.obj
 0003:0000a2cc       ??_R1A@?0A@EA@?$IAsyncOperation@I@Foundation@Windows@@8 100d02cc     WinRTVFS.obj
 0003:0000a2f0       ??_R13?0A@EA@__I?$_AsyncInfoImpl@P$AAU?$IAsyncOperationWithProgress@II@Foundation@Windows@@V?$AsyncOperationWithProgressCompletedHandler@II@23@IPublicNonVirtuals@details@Concurrency@@8 100d02f0     WinRTVFS.obj
 0003:0000a314       ??_R17?0A@EA@?$IAsyncOperation@I@Foundation@Windows@@8 100d0314     WinRTVFS.obj
 0003:0000a338       ??_R4?$_IAsyncOperationWithProgressToAsyncOperationConverter@II@details@Concurrency@@6B__I?$_AsyncInfoImpl@P$AAU?$IAsyncOperationWithProgress@II@Foundation@Windows@@V?$AsyncOperationWithProgressCompletedHandler@II@23@IPublicNonVirtuals@12@@ 100d0338     WinRTVFS.obj
 0003:0000a350       ??_R4?$_IAsyncOperationWithProgressToAsyncOperationConverter@II@details@Concurrency@@6BObject@Platform@@?$IAsyncOperation@I@Foundation@Windows@@@ 100d0350     WinRTVFS.obj
 0003:0000a368       ??_R4?$_IAsyncOperationWithProgressToAsyncOperationConverter@II@details@Concurrency@@6BIAsyncInfo@Foundation@Windows@@@ 100d0368     WinRTVFS.obj
 0003:0000a380       ??_R4?$_IAsyncOperationWithProgressToAsyncOperationConverter@II@details@Concurrency@@6BObject@Platform@@?$_AsyncInfoImpl@P$AAU?$IAsyncOperationWithProgress@II@Foundation@Windows@@V?$AsyncOperationWithProgressCompletedHandler@II@23@I@12@@ 100d0380     WinRTVFS.obj
 0003:0000a398       ??_R4?$_IAsyncOperationWithProgressToAsyncOperationConverter@II@details@Concurrency@@6B__abi_IUnknown@@@ 100d0398     WinRTVFS.obj
 0003:0000a3b0       ??_R4?$_IAsyncOperationWithProgressToAsyncOperationConverter@II@details@Concurrency@@6BObject@Platform@@IWeakReferenceSource@Details@4@@ 100d03b0     WinRTVFS.obj
 0003:0000a3c8       ??_R4?$_AsyncInfoImpl@P$AAU?$IAsyncOperationWithProgress@II@Foundation@Windows@@V?$AsyncOperationWithProgressCompletedHandler@II@23@I@details@Concurrency@@6B__I?$_AsyncInfoImpl@P$AAU?$IAsyncOperationWithProgress@II@Foundation@Windows@@V?$AsyncOperationWithProgressCompletedHandler@II@23@IPublicNonVirtuals@12@@ 100d03c8     WinRTVFS.obj
 0003:0000a3e0       ??_R4?$_AsyncInfoImpl@P$AAU?$IAsyncOperationWithProgress@II@Foundation@Windows@@V?$AsyncOperationWithProgressCompletedHandler@II@23@I@details@Concurrency@@6BObject@Platform@@?$IAsyncOperation@I@Foundation@Windows@@@ 100d03e0     WinRTVFS.obj
 0003:0000a3f8       ??_R4?$_AsyncInfoImpl@P$AAU?$IAsyncOperationWithProgress@II@Foundation@Windows@@V?$AsyncOperationWithProgressCompletedHandler@II@23@I@details@Concurrency@@6BIAsyncInfo@Foundation@Windows@@@ 100d03f8     WinRTVFS.obj
 0003:0000a410       ??_R4?$_AsyncInfoImpl@P$AAU?$IAsyncOperationWithProgress@II@Foundation@Windows@@V?$AsyncOperationWithProgressCompletedHandler@II@23@I@details@Concurrency@@6BObject@Platform@@@ 100d0410     WinRTVFS.obj
 0003:0000a428       ??_R4?$__abi_FunctorCapture@V<lambda_78c8bde34479949ab00939bfc3c21b9e>@@XP$AAU?$IAsyncOperation@_N@Foundation@Windows@@W4AsyncStatus@34@@Details@Platform@@6B@ 100d0428     WinRTVFS.obj
 0003:0000a440       ??_R3?$__abi_FunctorCapture@V<lambda_78c8bde34479949ab00939bfc3c21b9e>@@XP$AAU?$IAsyncOperation@_N@Foundation@Windows@@W4AsyncStatus@34@@Details@Platform@@8 100d0440     WinRTVFS.obj
 0003:0000a454       ??_R2?$__abi_FunctorCapture@V<lambda_78c8bde34479949ab00939bfc3c21b9e>@@XP$AAU?$IAsyncOperation@_N@Foundation@Windows@@W4AsyncStatus@34@@Details@Platform@@8 100d0454     WinRTVFS.obj
 0003:0000a460       ??_R1A@?0A@EA@?$__abi_FunctorCapture@V<lambda_78c8bde34479949ab00939bfc3c21b9e>@@XP$AAU?$IAsyncOperation@_N@Foundation@Windows@@W4AsyncStatus@34@@Details@Platform@@8 100d0460     WinRTVFS.obj
 0003:0000a484       ??_R4?$__abi_FunctorCapture@V<lambda_58b35b2c39cebe76475502e8be1fa050>@@XP$AAU?$IAsyncOperation@P$AAUIRandomAccessStream@Streams@Storage@Windows@@@Foundation@Windows@@W4AsyncStatus@34@@Details@Platform@@6B@ 100d0484     WinRTVFS.obj
 0003:0000a49c       ??_R3?$__abi_FunctorCapture@V<lambda_58b35b2c39cebe76475502e8be1fa050>@@XP$AAU?$IAsyncOperation@P$AAUIRandomAccessStream@Streams@Storage@Windows@@@Foundation@Windows@@W4AsyncStatus@34@@Details@Platform@@8 100d049c     WinRTVFS.obj
 0003:0000a4b0       ??_R2?$__abi_FunctorCapture@V<lambda_58b35b2c39cebe76475502e8be1fa050>@@XP$AAU?$IAsyncOperation@P$AAUIRandomAccessStream@Streams@Storage@Windows@@@Foundation@Windows@@W4AsyncStatus@34@@Details@Platform@@8 100d04b0     WinRTVFS.obj
 0003:0000a4bc       ??_R1A@?0A@EA@?$__abi_FunctorCapture@V<lambda_58b35b2c39cebe76475502e8be1fa050>@@XP$AAU?$IAsyncOperation@P$AAUIRandomAccessStream@Streams@Storage@Windows@@@Foundation@Windows@@W4AsyncStatus@34@@Details@Platform@@8 100d04bc     WinRTVFS.obj
 0003:0000a4e0       ??_R4?$__abi_FunctorCapture@V<lambda_c124a470bc399dc48f76de2d0d06ac02>@@XP$AAU?$IAsyncOperation@P$AAVStorageFolder@Storage@Windows@@@Foundation@Windows@@W4AsyncStatus@34@@Details@Platform@@6B@ 100d04e0     WinRTVFS.obj
 0003:0000a4f8       ??_R3?$__abi_FunctorCapture@V<lambda_c124a470bc399dc48f76de2d0d06ac02>@@XP$AAU?$IAsyncOperation@P$AAVStorageFolder@Storage@Windows@@@Foundation@Windows@@W4AsyncStatus@34@@Details@Platform@@8 100d04f8     WinRTVFS.obj
 0003:0000a50c       ??_R2?$__abi_FunctorCapture@V<lambda_c124a470bc399dc48f76de2d0d06ac02>@@XP$AAU?$IAsyncOperation@P$AAVStorageFolder@Storage@Windows@@@Foundation@Windows@@W4AsyncStatus@34@@Details@Platform@@8 100d050c     WinRTVFS.obj
 0003:0000a518       ??_R1A@?0A@EA@?$__abi_FunctorCapture@V<lambda_c124a470bc399dc48f76de2d0d06ac02>@@XP$AAU?$IAsyncOperation@P$AAVStorageFolder@Storage@Windows@@@Foundation@Windows@@W4AsyncStatus@34@@Details@Platform@@8 100d0518     WinRTVFS.obj
 0003:0000a53c       ??_R4?$__abi_FunctorCapture@V<lambda_f0a7c2b0a64e3b533e4acd91ff29d36c>@@XP$AAU?$IAsyncOperation@P$AAVStorageFile@Storage@Windows@@@Foundation@Windows@@W4AsyncStatus@34@@Details@Platform@@6B@ 100d053c     WinRTVFS.obj
 0003:0000a554       ??_R3?$__abi_FunctorCapture@V<lambda_f0a7c2b0a64e3b533e4acd91ff29d36c>@@XP$AAU?$IAsyncOperation@P$AAVStorageFile@Storage@Windows@@@Foundation@Windows@@W4AsyncStatus@34@@Details@Platform@@8 100d0554     WinRTVFS.obj
 0003:0000a568       ??_R2?$__abi_FunctorCapture@V<lambda_f0a7c2b0a64e3b533e4acd91ff29d36c>@@XP$AAU?$IAsyncOperation@P$AAVStorageFile@Storage@Windows@@@Foundation@Windows@@W4AsyncStatus@34@@Details@Platform@@8 100d0568     WinRTVFS.obj
 0003:0000a574       ??_R1A@?0A@EA@?$__abi_FunctorCapture@V<lambda_f0a7c2b0a64e3b533e4acd91ff29d36c>@@XP$AAU?$IAsyncOperation@P$AAVStorageFile@Storage@Windows@@@Foundation@Windows@@W4AsyncStatus@34@@Details@Platform@@8 100d0574     WinRTVFS.obj
 0003:0000a598       ??_R4?$__abi_FunctorCapture@V<lambda_3e0d823744565aaa3c572230ef0680e7>@@XP$AAU?$IAsyncOperationWithProgress@P$AAUIBuffer@Streams@Storage@Windows@@I@Foundation@Windows@@W4AsyncStatus@34@@Details@Platform@@6B@ 100d0598     WinRTVFS.obj
 0003:0000a5b0       ??_R3?$__abi_FunctorCapture@V<lambda_3e0d823744565aaa3c572230ef0680e7>@@XP$AAU?$IAsyncOperationWithProgress@P$AAUIBuffer@Streams@Storage@Windows@@I@Foundation@Windows@@W4AsyncStatus@34@@Details@Platform@@8 100d05b0     WinRTVFS.obj
 0003:0000a5c4       ??_R2?$__abi_FunctorCapture@V<lambda_3e0d823744565aaa3c572230ef0680e7>@@XP$AAU?$IAsyncOperationWithProgress@P$AAUIBuffer@Streams@Storage@Windows@@I@Foundation@Windows@@W4AsyncStatus@34@@Details@Platform@@8 100d05c4     WinRTVFS.obj
 0003:0000a5d0       ??_R1A@?0A@EA@?$__abi_FunctorCapture@V<lambda_3e0d823744565aaa3c572230ef0680e7>@@XP$AAU?$IAsyncOperationWithProgress@P$AAUIBuffer@Streams@Storage@Windows@@I@Foundation@Windows@@W4AsyncStatus@34@@Details@Platform@@8 100d05d0     WinRTVFS.obj
 0003:0000a5f4       ??_R4?$__abi_FunctorCapture@V<lambda_7a641106db6b220fc1bd53009e5e1b6e>@@XP$AAU?$IAsyncOperationWithProgress@II@Foundation@Windows@@W4AsyncStatus@34@@Details@Platform@@6B@ 100d05f4     WinRTVFS.obj
 0003:0000a60c       ??_R3?$__abi_FunctorCapture@V<lambda_7a641106db6b220fc1bd53009e5e1b6e>@@XP$AAU?$IAsyncOperationWithProgress@II@Foundation@Windows@@W4AsyncStatus@34@@Details@Platform@@8 100d060c     WinRTVFS.obj
 0003:0000a620       ??_R2?$__abi_FunctorCapture@V<lambda_7a641106db6b220fc1bd53009e5e1b6e>@@XP$AAU?$IAsyncOperationWithProgress@II@Foundation@Windows@@W4AsyncStatus@34@@Details@Platform@@8 100d0620     WinRTVFS.obj
 0003:0000a62c       ??_R1A@?0A@EA@?$__abi_FunctorCapture@V<lambda_7a641106db6b220fc1bd53009e5e1b6e>@@XP$AAU?$IAsyncOperationWithProgress@II@Foundation@Windows@@W4AsyncStatus@34@@Details@Platform@@8 100d062c     WinRTVFS.obj
 0003:0000a650       ??_R4?$_Func_impl@U?$_Callable_obj@V<lambda_9fc58f08a03183e50e06176727aeb396>@@$0A@@std@@V?$allocator@V?$_Func_class@X$$$V@std@@@2@X$$$V@std@@6B@ 100d0650     WinRTVFS.obj
 0003:0000a668       ??_R3?$_Func_impl@U?$_Callable_obj@V<lambda_9fc58f08a03183e50e06176727aeb396>@@$0A@@std@@V?$allocator@V?$_Func_class@X$$$V@std@@@2@X$$$V@std@@8 100d0668     WinRTVFS.obj
 0003:0000a67c       ??_R2?$_Func_impl@U?$_Callable_obj@V<lambda_9fc58f08a03183e50e06176727aeb396>@@$0A@@std@@V?$allocator@V?$_Func_class@X$$$V@std@@@2@X$$$V@std@@8 100d067c     WinRTVFS.obj
 0003:0000a688       ??_R1A@?0A@EA@?$_Func_impl@U?$_Callable_obj@V<lambda_9fc58f08a03183e50e06176727aeb396>@@$0A@@std@@V?$allocator@V?$_Func_class@X$$$V@std@@@2@X$$$V@std@@8 100d0688     WinRTVFS.obj
 0003:0000a6ac       ??_R4?$__abi_FunctorCapture@V<lambda_50a95a3b918e2a131c7de197f9d43680>@@XP$AAU?$IAsyncOperation@I@Foundation@Windows@@W4AsyncStatus@34@@Details@Platform@@6B@ 100d06ac     WinRTVFS.obj
 0003:0000a6c4       ??_R3?$__abi_FunctorCapture@V<lambda_50a95a3b918e2a131c7de197f9d43680>@@XP$AAU?$IAsyncOperation@I@Foundation@Windows@@W4AsyncStatus@34@@Details@Platform@@8 100d06c4     WinRTVFS.obj
 0003:0000a6d8       ??_R2?$__abi_FunctorCapture@V<lambda_50a95a3b918e2a131c7de197f9d43680>@@XP$AAU?$IAsyncOperation@I@Foundation@Windows@@W4AsyncStatus@34@@Details@Platform@@8 100d06d8     WinRTVFS.obj
 0003:0000a6e4       ??_R1A@?0A@EA@?$__abi_FunctorCapture@V<lambda_50a95a3b918e2a131c7de197f9d43680>@@XP$AAU?$IAsyncOperation@I@Foundation@Windows@@W4AsyncStatus@34@@Details@Platform@@8 100d06e4     WinRTVFS.obj
 0003:0000a708       ??_R4?$__abi_FunctorCapture@V<lambda_8b35f48eeaabe3dd7cb14b365c80a64b>@@XP$AAU?$IAsyncOperation@P$AAUIBuffer@Streams@Storage@Windows@@@Foundation@Windows@@W4AsyncStatus@34@@Details@Platform@@6B@ 100d0708     WinRTVFS.obj
 0003:0000a720       ??_R3?$__abi_FunctorCapture@V<lambda_8b35f48eeaabe3dd7cb14b365c80a64b>@@XP$AAU?$IAsyncOperation@P$AAUIBuffer@Streams@Storage@Windows@@@Foundation@Windows@@W4AsyncStatus@34@@Details@Platform@@8 100d0720     WinRTVFS.obj
 0003:0000a734       ??_R2?$__abi_FunctorCapture@V<lambda_8b35f48eeaabe3dd7cb14b365c80a64b>@@XP$AAU?$IAsyncOperation@P$AAUIBuffer@Streams@Storage@Windows@@@Foundation@Windows@@W4AsyncStatus@34@@Details@Platform@@8 100d0734     WinRTVFS.obj
 0003:0000a740       ??_R1A@?0A@EA@?$__abi_FunctorCapture@V<lambda_8b35f48eeaabe3dd7cb14b365c80a64b>@@XP$AAU?$IAsyncOperation@P$AAUIBuffer@Streams@Storage@Windows@@@Foundation@Windows@@W4AsyncStatus@34@@Details@Platform@@8 100d0740     WinRTVFS.obj
 0003:0000a764       ??_R4CustomValueType@Details@Platform@@6B__ICustomValueTypePublicNonVirtuals@12@@ 100d0764     vccorlibd:init.obj
 0003:0000a77c       ??_R3CustomValueType@Details@Platform@@8 100d077c     vccorlibd:init.obj
 0003:0000a790       ??_R2CustomValueType@Details@Platform@@8 100d0790     vccorlibd:init.obj
 0003:0000a7b8       ??_R1A@?0A@EA@CustomValueType@Details@Platform@@8 100d07b8     vccorlibd:init.obj
 0003:0000a7dc       ??_R1A@?0A@EA@__ICustomValueTypePublicNonVirtuals@Details@Platform@@8 100d07dc     vccorlibd:init.obj
 0003:0000a800       ??_R3__ICustomValueTypePublicNonVirtuals@Details@Platform@@8 100d0800     vccorlibd:init.obj
 0003:0000a814       ??_R2__ICustomValueTypePublicNonVirtuals@Details@Platform@@8 100d0814     vccorlibd:init.obj
 0003:0000a820       ??_R13?0A@EA@ValueType@Platform@@8 100d0820     vccorlibd:init.obj
 0003:0000a844       ??_R3ValueType@Platform@@8 100d0844     vccorlibd:init.obj
 0003:0000a858       ??_R2ValueType@Platform@@8 100d0858     vccorlibd:init.obj
 0003:0000a864       ??_R1A@?0A@EA@ValueType@Platform@@8 100d0864     vccorlibd:init.obj
 0003:0000a888       ??_R4CustomValueType@Details@Platform@@6BValueType@2@@ 100d0888     vccorlibd:init.obj
 0003:0000a8a0       ??_R4CustomValueType@Details@Platform@@6B__abi_IUnknown@@@ 100d08a0     vccorlibd:init.obj
 0003:0000a8b8       ??_R4CustomValueType@Details@Platform@@6BObject@2@@ 100d08b8     vccorlibd:init.obj
 0003:0000a8d0       ??_R4CustomEnum@Details@Platform@@6B__ICustomEnumPublicNonVirtuals@12@@ 100d08d0     vccorlibd:init.obj
 0003:0000a8e8       ??_R3CustomEnum@Details@Platform@@8 100d08e8     vccorlibd:init.obj
 0003:0000a8fc       ??_R2CustomEnum@Details@Platform@@8 100d08fc     vccorlibd:init.obj
 0003:0000a928       ??_R1A@?0A@EA@CustomEnum@Details@Platform@@8 100d0928     vccorlibd:init.obj
 0003:0000a94c       ??_R1A@?0A@EA@__ICustomEnumPublicNonVirtuals@Details@Platform@@8 100d094c     vccorlibd:init.obj
 0003:0000a970       ??_R3__ICustomEnumPublicNonVirtuals@Details@Platform@@8 100d0970     vccorlibd:init.obj
 0003:0000a984       ??_R2__ICustomEnumPublicNonVirtuals@Details@Platform@@8 100d0984     vccorlibd:init.obj
 0003:0000a990       ??_R13?0A@EA@Enum@Platform@@8 100d0990     vccorlibd:init.obj
 0003:0000a9b4       ??_R3Enum@Platform@@8      100d09b4     vccorlibd:init.obj
 0003:0000a9c8       ??_R2Enum@Platform@@8      100d09c8     vccorlibd:init.obj
 0003:0000a9d8       ??_R1A@?0A@EA@Enum@Platform@@8 100d09d8     vccorlibd:init.obj
 0003:0000a9fc       ??_R4CustomEnum@Details@Platform@@6BEnum@2@@ 100d09fc     vccorlibd:init.obj
 0003:0000aa14       ??_R4CustomEnum@Details@Platform@@6B__abi_IUnknown@@@ 100d0a14     vccorlibd:init.obj
 0003:0000aa2c       ??_R4CustomEnum@Details@Platform@@6BObject@2@@ 100d0a2c     vccorlibd:init.obj
 0003:0000aa44       ??_R4?$Array@E$00@Platform@@6BObject@1@?$IBoxArray@E@1@@ 100d0a44     vccorlibd:init.obj
 0003:0000aa5c       ??_R3?$Array@E$00@Platform@@8 100d0a5c     vccorlibd:init.obj
 0003:0000aa70       ??_R2?$Array@E$00@Platform@@8 100d0a70     vccorlibd:init.obj
 0003:0000aad8       ??_R1A@?0A@EA@?$Array@E$00@Platform@@8 100d0ad8     vccorlibd:init.obj
 0003:0000aafc       ??_R17?0A@EA@__I?$Array@E$00PublicNonVirtuals@Platform@@8 100d0afc     vccorlibd:init.obj
 0003:0000ab20       ??_R3__I?$Array@E$00PublicNonVirtuals@Platform@@8 100d0b20     vccorlibd:init.obj
 0003:0000ab34       ??_R2__I?$Array@E$00PublicNonVirtuals@Platform@@8 100d0b34     vccorlibd:init.obj
 0003:0000ab40       ??_R1A@?0A@EA@__I?$Array@E$00PublicNonVirtuals@Platform@@8 100d0b40     vccorlibd:init.obj
 0003:0000ab64       ??_R1M@?0A@EC@IDisposable@Platform@@8 100d0b64     vccorlibd:init.obj
 0003:0000ab88       ??_R3IDisposable@Platform@@8 100d0b88     vccorlibd:init.obj
 0003:0000ab9c       ??_R2IDisposable@Platform@@8 100d0b9c     vccorlibd:init.obj
 0003:0000aba8       ??_R1A@?0A@EA@IDisposable@Platform@@8 100d0ba8     vccorlibd:init.obj
 0003:0000abcc       ??_R1BA@?0A@EA@?$WriteOnlyArray@E$00@Platform@@8 100d0bcc     vccorlibd:init.obj
 0003:0000abf0       ??_R3?$WriteOnlyArray@E$00@Platform@@8 100d0bf0     vccorlibd:init.obj
 0003:0000ac04       ??_R2?$WriteOnlyArray@E$00@Platform@@8 100d0c04     vccorlibd:init.obj
 0003:0000ac30       ??_R1A@?0A@EA@?$WriteOnlyArray@E$00@Platform@@8 100d0c30     vccorlibd:init.obj
 0003:0000ac54       ??_R1A@?0A@EA@__I?$WriteOnlyArray@E$00PublicNonVirtuals@Platform@@8 100d0c54     vccorlibd:init.obj
 0003:0000ac78       ??_R3__I?$WriteOnlyArray@E$00PublicNonVirtuals@Platform@@8 100d0c78     vccorlibd:init.obj
 0003:0000ac8c       ??_R2__I?$WriteOnlyArray@E$00PublicNonVirtuals@Platform@@8 100d0c8c     vccorlibd:init.obj
 0003:0000ac98       ??_R13?0A@EA@IDisposable@Platform@@8 100d0c98     vccorlibd:init.obj
 0003:0000acbc       ??_R1M@?0A@EA@IWeakReferenceSource@Details@Platform@@8 100d0cbc     vccorlibd:init.obj
 0003:0000ace0       ??_R1M@?0A@EA@__abi_IUnknown@@8 100d0ce0     vccorlibd:init.obj
 0003:0000ad04       ??_R1BA@?0A@EA@__I?$WriteOnlyArray@E$00PublicNonVirtuals@Platform@@8 100d0d04     vccorlibd:init.obj
 0003:0000ad28       ??_R1BE@?0A@EC@IDisposable@Platform@@8 100d0d28     vccorlibd:init.obj
 0003:0000ad4c       ??_R1BE@?0A@EC@Object@Platform@@8 100d0d4c     vccorlibd:init.obj
 0003:0000ad70       ??_R1BI@?0A@EC@Object@Platform@@8 100d0d70     vccorlibd:init.obj
 0003:0000ad94       ??_R1BM@?0A@EC@IWeakReferenceSource@Details@Platform@@8 100d0d94     vccorlibd:init.obj
 0003:0000adb8       ??_R1BM@?0A@EC@__abi_IUnknown@@8 100d0db8     vccorlibd:init.obj
 0003:0000addc       ??_R1CA@?0A@EC@Object@Platform@@8 100d0ddc     vccorlibd:init.obj
 0003:0000ae00       ??_R1A@?0A@EA@?$IBoxArray@E@Platform@@8 100d0e00     vccorlibd:init.obj
 0003:0000ae24       ??_R3?$IBoxArray@E@Platform@@8 100d0e24     vccorlibd:init.obj
 0003:0000ae38       ??_R2?$IBoxArray@E@Platform@@8 100d0e38     vccorlibd:init.obj
 0003:0000ae4c       ??_R13?0A@EA@IValueType@Platform@@8 100d0e4c     vccorlibd:init.obj
 0003:0000ae70       ??_R3IValueType@Platform@@8 100d0e70     vccorlibd:init.obj
 0003:0000ae84       ??_R2IValueType@Platform@@8 100d0e84     vccorlibd:init.obj
 0003:0000ae90       ??_R1A@?0A@EA@IValueType@Platform@@8 100d0e90     vccorlibd:init.obj
 0003:0000aeb4       ??_R1DM@?0A@EC@IWeakReferenceSource@Details@Platform@@8 100d0eb4     vccorlibd:init.obj
 0003:0000aed8       ??_R1DM@?0A@EC@__abi_IUnknown@@8 100d0ed8     vccorlibd:init.obj
 0003:0000aefc       ??_R1EA@?0A@EC@Object@Platform@@8 100d0efc     vccorlibd:init.obj
 0003:0000af20       ??_R4?$Array@E$00@Platform@@6BIValueType@1@@ 100d0f20     vccorlibd:init.obj
 0003:0000af38       ??_R4?$Array@E$00@Platform@@6B__I?$Array@E$00PublicNonVirtuals@1@@ 100d0f38     vccorlibd:init.obj
 0003:0000af50       ??_R4?$Array@E$00@Platform@@6BIDisposable@1@@ 100d0f50     vccorlibd:init.obj
 0003:0000af68       ??_R4?$Array@E$00@Platform@@6B__I?$WriteOnlyArray@E$00PublicNonVirtuals@1@@ 100d0f68     vccorlibd:init.obj
 0003:0000af80       ??_R4?$Array@E$00@Platform@@6BIDisposable@1@?$WriteOnlyArray@E$00@1@@ 100d0f80     vccorlibd:init.obj
 0003:0000af98       ??_R4?$Array@E$00@Platform@@6BObject@1@?$WriteOnlyArray@E$00@1@@ 100d0f98     vccorlibd:init.obj
 0003:0000afb0       ??_R4?$Array@E$00@Platform@@6B__abi_IUnknown@@?$WriteOnlyArray@E$00@1@@ 100d0fb0     vccorlibd:init.obj
 0003:0000afc8       ??_R4?$Array@E$00@Platform@@6BObject@1@IWeakReferenceSource@Details@1@?$WriteOnlyArray@E$00@1@@ 100d0fc8     vccorlibd:init.obj
 0003:0000afe0       ??_R4?$Array@E$00@Platform@@6B__abi_IUnknown@@IWeakReferenceSource@Details@1@@ 100d0fe0     vccorlibd:init.obj
 0003:0000aff8       ??_R4?$Array@E$00@Platform@@6BObject@1@IWeakReferenceSource@Details@1@@ 100d0ff8     vccorlibd:init.obj
 0003:0000b010       ??_R4?$WriteOnlyArray@E$00@Platform@@6B__I?$WriteOnlyArray@E$00PublicNonVirtuals@1@@ 100d1010     vccorlibd:init.obj
 0003:0000b028       ??_R4?$WriteOnlyArray@E$00@Platform@@6BIDisposable@1@@ 100d1028     vccorlibd:init.obj
 0003:0000b040       ??_R4?$WriteOnlyArray@E$00@Platform@@6BObject@1@@ 100d1040     vccorlibd:init.obj
 0003:0000b058       ??_R4?$WriteOnlyArray@E$00@Platform@@6B__abi_IUnknown@@@ 100d1058     vccorlibd:init.obj
 0003:0000b070       ??_R4?$WriteOnlyArray@E$00@Platform@@6BObject@1@IWeakReferenceSource@Details@1@@ 100d1070     vccorlibd:init.obj
 0003:0000b088       ??_R3ModuleBase@Details@WRL@Microsoft@@8 100d1088     vccorlibd:init.obj
 0003:0000b09c       ??_R2ModuleBase@Details@WRL@Microsoft@@8 100d109c     vccorlibd:init.obj
 0003:0000b0a4       ??_R1A@?0A@EA@ModuleBase@Details@WRL@Microsoft@@8 100d10a4     vccorlibd:init.obj
 0003:0000b0c8       ??_R4InProcModule@Details@Platform@@6B?$Module@$04VInProcModule@Details@Platform@@@WRL@Microsoft@@@ 100d10c8     vccorlibd:init.obj
 0003:0000b0e0       ??_R3InProcModule@Details@Platform@@8 100d10e0     vccorlibd:init.obj
 0003:0000b0f4       ??_R2InProcModule@Details@Platform@@8 100d10f4     vccorlibd:init.obj
 0003:0000b110       ??_R1A@?0A@EA@InProcModule@Details@Platform@@8 100d1110     vccorlibd:init.obj
 0003:0000b134       ??_R1A@?0A@EA@?$Module@$04VInProcModule@Details@Platform@@@WRL@Microsoft@@8 100d1134     vccorlibd:init.obj
 0003:0000b158       ??_R3?$Module@$04VInProcModule@Details@Platform@@@WRL@Microsoft@@8 100d1158     vccorlibd:init.obj
 0003:0000b16c       ??_R2?$Module@$04VInProcModule@Details@Platform@@@WRL@Microsoft@@8 100d116c     vccorlibd:init.obj
 0003:0000b17c       ??_R1A@?0A@EA@?$Module@$00VInProcModule@Details@Platform@@@WRL@Microsoft@@8 100d117c     vccorlibd:init.obj
 0003:0000b1a0       ??_R3?$Module@$00VInProcModule@Details@Platform@@@WRL@Microsoft@@8 100d11a0     vccorlibd:init.obj
 0003:0000b1b4       ??_R2?$Module@$00VInProcModule@Details@Platform@@@WRL@Microsoft@@8 100d11b4     vccorlibd:init.obj
 0003:0000b1c0       ??_R13?0A@EA@__abi_Module@@8 100d11c0     vccorlibd:init.obj
 0003:0000b1e4       ??_R3__abi_Module@@8       100d11e4     vccorlibd:init.obj
 0003:0000b1f8       ??_R2__abi_Module@@8       100d11f8     vccorlibd:init.obj
 0003:0000b200       ??_R1A@?0A@EA@__abi_Module@@8 100d1200     vccorlibd:init.obj
 0003:0000b224       ??_R4InProcModule@Details@Platform@@6B__abi_Module@@@ 100d1224     vccorlibd:init.obj
 0003:0000b23c       ??_R4?$Module@$04VInProcModule@Details@Platform@@@WRL@Microsoft@@6B@ 100d123c     vccorlibd:init.obj
 0003:0000b254       ??_R4?$Module@$00VInProcModule@Details@Platform@@@WRL@Microsoft@@6B@ 100d1254     vccorlibd:init.obj
 0003:0000b26c       ??_R4type_info@@6B@        100d126c     MSVCRTD:ti_inst.obj
 0003:0000b284       ??_R3type_info@@8          100d1284     MSVCRTD:ti_inst.obj
 0003:0000b298       ??_R2type_info@@8          100d1298     MSVCRTD:ti_inst.obj
 0003:0000b2a0       ??_R1A@?0A@EA@type_info@@8 100d12a0     MSVCRTD:ti_inst.obj
 0003:0000b580       ___rtc_iaa                 100d1580     MSVCRTD:initsect.obj
 0003:0000b7ac       ___rtc_izz                 100d17ac     MSVCRTD:initsect.obj
 0003:0000b8b0       ___rtc_taa                 100d18b0     MSVCRTD:initsect.obj
 0003:0000badc       ___rtc_tzz                 100d1adc     MSVCRTD:initsect.obj
 0003:00012dd0       __TI2?AVruntime_error@std@@ 100d8dd0     WinRTVFS.obj
 0003:00012de4       __CTA2?AVruntime_error@std@@ 100d8de4     WinRTVFS.obj
 0003:00012df4       __CT??_R0?AVruntime_error@std@@@8??0runtime_error@std@@QAE@ABV01@@Z12 100d8df4     WinRTVFS.obj
 0003:00012e14       __CT??_R0?AVexception@std@@@8??0exception@std@@QAE@ABV01@@Z12 100d8e14     WinRTVFS.obj
 0003:00012e34       __CT??_R0P$AAVException@Platform@@@84 100d8e34     WinRTVFS.obj
 0003:00012e54       __CT??_R0P$AAVObject@Platform@@@84 100d8e54     WinRTVFS.obj
 0003:00012e74       __CT??_R0P$AAUIPrintable@Details@Platform@@@844 100d8e74     WinRTVFS.obj
 0003:00012e94       __CT??_R0P$AAVObject@Platform@@@844 100d8e94     WinRTVFS.obj
 0003:00012eb4       __CT??_R0P$AAUIEquatable@Details@Platform@@@848 100d8eb4     WinRTVFS.obj
 0003:00012ed4       __CT??_R0P$AAVObject@Platform@@@848 100d8ed4     WinRTVFS.obj
 0003:00012ef4       __CT??_R0P$AAUIDisposable@Platform@@@8412 100d8ef4     WinRTVFS.obj
 0003:00012f14       __CT??_R0P$AAVObject@Platform@@@8412 100d8f14     WinRTVFS.obj
 0003:00012f34       __CT??_R0PAX@84            100d8f34     WinRTVFS.obj
 0003:00012f54       __TI2?AVbad_alloc@std@@    100d8f54     WinRTVFS.obj
 0003:00012f68       __CTA2?AVbad_alloc@std@@   100d8f68     WinRTVFS.obj
 0003:00012f78       __CT??_R0?AVbad_alloc@std@@@8??0bad_alloc@std@@QAE@ABV01@@Z12 100d8f78     WinRTVFS.obj
 0003:00012f98       __TI3?AVinvalid_argument@std@@ 100d8f98     WinRTVFS.obj
 0003:00012fac       __CTA3?AVinvalid_argument@std@@ 100d8fac     WinRTVFS.obj
 0003:00012fc0       __CT??_R0?AVinvalid_argument@std@@@8??0invalid_argument@std@@QAE@ABV01@@Z12 100d8fc0     WinRTVFS.obj
 0003:00012fe0       __CT??_R0?AVlogic_error@std@@@8??0logic_error@std@@QAE@ABV01@@Z12 100d8fe0     WinRTVFS.obj
 0003:00013000       __TI2?AVinvalid_operation@Concurrency@@ 100d9000     WinRTVFS.obj
 0003:00013014       __CTA2?AVinvalid_operation@Concurrency@@ 100d9014     WinRTVFS.obj
 0003:00013024       __CT??_R0?AVinvalid_operation@Concurrency@@@8??0invalid_operation@Concurrency@@QAE@ABV01@@Z12 100d9024     WinRTVFS.obj
 0003:00013044       __TI2?AVtask_canceled@Concurrency@@ 100d9044     WinRTVFS.obj
 0003:00013058       __CTA2?AVtask_canceled@Concurrency@@ 100d9058     WinRTVFS.obj
 0003:00013068       __CT??_R0?AVtask_canceled@Concurrency@@@8??0task_canceled@Concurrency@@QAE@ABV01@@Z12 100d9068     WinRTVFS.obj
 0003:00013088       __TI9P$AAVException@Platform@@ 100d9088     WinRTVFS.obj
 0003:0001309c       __CTA9P$AAVException@Platform@@ 100d909c     WinRTVFS.obj
 0003:000130c8       __TI2?AVbad_weak_ptr@std@@ 100d90c8     WinRTVFS.obj
 0003:000130dc       __CTA2?AVbad_weak_ptr@std@@ 100d90dc     WinRTVFS.obj
 0003:000130ec       __CT??_R0?AVbad_weak_ptr@std@@@8??0bad_weak_ptr@std@@QAE@ABV01@@Z12 100d90ec     WinRTVFS.obj
 0003:0001310c       __TI2?AVinvalid_link_target@Concurrency@@ 100d910c     WinRTVFS.obj
 0003:00013120       __CTA2?AVinvalid_link_target@Concurrency@@ 100d9120     WinRTVFS.obj
 0003:00013130       __CT??_R0?AVinvalid_link_target@Concurrency@@@8??0invalid_link_target@Concurrency@@QAE@ABV01@@Z12 100d9130     WinRTVFS.obj
 0003:00013150       __TI2?AVmessage_not_found@Concurrency@@ 100d9150     WinRTVFS.obj
 0003:00013164       __CTA2?AVmessage_not_found@Concurrency@@ 100d9164     WinRTVFS.obj
 0003:00013174       __CT??_R0?AVmessage_not_found@Concurrency@@@8??0message_not_found@Concurrency@@QAE@ABV01@@Z12 100d9174     WinRTVFS.obj
 0003:00013194       __TI2?AVbad_target@Concurrency@@ 100d9194     WinRTVFS.obj
 0003:000131a8       __CTA2?AVbad_target@Concurrency@@ 100d91a8     WinRTVFS.obj
 0003:000131b8       __CT??_R0?AVbad_target@Concurrency@@@8??0bad_target@Concurrency@@QAE@ABV01@@Z12 100d91b8     WinRTVFS.obj
 0004:00000000       ?__forceInstantiate1@@3PAXA 100db000     pch.obj
 0004:00000008       ??_7error_category@std@@6B@ 100db008     pch.obj
 0004:0000002c       ??_7_Generic_error_category@std@@6B@ 100db02c     pch.obj
 0004:00000050       ??_7_Iostream_error_category@std@@6B@ 100db050     pch.obj
 0004:00000074       ??_7_System_error_category@std@@6B@ 100db074     pch.obj
 0004:00000098       ??_7__WinRTVFSActivationFactory@SQLiteWinRTExtensions@@6B__IWinRTVFSStatics@1@@ 100db098     SQLiteWinRTExtensions.obj
 0004:000000c4       ??_7__WinRTVFSActivationFactory@SQLiteWinRTExtensions@@6BObject@Platform@@@ 100db0c4     SQLiteWinRTExtensions.obj
 0004:000000e8       ??_7__WinRTVFSActivationFactory@SQLiteWinRTExtensions@@6BIActivationFactory@Details@Platform@@@ 100db0e8     SQLiteWinRTExtensions.obj
 0004:00000114       ??_7WinRTVFS@SQLiteWinRTExtensions@@6B__IWinRTVFSPublicNonVirtuals@1@@ 100db114     SQLiteWinRTExtensions.obj
 0004:00000138       ??_7WinRTVFS@SQLiteWinRTExtensions@@6BObject@Platform@@@ 100db138     SQLiteWinRTExtensions.obj
 0004:0000015c       ??_7WinRTVFS@SQLiteWinRTExtensions@@6B__abi_IUnknown@@@ 100db15c     SQLiteWinRTExtensions.obj
 0004:00000178       ??_7WinRTVFS@SQLiteWinRTExtensions@@6BObject@Platform@@IWeakReferenceSource@Details@3@@ 100db178     SQLiteWinRTExtensions.obj
 0004:0000019c       ??_7__abi_CaptureBase@Details@Platform@@6B@ 100db19c     WinRTVFS.obj
 0004:000001a8       ??_7bad_alloc@std@@6B@     100db1a8     WinRTVFS.obj
 0004:000001b8       ??_7logic_error@std@@6B@   100db1b8     WinRTVFS.obj
 0004:000001c8       ??_7invalid_argument@std@@6B@ 100db1c8     WinRTVFS.obj
 0004:000001d8       ??_7runtime_error@std@@6B@ 100db1d8     WinRTVFS.obj
 0004:000001e8       ??_7bad_weak_ptr@std@@6B@  100db1e8     WinRTVFS.obj
 0004:000001f8       ??_7_Ref_count_base@std@@6B@ 100db1f8     WinRTVFS.obj
 0004:0000020c       ?__LINE__Var@?1??_Memory_order_upper_bound@std@@YA?AW4memory_order@2@W432@0@Z@4JA 100db20c     WinRTVFS.obj
 0004:00000210       ?__LINE__Var@?1??_Validate_compare_exchange_memory_order@std@@YAXW4memory_order@2@0@Z@4JA 100db210     WinRTVFS.obj
 0004:00000214       ?__LINE__Var@?1??_Atomic_store_4@std@@YAXPCKKW4memory_order@2@@Z@4JA 100db214     WinRTVFS.obj
 0004:00000218       ?__LINE__Var@?1??_Atomic_load_4@std@@YAKPCKW4memory_order@2@@Z@4JA 100db218     WinRTVFS.obj
 0004:0000021c       ?__LINE__Var@?1??_Atomic_exchange_4@std@@YAKPCKKW4memory_order@2@@Z@4JA 100db21c     WinRTVFS.obj
 0004:00000220       ?__LINE__Var@?1??_Atomic_compare_exchange_strong_4@std@@YAHPCKPAKKW4memory_order@2@2@Z@4JA 100db220     WinRTVFS.obj
 0004:00000224       ?__LINE__Var@?1??atomic_compare_exchange_strong_explicit@std@@YA_NPAUatomic_long@2@PAJJW4memory_order@2@2@Z@4JA 100db224     WinRTVFS.obj
 0004:0000022c       ??_7bad_target@Concurrency@@6B@ 100db22c     WinRTVFS.obj
 0004:0000023c       ??_7message_not_found@Concurrency@@6B@ 100db23c     WinRTVFS.obj
 0004:0000024c       ??_7invalid_link_target@Concurrency@@6B@ 100db24c     WinRTVFS.obj
 0004:0000025c       ??_7invalid_operation@Concurrency@@6B@ 100db25c     WinRTVFS.obj
 0004:0000026c       ??_7task_canceled@Concurrency@@6B@ 100db26c     WinRTVFS.obj
 0004:0000027c       ??_7_Chore@details@Concurrency@@6B@ 100db27c     WinRTVFS.obj
 0004:00000288       ??_7_UnrealizedChore@details@Concurrency@@6B@ 100db288     WinRTVFS.obj
 0004:00000294       ??_7_RefCounter@details@Concurrency@@6B@ 100db294     WinRTVFS.obj
 0004:000002a4       ??_7_CancellationTokenRegistration@details@Concurrency@@6B@ 100db2a4     WinRTVFS.obj
 0004:000002b8       ??_7_TaskProcHandle@details@Concurrency@@6B@ 100db2b8     WinRTVFS.obj
 0004:000002c8       ??_7?$_AsyncInfoImpl@P$AAUIAsyncAction@Foundation@Windows@@VAsyncActionCompletedHandler@23@E@details@Concurrency@@6B__I?$_AsyncInfoImpl@P$AAUIAsyncAction@Foundation@Windows@@VAsyncActionCompletedHandler@23@EPublicNonVirtuals@12@@ 100db2c8     WinRTVFS.obj
 0004:000002ec       ??_7?$_AsyncInfoImpl@P$AAUIAsyncAction@Foundation@Windows@@VAsyncActionCompletedHandler@23@E@details@Concurrency@@6BObject@Platform@@?$IAsyncOperation@E@Foundation@Windows@@@ 100db2ec     WinRTVFS.obj
 0004:0000032c       ??_7?$_AsyncInfoImpl@P$AAUIAsyncAction@Foundation@Windows@@VAsyncActionCompletedHandler@23@E@details@Concurrency@@6BIAsyncInfo@Foundation@Windows@@@ 100db32c     WinRTVFS.obj
 0004:00000380       ??_7?$_AsyncInfoImpl@P$AAUIAsyncAction@Foundation@Windows@@VAsyncActionCompletedHandler@23@E@details@Concurrency@@6BObject@Platform@@@ 100db380     WinRTVFS.obj
 0004:000003a4       ??_7_IAsyncActionToAsyncOperationConverter@details@Concurrency@@6B@ 100db3a4     WinRTVFS.obj
 0004:000003c8       ??_7_IAsyncActionToAsyncOperationConverter@details@Concurrency@@6B__I?$_AsyncInfoImpl@P$AAUIAsyncAction@Foundation@Windows@@VAsyncActionCompletedHandler@23@EPublicNonVirtuals@12@@ 100db3c8     WinRTVFS.obj
 0004:000003ec       ??_7_IAsyncActionToAsyncOperationConverter@details@Concurrency@@6BObject@Platform@@?$IAsyncOperation@E@Foundation@Windows@@@ 100db3ec     WinRTVFS.obj
 0004:0000042c       ??_7_IAsyncActionToAsyncOperationConverter@details@Concurrency@@6BIAsyncInfo@Foundation@Windows@@@ 100db42c     WinRTVFS.obj
 0004:00000480       ??_7_IAsyncActionToAsyncOperationConverter@details@Concurrency@@6BObject@Platform@@?$_AsyncInfoImpl@P$AAUIAsyncAction@Foundation@Windows@@VAsyncActionCompletedHandler@23@E@12@@ 100db480     WinRTVFS.obj
 0004:000004a4       ??_7_IAsyncActionToAsyncOperationConverter@details@Concurrency@@6B__abi_IUnknown@@@ 100db4a4     WinRTVFS.obj
 0004:000004c0       ??_7_IAsyncActionToAsyncOperationConverter@details@Concurrency@@6BObject@Platform@@IWeakReferenceSource@Details@4@@ 100db4c0     WinRTVFS.obj
 0004:000004e4       ??_7_ContinuationTaskHandleBase@details@Concurrency@@6B@ 100db4e4     WinRTVFS.obj
 0004:000004f8       ??_7_Task_impl_base@details@Concurrency@@6B@ 100db4f8     WinRTVFS.obj
 0004:00000508       ??_7?$_CancellationTokenCallback@V<lambda_17cb9174022a2677ccd4c777403439ce>@@@details@Concurrency@@6B@ 100db508     WinRTVFS.obj
 0004:0000051c       ??_7?$_Task_impl@E@details@Concurrency@@6B@ 100db51c     WinRTVFS.obj
 0004:0000052c       ??_7?$_Func_base@X$$$V@std@@6B@ 100db52c     WinRTVFS.obj
 0004:00000554       ??_7AsyncActionCompletedHandler@Foundation@Windows@@6B__abi_IUnknown@@@ 100db554     WinRTVFS.obj
 0004:00000570       ??_7AsyncActionCompletedHandler@Foundation@Windows@@6BObject@Platform@@@ 100db570     WinRTVFS.obj
 0004:00000594       ??_7AsyncActionCompletedHandler@Foundation@Windows@@6B@ 100db594     WinRTVFS.obj
 0004:000005b8       ??_7?$AsyncOperationCompletedHandler@E@Foundation@Windows@@6B__abi_IUnknown@@@ 100db5b8     WinRTVFS.obj
 0004:000005d4       ??_7?$AsyncOperationCompletedHandler@E@Foundation@Windows@@6BObject@Platform@@@ 100db5d4     WinRTVFS.obj
 0004:000005f8       ??_7?$AsyncOperationCompletedHandler@E@Foundation@Windows@@6B@ 100db5f8     WinRTVFS.obj
 0004:0000061c       ??_7?$_Func_base@EE@std@@6B@ 100db61c     WinRTVFS.obj
 0004:00000644       ??_7?$_Ref_count_obj@U_ExceptionHolder@details@Concurrency@@@std@@6B@ 100db644     WinRTVFS.obj
 0004:0000065c       ??_7?$__abi_FunctorCapture@V<lambda_06940b0a4178dd98f799c96a43aa5761>@@XP$AAUIAsyncAction@Foundation@Windows@@W4AsyncStatus@34@@Details@Platform@@6B@ 100db65c     WinRTVFS.obj
 0004:0000066c       ??_7?$_Ref_count_obj@U?$_Task_completion_event_impl@E@details@Concurrency@@@std@@6B@ 100db66c     WinRTVFS.obj
 0004:00000684       ??_7?$_Ref_count_obj@U?$_Task_impl@E@details@Concurrency@@@std@@6B@ 100db684     WinRTVFS.obj
 0004:0000069c       ??_7?$_Task_impl@_N@details@Concurrency@@6B@ 100db69c     WinRTVFS.obj
 0004:000006ac       ??_7?$__abi_FunctorCapture@V<lambda_b5ec294d64b7ae7d96b9bd52c133d46d>@@XP$AAU?$IAsyncOperation@E@Foundation@Windows@@W4AsyncStatus@34@@Details@Platform@@6B@ 100db6ac     WinRTVFS.obj
 0004:000006bc       ??_7?$_Func_impl@U?$_Callable_obj@V<lambda_095a938ce4c5765dcc6b67f548aeb9c7>@@$0A@@std@@V?$allocator@V?$_Func_class@X$$$V@std@@@2@X$$$V@std@@6B@ 100db6bc     WinRTVFS.obj
 0004:000006e4       ??_7?$_Func_impl@U?$_Callable_obj@V<lambda_e7ef5f1e4e1eca0ae8efc6086cf9f417>@@$0A@@std@@V?$allocator@V?$_Func_class@X$$$V@std@@@2@X$$$V@std@@6B@ 100db6e4     WinRTVFS.obj
 0004:0000070c       ??_7?$_Func_impl@U?$_Callable_obj@V<lambda_39cde079c01d1b5b9307ff255a1ccdd9>@@$0A@@std@@V?$allocator@V?$_Func_class@EE@std@@@2@EE@std@@6B@ 100db70c     WinRTVFS.obj
 0004:00000734       ??_7?$_Func_impl@U?$_Callable_obj@V<lambda_02d862f9cfc639ff7c37ca52d43e6a8c>@@$0A@@std@@V?$allocator@V?$_Func_class@X$$$V@std@@@2@X$$$V@std@@6B@ 100db734     WinRTVFS.obj
 0004:0000075c       ??_7?$_Ref_count_obj@U?$_Task_impl@_N@details@Concurrency@@@std@@6B@ 100db75c     WinRTVFS.obj
 0004:00000774       ??_7?$_Func_impl@U?$_Callable_obj@V<lambda_c1a554f2383dae03f169289aed8c4103>@@$0A@@std@@V?$allocator@V?$_Func_class@X$$$V@std@@@2@X$$$V@std@@6B@ 100db774     WinRTVFS.obj
 0004:0000079c       ??_7?$network_link_registry@V?$ITarget@H@Concurrency@@@Concurrency@@6B@ 100db79c     WinRTVFS.obj
 0004:000007c4       ??_7?$single_link_registry@V?$ITarget@H@Concurrency@@@Concurrency@@6B@ 100db7c4     WinRTVFS.obj
 0004:000007f0       ??_7?$ITarget@H@Concurrency@@6B@ 100db7f0     WinRTVFS.obj
 0004:00000818       ??_7?$ISource@H@Concurrency@@6B@ 100db818     WinRTVFS.obj
 0004:0000084c       ??_7?$message_processor@H@Concurrency@@6B@ 100db84c     WinRTVFS.obj
 0004:00000864       ??_7?$concurrent_queue@PAV?$message@H@Concurrency@@V?$allocator@PAV?$message@H@Concurrency@@@std@@@Concurrency@@6B@ 100db864     WinRTVFS.obj
 0004:00000888       ??_7?$ordered_message_processor@H@Concurrency@@6B@ 100db888     WinRTVFS.obj
 0004:000008ac       ??_7?$source_block@V?$single_link_registry@V?$ITarget@H@Concurrency@@@Concurrency@@V?$ordered_message_processor@H@2@@Concurrency@@6B@ 100db8ac     WinRTVFS.obj
 0004:0000091c       ??_7?$timer@H@Concurrency@@6B_Timer@details@1@@ 100db91c     WinRTVFS.obj
 0004:0000092c       ??_7?$timer@H@Concurrency@@6B?$source_block@V?$single_link_registry@V?$ITarget@H@Concurrency@@@Concurrency@@V?$ordered_message_processor@H@2@@1@@ 100db92c     WinRTVFS.obj
 0004:0000099c       ??_7?$network_link_registry@V?$ISource@H@Concurrency@@@Concurrency@@6B@ 100db99c     WinRTVFS.obj
 0004:000009c4       ??_7?$multi_link_registry@V?$ISource@H@Concurrency@@@Concurrency@@6B@ 100db9c4     WinRTVFS.obj
 0004:000009f4       ??_7?$target_block@V?$multi_link_registry@V?$ISource@H@Concurrency@@@Concurrency@@V?$ordered_message_processor@H@2@@Concurrency@@6B@ 100db9f4     WinRTVFS.obj
 0004:00000a30       ??_7?$call@HV?$function@$$A6AXABH@Z@std@@@Concurrency@@6B@ 100dba30     WinRTVFS.obj
 0004:00000a6c       ??_7?$_Task_impl@I@details@Concurrency@@6B@ 100dba6c     WinRTVFS.obj
 0004:00000a7c       ??_7?$_Task_impl@P$AAUIRandomAccessStream@Streams@Storage@Windows@@@details@Concurrency@@6B@ 100dba7c     WinRTVFS.obj
 0004:00000a8c       ??_7?$_Task_impl@P$AAUIBuffer@Streams@Storage@Windows@@@details@Concurrency@@6B@ 100dba8c     WinRTVFS.obj
 0004:00000a9c       ??_7?$message@H@Concurrency@@6B@ 100dba9c     WinRTVFS.obj
 0004:00000aac       ??_7?$_Source_link_iterator@V?$multi_link_registry@V?$ISource@H@Concurrency@@@Concurrency@@@Concurrency@@6B@ 100dbaac     WinRTVFS.obj
 0004:00000ab8       ??_7?$_Task_impl@P$AAVStorageFolder@Storage@Windows@@@details@Concurrency@@6B@ 100dbab8     WinRTVFS.obj
 0004:00000ac8       ??_7?$_Task_impl@P$AAVStorageFile@Storage@Windows@@@details@Concurrency@@6B@ 100dbac8     WinRTVFS.obj
 0004:00000ad8       ??_7?$_Func_base@XABH@std@@6B@ 100dbad8     WinRTVFS.obj
 0004:00000b00       ??_7?$_Func_base@XPAV?$message@H@Concurrency@@@std@@6B@ 100dbb00     WinRTVFS.obj
 0004:00000b28       ??_7?$_PPLTaskHandle@EU?$_ContinuationTaskHandle@XXV<lambda_9fc58f08a03183e50e06176727aeb396>@@U?$integral_constant@_N$0A@@std@@U_TypeSelectorNoAsync@details@Concurrency@@@?$task@E@Concurrency@@U_ContinuationTaskHandleBase@details@3@@details@Concurrency@@6B@ 100dbb28     WinRTVFS.obj
 0004:00000b3c       ??_7?$_ContinuationTaskHandle@XXV<lambda_9fc58f08a03183e50e06176727aeb396>@@U?$integral_constant@_N$0A@@std@@U_TypeSelectorNoAsync@details@Concurrency@@@?$task@E@Concurrency@@6B@ 100dbb3c     WinRTVFS.obj
 0004:00000b50       ??_7?$_Ref_count_obj@U?$_Task_impl@I@details@Concurrency@@@std@@6B@ 100dbb50     WinRTVFS.obj
 0004:00000b68       ??_7?$_Ref_count_obj@U?$_Task_impl@P$AAUIRandomAccessStream@Streams@Storage@Windows@@@details@Concurrency@@@std@@6B@ 100dbb68     WinRTVFS.obj
 0004:00000b80       ??_7?$_Ref_count_obj@U?$_Task_impl@P$AAUIBuffer@Streams@Storage@Windows@@@details@Concurrency@@@std@@6B@ 100dbb80     WinRTVFS.obj
 0004:00000b98       ??_7?$_Ref_count_obj@U?$_Task_impl@P$AAVStorageFolder@Storage@Windows@@@details@Concurrency@@@std@@6B@ 100dbb98     WinRTVFS.obj
 0004:00000bb0       ??_7?$_Ref_count_obj@U?$_Task_impl@P$AAVStorageFile@Storage@Windows@@@details@Concurrency@@@std@@6B@ 100dbbb0     WinRTVFS.obj
 0004:00000bc8       ??_7?$_AsyncInfoImpl@P$AAU?$IAsyncOperationWithProgress@P$AAUIBuffer@Streams@Storage@Windows@@I@Foundation@Windows@@V?$AsyncOperationWithProgressCompletedHandler@P$AAUIBuffer@Streams@Storage@Windows@@I@23@P$AAUIBuffer@Streams@Storage@3@@details@Concurrency@@6B__I?$_AsyncInfoImpl@P$AAU?$IAsyncOperationWithProgress@P$AAUIBuffer@Streams@Storage@Windows@@I@Foundation@Windows@@V?$AsyncOperationWithProgressCompletedHandler@P$AAUIBuffer@Streams@Storage@Windows@@I@23@P$AAUIBuffer@Streams@Storage@3@PublicNonVirtuals@12@@ 100dbbc8     WinRTVFS.obj
 0004:00000bec       ??_7?$_AsyncInfoImpl@P$AAU?$IAsyncOperationWithProgress@P$AAUIBuffer@Streams@Storage@Windows@@I@Foundation@Windows@@V?$AsyncOperationWithProgressCompletedHandler@P$AAUIBuffer@Streams@Storage@Windows@@I@23@P$AAUIBuffer@Streams@Storage@3@@details@Concurrency@@6BObject@Platform@@?$IAsyncOperation@P$AAUIBuffer@Streams@Storage@Windows@@@Foundation@Windows@@@ 100dbbec     WinRTVFS.obj
 0004:00000c2c       ??_7?$_AsyncInfoImpl@P$AAU?$IAsyncOperationWithProgress@P$AAUIBuffer@Streams@Storage@Windows@@I@Foundation@Windows@@V?$AsyncOperationWithProgressCompletedHandler@P$AAUIBuffer@Streams@Storage@Windows@@I@23@P$AAUIBuffer@Streams@Storage@3@@details@Concurrency@@6BIAsyncInfo@Foundation@Windows@@@ 100dbc2c     WinRTVFS.obj
 0004:00000c80       ??_7?$_AsyncInfoImpl@P$AAU?$IAsyncOperationWithProgress@P$AAUIBuffer@Streams@Storage@Windows@@I@Foundation@Windows@@V?$AsyncOperationWithProgressCompletedHandler@P$AAUIBuffer@Streams@Storage@Windows@@I@23@P$AAUIBuffer@Streams@Storage@3@@details@Concurrency@@6BObject@Platform@@@ 100dbc80     WinRTVFS.obj
 0004:00000ca4       ??_7?$_IAsyncOperationWithProgressToAsyncOperationConverter@P$AAUIBuffer@Streams@Storage@Windows@@I@details@Concurrency@@6B@ 100dbca4     WinRTVFS.obj
 0004:00000cc8       ??_7?$_IAsyncOperationWithProgressToAsyncOperationConverter@P$AAUIBuffer@Streams@Storage@Windows@@I@details@Concurrency@@6B__I?$_AsyncInfoImpl@P$AAU?$IAsyncOperationWithProgress@P$AAUIBuffer@Streams@Storage@Windows@@I@Foundation@Windows@@V?$AsyncOperationWithProgressCompletedHandler@P$AAUIBuffer@Streams@Storage@Windows@@I@23@P$AAUIBuffer@Streams@Storage@3@PublicNonVirtuals@12@@ 100dbcc8     WinRTVFS.obj
 0004:00000cec       ??_7?$_IAsyncOperationWithProgressToAsyncOperationConverter@P$AAUIBuffer@Streams@Storage@Windows@@I@details@Concurrency@@6BObject@Platform@@?$IAsyncOperation@P$AAUIBuffer@Streams@Storage@Windows@@@Foundation@Windows@@@ 100dbcec     WinRTVFS.obj
 0004:00000d2c       ??_7?$_IAsyncOperationWithProgressToAsyncOperationConverter@P$AAUIBuffer@Streams@Storage@Windows@@I@details@Concurrency@@6BIAsyncInfo@Foundation@Windows@@@ 100dbd2c     WinRTVFS.obj
 0004:00000d80       ??_7?$_IAsyncOperationWithProgressToAsyncOperationConverter@P$AAUIBuffer@Streams@Storage@Windows@@I@details@Concurrency@@6BObject@Platform@@?$_AsyncInfoImpl@P$AAU?$IAsyncOperationWithProgress@P$AAUIBuffer@Streams@Storage@Windows@@I@Foundation@Windows@@V?$AsyncOperationWithProgressCompletedHandler@P$AAUIBuffer@Streams@Storage@Windows@@I@23@P$AAUIBuffer@Streams@Storage@3@@12@@ 100dbd80     WinRTVFS.obj
 0004:00000da4       ??_7?$_IAsyncOperationWithProgressToAsyncOperationConverter@P$AAUIBuffer@Streams@Storage@Windows@@I@details@Concurrency@@6B__abi_IUnknown@@@ 100dbda4     WinRTVFS.obj
 0004:00000dc0       ??_7?$_IAsyncOperationWithProgressToAsyncOperationConverter@P$AAUIBuffer@Streams@Storage@Windows@@I@details@Concurrency@@6BObject@Platform@@IWeakReferenceSource@Details@4@@ 100dbdc0     WinRTVFS.obj
 0004:00000de4       ??_7?$_AsyncInfoImpl@P$AAU?$IAsyncOperationWithProgress@II@Foundation@Windows@@V?$AsyncOperationWithProgressCompletedHandler@II@23@I@details@Concurrency@@6B__I?$_AsyncInfoImpl@P$AAU?$IAsyncOperationWithProgress@II@Foundation@Windows@@V?$AsyncOperationWithProgressCompletedHandler@II@23@IPublicNonVirtuals@12@@ 100dbde4     WinRTVFS.obj
 0004:00000e08       ??_7?$_AsyncInfoImpl@P$AAU?$IAsyncOperationWithProgress@II@Foundation@Windows@@V?$AsyncOperationWithProgressCompletedHandler@II@23@I@details@Concurrency@@6BObject@Platform@@?$IAsyncOperation@I@Foundation@Windows@@@ 100dbe08     WinRTVFS.obj
 0004:00000e48       ??_7?$_AsyncInfoImpl@P$AAU?$IAsyncOperationWithProgress@II@Foundation@Windows@@V?$AsyncOperationWithProgressCompletedHandler@II@23@I@details@Concurrency@@6BIAsyncInfo@Foundation@Windows@@@ 100dbe48     WinRTVFS.obj
 0004:00000e9c       ??_7?$_AsyncInfoImpl@P$AAU?$IAsyncOperationWithProgress@II@Foundation@Windows@@V?$AsyncOperationWithProgressCompletedHandler@II@23@I@details@Concurrency@@6BObject@Platform@@@ 100dbe9c     WinRTVFS.obj
 0004:00000ec0       ??_7?$_IAsyncOperationWithProgressToAsyncOperationConverter@II@details@Concurrency@@6B@ 100dbec0     WinRTVFS.obj
 0004:00000ee4       ??_7?$_IAsyncOperationWithProgressToAsyncOperationConverter@II@details@Concurrency@@6B__I?$_AsyncInfoImpl@P$AAU?$IAsyncOperationWithProgress@II@Foundation@Windows@@V?$AsyncOperationWithProgressCompletedHandler@II@23@IPublicNonVirtuals@12@@ 100dbee4     WinRTVFS.obj
 0004:00000f08       ??_7?$_IAsyncOperationWithProgressToAsyncOperationConverter@II@details@Concurrency@@6BObject@Platform@@?$IAsyncOperation@I@Foundation@Windows@@@ 100dbf08     WinRTVFS.obj
 0004:00000f48       ??_7?$_IAsyncOperationWithProgressToAsyncOperationConverter@II@details@Concurrency@@6BIAsyncInfo@Foundation@Windows@@@ 100dbf48     WinRTVFS.obj
 0004:00000f9c       ??_7?$_IAsyncOperationWithProgressToAsyncOperationConverter@II@details@Concurrency@@6BObject@Platform@@?$_AsyncInfoImpl@P$AAU?$IAsyncOperationWithProgress@II@Foundation@Windows@@V?$AsyncOperationWithProgressCompletedHandler@II@23@I@12@@ 100dbf9c     WinRTVFS.obj
 0004:00000fc0       ??_7?$_IAsyncOperationWithProgressToAsyncOperationConverter@II@details@Concurrency@@6B__abi_IUnknown@@@ 100dbfc0     WinRTVFS.obj
 0004:00000fdc       ??_7?$_IAsyncOperationWithProgressToAsyncOperationConverter@II@details@Concurrency@@6BObject@Platform@@IWeakReferenceSource@Details@4@@ 100dbfdc     WinRTVFS.obj
 0004:00001000       ??_7?$_Func_impl@U?$_Callable_obj@V<lambda_1a93da980d6fe77644a4eefc4e1ad756>@@$0A@@std@@V?$allocator@V?$_Func_class@XABH@std@@@2@XABH@std@@6B@ 100dc000     WinRTVFS.obj
 0004:00001028       ??_7?$_Func_impl@U?$_Callable_obj@V<lambda_295bc5f846209cba149a5e74d0d63a72>@@$0A@@std@@V?$allocator@V?$_Func_class@XPAV?$message@H@Concurrency@@@std@@@2@XPAV?$message@H@Concurrency@@@std@@6B@ 100dc028     WinRTVFS.obj
 0004:00001050       ??_7?$_Func_impl@U?$_Callable_obj@V<lambda_c28a53003ed51cdfe295a7d756f98c2f>@@$0A@@std@@V?$allocator@V?$_Func_class@XPAV?$message@H@Concurrency@@@std@@@2@XPAV?$message@H@Concurrency@@@std@@6B@ 100dc050     WinRTVFS.obj
 0004:00001078       ??_7?$_Func_impl@U?$_Callable_obj@V<lambda_0fe479da16d43edb8e9a254c493d643e>@@$0A@@std@@V?$allocator@V?$_Func_class@X$$$V@std@@@2@X$$$V@std@@6B@ 100dc078     WinRTVFS.obj
 0004:000010a0       ??_7?$_Func_impl@U?$_Callable_obj@V<lambda_0b7f78ec4ced38495cec46e0d346e0b9>@@$0A@@std@@V?$allocator@V?$_Func_class@X$$$V@std@@@2@X$$$V@std@@6B@ 100dc0a0     WinRTVFS.obj
 0004:000010c8       ??_7?$_Func_impl@U?$_Callable_obj@V<lambda_a66b3ee15e662226a0b0b15ae647d32f>@@$0A@@std@@V?$allocator@V?$_Func_class@X$$$V@std@@@2@X$$$V@std@@6B@ 100dc0c8     WinRTVFS.obj
 0004:000010f0       ??_7?$_Func_impl@U?$_Callable_obj@V<lambda_364e75aa895e992ae8821732ca646aa2>@@$0A@@std@@V?$allocator@V?$_Func_class@X$$$V@std@@@2@X$$$V@std@@6B@ 100dc0f0     WinRTVFS.obj
 0004:00001118       ??_7?$_Func_impl@U?$_Callable_obj@V<lambda_528650821c608ced6534641e311542a5>@@$0A@@std@@V?$allocator@V?$_Func_class@X$$$V@std@@@2@X$$$V@std@@6B@ 100dc118     WinRTVFS.obj
 0004:00001140       ??_7?$_Func_impl@U?$_Callable_obj@V<lambda_579ccd68d569251046038e8620afec85>@@$0A@@std@@V?$allocator@V?$_Func_class@XPAV?$message@H@Concurrency@@@std@@@2@XPAV?$message@H@Concurrency@@@std@@6B@ 100dc140     WinRTVFS.obj
 0004:00001168       ??_7?$AsyncOperationCompletedHandler@_N@Foundation@Windows@@6B__abi_IUnknown@@@ 100dc168     WinRTVFS.obj
 0004:00001184       ??_7?$AsyncOperationCompletedHandler@_N@Foundation@Windows@@6BObject@Platform@@@ 100dc184     WinRTVFS.obj
 0004:000011a8       ??_7?$AsyncOperationCompletedHandler@_N@Foundation@Windows@@6B@ 100dc1a8     WinRTVFS.obj
 0004:000011cc       ??_7?$AsyncOperationCompletedHandler@P$AAUIRandomAccessStream@Streams@Storage@Windows@@@Foundation@Windows@@6B__abi_IUnknown@@@ 100dc1cc     WinRTVFS.obj
 0004:000011e8       ??_7?$AsyncOperationCompletedHandler@P$AAUIRandomAccessStream@Streams@Storage@Windows@@@Foundation@Windows@@6BObject@Platform@@@ 100dc1e8     WinRTVFS.obj
 0004:0000120c       ??_7?$AsyncOperationCompletedHandler@P$AAUIRandomAccessStream@Streams@Storage@Windows@@@Foundation@Windows@@6B@ 100dc20c     WinRTVFS.obj
 0004:00001230       ??_7?$AsyncOperationCompletedHandler@P$AAVStorageFolder@Storage@Windows@@@Foundation@Windows@@6B__abi_IUnknown@@@ 100dc230     WinRTVFS.obj
 0004:0000124c       ??_7?$AsyncOperationCompletedHandler@P$AAVStorageFolder@Storage@Windows@@@Foundation@Windows@@6BObject@Platform@@@ 100dc24c     WinRTVFS.obj
 0004:00001270       ??_7?$AsyncOperationCompletedHandler@P$AAVStorageFolder@Storage@Windows@@@Foundation@Windows@@6B@ 100dc270     WinRTVFS.obj
 0004:00001294       ??_7?$AsyncOperationCompletedHandler@P$AAVStorageFile@Storage@Windows@@@Foundation@Windows@@6B__abi_IUnknown@@@ 100dc294     WinRTVFS.obj
 0004:000012b0       ??_7?$AsyncOperationCompletedHandler@P$AAVStorageFile@Storage@Windows@@@Foundation@Windows@@6BObject@Platform@@@ 100dc2b0     WinRTVFS.obj
 0004:000012d4       ??_7?$AsyncOperationCompletedHandler@P$AAVStorageFile@Storage@Windows@@@Foundation@Windows@@6B@ 100dc2d4     WinRTVFS.obj
 0004:000012f8       ??_7?$AsyncOperationWithProgressCompletedHandler@P$AAUIBuffer@Streams@Storage@Windows@@I@Foundation@Windows@@6B__abi_IUnknown@@@ 100dc2f8     WinRTVFS.obj
 0004:00001314       ??_7?$AsyncOperationWithProgressCompletedHandler@P$AAUIBuffer@Streams@Storage@Windows@@I@Foundation@Windows@@6BObject@Platform@@@ 100dc314     WinRTVFS.obj
 0004:00001338       ??_7?$AsyncOperationWithProgressCompletedHandler@P$AAUIBuffer@Streams@Storage@Windows@@I@Foundation@Windows@@6B@ 100dc338     WinRTVFS.obj
 0004:0000135c       ??_7?$AsyncOperationCompletedHandler@P$AAUIBuffer@Streams@Storage@Windows@@@Foundation@Windows@@6B__abi_IUnknown@@@ 100dc35c     WinRTVFS.obj
 0004:00001378       ??_7?$AsyncOperationCompletedHandler@P$AAUIBuffer@Streams@Storage@Windows@@@Foundation@Windows@@6BObject@Platform@@@ 100dc378     WinRTVFS.obj
 0004:0000139c       ??_7?$AsyncOperationCompletedHandler@P$AAUIBuffer@Streams@Storage@Windows@@@Foundation@Windows@@6B@ 100dc39c     WinRTVFS.obj
 0004:000013c0       ??_7?$AsyncOperationWithProgressCompletedHandler@II@Foundation@Windows@@6B__abi_IUnknown@@@ 100dc3c0     WinRTVFS.obj
 0004:000013dc       ??_7?$AsyncOperationWithProgressCompletedHandler@II@Foundation@Windows@@6BObject@Platform@@@ 100dc3dc     WinRTVFS.obj
 0004:00001400       ??_7?$AsyncOperationWithProgressCompletedHandler@II@Foundation@Windows@@6B@ 100dc400     WinRTVFS.obj
 0004:00001424       ??_7?$AsyncOperationCompletedHandler@I@Foundation@Windows@@6B__abi_IUnknown@@@ 100dc424     WinRTVFS.obj
 0004:00001440       ??_7?$AsyncOperationCompletedHandler@I@Foundation@Windows@@6BObject@Platform@@@ 100dc440     WinRTVFS.obj
 0004:00001464       ??_7?$AsyncOperationCompletedHandler@I@Foundation@Windows@@6B@ 100dc464     WinRTVFS.obj
 0004:00001488       ??_7?$__abi_FunctorCapture@V<lambda_78c8bde34479949ab00939bfc3c21b9e>@@XP$AAU?$IAsyncOperation@_N@Foundation@Windows@@W4AsyncStatus@34@@Details@Platform@@6B@ 100dc488     WinRTVFS.obj
 0004:00001498       ??_7?$__abi_FunctorCapture@V<lambda_58b35b2c39cebe76475502e8be1fa050>@@XP$AAU?$IAsyncOperation@P$AAUIRandomAccessStream@Streams@Storage@Windows@@@Foundation@Windows@@W4AsyncStatus@34@@Details@Platform@@6B@ 100dc498     WinRTVFS.obj
 0004:000014a8       ??_7?$__abi_FunctorCapture@V<lambda_c124a470bc399dc48f76de2d0d06ac02>@@XP$AAU?$IAsyncOperation@P$AAVStorageFolder@Storage@Windows@@@Foundation@Windows@@W4AsyncStatus@34@@Details@Platform@@6B@ 100dc4a8     WinRTVFS.obj
 0004:000014b8       ??_7?$__abi_FunctorCapture@V<lambda_f0a7c2b0a64e3b533e4acd91ff29d36c>@@XP$AAU?$IAsyncOperation@P$AAVStorageFile@Storage@Windows@@@Foundation@Windows@@W4AsyncStatus@34@@Details@Platform@@6B@ 100dc4b8     WinRTVFS.obj
 0004:000014c8       ??_7?$__abi_FunctorCapture@V<lambda_3e0d823744565aaa3c572230ef0680e7>@@XP$AAU?$IAsyncOperationWithProgress@P$AAUIBuffer@Streams@Storage@Windows@@I@Foundation@Windows@@W4AsyncStatus@34@@Details@Platform@@6B@ 100dc4c8     WinRTVFS.obj
 0004:000014d8       ??_7?$__abi_FunctorCapture@V<lambda_7a641106db6b220fc1bd53009e5e1b6e>@@XP$AAU?$IAsyncOperationWithProgress@II@Foundation@Windows@@W4AsyncStatus@34@@Details@Platform@@6B@ 100dc4d8     WinRTVFS.obj
 0004:000014e8       ??_7?$__abi_FunctorCapture@V<lambda_50a95a3b918e2a131c7de197f9d43680>@@XP$AAU?$IAsyncOperation@I@Foundation@Windows@@W4AsyncStatus@34@@Details@Platform@@6B@ 100dc4e8     WinRTVFS.obj
 0004:000014f8       ??_7?$__abi_FunctorCapture@V<lambda_8b35f48eeaabe3dd7cb14b365c80a64b>@@XP$AAU?$IAsyncOperation@P$AAUIBuffer@Streams@Storage@Windows@@@Foundation@Windows@@W4AsyncStatus@34@@Details@Platform@@6B@ 100dc4f8     WinRTVFS.obj
 0004:00001508       ??_7?$_Func_impl@U?$_Callable_obj@V<lambda_9fc58f08a03183e50e06176727aeb396>@@$0A@@std@@V?$allocator@V?$_Func_class@X$$$V@std@@@2@X$$$V@std@@6B@ 100dc508     WinRTVFS.obj
 0004:00001530       ??_7CustomValueType@Details@Platform@@6B__ICustomValueTypePublicNonVirtuals@12@@ 100dc530     vccorlibd:init.obj
 0004:00001554       ??_7CustomValueType@Details@Platform@@6BValueType@2@@ 100dc554     vccorlibd:init.obj
 0004:00001578       ??_7CustomValueType@Details@Platform@@6B__abi_IUnknown@@@ 100dc578     vccorlibd:init.obj
 0004:00001594       ??_7CustomValueType@Details@Platform@@6BObject@2@@ 100dc594     vccorlibd:init.obj
 0004:000015b8       ??_7CustomEnum@Details@Platform@@6B__ICustomEnumPublicNonVirtuals@12@@ 100dc5b8     vccorlibd:init.obj
 0004:000015dc       ??_7CustomEnum@Details@Platform@@6BEnum@2@@ 100dc5dc     vccorlibd:init.obj
 0004:00001600       ??_7CustomEnum@Details@Platform@@6B__abi_IUnknown@@@ 100dc600     vccorlibd:init.obj
 0004:0000161c       ??_7CustomEnum@Details@Platform@@6BObject@2@@ 100dc61c     vccorlibd:init.obj
 0004:00001640       ??_7?$WriteOnlyArray@E$00@Platform@@6B__I?$WriteOnlyArray@E$00PublicNonVirtuals@1@@ 100dc640     vccorlibd:init.obj
 0004:00001664       ??_7?$WriteOnlyArray@E$00@Platform@@6BIDisposable@1@@ 100dc664     vccorlibd:init.obj
 0004:00001690       ??_7?$WriteOnlyArray@E$00@Platform@@6BObject@1@@ 100dc690     vccorlibd:init.obj
 0004:000016b4       ??_7?$WriteOnlyArray@E$00@Platform@@6B__abi_IUnknown@@@ 100dc6b4     vccorlibd:init.obj
 0004:000016d0       ??_7?$WriteOnlyArray@E$00@Platform@@6BObject@1@IWeakReferenceSource@Details@1@@ 100dc6d0     vccorlibd:init.obj
 0004:000016f4       ??_7?$Array@E$00@Platform@@6BObject@1@?$IBoxArray@E@1@@ 100dc6f4     vccorlibd:init.obj
 0004:00001720       ??_7?$Array@E$00@Platform@@6BIValueType@1@@ 100dc720     vccorlibd:init.obj
 0004:00001744       ??_7?$Array@E$00@Platform@@6B__I?$Array@E$00PublicNonVirtuals@1@@ 100dc744     vccorlibd:init.obj
 0004:00001768       ??_7?$Array@E$00@Platform@@6BIDisposable@1@@ 100dc768     vccorlibd:init.obj
 0004:00001794       ??_7?$Array@E$00@Platform@@6B__I?$WriteOnlyArray@E$00PublicNonVirtuals@1@@ 100dc794     vccorlibd:init.obj
 0004:000017b8       ??_7?$Array@E$00@Platform@@6BIDisposable@1@?$WriteOnlyArray@E$00@1@@ 100dc7b8     vccorlibd:init.obj
 0004:000017e4       ??_7?$Array@E$00@Platform@@6BObject@1@?$WriteOnlyArray@E$00@1@@ 100dc7e4     vccorlibd:init.obj
 0004:00001808       ??_7?$Array@E$00@Platform@@6B__abi_IUnknown@@?$WriteOnlyArray@E$00@1@@ 100dc808     vccorlibd:init.obj
 0004:00001824       ??_7?$Array@E$00@Platform@@6BObject@1@IWeakReferenceSource@Details@1@?$WriteOnlyArray@E$00@1@@ 100dc824     vccorlibd:init.obj
 0004:00001848       ??_7?$Array@E$00@Platform@@6B__abi_IUnknown@@IWeakReferenceSource@Details@1@@ 100dc848     vccorlibd:init.obj
 0004:00001864       ??_7?$Array@E$00@Platform@@6BObject@1@IWeakReferenceSource@Details@1@@ 100dc864     vccorlibd:init.obj
 0004:00001888       ??_7?$Module@$00VInProcModule@Details@Platform@@@WRL@Microsoft@@6B@ 100dc888     vccorlibd:init.obj
 0004:000018c8       ??_7?$Module@$04VInProcModule@Details@Platform@@@WRL@Microsoft@@6B@ 100dc8c8     vccorlibd:init.obj
 0004:00001908       ??_7InProcModule@Details@Platform@@6B?$Module@$04VInProcModule@Details@Platform@@@WRL@Microsoft@@@ 100dc908     vccorlibd:init.obj
 0004:00001948       ??_7InProcModule@Details@Platform@@6B__abi_Module@@@ 100dc948     vccorlibd:init.obj
 0004:00001954       ___security_cookie         100dc954     MSVCRTD:gs_cookie.obj
 0004:00001958       ___security_cookie_complement 100dc958     MSVCRTD:gs_cookie.obj
 0004:00001960       ?_RTC_ErrorLevels@@3PAHA   100dc960     MSVCRTD:error.obj
 0004:00001978       ___native_dllmain_reason   100dc978     MSVCRTD:natstart.obj
 0004:00001b30       ??_R0?AVerror_category@std@@@8 100dcb30     pch.obj
 0004:00001b58       ??_R0?AV_Generic_error_category@std@@@8 100dcb58     pch.obj
 0004:00001b8c       ??_R0?AV_Iostream_error_category@std@@@8 100dcb8c     pch.obj
 0004:00001bc0       ??_R0?AV_System_error_category@std@@@8 100dcbc0     pch.obj
 0004:00001bf4       ??_R0?AU__abi_IUnknown@@@8 100dcbf4     SQLiteWinRTExtensions.obj
 0004:00001c18       ??_R0?AVObject@Platform@@@8 100dcc18     SQLiteWinRTExtensions.obj
 0004:00001c3c       ??_R0?AUIWeakReferenceSource@Details@Platform@@@8 100dcc3c     SQLiteWinRTExtensions.obj
 0004:00001c7c       ??_R0?AVWinRTVFS@SQLiteWinRTExtensions@@@8 100dcc7c     SQLiteWinRTExtensions.obj
 0004:00001cb8       ??_R0?AU__IWinRTVFSPublicNonVirtuals@SQLiteWinRTExtensions@@@8 100dccb8     SQLiteWinRTExtensions.obj
 0004:00001d08       ??_R0?AV__WinRTVFSActivationFactory@SQLiteWinRTExtensions@@@8 100dcd08     SQLiteWinRTExtensions.obj
 0004:00001d54       ??_R0?AU__IWinRTVFSStatics@SQLiteWinRTExtensions@@@8 100dcd54     SQLiteWinRTExtensions.obj
 0004:00001d98       ??_R0?AUIActivationFactory@Details@Platform@@@8 100dcd98     SQLiteWinRTExtensions.obj
 0004:00001dd4       ??_R0?AVruntime_error@std@@@8 100dcdd4     WinRTVFS.obj
 0004:00001dfc       ??_R0?AVexception@std@@@8  100dcdfc     WinRTVFS.obj
 0004:00001e20       ??_R0P$AAVException@Platform@@@8 100dce20     WinRTVFS.obj
 0004:00001e4c       ??_R0P$AAVObject@Platform@@@8 100dce4c     WinRTVFS.obj
 0004:00001e74       ??_R0P$AAUIPrintable@Details@Platform@@@8 100dce74     WinRTVFS.obj
 0004:00001ea8       ??_R0P$AAUIEquatable@Details@Platform@@@8 100dcea8     WinRTVFS.obj
 0004:00001edc       ??_R0P$AAUIDisposable@Platform@@@8 100dcedc     WinRTVFS.obj
 0004:00001f08       ??_R0PAX@8                 100dcf08     WinRTVFS.obj
 0004:00001f18       ??_R0?AVbad_alloc@std@@@8  100dcf18     WinRTVFS.obj
 0004:00001f3c       ??_R0?AVinvalid_argument@std@@@8 100dcf3c     WinRTVFS.obj
 0004:00001f68       ??_R0?AVlogic_error@std@@@8 100dcf68     WinRTVFS.obj
 0004:00001f8c       ??_R0?AVinvalid_operation@Concurrency@@@8 100dcf8c     WinRTVFS.obj
 0004:00001fc0       ??_R0?AVtask_canceled@Concurrency@@@8 100dcfc0     WinRTVFS.obj
 0004:00001ff0       ??_R0?AV_Interruption_exception@details@Concurrency@@@8 100dcff0     WinRTVFS.obj
 0004:00002038       ??_R0?AVbad_weak_ptr@std@@@8 100dd038     WinRTVFS.obj
 0004:00002060       ??_R0?AV<lambda_095a938ce4c5765dcc6b67f548aeb9c7>@@@8 100dd060     WinRTVFS.obj
 0004:000020a4       ??_R0?AV<lambda_e7ef5f1e4e1eca0ae8efc6086cf9f417>@@@8 100dd0a4     WinRTVFS.obj
 0004:000020e8       ??_R0?AV<lambda_39cde079c01d1b5b9307ff255a1ccdd9>@@@8 100dd0e8     WinRTVFS.obj
 0004:0000212c       ??_R0?AV<lambda_02d862f9cfc639ff7c37ca52d43e6a8c>@@@8 100dd12c     WinRTVFS.obj
 0004:00002170       ??_R0?AV<lambda_c1a554f2383dae03f169289aed8c4103>@@@8 100dd170     WinRTVFS.obj
 0004:000021b4       ??_R0?AVAsyncActionCompletedHandler@Foundation@Windows@@@8 100dd1b4     WinRTVFS.obj
 0004:00002200       ??_R0?AU__abi_IDelegate@AsyncActionCompletedHandler@Foundation@Windows@@@8 100dd200     WinRTVFS.obj
 0004:0000225c       ??_R0?AVDelegate@Platform@@@8 100dd25c     WinRTVFS.obj
 0004:00002284       ??_R0?AU__abi_CaptureBase@Details@Platform@@@8 100dd284     WinRTVFS.obj
 0004:000022c0       ??_R0?AV_Ref_count_base@std@@@8 100dd2c0     WinRTVFS.obj
 0004:000022e8       ??_R0?AV_UnrealizedChore@details@Concurrency@@@8 100dd2e8     WinRTVFS.obj
 0004:00002328       ??_R0?AU_Chore@details@Concurrency@@@8 100dd328     WinRTVFS.obj
 0004:0000235c       ??_R0?AU_AllocBase@details@Concurrency@@@8 100dd35c     WinRTVFS.obj
 0004:00002394       ??_R0?AV_RefCounter@details@Concurrency@@@8 100dd394     WinRTVFS.obj
 0004:000023d0       ??_R0?AV_CancellationTokenRegistration@details@Concurrency@@@8 100dd3d0     WinRTVFS.obj
 0004:00002420       ??_R0?AU_TaskProcHandle@details@Concurrency@@@8 100dd420     WinRTVFS.obj
 0004:0000245c       ??_R0?AV?$_Func_base@X$$$V@std@@@8 100dd45c     WinRTVFS.obj
 0004:00002488       ??_R0?AU_IAsyncActionToAsyncOperationConverter@details@Concurrency@@@8 100dd488     WinRTVFS.obj
 0004:000024e0       ??_R0?AU__I_IAsyncActionToAsyncOperationConverterPublicNonVirtuals@details@Concurrency@@@8 100dd4e0     WinRTVFS.obj
 0004:00002550       ??_R0?AU?$_AsyncInfoImpl@P$AAUIAsyncAction@Foundation@Windows@@VAsyncActionCompletedHandler@23@E@details@Concurrency@@@8 100dd550     WinRTVFS.obj
 0004:000025e8       ??_R0?AU__I?$_AsyncInfoImpl@P$AAUIAsyncAction@Foundation@Windows@@VAsyncActionCompletedHandler@23@EPublicNonVirtuals@details@Concurrency@@@8 100dd5e8     WinRTVFS.obj
 0004:00002694       ??_R0?AU?$IAsyncOperation@E@Foundation@Windows@@@8 100dd694     WinRTVFS.obj
 0004:000026d4       ??_R0?AUIAsyncInfo@Foundation@Windows@@@8 100dd6d4     WinRTVFS.obj
 0004:00002708       ??_R0?AV?$AsyncOperationCompletedHandler@E@Foundation@Windows@@@8 100dd708     WinRTVFS.obj
 0004:00002760       ??_R0?AU__abi_IDelegate@?$AsyncOperationCompletedHandler@E@Foundation@Windows@@@8 100dd760     WinRTVFS.obj
 0004:000027c4       ??_R0?AU_Task_impl_base@details@Concurrency@@@8 100dd7c4     WinRTVFS.obj
 0004:00002800       ??_R0?AU_ContinuationTaskHandleBase@details@Concurrency@@@8 100dd800     WinRTVFS.obj
 0004:00002850       ??_R0?AV?$_CancellationTokenCallback@V<lambda_17cb9174022a2677ccd4c777403439ce>@@@details@Concurrency@@@8 100dd850     WinRTVFS.obj
 0004:000028d4       ??_R0?AV?$_Func_base@EE@std@@@8 100dd8d4     WinRTVFS.obj
 0004:000028fc       ??_R0?AU?$_Task_impl@E@details@Concurrency@@@8 100dd8fc     WinRTVFS.obj
 0004:00002938       ??_R0?AU?$_Task_impl@_N@details@Concurrency@@@8 100dd938     WinRTVFS.obj
 0004:00002978       ??_R0?AV?$_Ref_count_obj@U_ExceptionHolder@details@Concurrency@@@std@@@8 100dd978     WinRTVFS.obj
 0004:000029d8       ??_R0?AU?$__abi_FunctorCapture@V<lambda_06940b0a4178dd98f799c96a43aa5761>@@XP$AAUIAsyncAction@Foundation@Windows@@W4AsyncStatus@34@@Details@Platform@@@8 100dd9d8     WinRTVFS.obj
 0004:00002a98       ??_R0?AV?$_Ref_count_obj@U?$_Task_completion_event_impl@E@details@Concurrency@@@std@@@8 100dda98     WinRTVFS.obj
 0004:00002b08       ??_R0?AV?$_Ref_count_obj@U?$_Task_impl@E@details@Concurrency@@@std@@@8 100ddb08     WinRTVFS.obj
 0004:00002b60       ??_R0?AU?$__abi_FunctorCapture@V<lambda_b5ec294d64b7ae7d96b9bd52c133d46d>@@XP$AAU?$IAsyncOperation@E@Foundation@Windows@@W4AsyncStatus@34@@Details@Platform@@@8 100ddb60     WinRTVFS.obj
 0004:00002c28       ??_R0?AV?$_Func_impl@U?$_Callable_obj@V<lambda_095a938ce4c5765dcc6b67f548aeb9c7>@@$0A@@std@@V?$allocator@V?$_Func_class@X$$$V@std@@@2@X$$$V@std@@@8 100ddc28     WinRTVFS.obj
 0004:00002ce0       ??_R0?AV?$_Func_impl@U?$_Callable_obj@V<lambda_e7ef5f1e4e1eca0ae8efc6086cf9f417>@@$0A@@std@@V?$allocator@V?$_Func_class@X$$$V@std@@@2@X$$$V@std@@@8 100ddce0     WinRTVFS.obj
 0004:00002d98       ??_R0?AV?$_Func_impl@U?$_Callable_obj@V<lambda_39cde079c01d1b5b9307ff255a1ccdd9>@@$0A@@std@@V?$allocator@V?$_Func_class@EE@std@@@2@EE@std@@@8 100ddd98     WinRTVFS.obj
 0004:00002e48       ??_R0?AV?$_Func_impl@U?$_Callable_obj@V<lambda_02d862f9cfc639ff7c37ca52d43e6a8c>@@$0A@@std@@V?$allocator@V?$_Func_class@X$$$V@std@@@2@X$$$V@std@@@8 100dde48     WinRTVFS.obj
 0004:00002f00       ??_R0?AV?$_Ref_count_obj@U?$_Task_impl@_N@details@Concurrency@@@std@@@8 100ddf00     WinRTVFS.obj
 0004:00002f58       ??_R0?AV?$_Func_impl@U?$_Callable_obj@V<lambda_c1a554f2383dae03f169289aed8c4103>@@$0A@@std@@V?$allocator@V?$_Func_class@X$$$V@std@@@2@X$$$V@std@@@8 100ddf58     WinRTVFS.obj
 0004:0000300c       ??_R0P$AAVAccessDeniedException@Platform@@@8 100de00c     WinRTVFS.obj
 0004:00003044       ??_R0?AVinvalid_link_target@Concurrency@@@8 100de044     WinRTVFS.obj
 0004:0000307c       ??_R0?AVmessage_not_found@Concurrency@@@8 100de07c     WinRTVFS.obj
 0004:000030b0       ??_R0?AVbad_target@Concurrency@@@8 100de0b0     WinRTVFS.obj
 0004:000030dc       ??_R0?AV<lambda_1a93da980d6fe77644a4eefc4e1ad756>@@@8 100de0dc     WinRTVFS.obj
 0004:00003120       ??_R0?AV<lambda_295bc5f846209cba149a5e74d0d63a72>@@@8 100de120     WinRTVFS.obj
 0004:00003164       ??_R0?AV<lambda_c28a53003ed51cdfe295a7d756f98c2f>@@@8 100de164     WinRTVFS.obj
 0004:000031a8       ??_R0?AV<lambda_0fe479da16d43edb8e9a254c493d643e>@@@8 100de1a8     WinRTVFS.obj
 0004:000031ec       ??_R0?AV<lambda_0b7f78ec4ced38495cec46e0d346e0b9>@@@8 100de1ec     WinRTVFS.obj
 0004:00003230       ??_R0?AV<lambda_a66b3ee15e662226a0b0b15ae647d32f>@@@8 100de230     WinRTVFS.obj
 0004:00003274       ??_R0?AV<lambda_364e75aa895e992ae8821732ca646aa2>@@@8 100de274     WinRTVFS.obj
 0004:000032b8       ??_R0?AV<lambda_528650821c608ced6534641e311542a5>@@@8 100de2b8     WinRTVFS.obj
 0004:000032fc       ??_R0?AV<lambda_579ccd68d569251046038e8620afec85>@@@8 100de2fc     WinRTVFS.obj
 0004:00003340       ??_R0?AV<lambda_9fc58f08a03183e50e06176727aeb396>@@@8 100de340     WinRTVFS.obj
 0004:00003384       ??_R0?AU?$_Task_impl@I@details@Concurrency@@@8 100de384     WinRTVFS.obj
 0004:000033c0       ??_R0?AV?$AsyncOperationCompletedHandler@_N@Foundation@Windows@@@8 100de3c0     WinRTVFS.obj
 0004:00003418       ??_R0?AU__abi_IDelegate@?$AsyncOperationCompletedHandler@_N@Foundation@Windows@@@8 100de418     WinRTVFS.obj
 0004:00003480       ??_R0?AV_Runtime_object@details@Concurrency@@@8 100de480     WinRTVFS.obj
 0004:000034bc       ??_R0?AV_Concurrent_queue_base_v4@details@Concurrency@@@8 100de4bc     WinRTVFS.obj
 0004:00003508       ??_R0?AV?$AsyncOperationCompletedHandler@P$AAUIRandomAccessStream@Streams@Storage@Windows@@@Foundation@Windows@@@8 100de508     WinRTVFS.obj
 0004:00003598       ??_R0?AU__abi_IDelegate@?$AsyncOperationCompletedHandler@P$AAUIRandomAccessStream@Streams@Storage@Windows@@@Foundation@Windows@@@8 100de598     WinRTVFS.obj
 0004:00003638       ??_R0?AU?$_Task_impl@P$AAUIRandomAccessStream@Streams@Storage@Windows@@@details@Concurrency@@@8 100de638     WinRTVFS.obj
 0004:000036b0       ??_R0?AV?$AsyncOperationWithProgressCompletedHandler@P$AAUIBuffer@Streams@Storage@Windows@@I@Foundation@Windows@@@8 100de6b0     WinRTVFS.obj
 0004:00003740       ??_R0?AU__abi_IDelegate@?$AsyncOperationWithProgressCompletedHandler@P$AAUIBuffer@Streams@Storage@Windows@@I@Foundation@Windows@@@8 100de740     WinRTVFS.obj
 0004:000037e0       ??_R0?AU?$_Task_impl@P$AAUIBuffer@Streams@Storage@Windows@@@details@Concurrency@@@8 100de7e0     WinRTVFS.obj
 0004:00003848       ??_R0?AV?$AsyncOperationWithProgressCompletedHandler@II@Foundation@Windows@@@8 100de848     WinRTVFS.obj
 0004:000038b0       ??_R0?AU__abi_IDelegate@?$AsyncOperationWithProgressCompletedHandler@II@Foundation@Windows@@@8 100de8b0     WinRTVFS.obj
 0004:00003924       ??_R0?AV?$timer@H@Concurrency@@@8 100de924     WinRTVFS.obj
 0004:00003950       ??_R0?AV_Timer@details@Concurrency@@@8 100de950     WinRTVFS.obj
 0004:00003988       ??_R0?AV?$source_block@V?$single_link_registry@V?$ITarget@H@Concurrency@@@Concurrency@@V?$ordered_message_processor@H@2@@Concurrency@@@8 100de988     WinRTVFS.obj
 0004:00003a30       ??_R0?AV?$ISource@H@Concurrency@@@8 100dea30     WinRTVFS.obj
 0004:00003a60       ??_R0?AV?$ITarget@H@Concurrency@@@8 100dea60     WinRTVFS.obj
 0004:00003a90       ??_R0?AV?$single_link_registry@V?$ITarget@H@Concurrency@@@Concurrency@@@8 100dea90     WinRTVFS.obj
 0004:00003af0       ??_R0?AV?$network_link_registry@V?$ITarget@H@Concurrency@@@Concurrency@@@8 100deaf0     WinRTVFS.obj
 0004:00003b4c       ??_R0?AV?$message@H@Concurrency@@@8 100deb4c     WinRTVFS.obj
 0004:00003b7c       ??_R0?AV?$ordered_message_processor@H@Concurrency@@@8 100deb7c     WinRTVFS.obj
 0004:00003bc0       ??_R0?AV?$message_processor@H@Concurrency@@@8 100debc0     WinRTVFS.obj
 0004:00003c00       ??_R0?AV?$concurrent_queue@PAV?$message@H@Concurrency@@V?$allocator@PAV?$message@H@Concurrency@@@std@@@Concurrency@@@8 100dec00     WinRTVFS.obj
 0004:00003c94       ??_R0?AV?$_Func_base@XPAV?$message@H@Concurrency@@@std@@@8 100dec94     WinRTVFS.obj
 0004:00003ce0       ??_R0?AV?$call@HV?$function@$$A6AXABH@Z@std@@@Concurrency@@@8 100dece0     WinRTVFS.obj
 0004:00003d30       ??_R0?AV?$target_block@V?$multi_link_registry@V?$ISource@H@Concurrency@@@Concurrency@@V?$ordered_message_processor@H@2@@Concurrency@@@8 100ded30     WinRTVFS.obj
 0004:00003dd8       ??_R0?AV?$multi_link_registry@V?$ISource@H@Concurrency@@@Concurrency@@@8 100dedd8     WinRTVFS.obj
 0004:00003e38       ??_R0?AV?$network_link_registry@V?$ISource@H@Concurrency@@@Concurrency@@@8 100dee38     WinRTVFS.obj
 0004:00003e98       ??_R0?AV?$_Source_link_iterator@V?$multi_link_registry@V?$ISource@H@Concurrency@@@Concurrency@@@Concurrency@@@8 100dee98     WinRTVFS.obj
 0004:00003f20       ??_R0?AV?$_Func_base@XABH@std@@@8 100def20     WinRTVFS.obj
 0004:00003f50       ??_R0?AV?$AsyncOperationCompletedHandler@P$AAVStorageFolder@Storage@Windows@@@Foundation@Windows@@@8 100def50     WinRTVFS.obj
 0004:00003fd0       ??_R0?AU__abi_IDelegate@?$AsyncOperationCompletedHandler@P$AAVStorageFolder@Storage@Windows@@@Foundation@Windows@@@8 100defd0     WinRTVFS.obj
 0004:00004060       ??_R0?AU?$_Task_impl@P$AAVStorageFolder@Storage@Windows@@@details@Concurrency@@@8 100df060     WinRTVFS.obj
 0004:000040c8       ??_R0?AV?$AsyncOperationCompletedHandler@P$AAVStorageFile@Storage@Windows@@@Foundation@Windows@@@8 100df0c8     WinRTVFS.obj
 0004:00004148       ??_R0?AU__abi_IDelegate@?$AsyncOperationCompletedHandler@P$AAVStorageFile@Storage@Windows@@@Foundation@Windows@@@8 100df148     WinRTVFS.obj
 0004:000041d8       ??_R0?AU?$_Task_impl@P$AAVStorageFile@Storage@Windows@@@details@Concurrency@@@8 100df1d8     WinRTVFS.obj
 0004:00004240       ??_R0?AV?$AsyncOperationCompletedHandler@I@Foundation@Windows@@@8 100df240     WinRTVFS.obj
 0004:00004298       ??_R0?AU__abi_IDelegate@?$AsyncOperationCompletedHandler@I@Foundation@Windows@@@8 100df298     WinRTVFS.obj
 0004:00004300       ??_R0?AV?$AsyncOperationCompletedHandler@P$AAUIBuffer@Streams@Storage@Windows@@@Foundation@Windows@@@8 100df300     WinRTVFS.obj
 0004:00004380       ??_R0?AU__abi_IDelegate@?$AsyncOperationCompletedHandler@P$AAUIBuffer@Streams@Storage@Windows@@@Foundation@Windows@@@8 100df380     WinRTVFS.obj
 0004:00004418       ??_R0?AV?$_Func_impl@U?$_Callable_obj@V<lambda_1a93da980d6fe77644a4eefc4e1ad756>@@$0A@@std@@V?$allocator@V?$_Func_class@XABH@std@@@2@XABH@std@@@8 100df418     WinRTVFS.obj
 0004:000044d0       ??_R0?AU?$_ContinuationTaskHandle@XXV<lambda_9fc58f08a03183e50e06176727aeb396>@@U?$integral_constant@_N$0A@@std@@U_TypeSelectorNoAsync@details@Concurrency@@@?$task@E@Concurrency@@@8 100df4d0     WinRTVFS.obj
 0004:000045b0       ??_R0?AU?$_PPLTaskHandle@EU?$_ContinuationTaskHandle@XXV<lambda_9fc58f08a03183e50e06176727aeb396>@@U?$integral_constant@_N$0A@@std@@U_TypeSelectorNoAsync@details@Concurrency@@@?$task@E@Concurrency@@U_ContinuationTaskHandleBase@details@3@@details@Concurrency@@@8 100df5b0     WinRTVFS.obj
 0004:000046f0       ??_R0?AV?$_Func_impl@U?$_Callable_obj@V<lambda_295bc5f846209cba149a5e74d0d63a72>@@$0A@@std@@V?$allocator@V?$_Func_class@XPAV?$message@H@Concurrency@@@std@@@2@XPAV?$message@H@Concurrency@@@std@@@8 100df6f0     WinRTVFS.obj
 0004:000047e0       ??_R0?AV?$_Func_impl@U?$_Callable_obj@V<lambda_c28a53003ed51cdfe295a7d756f98c2f>@@$0A@@std@@V?$allocator@V?$_Func_class@XPAV?$message@H@Concurrency@@@std@@@2@XPAV?$message@H@Concurrency@@@std@@@8 100df7e0     WinRTVFS.obj
 0004:000048d0       ??_R0?AV?$_Func_impl@U?$_Callable_obj@V<lambda_0fe479da16d43edb8e9a254c493d643e>@@$0A@@std@@V?$allocator@V?$_Func_class@X$$$V@std@@@2@X$$$V@std@@@8 100df8d0     WinRTVFS.obj
 0004:00004988       ??_R0?AV?$_Func_impl@U?$_Callable_obj@V<lambda_0b7f78ec4ced38495cec46e0d346e0b9>@@$0A@@std@@V?$allocator@V?$_Func_class@X$$$V@std@@@2@X$$$V@std@@@8 100df988     WinRTVFS.obj
 0004:00004a40       ??_R0?AV?$_Func_impl@U?$_Callable_obj@V<lambda_a66b3ee15e662226a0b0b15ae647d32f>@@$0A@@std@@V?$allocator@V?$_Func_class@X$$$V@std@@@2@X$$$V@std@@@8 100dfa40     WinRTVFS.obj
 0004:00004af8       ??_R0?AV?$_Func_impl@U?$_Callable_obj@V<lambda_364e75aa895e992ae8821732ca646aa2>@@$0A@@std@@V?$allocator@V?$_Func_class@X$$$V@std@@@2@X$$$V@std@@@8 100dfaf8     WinRTVFS.obj
 0004:00004bb0       ??_R0?AV?$_Func_impl@U?$_Callable_obj@V<lambda_528650821c608ced6534641e311542a5>@@$0A@@std@@V?$allocator@V?$_Func_class@X$$$V@std@@@2@X$$$V@std@@@8 100dfbb0     WinRTVFS.obj
 0004:00004c68       ??_R0?AV?$_Func_impl@U?$_Callable_obj@V<lambda_579ccd68d569251046038e8620afec85>@@$0A@@std@@V?$allocator@V?$_Func_class@XPAV?$message@H@Concurrency@@@std@@@2@XPAV?$message@H@Concurrency@@@std@@@8 100dfc68     WinRTVFS.obj
 0004:00004d58       ??_R0?AV?$_Ref_count_obj@U?$_Task_impl@I@details@Concurrency@@@std@@@8 100dfd58     WinRTVFS.obj
 0004:00004db0       ??_R0?AV?$_Ref_count_obj@U?$_Task_impl@P$AAUIRandomAccessStream@Streams@Storage@Windows@@@details@Concurrency@@@std@@@8 100dfdb0     WinRTVFS.obj
 0004:00004e48       ??_R0?AV?$_Ref_count_obj@U?$_Task_impl@P$AAUIBuffer@Streams@Storage@Windows@@@details@Concurrency@@@std@@@8 100dfe48     WinRTVFS.obj
 0004:00004ed0       ??_R0?AV?$_Ref_count_obj@U?$_Task_impl@P$AAVStorageFolder@Storage@Windows@@@details@Concurrency@@@std@@@8 100dfed0     WinRTVFS.obj
 0004:00004f58       ??_R0?AV?$_Ref_count_obj@U?$_Task_impl@P$AAVStorageFile@Storage@Windows@@@details@Concurrency@@@std@@@8 100dff58     WinRTVFS.obj
 0004:00004fd8       ??_R0?AU?$_IAsyncOperationWithProgressToAsyncOperationConverter@P$AAUIBuffer@Streams@Storage@Windows@@I@details@Concurrency@@@8 100dffd8     WinRTVFS.obj
 0004:00005078       ??_R0?AU__I?$_IAsyncOperationWithProgressToAsyncOperationConverter@P$AAUIBuffer@Streams@Storage@Windows@@IPublicNonVirtuals@details@Concurrency@@@8 100e0078     WinRTVFS.obj
 0004:00005130       ??_R0?AU?$_AsyncInfoImpl@P$AAU?$IAsyncOperationWithProgress@P$AAUIBuffer@Streams@Storage@Windows@@I@Foundation@Windows@@V?$AsyncOperationWithProgressCompletedHandler@P$AAUIBuffer@Streams@Storage@Windows@@I@23@P$AAUIBuffer@Streams@Storage@3@@details@Concurrency@@@8 100e0130     WinRTVFS.obj
 0004:00005270       ??_R0?AU__I?$_AsyncInfoImpl@P$AAU?$IAsyncOperationWithProgress@P$AAUIBuffer@Streams@Storage@Windows@@I@Foundation@Windows@@V?$AsyncOperationWithProgressCompletedHandler@P$AAUIBuffer@Streams@Storage@Windows@@I@23@P$AAUIBuffer@Streams@Storage@3@PublicNonVirtuals@details@Concurrency@@@8 100e0270     WinRTVFS.obj
 0004:000053c8       ??_R0?AU?$IAsyncOperation@P$AAUIBuffer@Streams@Storage@Windows@@@Foundation@Windows@@@8 100e03c8     WinRTVFS.obj
 0004:00005438       ??_R0?AU?$_IAsyncOperationWithProgressToAsyncOperationConverter@II@details@Concurrency@@@8 100e0438     WinRTVFS.obj
 0004:000054a8       ??_R0?AU__I?$_IAsyncOperationWithProgressToAsyncOperationConverter@IIPublicNonVirtuals@details@Concurrency@@@8 100e04a8     WinRTVFS.obj
 0004:00005530       ??_R0?AU?$_AsyncInfoImpl@P$AAU?$IAsyncOperationWithProgress@II@Foundation@Windows@@V?$AsyncOperationWithProgressCompletedHandler@II@23@I@details@Concurrency@@@8 100e0530     WinRTVFS.obj
 0004:000055f8       ??_R0?AU__I?$_AsyncInfoImpl@P$AAU?$IAsyncOperationWithProgress@II@Foundation@Windows@@V?$AsyncOperationWithProgressCompletedHandler@II@23@IPublicNonVirtuals@details@Concurrency@@@8 100e05f8     WinRTVFS.obj
 0004:000056d4       ??_R0?AU?$IAsyncOperation@I@Foundation@Windows@@@8 100e06d4     WinRTVFS.obj
 0004:00005718       ??_R0?AU?$__abi_FunctorCapture@V<lambda_78c8bde34479949ab00939bfc3c21b9e>@@XP$AAU?$IAsyncOperation@_N@Foundation@Windows@@W4AsyncStatus@34@@Details@Platform@@@8 100e0718     WinRTVFS.obj
 0004:000057e0       ??_R0?AU?$__abi_FunctorCapture@V<lambda_58b35b2c39cebe76475502e8be1fa050>@@XP$AAU?$IAsyncOperation@P$AAUIRandomAccessStream@Streams@Storage@Windows@@@Foundation@Windows@@W4AsyncStatus@34@@Details@Platform@@@8 100e07e0     WinRTVFS.obj
 0004:000058e0       ??_R0?AU?$__abi_FunctorCapture@V<lambda_c124a470bc399dc48f76de2d0d06ac02>@@XP$AAU?$IAsyncOperation@P$AAVStorageFolder@Storage@Windows@@@Foundation@Windows@@W4AsyncStatus@34@@Details@Platform@@@8 100e08e0     WinRTVFS.obj
 0004:000059d0       ??_R0?AU?$__abi_FunctorCapture@V<lambda_f0a7c2b0a64e3b533e4acd91ff29d36c>@@XP$AAU?$IAsyncOperation@P$AAVStorageFile@Storage@Windows@@@Foundation@Windows@@W4AsyncStatus@34@@Details@Platform@@@8 100e09d0     WinRTVFS.obj
 0004:00005ac0       ??_R0?AU?$__abi_FunctorCapture@V<lambda_3e0d823744565aaa3c572230ef0680e7>@@XP$AAU?$IAsyncOperationWithProgress@P$AAUIBuffer@Streams@Storage@Windows@@I@Foundation@Windows@@W4AsyncStatus@34@@Details@Platform@@@8 100e0ac0     WinRTVFS.obj
 0004:00005bc0       ??_R0?AU?$__abi_FunctorCapture@V<lambda_7a641106db6b220fc1bd53009e5e1b6e>@@XP$AAU?$IAsyncOperationWithProgress@II@Foundation@Windows@@W4AsyncStatus@34@@Details@Platform@@@8 100e0bc0     WinRTVFS.obj
 0004:00005c98       ??_R0?AV?$_Func_impl@U?$_Callable_obj@V<lambda_9fc58f08a03183e50e06176727aeb396>@@$0A@@std@@V?$allocator@V?$_Func_class@X$$$V@std@@@2@X$$$V@std@@@8 100e0c98     WinRTVFS.obj
 0004:00005d50       ??_R0?AU?$__abi_FunctorCapture@V<lambda_50a95a3b918e2a131c7de197f9d43680>@@XP$AAU?$IAsyncOperation@I@Foundation@Windows@@W4AsyncStatus@34@@Details@Platform@@@8 100e0d50     WinRTVFS.obj
 0004:00005e18       ??_R0?AU?$__abi_FunctorCapture@V<lambda_8b35f48eeaabe3dd7cb14b365c80a64b>@@XP$AAU?$IAsyncOperation@P$AAUIBuffer@Streams@Storage@Windows@@@Foundation@Windows@@W4AsyncStatus@34@@Details@Platform@@@8 100e0e18     WinRTVFS.obj
 0004:00005f08       ??_R0?AVCustomValueType@Details@Platform@@@8 100e0f08     vccorlibd:init.obj
 0004:00005f40       ??_R0?AU__ICustomValueTypePublicNonVirtuals@Details@Platform@@@8 100e0f40     vccorlibd:init.obj
 0004:00005f90       ??_R0?AVValueType@Platform@@@8 100e0f90     vccorlibd:init.obj
 0004:00005fb8       ??_R0?AVCustomEnum@Details@Platform@@@8 100e0fb8     vccorlibd:init.obj
 0004:00005fec       ??_R0?AU__ICustomEnumPublicNonVirtuals@Details@Platform@@@8 100e0fec     vccorlibd:init.obj
 0004:00006038       ??_R0?AVEnum@Platform@@@8  100e1038     vccorlibd:init.obj
 0004:0000605c       ??_R0?AV?$Array@E$00@Platform@@@8 100e105c     vccorlibd:init.obj
 0004:00006088       ??_R0?AU__I?$Array@E$00PublicNonVirtuals@Platform@@@8 100e1088     vccorlibd:init.obj
 0004:000060cc       ??_R0?AUIDisposable@Platform@@@8 100e10cc     vccorlibd:init.obj
 0004:000060f8       ??_R0?AV?$WriteOnlyArray@E$00@Platform@@@8 100e10f8     vccorlibd:init.obj
 0004:00006130       ??_R0?AU__I?$WriteOnlyArray@E$00PublicNonVirtuals@Platform@@@8 100e1130     vccorlibd:init.obj
 0004:00006180       ??_R0?AU?$IBoxArray@E@Platform@@@8 100e1180     vccorlibd:init.obj
 0004:000061ac       ??_R0?AUIValueType@Platform@@@8 100e11ac     vccorlibd:init.obj
 0004:000061d4       ??_R0?AVModuleBase@Details@WRL@Microsoft@@@8 100e11d4     vccorlibd:init.obj
 0004:0000620c       ??_R0?AVInProcModule@Details@Platform@@@8 100e120c     vccorlibd:init.obj
 0004:00006240       ??_R0?AV?$Module@$04VInProcModule@Details@Platform@@@WRL@Microsoft@@@8 100e1240     vccorlibd:init.obj
 0004:00006298       ??_R0?AV?$Module@$00VInProcModule@Details@Platform@@@WRL@Microsoft@@@8 100e1298     vccorlibd:init.obj
 0004:000062f0       ??_R0?AU__abi_Module@@@8   100e12f0     vccorlibd:init.obj
 0004:00006310       ??_R0?AVtype_info@@@8      100e1310     MSVCRTD:ti_inst.obj
 0004:000064c8       ___@@_PchSym_@00@UfhvihUwvooRfhviUwlxfnvmghUerhfzoLhgfwrlLCABHUkilqvxghUluuormvnzkhUlyqUcIGUkxsOlyq@6B9B3946A10AC4DB 100e14c8     pch.obj
 0004:000064cc       ?__abi_no_factory_cache@@3U__abi___FactoryCache@@A 100e14cc     pch.obj
 0004:000064d8       ?_isCausalitySupported@details@Concurrency@@3JC 100e14d8     pch.obj
 0004:000064dc       ?__winrt_GUID_NULL@Platform@@3VGuid@1@A 100e14dc     pch.obj
 0004:00006508       ?_Generic_object@?$_Error_objects@H@std@@2V_Generic_error_category@2@A 100e1508     pch.obj
 0004:0000650c       ?_Iostream_object@?$_Error_objects@H@std@@2V_Iostream_error_category@2@A 100e150c     pch.obj
 0004:00006510       ?_System_object@?$_Error_objects@H@std@@2V_System_error_category@2@A 100e1510     pch.obj
 0004:00006528       ?id@?$num_put@DV?$back_insert_iterator@V?$basic_string@DU?$char_traits@D@std@@V?$allocator@D@2@@std@@@std@@@std@@2V0locale@2@A 100e1528     WinRTVFS.obj
 0004:0000652c       ?id@?$num_put@_WV?$back_insert_iterator@V?$basic_string@_WU?$char_traits@_W@std@@V?$allocator@_W@2@@std@@@std@@@std@@2V0locale@2@A 100e152c     WinRTVFS.obj
 0004:00006530       ?moduleLock_@ModuleBase@Details@WRL@Microsoft@@0PAXA 100e1530     vccorlibd:init.obj
 0004:00006534       ?objectCount_@ModuleBase@Details@WRL@Microsoft@@1KC 100e1534     vccorlibd:init.obj
 0004:00006538       ?module_@ModuleBase@Details@WRL@Microsoft@@2PAV1234@A 100e1538     vccorlibd:init.obj
 0004:0000653c       ?__abi_module@@3PAU__abi_Module@@A 100e153c     vccorlibd:init.obj
 0004:00006540       ?module_@Details@Platform@@3AAVInProcModule@12@A 100e1540     vccorlibd:init.obj
 0004:00006548       ?module@?1??Create@?$Module@$00VInProcModule@Details@Platform@@@WRL@Microsoft@@SAAAVInProcModule@Details@Platform@@XZ@4V567@A 100e1548     vccorlibd:init.obj
 0004:00006554       ??_B?1??Create@?$Module@$00VInProcModule@Details@Platform@@@WRL@Microsoft@@SAAAVInProcModule@Details@Platform@@XZ@51 100e1554     vccorlibd:init.obj
 0004:00006558       ___crtWinrtInitType        100e1558     vccorlibd:compiler.obj
 0004:0000655c       ?__abi___threading_model@@3HA 100e155c     vccorlibd:tmdefault.obj
 0004:00006930       ?__type_info_root_node@@3U__type_info_node@@A 100e1930     MSVCRTD:tncleanup.obj
 0004:00006944       ___native_startup_lock     100e1944     <common>
 0004:00006954       ___native_startup_state    100e1954     <common>
 0004:00006958       ___dyn_tls_init_callback   100e1958     <common>
 0004:00006964       ___onexitend               100e1964     <common>
 0004:00006974       ___onexitbegin             100e1974     <common>
 0005:00000000       __imp__RaiseException@16   100e2000     kernel32:KERNEL32.dll
 0005:00000004       __imp__DecodePointer@4     100e2004     kernel32:KERNEL32.dll
 0005:00000008       __imp__MultiByteToWideChar@24 100e2008     kernel32:KERNEL32.dll
 0005:0000000c       __imp__LoadLibraryExW@12   100e200c     kernel32:KERNEL32.dll
 0005:00000010       __imp__GetProcAddress@8    100e2010     kernel32:KERNEL32.dll
 0005:00000014       __imp__GetModuleHandleW@4  100e2014     kernel32:KERNEL32.dll
 0005:00000018       __imp__GetModuleFileNameW@12 100e2018     kernel32:KERNEL32.dll
 0005:0000001c       __imp__FreeLibrary@4       100e201c     kernel32:KERNEL32.dll
 0005:00000020       __imp__VirtualQuery@12     100e2020     kernel32:KERNEL32.dll
 0005:00000024       __imp__GetProcessHeap@0    100e2024     kernel32:KERNEL32.dll
 0005:00000028       __imp__HeapFree@12         100e2028     kernel32:KERNEL32.dll
 0005:0000002c       __imp__HeapAlloc@12        100e202c     kernel32:KERNEL32.dll
 0005:00000030       __imp__GetLastError@0      100e2030     kernel32:KERNEL32.dll
 0005:00000034       __imp__DisableThreadLibraryCalls@4 100e2034     kernel32:KERNEL32.dll
 0005:00000038       __imp__GetTickCount64@0    100e2038     kernel32:KERNEL32.dll
 0005:0000003c       __imp__GetSystemTimeAsFileTime@4 100e203c     kernel32:KERNEL32.dll
 0005:00000040       __imp__GetCurrentThreadId@0 100e2040     kernel32:KERNEL32.dll
 0005:00000044       __imp__GetCurrentProcessId@0 100e2044     kernel32:KERNEL32.dll
 0005:00000048       __imp__QueryPerformanceCounter@4 100e2048     kernel32:KERNEL32.dll
 0005:0000004c       __imp__WideCharToMultiByte@32 100e204c     kernel32:KERNEL32.dll
 0005:00000050       __imp__ReleaseSRWLockExclusive@4 100e2050     kernel32:KERNEL32.dll
 0005:00000054       __imp__IsDebuggerPresent@0 100e2054     kernel32:KERNEL32.dll
 0005:00000058       __imp__EncodePointer@4     100e2058     kernel32:KERNEL32.dll
 0005:0000005c       __imp__AcquireSRWLockExclusive@4 100e205c     kernel32:KERNEL32.dll
 0005:00000060       \177KERNEL32_NULL_THUNK_DATA 100e2060     kernel32:KERNEL32.dll
 0005:0000009c       __imp__RoFailFastWithErrorContext@4 100e209c     runtimeobject:api-ms-win-core-winrt-error-l1-1-0.dll
 0005:000000a0       __imp__SetRestrictedErrorInfo@4 100e20a0     runtimeobject:api-ms-win-core-winrt-error-l1-1-0.dll
 0005:000000a4       \177api-ms-win-core-winrt-error-l1-1-0_NULL_THUNK_DATA 100e20a4     runtimeobject:api-ms-win-core-winrt-error-l1-1-0.dll
 0005:000000d0       __imp__RoReportUnhandledError@4 100e20d0     runtimeobject:api-ms-win-core-winrt-error-l1-1-1.dll
 0005:000000d4       \177api-ms-win-core-winrt-error-l1-1-1_NULL_THUNK_DATA 100e20d4     runtimeobject:api-ms-win-core-winrt-error-l1-1-1.dll
 0005:00000100       __imp__WindowsCreateStringReference@16 100e2100     runtimeobject:api-ms-win-core-winrt-string-l1-1-0.dll
 0005:00000104       __imp__WindowsDeleteString@4 100e2104     runtimeobject:api-ms-win-core-winrt-string-l1-1-0.dll
 0005:00000108       __imp__WindowsCompareStringOrdinal@12 100e2108     runtimeobject:api-ms-win-core-winrt-string-l1-1-0.dll
 0005:0000010c       __imp__WindowsConcatString@12 100e210c     runtimeobject:api-ms-win-core-winrt-string-l1-1-0.dll
 0005:00000110       __imp__WindowsDuplicateString@8 100e2110     runtimeobject:api-ms-win-core-winrt-string-l1-1-0.dll
 0005:00000114       __imp__WindowsIsStringEmpty@4 100e2114     runtimeobject:api-ms-win-core-winrt-string-l1-1-0.dll
 0005:00000118       __imp__WindowsGetStringRawBuffer@8 100e2118     runtimeobject:api-ms-win-core-winrt-string-l1-1-0.dll
 0005:0000011c       __imp__WindowsGetStringLen@4 100e211c     runtimeobject:api-ms-win-core-winrt-string-l1-1-0.dll
 0005:00000120       __imp__WindowsCreateString@12 100e2120     runtimeobject:api-ms-win-core-winrt-string-l1-1-0.dll
 0005:00000124       \177api-ms-win-core-winrt-string-l1-1-0_NULL_THUNK_DATA 100e2124     runtimeobject:api-ms-win-core-winrt-string-l1-1-0.dll
 0005:00000154       __imp_??0_Runtime_object@details@Concurrency@@QAE@XZ 100e2154     msvcprtd:msvcp120d_app.dll
 0005:00000158       __imp_?_Internal_throw_exception@_Concurrent_queue_base_v4@details@Concurrency@@IBEXXZ 100e2158     msvcprtd:msvcp120d_app.dll
 0005:0000015c       __imp_?_Internal_finish_clear@_Concurrent_queue_base_v4@details@Concurrency@@IAEXXZ 100e215c     msvcprtd:msvcp120d_app.dll
 0005:00000160       __imp_?_Internal_empty@_Concurrent_queue_base_v4@details@Concurrency@@IBE_NXZ 100e2160     msvcprtd:msvcp120d_app.dll
 0005:00000164       __imp_?_Internal_pop_if_present@_Concurrent_queue_base_v4@details@Concurrency@@IAE_NPAX@Z 100e2164     msvcprtd:msvcp120d_app.dll
 0005:00000168       __imp_?_Internal_push@_Concurrent_queue_base_v4@details@Concurrency@@IAEXPBX@Z 100e2168     msvcprtd:msvcp120d_app.dll
 0005:0000016c       __imp_?_Debug_message@std@@YAXPB_W0I@Z 100e216c     msvcprtd:msvcp120d_app.dll
 0005:00000170       __imp_??0_Container_base12@std@@QAE@XZ 100e2170     msvcprtd:msvcp120d_app.dll
 0005:00000174       __imp_??1_Container_base12@std@@QAE@XZ 100e2174     msvcprtd:msvcp120d_app.dll
 0005:00000178       __imp_?_Orphan_all@_Container_base12@std@@QAEXXZ 100e2178     msvcprtd:msvcp120d_app.dll
 0005:0000017c       __imp_?_Xbad_alloc@std@@YAXXZ 100e217c     msvcprtd:msvcp120d_app.dll
 0005:00000180       __imp_?_Xlength_error@std@@YAXPBD@Z 100e2180     msvcprtd:msvcp120d_app.dll
 0005:00000184       __imp_?_Xout_of_range@std@@YAXPBD@Z 100e2184     msvcprtd:msvcp120d_app.dll
 0005:00000188       __imp_?_Syserror_map@std@@YAPBDH@Z 100e2188     msvcprtd:msvcp120d_app.dll
 0005:0000018c       __imp_?_Winerror_map@std@@YAPBDH@Z 100e218c     msvcprtd:msvcp120d_app.dll
 0005:00000190       __imp_??0_Lockit@std@@QAE@H@Z 100e2190     msvcprtd:msvcp120d_app.dll
 0005:00000194       __imp_??1_Lockit@std@@QAE@XZ 100e2194     msvcprtd:msvcp120d_app.dll
 0005:00000198       __imp_?_Getpfirst@_Container_base12@std@@QBEPAPAU_Iterator_base12@2@XZ 100e2198     msvcprtd:msvcp120d_app.dll
 0005:0000019c       __imp_?_Swap_all@_Container_base12@std@@QAEXAAU12@@Z 100e219c     msvcprtd:msvcp120d_app.dll
 0005:000001a0       __imp_??0id@locale@std@@QAE@I@Z 100e21a0     msvcprtd:msvcp120d_app.dll
 0005:000001a4       __imp_?_Xbad_function_call@std@@YAXXZ 100e21a4     msvcprtd:msvcp120d_app.dll
 0005:000001a8       __imp_??0_Concurrent_queue_base_v4@details@Concurrency@@IAE@I@Z 100e21a8     msvcprtd:msvcp120d_app.dll
 0005:000001ac       __imp_??1_Concurrent_queue_base_v4@details@Concurrency@@MAE@XZ 100e21ac     msvcprtd:msvcp120d_app.dll
 0005:000001b0       \177msvcp120d_app_NULL_THUNK_DATA 100e21b0     msvcprtd:msvcp120d_app.dll
 0005:000001ec       __imp__sprintf_s           100e21ec     MSVCRTD:msvcr120d_app.dll
 0005:000001f0       __imp____clean_type_info_names_internal 100e21f0     MSVCRTD:msvcr120d_app.dll
 0005:000001f4       __imp__wcscpy_s            100e21f4     MSVCRTD:msvcr120d_app.dll
 0005:000001f8       __imp___wmakepath_s        100e21f8     MSVCRTD:msvcr120d_app.dll
 0005:000001fc       __imp___wsplitpath_s       100e21fc     MSVCRTD:msvcr120d_app.dll
 0005:00000200       __imp_??0bad_target@Concurrency@@QAE@XZ 100e2200     MSVCRTD:msvcr120d_app.dll
 0005:00000204       __imp___purecall           100e2204     MSVCRTD:msvcr120d_app.dll
 0005:00000208       __imp_??2@YAPAXI@Z         100e2208     MSVCRTD:msvcr120d_app.dll
 0005:0000020c       __imp_??3@YAXPAX@Z         100e220c     MSVCRTD:msvcr120d_app.dll
 0005:00000210       __imp___hypot              100e2210     MSVCRTD:msvcr120d_app.dll
 0005:00000214       __imp__memmove             100e2214     MSVCRTD:msvcr120d_app.dll
 0005:00000218       __imp__memcpy              100e2218     MSVCRTD:msvcr120d_app.dll
 0005:0000021c       __imp__strlen              100e221c     MSVCRTD:msvcr120d_app.dll
 0005:00000220       __imp_??_V@YAXPAX@Z        100e2220     MSVCRTD:msvcr120d_app.dll
 0005:00000224       __imp___CxxThrowException@8 100e2224     MSVCRTD:msvcr120d_app.dll
 0005:00000228       __imp____CxxFrameHandler3  100e2228     MSVCRTD:msvcr120d_app.dll
 0005:0000022c       __imp___invalid_parameter  100e222c     MSVCRTD:msvcr120d_app.dll
 0005:00000230       __imp__free                100e2230     MSVCRTD:msvcr120d_app.dll
 0005:00000234       __imp__malloc              100e2234     MSVCRTD:msvcr120d_app.dll
 0005:00000238       __imp__memset              100e2238     MSVCRTD:msvcr120d_app.dll
 0005:0000023c       __imp_??0exception@std@@QAE@XZ 100e223c     MSVCRTD:msvcr120d_app.dll
 0005:00000240       __imp_??0exception@std@@QAE@ABQBD@Z 100e2240     MSVCRTD:msvcr120d_app.dll
 0005:00000244       __imp_??0exception@std@@QAE@ABQBDH@Z 100e2244     MSVCRTD:msvcr120d_app.dll
 0005:00000248       __imp_??0exception@std@@QAE@ABV01@@Z 100e2248     MSVCRTD:msvcr120d_app.dll
 0005:0000024c       __imp_??1exception@std@@UAE@XZ 100e224c     MSVCRTD:msvcr120d_app.dll
 0005:00000250       __imp_?__ExceptionPtrCreate@@YAXPAX@Z 100e2250     MSVCRTD:msvcr120d_app.dll
 0005:00000254       __imp_?__ExceptionPtrDestroy@@YAXPAX@Z 100e2254     MSVCRTD:msvcr120d_app.dll
 0005:00000258       __imp_?__ExceptionPtrCopy@@YAXPAXPBX@Z 100e2258     MSVCRTD:msvcr120d_app.dll
 0005:0000025c       __imp_?__ExceptionPtrCurrentException@@YAXPAX@Z 100e225c     MSVCRTD:msvcr120d_app.dll
 0005:00000260       __imp_?__ExceptionPtrRethrow@@YAXPBX@Z 100e2260     MSVCRTD:msvcr120d_app.dll
 0005:00000264       __imp___CrtDbgReportW      100e2264     MSVCRTD:msvcr120d_app.dll
 0005:00000268       __imp___wassert            100e2268     MSVCRTD:msvcr120d_app.dll
 0005:0000026c       __imp_?Alloc@Concurrency@@YAPAXI@Z 100e226c     MSVCRTD:msvcr120d_app.dll
 0005:00000270       __imp_?Free@Concurrency@@YAXPAX@Z 100e2270     MSVCRTD:msvcr120d_app.dll
 0005:00000274       __imp_?_Yield@_Context@details@Concurrency@@SAXXZ 100e2274     MSVCRTD:msvcr120d_app.dll
 0005:00000278       __imp_??0_Scheduler@details@Concurrency@@QAE@PAVScheduler@2@@Z 100e2278     MSVCRTD:msvcr120d_app.dll
 0005:0000027c       __imp_?_Reference@_Scheduler@details@Concurrency@@QAEIXZ 100e227c     MSVCRTD:msvcr120d_app.dll
 0005:00000280       __imp_?_Release@_Scheduler@details@Concurrency@@QAEIXZ 100e2280     MSVCRTD:msvcr120d_app.dll
 0005:00000284       __imp_?_GetScheduler@_Scheduler@details@Concurrency@@QAEPAVScheduler@3@XZ 100e2284     MSVCRTD:msvcr120d_app.dll
 0005:00000288       __imp_?_ScheduleTask@_CurrentScheduler@details@Concurrency@@SAXP6AXPAX@Z0@Z 100e2288     MSVCRTD:msvcr120d_app.dll
 0005:0000028c       __imp_?_Get@_CurrentScheduler@details@Concurrency@@SA?AV_Scheduler@23@XZ 100e228c     MSVCRTD:msvcr120d_app.dll
 0005:00000290       __imp_?_UnderlyingYield@details@Concurrency@@YAXXZ 100e2290     MSVCRTD:msvcr120d_app.dll
 0005:00000294       __imp___except_handler4_common 100e2294     MSVCRTD:msvcr120d_app.dll
 0005:00000298       __imp_??0message_not_found@Concurrency@@QAE@XZ 100e2298     MSVCRTD:msvcr120d_app.dll
 0005:0000029c       __imp_??0invalid_link_target@Concurrency@@QAE@PBD@Z 100e229c     MSVCRTD:msvcr120d_app.dll
 0005:000002a0       __imp_??0invalid_operation@Concurrency@@QAE@PBD@Z 100e22a0     MSVCRTD:msvcr120d_app.dll
 0005:000002a4       __imp_??0task_canceled@Concurrency@@QAE@XZ 100e22a4     MSVCRTD:msvcr120d_app.dll
 0005:000002a8       __imp_??0critical_section@Concurrency@@QAE@XZ 100e22a8     MSVCRTD:msvcr120d_app.dll
 0005:000002ac       __imp_??1critical_section@Concurrency@@QAE@XZ 100e22ac     MSVCRTD:msvcr120d_app.dll
 0005:000002b0       __imp_??0scoped_lock@critical_section@Concurrency@@QAE@AAV12@@Z 100e22b0     MSVCRTD:msvcr120d_app.dll
 0005:000002b4       __imp_??1scoped_lock@critical_section@Concurrency@@QAE@XZ 100e22b4     MSVCRTD:msvcr120d_app.dll
 0005:000002b8       __imp_??0event@Concurrency@@QAE@XZ 100e22b8     MSVCRTD:msvcr120d_app.dll
 0005:000002bc       __imp_??1event@Concurrency@@QAE@XZ 100e22bc     MSVCRTD:msvcr120d_app.dll
 0005:000002c0       __imp_?wait@event@Concurrency@@QAEII@Z 100e22c0     MSVCRTD:msvcr120d_app.dll
 0005:000002c4       __imp_?set@event@Concurrency@@QAEXXZ 100e22c4     MSVCRTD:msvcr120d_app.dll
 0005:000002c8       __imp_??0_NonReentrantPPLLock@details@Concurrency@@QAE@XZ 100e22c8     MSVCRTD:msvcr120d_app.dll
 0005:000002cc       __imp_??0_Scoped_lock@_NonReentrantPPLLock@details@Concurrency@@QAE@AAV123@@Z 100e22cc     MSVCRTD:msvcr120d_app.dll
 0005:000002d0       __imp_??1_Scoped_lock@_NonReentrantPPLLock@details@Concurrency@@QAE@XZ 100e22d0     MSVCRTD:msvcr120d_app.dll
 0005:000002d4       __imp_??0_ReentrantPPLLock@details@Concurrency@@QAE@XZ 100e22d4     MSVCRTD:msvcr120d_app.dll
 0005:000002d8       __imp_??0_Scoped_lock@_ReentrantPPLLock@details@Concurrency@@QAE@AAV123@@Z 100e22d8     MSVCRTD:msvcr120d_app.dll
 0005:000002dc       __imp_??1_Scoped_lock@_ReentrantPPLLock@details@Concurrency@@QAE@XZ 100e22dc     MSVCRTD:msvcr120d_app.dll
 0005:000002e0       __imp_?_Schedule@_TaskCollection@details@Concurrency@@QAEXPAV_UnrealizedChore@23@@Z 100e22e0     MSVCRTD:msvcr120d_app.dll
 0005:000002e4       __imp_?_Cancel@_TaskCollection@details@Concurrency@@QAEXXZ 100e22e4     MSVCRTD:msvcr120d_app.dll
 0005:000002e8       __imp_?_RunAndWait@_TaskCollection@details@Concurrency@@QAG?AW4_TaskCollectionStatus@23@PAV_UnrealizedChore@23@@Z 100e22e8     MSVCRTD:msvcr120d_app.dll
 0005:000002ec       __imp_?_GetCurrentInlineDepth@_StackGuard@details@Concurrency@@CAAAIXZ 100e22ec     MSVCRTD:msvcr120d_app.dll
 0005:000002f0       __imp_?_NewCollection@_AsyncTaskCollection@details@Concurrency@@SAPAV123@PAV_CancellationTokenState@23@@Z 100e22f0     MSVCRTD:msvcr120d_app.dll
 0005:000002f4       __imp_?_ReportUnobservedException@details@Concurrency@@YAXXZ 100e22f4     MSVCRTD:msvcr120d_app.dll
 0005:000002f8       __imp_??0_Timer@details@Concurrency@@IAE@I_N@Z 100e22f8     MSVCRTD:msvcr120d_app.dll
 0005:000002fc       __imp_??1_Timer@details@Concurrency@@MAE@XZ 100e22fc     MSVCRTD:msvcr120d_app.dll
 0005:00000300       __imp_?_Start@_Timer@details@Concurrency@@IAEXXZ 100e2300     MSVCRTD:msvcr120d_app.dll
 0005:00000304       __imp_?_Stop@_Timer@details@Concurrency@@IAEXXZ 100e2304     MSVCRTD:msvcr120d_app.dll
 0005:00000308       __imp_?_Trace_agents@Concurrency@@YAXW4Agents_EventType@1@_JZZ 100e2308     MSVCRTD:msvcr120d_app.dll
 0005:0000030c       __imp_?CaptureCallstack@platform@details@Concurrency@@YAIPAPAXII@Z 100e230c     MSVCRTD:msvcr120d_app.dll
 0005:00000310       __imp_?GetCurrentThreadId@platform@details@Concurrency@@YAJXZ 100e2310     MSVCRTD:msvcr120d_app.dll
 0005:00000314       __imp___time64             100e2314     MSVCRTD:msvcr120d_app.dll
 0005:00000318       __imp_??0?$_SpinWait@$00@details@Concurrency@@QAE@P6AXXZ@Z 100e2318     MSVCRTD:msvcr120d_app.dll
 0005:0000031c       __imp_?_SpinOnce@?$_SpinWait@$00@details@Concurrency@@QAE_NXZ 100e231c     MSVCRTD:msvcr120d_app.dll
 0005:00000320       __imp_?what@exception@std@@UBEPBDXZ 100e2320     MSVCRTD:msvcr120d_app.dll
 0005:00000324       __imp__wcscmp              100e2324     MSVCRTD:msvcr120d_app.dll
 0005:00000328       __imp__wcslen              100e2328     MSVCRTD:msvcr120d_app.dll
 0005:0000032c       __imp_?terminate@@YAXXZ    100e232c     MSVCRTD:msvcr120d_app.dll
 0005:00000330       __imp___lock               100e2330     MSVCRTD:msvcr120d_app.dll
 0005:00000334       __imp___unlock             100e2334     MSVCRTD:msvcr120d_app.dll
 0005:00000338       __imp___calloc_dbg         100e2338     MSVCRTD:msvcr120d_app.dll
 0005:0000033c       __imp____dllonexit         100e233c     MSVCRTD:msvcr120d_app.dll
 0005:00000340       __imp___onexit             100e2340     MSVCRTD:msvcr120d_app.dll
 0005:00000344       __imp___CRT_RTC_INITW      100e2344     MSVCRTD:msvcr120d_app.dll
 0005:00000348       __imp_??1type_info@@UAE@XZ 100e2348     MSVCRTD:msvcr120d_app.dll
 0005:0000034c       __imp___except1            100e234c     MSVCRTD:msvcr120d_app.dll
 0005:00000350       __imp____CppXcptFilter     100e2350     MSVCRTD:msvcr120d_app.dll
 0005:00000354       __imp___amsg_exit          100e2354     MSVCRTD:msvcr120d_app.dll
 0005:00000358       __imp___malloc_dbg         100e2358     MSVCRTD:msvcr120d_app.dll
 0005:0000035c       __imp___free_dbg           100e235c     MSVCRTD:msvcr120d_app.dll
 0005:00000360       __imp___CrtSetCheckCount   100e2360     MSVCRTD:msvcr120d_app.dll
 0005:00000364       __imp___initterm           100e2364     MSVCRTD:msvcr120d_app.dll
 0005:00000368       __imp___initterm_e         100e2368     MSVCRTD:msvcr120d_app.dll
 0005:0000036c       \177msvcr120d_app_NULL_THUNK_DATA 100e236c     MSVCRTD:msvcr120d_app.dll
 0005:000003e4       __imp__CoTaskMemFree@4     100e23e4     ole32:ole32.dll
 0005:000003e8       __imp__CoGetObjectContext@8 100e23e8     ole32:ole32.dll
 0005:000003ec       __imp__CoCreateFreeThreadedMarshaler@8 100e23ec     ole32:ole32.dll
 0005:000003f0       __imp__CoTaskMemAlloc@4    100e23f0     ole32:ole32.dll
 0005:000003f4       __imp__CoGetApartmentType@8 100e23f4     ole32:ole32.dll
 0005:000003f8       __imp__CoGetContextToken@4 100e23f8     ole32:ole32.dll
 0005:000003fc       \177ole32_NULL_THUNK_DATA  100e23fc     ole32:ole32.dll
 0005:0000042c       __imp__sqlite3_vfs_register 100e242c     sqlite3:sqlite3.dll
 0005:00000430       \177sqlite3_NULL_THUNK_DATA 100e2430     sqlite3:sqlite3.dll
 0005:0000045c       __imp_?GetActivationFactoryByPCWSTR@@YGJPAXAAVGuid@Platform@@PAPAX@Z 100e245c     vccorlibd:vccorlib120d_app.DLL
 0005:00000460       __imp_?GetIidsFn@@YGJHPAKPBU__s_GUID@@PAPAVGuid@Platform@@@Z 100e2460     vccorlibd:vccorlib120d_app.DLL
 0005:00000464       __imp_?UninitializeData@Details@Platform@@YAXH@Z 100e2464     vccorlibd:vccorlib120d_app.DLL
 0005:00000468       __imp_?InitializeData@Details@Platform@@YAJH@Z 100e2468     vccorlibd:vccorlib120d_app.DLL
 0005:0000046c       __imp_??0GridLength@Xaml@UI@Windows@@QAA@NW4GridUnitType@123@@Z 100e246c     vccorlibd:vccorlib120d_app.DLL
 0005:00000470       __imp_?GetIBoxArrayVtable@Details@Platform@@YGPAXPAX@Z 100e2470     vccorlibd:vccorlib120d_app.DLL
 0005:00000474       __imp_?<Dispose>@String@Platform@@U$AAAXXZ 100e2474     vccorlibd:vccorlib120d_app.DLL
 0005:00000478       __imp_??0Enum@Platform@@Q$AAA@XZ 100e2478     vccorlibd:vccorlib120d_app.DLL
 0005:0000047c       __imp_??0ValueType@Platform@@Q$AAA@XZ 100e247c     vccorlibd:vccorlib120d_app.DLL
 0005:00000480       __imp_?__abi_ObjectToString@__abi_details@@YGP$AAVString@Platform@@P$AAVObject@3@_N@Z 100e2480     vccorlibd:vccorlib120d_app.DLL
 0005:00000484       __imp_?__abi_cast_Object_to_String@__abi_details@@YGP$AAVString@Platform@@_NP$AAVObject@3@@Z 100e2484     vccorlibd:vccorlib120d_app.DLL
 0005:00000488       __imp_?__abi_cast_String_to_Object@__abi_details@@YGP$AAVObject@Platform@@P$AAVString@3@@Z 100e2488     vccorlibd:vccorlib120d_app.DLL
 0005:0000048c       __imp_?ReleaseInContextImpl@Details@Platform@@YGJPAUIUnknown@@0@Z 100e248c     vccorlibd:vccorlib120d_app.DLL
 0005:00000490       __imp_?GetProxyImpl@Details@Platform@@YGJPAUIUnknown@@ABU_GUID@@0PAPAU3@@Z 100e2490     vccorlibd:vccorlib120d_app.DLL
 0005:00000494       __imp_?GetObjectContext@Details@Platform@@YGPAUIUnknown@@XZ 100e2494     vccorlibd:vccorlib120d_app.DLL
 0005:00000498       __imp_?ReCreateException@Exception@Platform@@SAP$AAV12@H@Z 100e2498     vccorlibd:vccorlib120d_app.DLL
 0005:0000049c       __imp_?CreateException@Exception@Platform@@SAP$AAV12@H@Z 100e249c     vccorlibd:vccorlib120d_app.DLL
 0005:000004a0       __imp_??0Exception@Platform@@Q$AAA@HP$AAVString@1@@Z 100e24a0     vccorlibd:vccorlib120d_app.DLL
 0005:000004a4       __imp_??0Delegate@Platform@@Q$AAA@XZ 100e24a4     vccorlibd:vccorlib120d_app.DLL
 0005:000004a8       __imp_?AllocateException@Heap@Details@Platform@@SAPAXII@Z 100e24a8     vccorlibd:vccorlib120d_app.DLL
 0005:000004ac       __imp_?Allocate@Heap@Details@Platform@@SAPAXI@Z 100e24ac     vccorlibd:vccorlib120d_app.DLL
 0005:000004b0       __imp_?AlignedFree@Heap@Details@Platform@@SAXPAX@Z 100e24b0     vccorlibd:vccorlib120d_app.DLL
 0005:000004b4       __imp_?Free@Heap@Details@Platform@@SAXPAX@Z 100e24b4     vccorlibd:vccorlib120d_app.DLL
 0005:000004b8       __imp_?Allocate@Heap@Details@Platform@@SAPAXII@Z 100e24b8     vccorlibd:vccorlib120d_app.DLL
 0005:000004bc       __imp_?ReleaseTarget@ControlBlock@Details@Platform@@AAEXXZ 100e24bc     vccorlibd:vccorlib120d_app.DLL
 0005:000004c0       __imp_??0Object@Platform@@Q$AAA@XZ 100e24c0     vccorlibd:vccorlib120d_app.DLL
 0005:000004c4       __imp_?__abi_translateCurrentException@@YGJ_N@Z 100e24c4     vccorlibd:vccorlib120d_app.DLL
 0005:000004c8       __imp_?__abi_WinRTraiseCOMException@@YGXJ@Z 100e24c8     vccorlibd:vccorlib120d_app.DLL
 0005:000004cc       __imp_?__abi_WinRTraiseObjectDisposedException@@YGXXZ 100e24cc     vccorlibd:vccorlib120d_app.DLL
 0005:000004d0       __imp_?__abi_WinRTraiseDisconnectedException@@YGXXZ 100e24d0     vccorlibd:vccorlib120d_app.DLL
 0005:000004d4       __imp_?__abi_WinRTraiseWrongThreadException@@YGXXZ 100e24d4     vccorlibd:vccorlib120d_app.DLL
 0005:000004d8       __imp_?__abi_WinRTraiseClassNotRegisteredException@@YGXXZ 100e24d8     vccorlibd:vccorlib120d_app.DLL
 0005:000004dc       __imp_?__abi_WinRTraiseChangedStateException@@YGXXZ 100e24dc     vccorlibd:vccorlib120d_app.DLL
 0005:000004e0       __imp_?__abi_WinRTraiseOutOfBoundsException@@YGXXZ 100e24e0     vccorlibd:vccorlib120d_app.DLL
 0005:000004e4       __imp_?__abi_WinRTraiseInvalidArgumentException@@YGXXZ 100e24e4     vccorlibd:vccorlib120d_app.DLL
 0005:000004e8       __imp_?__abi_WinRTraiseOutOfMemoryException@@YGXXZ 100e24e8     vccorlibd:vccorlib120d_app.DLL
 0005:000004ec       __imp_?__abi_WinRTraiseAccessDeniedException@@YGXXZ 100e24ec     vccorlibd:vccorlib120d_app.DLL
 0005:000004f0       __imp_?__abi_WinRTraiseFailureException@@YGXXZ 100e24f0     vccorlibd:vccorlib120d_app.DLL
 0005:000004f4       __imp_?__abi_WinRTraiseOperationCanceledException@@YGXXZ 100e24f4     vccorlibd:vccorlib120d_app.DLL
 0005:000004f8       __imp_?__abi_WinRTraiseNullReferenceException@@YGXXZ 100e24f8     vccorlibd:vccorlib120d_app.DLL
 0005:000004fc       __imp_?__abi_WinRTraiseInvalidCastException@@YGXXZ 100e24fc     vccorlibd:vccorlib120d_app.DLL
 0005:00000500       __imp_?__abi_WinRTraiseNotImplementedException@@YGXXZ 100e2500     vccorlibd:vccorlib120d_app.DLL
 0005:00000504       __imp_?GetActivationFactory@Details@Platform@@YGJPAVModuleBase@1WRL@Microsoft@@PAUHSTRING__@@PAPAUIActivationFactory@@@Z 100e2504     vccorlibd:vccorlib120d_app.DLL
 0005:00000508       __imp_?TerminateModule@Details@Platform@@YG_NPAVModuleBase@1WRL@Microsoft@@@Z 100e2508     vccorlibd:vccorlib120d_app.DLL
 0005:0000050c       \177vccorlib120d_app_NULL_THUNK_DATA 100e250c     vccorlibd:vccorlib120d_app.DLL
 0005:00000558       __IMPORT_DESCRIPTOR_sqlite3 100e2558     sqlite3:sqlite3.dll
 0005:0000056c       __IMPORT_DESCRIPTOR_KERNEL32 100e256c     kernel32:KERNEL32.dll
 0005:00000580       __IMPORT_DESCRIPTOR_vccorlib120d_app 100e2580     vccorlibd:vccorlib120d_app.DLL
 0005:00000594       __IMPORT_DESCRIPTOR_msvcp120d_app 100e2594     msvcprtd:msvcp120d_app.dll
 0005:000005a8       __IMPORT_DESCRIPTOR_msvcr120d_app 100e25a8     MSVCRTD:msvcr120d_app.dll
 0005:000005bc       __IMPORT_DESCRIPTOR_ole32  100e25bc     ole32:ole32.dll
 0005:000005d0       __IMPORT_DESCRIPTOR_api-ms-win-core-winrt-string-l1-1-0 100e25d0     runtimeobject:api-ms-win-core-winrt-string-l1-1-0.dll
 0005:000005e4       __IMPORT_DESCRIPTOR_api-ms-win-core-winrt-error-l1-1-0 100e25e4     runtimeobject:api-ms-win-core-winrt-error-l1-1-0.dll
 0005:000005f8       __IMPORT_DESCRIPTOR_api-ms-win-core-winrt-error-l1-1-1 100e25f8     runtimeobject:api-ms-win-core-winrt-error-l1-1-1.dll
 0005:0000060c       __NULL_IMPORT_DESCRIPTOR   100e260c     sqlite3:sqlite3.dll
 0006:00000000       ___pobjectentryfirst       100e5000     vccorlibd:init.obj
 0006:00000104       ___pobjectentrymid         100e5104     vccorlibd:init.obj
 0006:00000208       _SQLiteWinRTExtensions___WinRTVFSActivationFactory__Entry 100e5208     SQLiteWinRTExtensions.obj
 0006:0000030c       ___pobjectentrylast        100e530c     vccorlibd:init.obj
