 SQLiteWinRTFS

 Timestamp is 595538e0 (Thu Jun 29 11:29:04 2017)

 Preferred load address is 10000000

 Start         Length     Name                   Class
 0001:00000000 0003cf6dH .textbss                DATA
 0002:00000000 00008c0aH .text$di                CODE
 0002:00008c10 00073450H .text$mn                CODE
 0002:0007c060 0000a0e0H .text$x                 CODE
 0002:00086140 00001160H .text$yd                CODE
 0003:00000000 00000104H .CRT$XCA                DATA
 0003:00000104 00000104H .CRT$XCL                DATA
 0003:00000208 00000139H .CRT$XCU                DATA
 0003:00000344 00000104H .CRT$XCZ                DATA
 0003:00000448 00000104H .CRT$XIA                DATA
 0003:0000054c 00000104H .CRT$XIAA               DATA
 0003:00000650 00000104H .CRT$XIC                DATA
 0003:00000754 00000104H .CRT$XIY                DATA
 0003:00000858 00000104H .CRT$XIZ                DATA
 0003:00000960 000062beH .rdata                  DATA
 0003:00006c20 000001a8H .rdata$debug            DATA
 0003:00006dc8 000047b7H .rdata$r                DATA
 0003:0000b580 00000104H .rtc$IAA                DATA
 0003:0000b684 00000126H .rtc$IMZ                DATA
 0003:0000b7ac 00000104H .rtc$IZZ                DATA
 0003:0000b8b0 00000104H .rtc$TAA                DATA
 0003:0000b9b4 00000126H .rtc$TMZ                DATA
 0003:0000badc 00000104H .rtc$TZZ                DATA
 0003:0000bbe0 00008d12H .xdata$x                DATA
 0003:00014900 0000018dH .edata                  DATA
 0004:00000000 00001b29H .data                   DATA
 0004:00001b30 00004996H .data$r                 DATA
 0004:000064c8 000004b0H .bss                    DATA
 0005:00000000 00000558H .idata$5                DATA
 0005:00000558 000000b4H .idata$2                DATA
 0005:0000060c 00000014H .idata$3                DATA
 0005:00000620 00000558H .idata$4                DATA
 0005:00000b78 0000236bH .idata$6                DATA
 0006:00000000 00000104H minATL$__a              DATA
 0006:00000104 00000104H minATL$__m              DATA
 0006:00000208 00000104H minATL$__r              DATA
 0006:0000030c 00000104H minATL$__z              DATA

  Address         Publics by Value              Rva+Base       Lib:Object

 0000:00000000       ___guard_flags             00000000     <absolute>
 0000:00000000       __except_list              00000000     <absolute>
 0000:00000000       ___guard_fids_table        00000000     <absolute>
 0000:00000000       ___safe_se_handler_count   00000000     <absolute>
 0000:00000000       ___guard_fids_count        00000000     <absolute>
 0000:00000000       ___safe_se_handler_table   00000000     <absolute>
 0000:00009876       __fltused                  00009876     <absolute>
 0000:00009876       __ldused                   00009876     <absolute>
 0000:00000000       ___ImageBase               10000000     <linker-defined>
 0001:00000000       __enc$textbss$begin        10001000     <linker-defined>
 0001:0003cf6d       __enc$textbss$end          1003df6d     <linker-defined>
 0002:00008c10       ?__abi_winrt_cast_use_helper@@YAP$AAVObject@Platform@@_NPAXABU_GUID@@PAU__abi_IUnknown@@@Z 10046c10 f i pch.obj
 0002:00008c80       ??$_Allocate@D@std@@YAPADIPAD@Z 10046c80 f i pch.obj
 0002:00008d10       ??$_Allocate@U_Container_proxy@std@@@std@@YAPAU_Container_proxy@0@IPAU10@@Z 10046d10 f i pch.obj
 0002:00008db0       ??$_Debug_pointer@D@std@@YAXPBDPB_WI@Z 10046db0 f i pch.obj
 0002:00008e20       ??$addressof@D@std@@YAPADAAD@Z 10046e20 f i pch.obj
 0002:00008e60       ??$construct@PADAAPAD@?$_Wrap_alloc@V?$allocator@D@std@@@std@@QAEXPAPADAAPAD@Z 10046e60 f i pch.obj
 0002:00008ed0       ??$construct@PADAAPAD@?$allocator@D@std@@QAEXPAPADAAPAD@Z 10046ed0 f i pch.obj
 0002:00008fd0       ??$construct@PADAAPAD@?$allocator_traits@V?$allocator@D@std@@@std@@SAXAAV?$allocator@D@1@PAPADAAPAD@Z 10046fd0 f i pch.obj
 0002:00009030       ??$construct@U_Container_proxy@std@@U12@@?$allocator@U_Container_proxy@std@@@std@@QAEXPAU_Container_proxy@1@$$QAU21@@Z 10047030 f i pch.obj
 0002:00009140       ??$destroy@PAD@?$_Wrap_alloc@V?$allocator@D@std@@@std@@QAEXPAPAD@Z 10047140 f i pch.obj
 0002:000091a0       ??$destroy@PAD@?$allocator@D@std@@QAEXPAPAD@Z 100471a0 f i pch.obj
 0002:000091e0       ??$destroy@PAD@?$allocator_traits@V?$allocator@D@std@@@std@@SAXAAV?$allocator@D@1@PAPAD@Z 100471e0 f i pch.obj
 0002:00009230       ??$destroy@U_Container_proxy@std@@@?$allocator@U_Container_proxy@std@@@std@@QAEXPAU_Container_proxy@1@@Z 10047230 f i pch.obj
 0002:00009270       ??$forward@AAPAD@std@@YAAAPADAAPAD@Z 10047270 f i pch.obj
 0002:000092b0       ??$forward@U_Container_proxy@std@@@std@@YA$$QAU_Container_proxy@0@AAU10@@Z 100472b0 f i pch.obj
 0002:000092f0       ??0?$_String_alloc@$0A@U?$_String_base_types@DV?$allocator@D@std@@@std@@@std@@QAE@ABV?$allocator@D@1@@Z 100472f0 f i pch.obj
 0002:000093a0       ??0?$_String_val@U?$_Simple_types@D@std@@@std@@QAE@XZ 100473a0 f i pch.obj
 0002:00009420       ??0?$_Wrap_alloc@V?$allocator@D@std@@@std@@QAE@XZ 10047420 f i pch.obj
 0002:00009480       ??0?$allocator@D@std@@QAE@XZ 10047480 f i pch.obj
 0002:000094c0       ??0?$allocator@U_Container_proxy@std@@@std@@QAE@XZ 100474c0 f i pch.obj
 0002:00009500       ??0?$basic_string@DU?$char_traits@D@std@@V?$allocator@D@2@@std@@QAE@PBD@Z 10047500 f i pch.obj
 0002:000095d0       ??0Guid@Platform@@QAA@IGGEEEEEEEE@Z 100475d0 f i pch.obj
 0002:00009690       ??0_Container_proxy@std@@QAE@XZ 10047690 f i pch.obj
 0002:000096e0       ??0_Generic_error_category@std@@QAE@XZ 100476e0 f i pch.obj
 0002:00009740       ??0_Ignore@std@@QAE@XZ     10047740 f i pch.obj
 0002:00009780       ??0_Iostream_error_category@std@@QAE@XZ 10047780 f i pch.obj
 0002:000097e0       ??0_System_error_category@std@@QAE@XZ 100477e0 f i pch.obj
 0002:00009840       ??0error_category@std@@QAE@XZ 10047840 f i pch.obj
 0002:00009890       ??0error_condition@std@@QAE@HABVerror_category@1@@Z 10047890 f i pch.obj
 0002:000098e0       ??1?$_String_alloc@$0A@U?$_String_base_types@DV?$allocator@D@std@@@std@@@std@@QAE@XZ 100478e0 f i pch.obj
 0002:00009940       ??1?$_String_val@U?$_Simple_types@D@std@@@std@@QAE@XZ 10047940 f i pch.obj
 0002:000099a0       ??1_Generic_error_category@std@@UAE@XZ 100479a0 f i pch.obj
 0002:000099f0       ??1_Iostream_error_category@std@@UAE@XZ 100479f0 f i pch.obj
 0002:00009a40       ??1_System_error_category@std@@UAE@XZ 10047a40 f i pch.obj
 0002:00009a90       ??1error_category@std@@UAE@XZ 10047a90 f i pch.obj
 0002:00009ad0       ??1location@Concurrency@@QAE@XZ 10047ad0 f i pch.obj
 0002:00009b10       ??2@YAPAXIPAX@Z            10047b10 f i pch.obj
 0002:00009b50       ??3@YAXPAX0@Z              10047b50 f i pch.obj
 0002:00009b80       ??8error_category@std@@QBE_NABV01@@Z 10047b80 f i pch.obj
 0002:00009bf0       ??8error_condition@std@@QBE_NABV01@@Z 10047bf0 f i pch.obj
 0002:00009ca0       ??_Elocation@Concurrency@@QAEPAXI@Z 10047ca0 f i pch.obj
 0002:00009d60       ??_G_Generic_error_category@std@@UAEPAXI@Z 10047d60 f i pch.obj
 0002:00009d60       ??_E_Generic_error_category@std@@UAEPAXI@Z 10047d60 f i pch.obj
 0002:00009dd0       ??_G_Iostream_error_category@std@@UAEPAXI@Z 10047dd0 f i pch.obj
 0002:00009dd0       ??_E_Iostream_error_category@std@@UAEPAXI@Z 10047dd0 f i pch.obj
 0002:00009e40       ??_G_System_error_category@std@@UAEPAXI@Z 10047e40 f i pch.obj
 0002:00009e40       ??_E_System_error_category@std@@UAEPAXI@Z 10047e40 f i pch.obj
 0002:00009eb0       ??_Eerror_category@std@@UAEPAXI@Z 10047eb0 f i pch.obj
 0002:00009eb0       ??_Gerror_category@std@@UAEPAXI@Z 10047eb0 f i pch.obj
 0002:00009f20       ?_Alloc_proxy@?$_String_alloc@$0A@U?$_String_base_types@DV?$allocator@D@std@@@std@@@std@@QAEXXZ 10047f20 f i pch.obj
 0002:0000a010       ?_Copy@?$basic_string@DU?$char_traits@D@std@@V?$allocator@D@2@@std@@QAEXII@Z 10048010 f i pch.obj
 0002:0000a2e0       ?_Eos@?$basic_string@DU?$char_traits@D@std@@V?$allocator@D@2@@std@@QAEXI@Z 100482e0 f i pch.obj
 0002:0000a360       ?_Free_proxy@?$_String_alloc@$0A@U?$_String_base_types@DV?$allocator@D@std@@@std@@@std@@QAEXXZ 10048360 f i pch.obj
 0002:0000a450       ?_Getal@?$_String_alloc@$0A@U?$_String_base_types@DV?$allocator@D@std@@@std@@@std@@QBE?AU?$_Wrap_alloc@V?$allocator@D@std@@@2@XZ 10048450 f i pch.obj
 0002:0000a4b0       ?_Grow@?$basic_string@DU?$char_traits@D@std@@V?$allocator@D@2@@std@@QAE_NI_N@Z 100484b0 f i pch.obj
 0002:0000a5d0       ?_Inside@?$basic_string@DU?$char_traits@D@std@@V?$allocator@D@2@@std@@QAE_NPBD@Z 100485d0 f i pch.obj
 0002:0000a650       ?_Myptr@?$_String_val@U?$_Simple_types@D@std@@@std@@QAEPADXZ 10048650 f i pch.obj
 0002:0000a6e0       ?_Myptr@?$_String_val@U?$_Simple_types@D@std@@@std@@QBEPBDXZ 100486e0 f i pch.obj
 0002:0000a770       ?_Tidy@?$basic_string@DU?$char_traits@D@std@@V?$allocator@D@2@@std@@QAEX_NI@Z 10048770 f i pch.obj
 0002:0000a880       ?_Xlen@?$basic_string@DU?$char_traits@D@std@@V?$allocator@D@2@@std@@QBEXXZ 10048880 f i pch.obj
 0002:0000a8e0       ?_Xran@?$basic_string@DU?$char_traits@D@std@@V?$allocator@D@2@@std@@QBEXXZ 100488e0 f i pch.obj
 0002:0000a940       ?__abi_ThrowIfFailed@@YAXJ@Z 10048940 f i pch.obj
 0002:0000a9a0       ?__abi_WinRTraiseException@@YGXJ@Z 100489a0 f i pch.obj
 0002:0000ac60       ?__abi_winrt_cast_to@@YAP$AAVObject@Platform@@_NP$AAV12@ABU_GUID@@@Z 10048c60 f i pch.obj
 0002:0000ad60       ?allocate@?$_Wrap_alloc@V?$allocator@D@std@@@std@@QAEPADI@Z 10048d60 f i pch.obj
 0002:0000adc0       ?allocate@?$allocator@D@std@@QAEPADI@Z 10048dc0 f i pch.obj
 0002:0000ae20       ?allocate@?$allocator@U_Container_proxy@std@@@std@@QAEPAU_Container_proxy@2@I@Z 10048e20 f i pch.obj
 0002:0000ae80       ?assign@?$basic_string@DU?$char_traits@D@std@@V?$allocator@D@2@@std@@QAEAAV12@ABV12@II@Z 10048e80 f i pch.obj
 0002:0000af90       ?assign@?$basic_string@DU?$char_traits@D@std@@V?$allocator@D@2@@std@@QAEAAV12@PBD@Z 10048f90 f i pch.obj
 0002:0000b020       ?assign@?$basic_string@DU?$char_traits@D@std@@V?$allocator@D@2@@std@@QAEAAV12@PBDI@Z 10049020 f i pch.obj
 0002:0000b120       ?assign@?$char_traits@D@std@@SAXAADABD@Z 10049120 f i pch.obj
 0002:0000b160       ?category@error_code@std@@QBEABVerror_category@2@XZ 10049160 f i pch.obj
 0002:0000b1a0       ?category@error_condition@std@@QBEABVerror_category@2@XZ 100491a0 f i pch.obj
 0002:0000b1e0       ?copy@?$char_traits@D@std@@SAPADPADPBDI@Z 100491e0 f i pch.obj
 0002:0000b260       ?deallocate@?$_Wrap_alloc@V?$allocator@D@std@@@std@@QAEXPADI@Z 10049260 f i pch.obj
 0002:0000b2c0       ?deallocate@?$allocator@D@std@@QAEXPADI@Z 100492c0 f i pch.obj
 0002:0000b320       ?deallocate@?$allocator@U_Container_proxy@std@@@std@@QAEXPAU_Container_proxy@2@I@Z 10049320 f i pch.obj
 0002:0000b380       ?default_error_condition@_System_error_category@std@@UBE?AVerror_condition@2@H@Z 10049380 f i pch.obj
 0002:0000b430       ?default_error_condition@error_category@std@@UBE?AVerror_condition@2@H@Z 10049430 f i pch.obj
 0002:0000b490       ?equivalent@error_category@std@@UBE_NABVerror_code@2@H@Z 10049490 f i pch.obj
 0002:0000b530       ?equivalent@error_category@std@@UBE_NHABVerror_condition@2@@Z 10049530 f i pch.obj
 0002:0000b5b0       ?erase@?$basic_string@DU?$char_traits@D@std@@V?$allocator@D@2@@std@@QAEAAV12@I@Z 100495b0 f i pch.obj
 0002:0000b630       ?erase@?$basic_string@DU?$char_traits@D@std@@V?$allocator@D@2@@std@@QAEAAV12@II@Z 10049630 f i pch.obj
 0002:0000b710       ?generic_category@std@@YAABVerror_category@1@XZ 10049710 f i pch.obj
 0002:0000b750       ?length@?$char_traits@D@std@@SAIPBD@Z 10049750 f i pch.obj
 0002:0000b7d0       ?max_size@?$_Wrap_alloc@V?$allocator@D@std@@@std@@QBEIXZ 100497d0 f i pch.obj
 0002:0000b830       ?max_size@?$allocator@D@std@@QBEIXZ 10049830 f i pch.obj
 0002:0000b870       ?max_size@?$allocator_traits@V?$allocator@D@std@@@std@@SAIABV?$allocator@D@2@@Z 10049870 f i pch.obj
 0002:0000b8c0       ?max_size@?$basic_string@DU?$char_traits@D@std@@V?$allocator@D@2@@std@@QBEIXZ 100498c0 f i pch.obj
 0002:0000b960       ?message@_Generic_error_category@std@@UBE?AV?$basic_string@DU?$char_traits@D@std@@V?$allocator@D@2@@2@H@Z 10049960 f i pch.obj
 0002:0000ba20       ?message@_Iostream_error_category@std@@UBE?AV?$basic_string@DU?$char_traits@D@std@@V?$allocator@D@2@@2@H@Z 10049a20 f i pch.obj
 0002:0000bae0       ?message@_System_error_category@std@@UBE?AV?$basic_string@DU?$char_traits@D@std@@V?$allocator@D@2@@2@H@Z 10049ae0 f i pch.obj
 0002:0000bba0       ?move@?$char_traits@D@std@@SAPADPADPBDI@Z 10049ba0 f i pch.obj
 0002:0000bc30       ?name@_Generic_error_category@std@@UBEPBDXZ 10049c30 f i pch.obj
 0002:0000bc70       ?name@_Iostream_error_category@std@@UBEPBDXZ 10049c70 f i pch.obj
 0002:0000bcb0       ?name@_System_error_category@std@@UBEPBDXZ 10049cb0 f i pch.obj
 0002:0000bcf0       ?size@?$basic_string@DU?$char_traits@D@std@@V?$allocator@D@2@@std@@QBEIXZ 10049cf0 f i pch.obj
 0002:0000bd30       ?system_category@std@@YAABVerror_category@1@XZ 10049d30 f i pch.obj
 0002:0000bd70       ?value@error_code@std@@QBEHXZ 10049d70 f i pch.obj
 0002:0000bdb0       ?value@error_condition@std@@QBEHXZ 10049db0 f i pch.obj
 0002:0000bdf0       _hypot                     10049df0 f i pch.obj
 0002:0000be70       ?CreateFactory@__WinRTVFSActivationFactory@SQLiteWinRTExtensions@@SGJPAIPAU__abi___classObjectEntry@@AAVGuid@Platform@@PAPAU__abi_IUnknown@@@Z 10049e70 f i SQLiteWinRTExtensions.obj
 0002:0000bfd0       ?GetTargetClassName@__WinRTVFSActivationFactory@SQLiteWinRTExtensions@@SGPB_WXZ 10049fd0 f i SQLiteWinRTExtensions.obj
 0002:0000c010       ??0WinRTVFS@SQLiteWinRTExtensions@@Q$AAA@XZ 1004a010 f i SQLiteWinRTExtensions.obj
 0002:0000c0b0       ??0__WinRTVFSActivationFactory@SQLiteWinRTExtensions@@Q$AAA@XZ 1004a0b0 f i SQLiteWinRTExtensions.obj
 0002:0000c140       ??0__abi_FTMWeakRefData@@QAE@P$AAVObject@Platform@@@Z 1004a140 f i SQLiteWinRTExtensions.obj
 0002:0000c1d0       ?ActivateInstance@?QIActivationFactory@Details@Platform@@__WinRTVFSActivationFactory@SQLiteWinRTExtensions@@U$AAAP$AAVObject@3@XZ 1004a1d0 f i SQLiteWinRTExtensions.obj
 0002:0000c2d2       ?ActivateInstance@?QIActivationFactory@Details@Platform@@__WinRTVFSActivationFactory@SQLiteWinRTExtensions@@W7$AAAP$AAVObject@3@XZ 1004a2d2 f i SQLiteWinRTExtensions.obj
 0002:0000c2e0       ?Decrement@__abi_FTMWeakRefData@@QCGKXZ 1004a2e0 f i SQLiteWinRTExtensions.obj
 0002:0000c3f0       ?DecrementStrongReference@ControlBlock@Details@Platform@@AAGKXZ 1004a3f0 f i SQLiteWinRTExtensions.obj
 0002:0000c450       ?Equals@Guid@Platform@@QAA_NABU_GUID@@@Z 1004a450 f i SQLiteWinRTExtensions.obj
 0002:0000c550       ?GetFreeThreadedMarshaler@__abi_FTMWeakRefData@@QAEPAV1@XZ 1004a550 f i SQLiteWinRTExtensions.obj
 0002:0000c5a0       ?GetRefcount@ControlBlock@Details@Platform@@AAGJXZ 1004a5a0 f i SQLiteWinRTExtensions.obj
 0002:0000c5e0       ?GetWeakReference@?QIWeakReferenceSource@Details@Platform@@WinRTVFS@SQLiteWinRTExtensions@@U$AAAP$AAUIWeakReference@23@XZ 1004a5e0 f i SQLiteWinRTExtensions.obj
 0002:0000c6ae       ?GetWeakReference@?QIWeakReferenceSource@Details@Platform@@WinRTVFS@SQLiteWinRTExtensions@@W7$AAAP$AAUIWeakReference@23@XZ 1004a6ae f i SQLiteWinRTExtensions.obj
 0002:0000c6c0       ?GetWeakReference@__abi_FTMWeakRefData@@QAEP$AAUIWeakReference@Details@Platform@@XZ 1004a6c0 f i SQLiteWinRTExtensions.obj
 0002:0000c720       ?Increment@__abi_FTMWeakRefData@@QCGKXZ 1004a720 f i SQLiteWinRTExtensions.obj
 0002:0000c7a0       ?IncrementStrongReference@ControlBlock@Details@Platform@@AAGKXZ 1004a7a0 f i SQLiteWinRTExtensions.obj
 0002:0000c7f0       ?Initialize@?Q__IWinRTVFSStatics@SQLiteWinRTExtensions@@__WinRTVFSActivationFactory@2@U$AAA_N_N@Z 1004a7f0 f i SQLiteWinRTExtensions.obj
 0002:0000c840       ?Initialize@WinRTVFS@SQLiteWinRTExtensions@@SA_N_N@Z 1004a840 f i SQLiteWinRTExtensions.obj
 0002:0000ca40       ?PlacementFree@Heap@Details@Platform@@SAXPAX0@Z 1004aa40 f i SQLiteWinRTExtensions.obj
 0002:0000ca70       ?ReleaseControlBlock@__abi_FTMWeakRefData@@QAEXXZ 1004aa70 f i SQLiteWinRTExtensions.obj
 0002:0000cae0       ?__abi_AddRef@?QObject@Platform@@WinRTVFS@SQLiteWinRTExtensions@@U$AAGKXZ 1004aae0 f i SQLiteWinRTExtensions.obj
 0002:0000cb37       ?__abi_AddRef@?QObject@Platform@@WinRTVFS@SQLiteWinRTExtensions@@W3$AAGKXZ 1004ab37 f i SQLiteWinRTExtensions.obj
 0002:0000cb43       ?__abi_AddRef@?QObject@Platform@@WinRTVFS@SQLiteWinRTExtensions@@W7$AAGKXZ 1004ab43 f i SQLiteWinRTExtensions.obj
 0002:0000cb4f       ?__abi_AddRef@?QObject@Platform@@WinRTVFS@SQLiteWinRTExtensions@@WM@$AAGKXZ 1004ab4f f i SQLiteWinRTExtensions.obj
 0002:0000cb60       ?__abi_AddRef@?QObject@Platform@@__WinRTVFSActivationFactory@SQLiteWinRTExtensions@@U$AAGKXZ 1004ab60 f i SQLiteWinRTExtensions.obj
 0002:0000cbb7       ?__abi_AddRef@?QObject@Platform@@__WinRTVFSActivationFactory@SQLiteWinRTExtensions@@W3$AAGKXZ 1004abb7 f i SQLiteWinRTExtensions.obj
 0002:0000cbc3       ?__abi_AddRef@?QObject@Platform@@__WinRTVFSActivationFactory@SQLiteWinRTExtensions@@W7$AAGKXZ 1004abc3 f i SQLiteWinRTExtensions.obj
 0002:0000cbd0       ?__abi_GetIids@?QObject@Platform@@WinRTVFS@SQLiteWinRTExtensions@@U$AAGJPAKPAPAVGuid@2@@Z 1004abd0 f i SQLiteWinRTExtensions.obj
 0002:0000cd0b       ?__abi_GetIids@?QObject@Platform@@WinRTVFS@SQLiteWinRTExtensions@@W3$AAGJPAKPAPAVGuid@2@@Z 1004ad0b f i SQLiteWinRTExtensions.obj
 0002:0000cd17       ?__abi_GetIids@?QObject@Platform@@WinRTVFS@SQLiteWinRTExtensions@@WM@$AAGJPAKPAPAVGuid@2@@Z 1004ad17 f i SQLiteWinRTExtensions.obj
 0002:0000cd30       ?__abi_GetIids@?QObject@Platform@@__WinRTVFSActivationFactory@SQLiteWinRTExtensions@@U$AAGJPAKPAPAVGuid@2@@Z 1004ad30 f i SQLiteWinRTExtensions.obj
 0002:0000ce6b       ?__abi_GetIids@?QObject@Platform@@__WinRTVFSActivationFactory@SQLiteWinRTExtensions@@W3$AAGJPAKPAPAVGuid@2@@Z 1004ae6b f i SQLiteWinRTExtensions.obj
 0002:0000ce77       ?__abi_GetIids@?QObject@Platform@@__WinRTVFSActivationFactory@SQLiteWinRTExtensions@@W7$AAGJPAKPAPAVGuid@2@@Z 1004ae77 f i SQLiteWinRTExtensions.obj
 0002:0000ce90       ?__abi_GetRuntimeClassName@?QObject@Platform@@WinRTVFS@SQLiteWinRTExtensions@@U$AAGJPAPAUHSTRING__@@@Z 1004ae90 f i SQLiteWinRTExtensions.obj
 0002:0000cee5       ?__abi_GetRuntimeClassName@?QObject@Platform@@WinRTVFS@SQLiteWinRTExtensions@@W3$AAGJPAPAUHSTRING__@@@Z 1004aee5 f i SQLiteWinRTExtensions.obj
 0002:0000cef1       ?__abi_GetRuntimeClassName@?QObject@Platform@@WinRTVFS@SQLiteWinRTExtensions@@WM@$AAGJPAPAUHSTRING__@@@Z 1004aef1 f i SQLiteWinRTExtensions.obj
 0002:0000cf00       ?__abi_GetRuntimeClassName@?QObject@Platform@@__WinRTVFSActivationFactory@SQLiteWinRTExtensions@@U$AAGJPAPAUHSTRING__@@@Z 1004af00 f i SQLiteWinRTExtensions.obj
 0002:0000cf55       ?__abi_GetRuntimeClassName@?QObject@Platform@@__WinRTVFSActivationFactory@SQLiteWinRTExtensions@@W3$AAGJPAPAUHSTRING__@@@Z 1004af55 f i SQLiteWinRTExtensions.obj
 0002:0000cf61       ?__abi_GetRuntimeClassName@?QObject@Platform@@__WinRTVFSActivationFactory@SQLiteWinRTExtensions@@W7$AAGJPAPAUHSTRING__@@@Z 1004af61 f i SQLiteWinRTExtensions.obj
 0002:0000cf70       ?__abi_GetTrustLevel@?QObject@Platform@@WinRTVFS@SQLiteWinRTExtensions@@U$AAGJPAW4__abi_TrustLevel@@@Z 1004af70 f i SQLiteWinRTExtensions.obj
 0002:0000cfae       ?__abi_GetTrustLevel@?QObject@Platform@@WinRTVFS@SQLiteWinRTExtensions@@W3$AAGJPAW4__abi_TrustLevel@@@Z 1004afae f i SQLiteWinRTExtensions.obj
 0002:0000cfba       ?__abi_GetTrustLevel@?QObject@Platform@@WinRTVFS@SQLiteWinRTExtensions@@WM@$AAGJPAW4__abi_TrustLevel@@@Z 1004afba f i SQLiteWinRTExtensions.obj
 0002:0000cfd0       ?__abi_GetTrustLevel@?QObject@Platform@@__WinRTVFSActivationFactory@SQLiteWinRTExtensions@@U$AAGJPAW4__abi_TrustLevel@@@Z 1004afd0 f i SQLiteWinRTExtensions.obj
 0002:0000d00e       ?__abi_GetTrustLevel@?QObject@Platform@@__WinRTVFSActivationFactory@SQLiteWinRTExtensions@@W3$AAGJPAW4__abi_TrustLevel@@@Z 1004b00e f i SQLiteWinRTExtensions.obj
 0002:0000d01a       ?__abi_GetTrustLevel@?QObject@Platform@@__WinRTVFSActivationFactory@SQLiteWinRTExtensions@@W7$AAGJPAW4__abi_TrustLevel@@@Z 1004b01a f i SQLiteWinRTExtensions.obj
 0002:0000d030       ?__abi_Platform_Details_IActivationFactory____abi_ActivateInstance@?QIActivationFactory@Details@Platform@@__WinRTVFSActivationFactory@SQLiteWinRTExtensions@@U$AAGJPAP$AAVObject@3@@Z 1004b030 f i SQLiteWinRTExtensions.obj
 0002:0000d144       ?__abi_Platform_Details_IActivationFactory____abi_ActivateInstance@?QIActivationFactory@Details@Platform@@__WinRTVFSActivationFactory@SQLiteWinRTExtensions@@W7$AAGJPAP$AAVObject@3@@Z 1004b144 f i SQLiteWinRTExtensions.obj
 0002:0000d150       ?__abi_Platform_Details_IWeakReferenceSource____abi_GetWeakReference@?QIWeakReferenceSource@Details@Platform@@WinRTVFS@SQLiteWinRTExtensions@@U$AAGJPAP$AAUIWeakReference@23@@Z 1004b150 f i SQLiteWinRTExtensions.obj
 0002:0000d24d       ?__abi_Platform_Details_IWeakReferenceSource____abi_GetWeakReference@?QIWeakReferenceSource@Details@Platform@@WinRTVFS@SQLiteWinRTExtensions@@W7$AAGJPAP$AAUIWeakReference@23@@Z 1004b24d f i SQLiteWinRTExtensions.obj
 0002:0000d260       ?__abi_QueryInterface@?QObject@Platform@@WinRTVFS@SQLiteWinRTExtensions@@U$AAGJAAVGuid@2@PAPAX@Z 1004b260 f i SQLiteWinRTExtensions.obj
 0002:0000d405       ?__abi_QueryInterface@?QObject@Platform@@WinRTVFS@SQLiteWinRTExtensions@@W3$AAGJAAVGuid@2@PAPAX@Z 1004b405 f i SQLiteWinRTExtensions.obj
 0002:0000d411       ?__abi_QueryInterface@?QObject@Platform@@WinRTVFS@SQLiteWinRTExtensions@@W7$AAGJAAVGuid@2@PAPAX@Z 1004b411 f i SQLiteWinRTExtensions.obj
 0002:0000d41d       ?__abi_QueryInterface@?QObject@Platform@@WinRTVFS@SQLiteWinRTExtensions@@WM@$AAGJAAVGuid@2@PAPAX@Z 1004b41d f i SQLiteWinRTExtensions.obj
 0002:0000d430       ?__abi_QueryInterface@?QObject@Platform@@__WinRTVFSActivationFactory@SQLiteWinRTExtensions@@U$AAGJAAVGuid@2@PAPAX@Z 1004b430 f i SQLiteWinRTExtensions.obj
 0002:0000d5d5       ?__abi_QueryInterface@?QObject@Platform@@__WinRTVFSActivationFactory@SQLiteWinRTExtensions@@W3$AAGJAAVGuid@2@PAPAX@Z 1004b5d5 f i SQLiteWinRTExtensions.obj
 0002:0000d5e1       ?__abi_QueryInterface@?QObject@Platform@@__WinRTVFSActivationFactory@SQLiteWinRTExtensions@@W7$AAGJAAVGuid@2@PAPAX@Z 1004b5e1 f i SQLiteWinRTExtensions.obj
 0002:0000d5f0       ?__abi_QueryInterface@__abi_FTMWeakRefData@@QAGJAAVGuid@Platform@@PAPAX@Z 1004b5f0 f i SQLiteWinRTExtensions.obj
 0002:0000d770       ?__abi_Release@?QObject@Platform@@WinRTVFS@SQLiteWinRTExtensions@@U$AAGKXZ 1004b770 f i SQLiteWinRTExtensions.obj
 0002:0000d7dc       ?__abi_Release@?QObject@Platform@@WinRTVFS@SQLiteWinRTExtensions@@W3$AAGKXZ 1004b7dc f i SQLiteWinRTExtensions.obj
 0002:0000d7e8       ?__abi_Release@?QObject@Platform@@WinRTVFS@SQLiteWinRTExtensions@@W7$AAGKXZ 1004b7e8 f i SQLiteWinRTExtensions.obj
 0002:0000d7f4       ?__abi_Release@?QObject@Platform@@WinRTVFS@SQLiteWinRTExtensions@@WM@$AAGKXZ 1004b7f4 f i SQLiteWinRTExtensions.obj
 0002:0000d800       ?__abi_Release@?QObject@Platform@@__WinRTVFSActivationFactory@SQLiteWinRTExtensions@@U$AAGKXZ 1004b800 f i SQLiteWinRTExtensions.obj
 0002:0000d86c       ?__abi_Release@?QObject@Platform@@__WinRTVFSActivationFactory@SQLiteWinRTExtensions@@W3$AAGKXZ 1004b86c f i SQLiteWinRTExtensions.obj
 0002:0000d878       ?__abi_Release@?QObject@Platform@@__WinRTVFSActivationFactory@SQLiteWinRTExtensions@@W7$AAGKXZ 1004b878 f i SQLiteWinRTExtensions.obj
 0002:0000d890       ?__abi_Release@ControlBlock@Details@Platform@@UAGKXZ 1004b890 f i SQLiteWinRTExtensions.obj
 0002:0000d920       ?__abi_SQLiteWinRTExtensions___IWinRTVFSStatics____abi_Initialize@?Q__IWinRTVFSStatics@SQLiteWinRTExtensions@@__WinRTVFSActivationFactory@2@U$AAGJ_NPA_N@Z 1004b920 f i SQLiteWinRTExtensions.obj
 0002:0000da40       ?__abi_winrt_ptr_ctor@@YAPAXQ$ADVObject@Platform@@@Z 1004ba40 f i SQLiteWinRTExtensions.obj
 0002:0000dab0       ?__abi_winrt_ptr_dtor@@YAXQ$ADVObject@Platform@@@Z 1004bab0 f i SQLiteWinRTExtensions.obj
 0002:0000db20       ?<Dispose>@IDisposable@Platform@@U$AAAXXZ 1004bb20 f i WinRTVFS.obj
 0002:0000db90       ??$?0$$$V@?$_Ref_count_obj@U?$_Task_completion_event_impl@E@details@Concurrency@@@std@@QAE@XZ 1004bb90 f i WinRTVFS.obj
 0002:0000dca0       ??$?0AAP$AAVException@Platform@@V_TaskCreationCallstack@details@Concurrency@@@?$_Ref_count_obj@U_ExceptionHolder@details@Concurrency@@@std@@QAE@AAP$AAVException@Platform@@$$QAV_TaskCreationCallstack@details@Concurrency@@@Z 1004bca0 f i WinRTVFS.obj
 0002:0000ddd0       ??$?0AAPAV_CancellationTokenState@details@Concurrency@@AAUscheduler_ptr@2@@?$_Ref_count_obj@U?$_Task_impl@E@details@Concurrency@@@std@@QAE@AAPAV_CancellationTokenState@details@Concurrency@@AAUscheduler_ptr@4@@Z 1004bdd0 f i WinRTVFS.obj
 0002:0000df50       ??$?0AAPAV_CancellationTokenState@details@Concurrency@@AAUscheduler_ptr@2@@?$_Ref_count_obj@U?$_Task_impl@I@details@Concurrency@@@std@@QAE@AAPAV_CancellationTokenState@details@Concurrency@@AAUscheduler_ptr@4@@Z 1004bf50 f i WinRTVFS.obj
 0002:0000e0d0       ??$?0AAPAV_CancellationTokenState@details@Concurrency@@AAUscheduler_ptr@2@@?$_Ref_count_obj@U?$_Task_impl@P$AAUIBuffer@Streams@Storage@Windows@@@details@Concurrency@@@std@@QAE@AAPAV_CancellationTokenState@details@Concurrency@@AAUscheduler_ptr@4@@Z 1004c0d0 f i WinRTVFS.obj
 0002:0000e250       ??$?0AAPAV_CancellationTokenState@details@Concurrency@@AAUscheduler_ptr@2@@?$_Ref_count_obj@U?$_Task_impl@P$AAUIRandomAccessStream@Streams@Storage@Windows@@@details@Concurrency@@@std@@QAE@AAPAV_CancellationTokenState@details@Concurrency@@AAUscheduler_ptr@4@@Z 1004c250 f i WinRTVFS.obj
 0002:0000e3d0       ??$?0AAPAV_CancellationTokenState@details@Concurrency@@AAUscheduler_ptr@2@@?$_Ref_count_obj@U?$_Task_impl@P$AAVStorageFile@Storage@Windows@@@details@Concurrency@@@std@@QAE@AAPAV_CancellationTokenState@details@Concurrency@@AAUscheduler_ptr@4@@Z 1004c3d0 f i WinRTVFS.obj
 0002:0000e550       ??$?0AAPAV_CancellationTokenState@details@Concurrency@@AAUscheduler_ptr@2@@?$_Ref_count_obj@U?$_Task_impl@P$AAVStorageFolder@Storage@Windows@@@details@Concurrency@@@std@@QAE@AAPAV_CancellationTokenState@details@Concurrency@@AAUscheduler_ptr@4@@Z 1004c550 f i WinRTVFS.obj
 0002:0000e6d0       ??$?0AAPAV_CancellationTokenState@details@Concurrency@@AAUscheduler_ptr@2@@?$_Ref_count_obj@U?$_Task_impl@_N@details@Concurrency@@@std@@QAE@AAPAV_CancellationTokenState@details@Concurrency@@AAUscheduler_ptr@4@@Z 1004c6d0 f i WinRTVFS.obj
 0002:0000e850       ??$?0AAU?$_Callable_obj@V<lambda_02d862f9cfc639ff7c37ca52d43e6a8c>@@$0A@@std@@@?$_Callable_obj@V<lambda_02d862f9cfc639ff7c37ca52d43e6a8c>@@$0A@@std@@QAE@AAU01@@Z 1004c850 f i WinRTVFS.obj
 0002:0000e8c0       ??$?0AAU?$_Callable_obj@V<lambda_095a938ce4c5765dcc6b67f548aeb9c7>@@$0A@@std@@@?$_Callable_obj@V<lambda_095a938ce4c5765dcc6b67f548aeb9c7>@@$0A@@std@@QAE@AAU01@@Z 1004c8c0 f i WinRTVFS.obj
 0002:0000e930       ??$?0AAU?$_Callable_obj@V<lambda_0b7f78ec4ced38495cec46e0d346e0b9>@@$0A@@std@@@?$_Callable_obj@V<lambda_0b7f78ec4ced38495cec46e0d346e0b9>@@$0A@@std@@QAE@AAU01@@Z 1004c930 f i WinRTVFS.obj
 0002:0000e9a0       ??$?0AAU?$_Callable_obj@V<lambda_0fe479da16d43edb8e9a254c493d643e>@@$0A@@std@@@?$_Callable_obj@V<lambda_0fe479da16d43edb8e9a254c493d643e>@@$0A@@std@@QAE@AAU01@@Z 1004c9a0 f i WinRTVFS.obj
 0002:0000ea10       ??$?0AAU?$_Callable_obj@V<lambda_1a93da980d6fe77644a4eefc4e1ad756>@@$0A@@std@@@?$_Callable_obj@V<lambda_1a93da980d6fe77644a4eefc4e1ad756>@@$0A@@std@@QAE@AAU01@@Z 1004ca10 f i WinRTVFS.obj
 0002:0000ea80       ??$?0AAU?$_Callable_obj@V<lambda_295bc5f846209cba149a5e74d0d63a72>@@$0A@@std@@@?$_Callable_obj@V<lambda_295bc5f846209cba149a5e74d0d63a72>@@$0A@@std@@QAE@AAU01@@Z 1004ca80 f i WinRTVFS.obj
 0002:0000eaf0       ??$?0AAU?$_Callable_obj@V<lambda_364e75aa895e992ae8821732ca646aa2>@@$0A@@std@@@?$_Callable_obj@V<lambda_364e75aa895e992ae8821732ca646aa2>@@$0A@@std@@QAE@AAU01@@Z 1004caf0 f i WinRTVFS.obj
 0002:0000eb60       ??$?0AAU?$_Callable_obj@V<lambda_39cde079c01d1b5b9307ff255a1ccdd9>@@$0A@@std@@@?$_Callable_obj@V<lambda_39cde079c01d1b5b9307ff255a1ccdd9>@@$0A@@std@@QAE@AAU01@@Z 1004cb60 f i WinRTVFS.obj
 0002:0000ebd0       ??$?0AAU?$_Callable_obj@V<lambda_528650821c608ced6534641e311542a5>@@$0A@@std@@@?$_Callable_obj@V<lambda_528650821c608ced6534641e311542a5>@@$0A@@std@@QAE@AAU01@@Z 1004cbd0 f i WinRTVFS.obj
 0002:0000ec40       ??$?0AAU?$_Callable_obj@V<lambda_579ccd68d569251046038e8620afec85>@@$0A@@std@@@?$_Callable_obj@V<lambda_579ccd68d569251046038e8620afec85>@@$0A@@std@@QAE@AAU01@@Z 1004cc40 f i WinRTVFS.obj
 0002:0000ecb0       ??$?0AAU?$_Callable_obj@V<lambda_9fc58f08a03183e50e06176727aeb396>@@$0A@@std@@@?$_Callable_obj@V<lambda_9fc58f08a03183e50e06176727aeb396>@@$0A@@std@@QAE@AAU01@@Z 1004ccb0 f i WinRTVFS.obj
 0002:0000ed20       ??$?0AAU?$_Callable_obj@V<lambda_a66b3ee15e662226a0b0b15ae647d32f>@@$0A@@std@@@?$_Callable_obj@V<lambda_a66b3ee15e662226a0b0b15ae647d32f>@@$0A@@std@@QAE@AAU01@@Z 1004cd20 f i WinRTVFS.obj
 0002:0000ed90       ??$?0AAU?$_Callable_obj@V<lambda_c1a554f2383dae03f169289aed8c4103>@@$0A@@std@@@?$_Callable_obj@V<lambda_c1a554f2383dae03f169289aed8c4103>@@$0A@@std@@QAE@AAU01@@Z 1004cd90 f i WinRTVFS.obj
 0002:0000ee00       ??$?0AAU?$_Callable_obj@V<lambda_c28a53003ed51cdfe295a7d756f98c2f>@@$0A@@std@@@?$_Callable_obj@V<lambda_c28a53003ed51cdfe295a7d756f98c2f>@@$0A@@std@@QAE@AAU01@@Z 1004ce00 f i WinRTVFS.obj
 0002:0000ee70       ??$?0AAU?$_Callable_obj@V<lambda_e7ef5f1e4e1eca0ae8efc6086cf9f417>@@$0A@@std@@@?$_Callable_obj@V<lambda_e7ef5f1e4e1eca0ae8efc6086cf9f417>@@$0A@@std@@QAE@AAU01@@Z 1004ce70 f i WinRTVFS.obj
 0002:0000eee0       ??$?0ABV<lambda_9fc58f08a03183e50e06176727aeb396>@@@?$_Callable_obj@V<lambda_9fc58f08a03183e50e06176727aeb396>@@$0A@@std@@QAE@ABV<lambda_9fc58f08a03183e50e06176727aeb396>@@@Z 1004cee0 f i WinRTVFS.obj
 0002:0000ef50       ??$?0ABV<lambda_9fc58f08a03183e50e06176727aeb396>@@@?$_Func_impl@U?$_Callable_obj@V<lambda_9fc58f08a03183e50e06176727aeb396>@@$0A@@std@@V?$allocator@V?$_Func_class@X$$$V@std@@@2@X$$$V@std@@QAE@ABV<lambda_9fc58f08a03183e50e06176727aeb396>@@ABV?$allocator@V?$_Func_impl@U?$_Callable_obj@V<lambda_9fc58f08a03183e50e06176727aeb396>@@$0A@@std@@V?$allocator@V?$_Func_class@X$$$V@std@@@2@X$$$V@std@@@1@@Z 1004cf50 f i WinRTVFS.obj
 0002:0000f030       ??$?0ABVexception_ptr@std@@V_TaskCreationCallstack@details@Concurrency@@@?$_Ref_count_obj@U_ExceptionHolder@details@Concurrency@@@std@@QAE@ABVexception_ptr@1@$$QAV_TaskCreationCallstack@details@Concurrency@@@Z 1004d030 f i WinRTVFS.obj
 0002:0000f160       ??$?0P$AAU?$IAsyncOperation@P$AAUIRandomAccessStream@Streams@Storage@Windows@@@Foundation@Windows@@@?$task@P$AAUIRandomAccessStream@Streams@Storage@Windows@@@Concurrency@@QAE@P$AAU?$IAsyncOperation@P$AAUIRandomAccessStream@Streams@Storage@Windows@@@Foundation@Windows@@ABVtask_options@1@@Z 1004d160 f i WinRTVFS.obj
 0002:0000f450       ??$?0P$AAU?$IAsyncOperation@P$AAVStorageFile@Storage@Windows@@@Foundation@Windows@@@?$task@P$AAVStorageFile@Storage@Windows@@@Concurrency@@QAE@P$AAU?$IAsyncOperation@P$AAVStorageFile@Storage@Windows@@@Foundation@Windows@@ABVtask_options@1@@Z 1004d450 f i WinRTVFS.obj
 0002:0000f740       ??$?0P$AAU?$IAsyncOperation@P$AAVStorageFolder@Storage@Windows@@@Foundation@Windows@@@?$task@P$AAVStorageFolder@Storage@Windows@@@Concurrency@@QAE@P$AAU?$IAsyncOperation@P$AAVStorageFolder@Storage@Windows@@@Foundation@Windows@@ABVtask_options@1@@Z 1004d740 f i WinRTVFS.obj
 0002:0000fa30       ??$?0P$AAU?$IAsyncOperation@_N@Foundation@Windows@@@?$task@_N@Concurrency@@QAE@P$AAU?$IAsyncOperation@_N@Foundation@Windows@@ABVtask_options@1@@Z 1004da30 f i WinRTVFS.obj
 0002:0000fd20       ??$?0P$AAU?$IAsyncOperationWithProgress@II@Foundation@Windows@@@?$task@I@Concurrency@@QAE@P$AAU?$IAsyncOperationWithProgress@II@Foundation@Windows@@ABVtask_options@1@@Z 1004dd20 f i WinRTVFS.obj
 0002:00010010       ??$?0P$AAU?$IAsyncOperationWithProgress@P$AAUIBuffer@Streams@Storage@Windows@@I@Foundation@Windows@@@?$task@P$AAUIBuffer@Streams@Storage@Windows@@@Concurrency@@QAE@P$AAU?$IAsyncOperationWithProgress@P$AAUIBuffer@Streams@Storage@Windows@@I@Foundation@Windows@@ABVtask_options@1@@Z 1004e010 f i WinRTVFS.obj
 0002:00010300       ??$?0P$AAUIAsyncAction@Foundation@Windows@@@?$task@X@Concurrency@@QAE@P$AAUIAsyncAction@Foundation@Windows@@ABVtask_options@1@@Z 1004e300 f i WinRTVFS.obj
 0002:000105f0       ??$?0PAV?$message@H@Concurrency@@@?$allocator@D@std@@QAE@ABV?$allocator@PAV?$message@H@Concurrency@@@1@@Z 1004e5f0 f i WinRTVFS.obj
 0002:00010630       ??$?0U?$_Callable_obj@V<lambda_02d862f9cfc639ff7c37ca52d43e6a8c>@@$0A@@std@@@?$_Callable_obj@V<lambda_02d862f9cfc639ff7c37ca52d43e6a8c>@@$0A@@std@@QAE@$$QAU01@@Z 1004e630 f i WinRTVFS.obj
 0002:000106a0       ??$?0U?$_Callable_obj@V<lambda_095a938ce4c5765dcc6b67f548aeb9c7>@@$0A@@std@@@?$_Callable_obj@V<lambda_095a938ce4c5765dcc6b67f548aeb9c7>@@$0A@@std@@QAE@$$QAU01@@Z 1004e6a0 f i WinRTVFS.obj
 0002:00010710       ??$?0U?$_Callable_obj@V<lambda_0b7f78ec4ced38495cec46e0d346e0b9>@@$0A@@std@@@?$_Callable_obj@V<lambda_0b7f78ec4ced38495cec46e0d346e0b9>@@$0A@@std@@QAE@$$QAU01@@Z 1004e710 f i WinRTVFS.obj
 0002:00010780       ??$?0U?$_Callable_obj@V<lambda_0fe479da16d43edb8e9a254c493d643e>@@$0A@@std@@@?$_Callable_obj@V<lambda_0fe479da16d43edb8e9a254c493d643e>@@$0A@@std@@QAE@$$QAU01@@Z 1004e780 f i WinRTVFS.obj
 0002:000107f0       ??$?0U?$_Callable_obj@V<lambda_1a93da980d6fe77644a4eefc4e1ad756>@@$0A@@std@@@?$_Callable_obj@V<lambda_1a93da980d6fe77644a4eefc4e1ad756>@@$0A@@std@@QAE@$$QAU01@@Z 1004e7f0 f i WinRTVFS.obj
 0002:00010860       ??$?0U?$_Callable_obj@V<lambda_295bc5f846209cba149a5e74d0d63a72>@@$0A@@std@@@?$_Callable_obj@V<lambda_295bc5f846209cba149a5e74d0d63a72>@@$0A@@std@@QAE@$$QAU01@@Z 1004e860 f i WinRTVFS.obj
 0002:000108d0       ??$?0U?$_Callable_obj@V<lambda_364e75aa895e992ae8821732ca646aa2>@@$0A@@std@@@?$_Callable_obj@V<lambda_364e75aa895e992ae8821732ca646aa2>@@$0A@@std@@QAE@$$QAU01@@Z 1004e8d0 f i WinRTVFS.obj
 0002:00010940       ??$?0U?$_Callable_obj@V<lambda_39cde079c01d1b5b9307ff255a1ccdd9>@@$0A@@std@@@?$_Callable_obj@V<lambda_39cde079c01d1b5b9307ff255a1ccdd9>@@$0A@@std@@QAE@$$QAU01@@Z 1004e940 f i WinRTVFS.obj
 0002:000109b0       ??$?0U?$_Callable_obj@V<lambda_528650821c608ced6534641e311542a5>@@$0A@@std@@@?$_Callable_obj@V<lambda_528650821c608ced6534641e311542a5>@@$0A@@std@@QAE@$$QAU01@@Z 1004e9b0 f i WinRTVFS.obj
 0002:00010a20       ??$?0U?$_Callable_obj@V<lambda_579ccd68d569251046038e8620afec85>@@$0A@@std@@@?$_Callable_obj@V<lambda_579ccd68d569251046038e8620afec85>@@$0A@@std@@QAE@$$QAU01@@Z 1004ea20 f i WinRTVFS.obj
 0002:00010a90       ??$?0U?$_Callable_obj@V<lambda_9fc58f08a03183e50e06176727aeb396>@@$0A@@std@@@?$_Callable_obj@V<lambda_9fc58f08a03183e50e06176727aeb396>@@$0A@@std@@QAE@$$QAU01@@Z 1004ea90 f i WinRTVFS.obj
 0002:00010b00       ??$?0U?$_Callable_obj@V<lambda_a66b3ee15e662226a0b0b15ae647d32f>@@$0A@@std@@@?$_Callable_obj@V<lambda_a66b3ee15e662226a0b0b15ae647d32f>@@$0A@@std@@QAE@$$QAU01@@Z 1004eb00 f i WinRTVFS.obj
 0002:00010b70       ??$?0U?$_Callable_obj@V<lambda_c1a554f2383dae03f169289aed8c4103>@@$0A@@std@@@?$_Callable_obj@V<lambda_c1a554f2383dae03f169289aed8c4103>@@$0A@@std@@QAE@$$QAU01@@Z 1004eb70 f i WinRTVFS.obj
 0002:00010be0       ??$?0U?$_Callable_obj@V<lambda_c28a53003ed51cdfe295a7d756f98c2f>@@$0A@@std@@@?$_Callable_obj@V<lambda_c28a53003ed51cdfe295a7d756f98c2f>@@$0A@@std@@QAE@$$QAU01@@Z 1004ebe0 f i WinRTVFS.obj
 0002:00010c50       ??$?0U?$_Callable_obj@V<lambda_e7ef5f1e4e1eca0ae8efc6086cf9f417>@@$0A@@std@@@?$_Callable_obj@V<lambda_e7ef5f1e4e1eca0ae8efc6086cf9f417>@@$0A@@std@@QAE@$$QAU01@@Z 1004ec50 f i WinRTVFS.obj
 0002:00010cc0       ??$?0U?$_Task_impl@E@details@Concurrency@@X@?$shared_ptr@U_Task_impl_base@details@Concurrency@@@std@@QAE@ABV?$shared_ptr@U?$_Task_impl@E@details@Concurrency@@@1@@Z 1004ecc0 f i WinRTVFS.obj
 0002:00010d30       ??$?0U?$_Task_impl@E@details@Concurrency@@X@?$weak_ptr@U_Task_impl_base@details@Concurrency@@@std@@QAE@ABV?$shared_ptr@U?$_Task_impl@E@details@Concurrency@@@1@@Z 1004ed30 f i WinRTVFS.obj
 0002:00010da0       ??$?0U?$_Task_impl@I@details@Concurrency@@X@?$weak_ptr@U_Task_impl_base@details@Concurrency@@@std@@QAE@ABV?$shared_ptr@U?$_Task_impl@I@details@Concurrency@@@1@@Z 1004eda0 f i WinRTVFS.obj
 0002:00010e10       ??$?0U?$_Task_impl@P$AAUIBuffer@Streams@Storage@Windows@@@details@Concurrency@@X@?$weak_ptr@U_Task_impl_base@details@Concurrency@@@std@@QAE@ABV?$shared_ptr@U?$_Task_impl@P$AAUIBuffer@Streams@Storage@Windows@@@details@Concurrency@@@1@@Z 1004ee10 f i WinRTVFS.obj
 0002:00010e80       ??$?0U?$_Task_impl@P$AAUIRandomAccessStream@Streams@Storage@Windows@@@details@Concurrency@@X@?$weak_ptr@U_Task_impl_base@details@Concurrency@@@std@@QAE@ABV?$shared_ptr@U?$_Task_impl@P$AAUIRandomAccessStream@Streams@Storage@Windows@@@details@Concurrency@@@1@@Z 1004ee80 f i WinRTVFS.obj
 0002:00010ef0       ??$?0U?$_Task_impl@P$AAVStorageFile@Storage@Windows@@@details@Concurrency@@X@?$weak_ptr@U_Task_impl_base@details@Concurrency@@@std@@QAE@ABV?$shared_ptr@U?$_Task_impl@P$AAVStorageFile@Storage@Windows@@@details@Concurrency@@@1@@Z 1004eef0 f i WinRTVFS.obj
 0002:00010f60       ??$?0U?$_Task_impl@P$AAVStorageFolder@Storage@Windows@@@details@Concurrency@@X@?$weak_ptr@U_Task_impl_base@details@Concurrency@@@std@@QAE@ABV?$shared_ptr@U?$_Task_impl@P$AAVStorageFolder@Storage@Windows@@@details@Concurrency@@@1@@Z 1004ef60 f i WinRTVFS.obj
 0002:00010fd0       ??$?0U?$_Task_impl@_N@details@Concurrency@@X@?$weak_ptr@U_Task_impl_base@details@Concurrency@@@std@@QAE@ABV?$shared_ptr@U?$_Task_impl@_N@details@Concurrency@@@1@@Z 1004efd0 f i WinRTVFS.obj
 0002:00011040       ??$?0UIUnknown@@@?$ComPtr@UIUnknown@@@WRL@Microsoft@@QAE@PAUIUnknown@@@Z 1004f040 f i WinRTVFS.obj
 0002:000110a0       ??$?0U_Task_impl_base@details@Concurrency@@@?$shared_ptr@U_Task_impl_base@details@Concurrency@@@std@@QAE@ABV?$weak_ptr@U_Task_impl_base@details@Concurrency@@@1@_N@Z 1004f0a0 f i WinRTVFS.obj
 0002:00011110       ??$?0V<lambda_02d862f9cfc639ff7c37ca52d43e6a8c>@@@?$_Callable_obj@V<lambda_02d862f9cfc639ff7c37ca52d43e6a8c>@@$0A@@std@@QAE@$$QAV<lambda_02d862f9cfc639ff7c37ca52d43e6a8c>@@@Z 1004f110 f i WinRTVFS.obj
 0002:00011180       ??$?0V<lambda_02d862f9cfc639ff7c37ca52d43e6a8c>@@@?$function@$$A6AXXZ@std@@QAE@$$QAV<lambda_02d862f9cfc639ff7c37ca52d43e6a8c>@@@Z 1004f180 f i WinRTVFS.obj
 0002:00011240       ??$?0V<lambda_06940b0a4178dd98f799c96a43aa5761>@@@AsyncActionCompletedHandler@Foundation@Windows@@Q$AAA@V<lambda_06940b0a4178dd98f799c96a43aa5761>@@W4CallbackContext@Platform@@_N@Z 1004f240 f i WinRTVFS.obj
 0002:000113e0       ??$?0V<lambda_095a938ce4c5765dcc6b67f548aeb9c7>@@@?$_Callable_obj@V<lambda_095a938ce4c5765dcc6b67f548aeb9c7>@@$0A@@std@@QAE@$$QAV<lambda_095a938ce4c5765dcc6b67f548aeb9c7>@@@Z 1004f3e0 f i WinRTVFS.obj
 0002:00011450       ??$?0V<lambda_095a938ce4c5765dcc6b67f548aeb9c7>@@@?$function@$$A6AXXZ@std@@QAE@$$QAV<lambda_095a938ce4c5765dcc6b67f548aeb9c7>@@@Z 1004f450 f i WinRTVFS.obj
 0002:00011510       ??$?0V<lambda_0b7f78ec4ced38495cec46e0d346e0b9>@@@?$_Callable_obj@V<lambda_0b7f78ec4ced38495cec46e0d346e0b9>@@$0A@@std@@QAE@$$QAV<lambda_0b7f78ec4ced38495cec46e0d346e0b9>@@@Z 1004f510 f i WinRTVFS.obj
 0002:00011580       ??$?0V<lambda_0b7f78ec4ced38495cec46e0d346e0b9>@@@?$function@$$A6AXXZ@std@@QAE@$$QAV<lambda_0b7f78ec4ced38495cec46e0d346e0b9>@@@Z 1004f580 f i WinRTVFS.obj
 0002:00011640       ??$?0V<lambda_0fe479da16d43edb8e9a254c493d643e>@@@?$_Callable_obj@V<lambda_0fe479da16d43edb8e9a254c493d643e>@@$0A@@std@@QAE@$$QAV<lambda_0fe479da16d43edb8e9a254c493d643e>@@@Z 1004f640 f i WinRTVFS.obj
 0002:000116b0       ??$?0V<lambda_0fe479da16d43edb8e9a254c493d643e>@@@?$function@$$A6AXXZ@std@@QAE@$$QAV<lambda_0fe479da16d43edb8e9a254c493d643e>@@@Z 1004f6b0 f i WinRTVFS.obj
 0002:00011770       ??$?0V<lambda_1a93da980d6fe77644a4eefc4e1ad756>@@@?$_Callable_obj@V<lambda_1a93da980d6fe77644a4eefc4e1ad756>@@$0A@@std@@QAE@$$QAV<lambda_1a93da980d6fe77644a4eefc4e1ad756>@@@Z 1004f770 f i WinRTVFS.obj
 0002:000117e0       ??$?0V<lambda_1a93da980d6fe77644a4eefc4e1ad756>@@@?$function@$$A6AXABH@Z@std@@QAE@$$QAV<lambda_1a93da980d6fe77644a4eefc4e1ad756>@@@Z 1004f7e0 f i WinRTVFS.obj
 0002:000118a0       ??$?0V<lambda_295bc5f846209cba149a5e74d0d63a72>@@@?$_Callable_obj@V<lambda_295bc5f846209cba149a5e74d0d63a72>@@$0A@@std@@QAE@$$QAV<lambda_295bc5f846209cba149a5e74d0d63a72>@@@Z 1004f8a0 f i WinRTVFS.obj
 0002:00011910       ??$?0V<lambda_295bc5f846209cba149a5e74d0d63a72>@@@?$function@$$A6AXPAV?$message@H@Concurrency@@@Z@std@@QAE@$$QAV<lambda_295bc5f846209cba149a5e74d0d63a72>@@@Z 1004f910 f i WinRTVFS.obj
 0002:000119d0       ??$?0V<lambda_364e75aa895e992ae8821732ca646aa2>@@@?$_Callable_obj@V<lambda_364e75aa895e992ae8821732ca646aa2>@@$0A@@std@@QAE@$$QAV<lambda_364e75aa895e992ae8821732ca646aa2>@@@Z 1004f9d0 f i WinRTVFS.obj
 0002:00011a40       ??$?0V<lambda_364e75aa895e992ae8821732ca646aa2>@@@?$function@$$A6AXXZ@std@@QAE@$$QAV<lambda_364e75aa895e992ae8821732ca646aa2>@@@Z 1004fa40 f i WinRTVFS.obj
 0002:00011b00       ??$?0V<lambda_39cde079c01d1b5b9307ff255a1ccdd9>@@@?$_Callable_obj@V<lambda_39cde079c01d1b5b9307ff255a1ccdd9>@@$0A@@std@@QAE@$$QAV<lambda_39cde079c01d1b5b9307ff255a1ccdd9>@@@Z 1004fb00 f i WinRTVFS.obj
 0002:00011b70       ??$?0V<lambda_39cde079c01d1b5b9307ff255a1ccdd9>@@@?$function@$$A6AEE@Z@std@@QAE@$$QAV<lambda_39cde079c01d1b5b9307ff255a1ccdd9>@@@Z 1004fb70 f i WinRTVFS.obj
 0002:00011c30       ??$?0V<lambda_3e0d823744565aaa3c572230ef0680e7>@@@?$AsyncOperationWithProgressCompletedHandler@P$AAUIBuffer@Streams@Storage@Windows@@I@Foundation@Windows@@Q$AAA@V<lambda_3e0d823744565aaa3c572230ef0680e7>@@W4CallbackContext@Platform@@_N@Z 1004fc30 f i WinRTVFS.obj
 0002:00011dd0       ??$?0V<lambda_50a95a3b918e2a131c7de197f9d43680>@@@?$AsyncOperationCompletedHandler@I@Foundation@Windows@@Q$AAA@V<lambda_50a95a3b918e2a131c7de197f9d43680>@@W4CallbackContext@Platform@@_N@Z 1004fdd0 f i WinRTVFS.obj
 0002:00011f70       ??$?0V<lambda_528650821c608ced6534641e311542a5>@@@?$_Callable_obj@V<lambda_528650821c608ced6534641e311542a5>@@$0A@@std@@QAE@$$QAV<lambda_528650821c608ced6534641e311542a5>@@@Z 1004ff70 f i WinRTVFS.obj
 0002:00011fe0       ??$?0V<lambda_528650821c608ced6534641e311542a5>@@@?$function@$$A6AXXZ@std@@QAE@$$QAV<lambda_528650821c608ced6534641e311542a5>@@@Z 1004ffe0 f i WinRTVFS.obj
 0002:000120a0       ??$?0V<lambda_579ccd68d569251046038e8620afec85>@@@?$_Callable_obj@V<lambda_579ccd68d569251046038e8620afec85>@@$0A@@std@@QAE@$$QAV<lambda_579ccd68d569251046038e8620afec85>@@@Z 100500a0 f i WinRTVFS.obj
 0002:00012110       ??$?0V<lambda_579ccd68d569251046038e8620afec85>@@@?$function@$$A6AXPAV?$message@H@Concurrency@@@Z@std@@QAE@$$QAV<lambda_579ccd68d569251046038e8620afec85>@@@Z 10050110 f i WinRTVFS.obj
 0002:000121d0       ??$?0V<lambda_58b35b2c39cebe76475502e8be1fa050>@@@?$AsyncOperationCompletedHandler@P$AAUIRandomAccessStream@Streams@Storage@Windows@@@Foundation@Windows@@Q$AAA@V<lambda_58b35b2c39cebe76475502e8be1fa050>@@W4CallbackContext@Platform@@_N@Z 100501d0 f i WinRTVFS.obj
 0002:00012370       ??$?0V<lambda_78c8bde34479949ab00939bfc3c21b9e>@@@?$AsyncOperationCompletedHandler@_N@Foundation@Windows@@Q$AAA@V<lambda_78c8bde34479949ab00939bfc3c21b9e>@@W4CallbackContext@Platform@@_N@Z 10050370 f i WinRTVFS.obj
 0002:00012510       ??$?0V<lambda_7a641106db6b220fc1bd53009e5e1b6e>@@@?$AsyncOperationWithProgressCompletedHandler@II@Foundation@Windows@@Q$AAA@V<lambda_7a641106db6b220fc1bd53009e5e1b6e>@@W4CallbackContext@Platform@@_N@Z 10050510 f i WinRTVFS.obj
 0002:000126b0       ??$?0V<lambda_8b35f48eeaabe3dd7cb14b365c80a64b>@@@?$AsyncOperationCompletedHandler@P$AAUIBuffer@Streams@Storage@Windows@@@Foundation@Windows@@Q$AAA@V<lambda_8b35f48eeaabe3dd7cb14b365c80a64b>@@W4CallbackContext@Platform@@_N@Z 100506b0 f i WinRTVFS.obj
 0002:00012850       ??$?0V<lambda_9fc58f08a03183e50e06176727aeb396>@@@?$function@$$A6AXXZ@std@@QAE@ABV<lambda_9fc58f08a03183e50e06176727aeb396>@@@Z 10050850 f i WinRTVFS.obj
 0002:00012900       ??$?0V<lambda_a66b3ee15e662226a0b0b15ae647d32f>@@@?$_Callable_obj@V<lambda_a66b3ee15e662226a0b0b15ae647d32f>@@$0A@@std@@QAE@$$QAV<lambda_a66b3ee15e662226a0b0b15ae647d32f>@@@Z 10050900 f i WinRTVFS.obj
 0002:00012970       ??$?0V<lambda_a66b3ee15e662226a0b0b15ae647d32f>@@@?$function@$$A6AXXZ@std@@QAE@$$QAV<lambda_a66b3ee15e662226a0b0b15ae647d32f>@@@Z 10050970 f i WinRTVFS.obj
 0002:00012a30       ??$?0V<lambda_b5ec294d64b7ae7d96b9bd52c133d46d>@@@?$AsyncOperationCompletedHandler@E@Foundation@Windows@@Q$AAA@V<lambda_b5ec294d64b7ae7d96b9bd52c133d46d>@@W4CallbackContext@Platform@@_N@Z 10050a30 f i WinRTVFS.obj
 0002:00012bd0       ??$?0V<lambda_c124a470bc399dc48f76de2d0d06ac02>@@@?$AsyncOperationCompletedHandler@P$AAVStorageFolder@Storage@Windows@@@Foundation@Windows@@Q$AAA@V<lambda_c124a470bc399dc48f76de2d0d06ac02>@@W4CallbackContext@Platform@@_N@Z 10050bd0 f i WinRTVFS.obj
 0002:00012d70       ??$?0V<lambda_c1a554f2383dae03f169289aed8c4103>@@@?$_Callable_obj@V<lambda_c1a554f2383dae03f169289aed8c4103>@@$0A@@std@@QAE@$$QAV<lambda_c1a554f2383dae03f169289aed8c4103>@@@Z 10050d70 f i WinRTVFS.obj
 0002:00012de0       ??$?0V<lambda_c1a554f2383dae03f169289aed8c4103>@@@?$function@$$A6AXXZ@std@@QAE@$$QAV<lambda_c1a554f2383dae03f169289aed8c4103>@@@Z 10050de0 f i WinRTVFS.obj
 0002:00012ea0       ??$?0V<lambda_c28a53003ed51cdfe295a7d756f98c2f>@@@?$_Callable_obj@V<lambda_c28a53003ed51cdfe295a7d756f98c2f>@@$0A@@std@@QAE@$$QAV<lambda_c28a53003ed51cdfe295a7d756f98c2f>@@@Z 10050ea0 f i WinRTVFS.obj
 0002:00012f10       ??$?0V<lambda_c28a53003ed51cdfe295a7d756f98c2f>@@@?$function@$$A6AXPAV?$message@H@Concurrency@@@Z@std@@QAE@$$QAV<lambda_c28a53003ed51cdfe295a7d756f98c2f>@@@Z 10050f10 f i WinRTVFS.obj
 0002:00012fd0       ??$?0V<lambda_e7ef5f1e4e1eca0ae8efc6086cf9f417>@@@?$_Callable_obj@V<lambda_e7ef5f1e4e1eca0ae8efc6086cf9f417>@@$0A@@std@@QAE@$$QAV<lambda_e7ef5f1e4e1eca0ae8efc6086cf9f417>@@@Z 10050fd0 f i WinRTVFS.obj
 0002:00013040       ??$?0V<lambda_e7ef5f1e4e1eca0ae8efc6086cf9f417>@@@?$function@$$A6AXXZ@std@@QAE@$$QAV<lambda_e7ef5f1e4e1eca0ae8efc6086cf9f417>@@@Z 10051040 f i WinRTVFS.obj
 0002:00013100       ??$?0V<lambda_f0a7c2b0a64e3b533e4acd91ff29d36c>@@@?$AsyncOperationCompletedHandler@P$AAVStorageFile@Storage@Windows@@@Foundation@Windows@@Q$AAA@V<lambda_f0a7c2b0a64e3b533e4acd91ff29d36c>@@W4CallbackContext@Platform@@_N@Z 10051100 f i WinRTVFS.obj
 0002:000132a0       ??$?0V?$_Func_class@EE@std@@@?$allocator@V?$_Func_impl@U?$_Callable_obj@V<lambda_39cde079c01d1b5b9307ff255a1ccdd9>@@$0A@@std@@V?$allocator@V?$_Func_class@EE@std@@@2@EE@std@@@std@@QAE@ABV?$allocator@V?$_Func_class@EE@std@@@1@@Z 100512a0 f i WinRTVFS.obj
 0002:000132e0       ??$?0V?$_Func_class@X$$$V@std@@@?$allocator@V?$_Func_impl@U?$_Callable_obj@V<lambda_02d862f9cfc639ff7c37ca52d43e6a8c>@@$0A@@std@@V?$allocator@V?$_Func_class@X$$$V@std@@@2@X$$$V@std@@@std@@QAE@ABV?$allocator@V?$_Func_class@X$$$V@std@@@1@@Z 100512e0 f i WinRTVFS.obj
 0002:00013320       ??$?0V?$_Func_class@X$$$V@std@@@?$allocator@V?$_Func_impl@U?$_Callable_obj@V<lambda_095a938ce4c5765dcc6b67f548aeb9c7>@@$0A@@std@@V?$allocator@V?$_Func_class@X$$$V@std@@@2@X$$$V@std@@@std@@QAE@ABV?$allocator@V?$_Func_class@X$$$V@std@@@1@@Z 10051320 f i WinRTVFS.obj
 0002:00013360       ??$?0V?$_Func_class@X$$$V@std@@@?$allocator@V?$_Func_impl@U?$_Callable_obj@V<lambda_0b7f78ec4ced38495cec46e0d346e0b9>@@$0A@@std@@V?$allocator@V?$_Func_class@X$$$V@std@@@2@X$$$V@std@@@std@@QAE@ABV?$allocator@V?$_Func_class@X$$$V@std@@@1@@Z 10051360 f i WinRTVFS.obj
 0002:000133a0       ??$?0V?$_Func_class@X$$$V@std@@@?$allocator@V?$_Func_impl@U?$_Callable_obj@V<lambda_0fe479da16d43edb8e9a254c493d643e>@@$0A@@std@@V?$allocator@V?$_Func_class@X$$$V@std@@@2@X$$$V@std@@@std@@QAE@ABV?$allocator@V?$_Func_class@X$$$V@std@@@1@@Z 100513a0 f i WinRTVFS.obj
 0002:000133e0       ??$?0V?$_Func_class@X$$$V@std@@@?$allocator@V?$_Func_impl@U?$_Callable_obj@V<lambda_364e75aa895e992ae8821732ca646aa2>@@$0A@@std@@V?$allocator@V?$_Func_class@X$$$V@std@@@2@X$$$V@std@@@std@@QAE@ABV?$allocator@V?$_Func_class@X$$$V@std@@@1@@Z 100513e0 f i WinRTVFS.obj
 0002:00013420       ??$?0V?$_Func_class@X$$$V@std@@@?$allocator@V?$_Func_impl@U?$_Callable_obj@V<lambda_528650821c608ced6534641e311542a5>@@$0A@@std@@V?$allocator@V?$_Func_class@X$$$V@std@@@2@X$$$V@std@@@std@@QAE@ABV?$allocator@V?$_Func_class@X$$$V@std@@@1@@Z 10051420 f i WinRTVFS.obj
 0002:00013460       ??$?0V?$_Func_class@X$$$V@std@@@?$allocator@V?$_Func_impl@U?$_Callable_obj@V<lambda_9fc58f08a03183e50e06176727aeb396>@@$0A@@std@@V?$allocator@V?$_Func_class@X$$$V@std@@@2@X$$$V@std@@@std@@QAE@ABV?$allocator@V?$_Func_class@X$$$V@std@@@1@@Z 10051460 f i WinRTVFS.obj
 0002:000134a0       ??$?0V?$_Func_class@X$$$V@std@@@?$allocator@V?$_Func_impl@U?$_Callable_obj@V<lambda_a66b3ee15e662226a0b0b15ae647d32f>@@$0A@@std@@V?$allocator@V?$_Func_class@X$$$V@std@@@2@X$$$V@std@@@std@@QAE@ABV?$allocator@V?$_Func_class@X$$$V@std@@@1@@Z 100514a0 f i WinRTVFS.obj
 0002:000134e0       ??$?0V?$_Func_class@X$$$V@std@@@?$allocator@V?$_Func_impl@U?$_Callable_obj@V<lambda_c1a554f2383dae03f169289aed8c4103>@@$0A@@std@@V?$allocator@V?$_Func_class@X$$$V@std@@@2@X$$$V@std@@@std@@QAE@ABV?$allocator@V?$_Func_class@X$$$V@std@@@1@@Z 100514e0 f i WinRTVFS.obj
 0002:00013520       ??$?0V?$_Func_class@X$$$V@std@@@?$allocator@V?$_Func_impl@U?$_Callable_obj@V<lambda_e7ef5f1e4e1eca0ae8efc6086cf9f417>@@$0A@@std@@V?$allocator@V?$_Func_class@X$$$V@std@@@2@X$$$V@std@@@std@@QAE@ABV?$allocator@V?$_Func_class@X$$$V@std@@@1@@Z 10051520 f i WinRTVFS.obj
 0002:00013560       ??$?0V?$_Func_class@XABH@std@@@?$allocator@V?$_Func_impl@U?$_Callable_obj@V<lambda_1a93da980d6fe77644a4eefc4e1ad756>@@$0A@@std@@V?$allocator@V?$_Func_class@XABH@std@@@2@XABH@std@@@std@@QAE@ABV?$allocator@V?$_Func_class@XABH@std@@@1@@Z 10051560 f i WinRTVFS.obj
 0002:000135a0       ??$?0V?$_Func_class@XPAV?$message@H@Concurrency@@@std@@@?$allocator@V?$_Func_impl@U?$_Callable_obj@V<lambda_295bc5f846209cba149a5e74d0d63a72>@@$0A@@std@@V?$allocator@V?$_Func_class@XPAV?$message@H@Concurrency@@@std@@@2@XPAV?$message@H@Concurrency@@@std@@@std@@QAE@ABV?$allocator@V?$_Func_class@XPAV?$message@H@Concurrency@@@std@@@1@@Z 100515a0 f i WinRTVFS.obj
 0002:000135e0       ??$?0V?$_Func_class@XPAV?$message@H@Concurrency@@@std@@@?$allocator@V?$_Func_impl@U?$_Callable_obj@V<lambda_579ccd68d569251046038e8620afec85>@@$0A@@std@@V?$allocator@V?$_Func_class@XPAV?$message@H@Concurrency@@@std@@@2@XPAV?$message@H@Concurrency@@@std@@@std@@QAE@ABV?$allocator@V?$_Func_class@XPAV?$message@H@Concurrency@@@std@@@1@@Z 100515e0 f i WinRTVFS.obj
 0002:00013620       ??$?0V?$_Func_class@XPAV?$message@H@Concurrency@@@std@@@?$allocator@V?$_Func_impl@U?$_Callable_obj@V<lambda_c28a53003ed51cdfe295a7d756f98c2f>@@$0A@@std@@V?$allocator@V?$_Func_class@XPAV?$message@H@Concurrency@@@std@@@2@XPAV?$message@H@Concurrency@@@std@@@std@@QAE@ABV?$allocator@V?$_Func_class@XPAV?$message@H@Concurrency@@@std@@@1@@Z 10051620 f i WinRTVFS.obj
 0002:00013660       ??$?0V?$task_completion_event@X@Concurrency@@@?$task@X@Concurrency@@QAE@V?$task_completion_event@X@1@ABVtask_options@1@@Z 10051660 f i WinRTVFS.obj
 0002:00013980       ??$?8$$A6AXPAV?$message@H@Concurrency@@@Z@std@@YA_NABV?$function@$$A6AXPAV?$message@H@Concurrency@@@Z@0@$$T@Z 10051980 f i WinRTVFS.obj
 0002:00013a00       ??$?8$$A6AXXZ@std@@YA_NABV?$function@$$A6AXXZ@0@$$T@Z 10051a00 f i WinRTVFS.obj
 0002:00013a80       ??$?8PAXPAX@std@@YA_NABV?$allocator@PAX@0@0@Z 10051a80 f i WinRTVFS.obj
 0002:00013ab0       ??$?8UIUnknown@@@WRL@Microsoft@@YA_NABV?$ComPtr@UIUnknown@@@01@$$T@Z 10051ab0 f i WinRTVFS.obj
 0002:00013b20       ??$?8U_ExceptionHolder@details@Concurrency@@@std@@YA_NABV?$shared_ptr@U_ExceptionHolder@details@Concurrency@@@0@$$T@Z 10051b20 f i WinRTVFS.obj
 0002:00013b90       ??$?8U_Task_impl_base@details@Concurrency@@@std@@YA_NABV?$shared_ptr@U_Task_impl_base@details@Concurrency@@@0@$$T@Z 10051b90 f i WinRTVFS.obj
 0002:00013c00       ??$?8V?$allocator@PAX@std@@V01@@std@@YA_NABU?$_Wrap_alloc@V?$allocator@PAX@std@@@0@0@Z 10051c00 f i WinRTVFS.obj
 0002:00013c70       ??$?8V?$allocator@V?$shared_ptr@U?$_Task_impl@E@details@Concurrency@@@std@@@std@@V01@@std@@YA_NABU?$_Wrap_alloc@V?$allocator@V?$shared_ptr@U?$_Task_impl@E@details@Concurrency@@@std@@@std@@@0@0@Z 10051c70 f i WinRTVFS.obj
 0002:00013ce0       ??$?8V?$shared_ptr@U?$_Task_impl@E@details@Concurrency@@@std@@V01@@std@@YA_NABV?$allocator@V?$shared_ptr@U?$_Task_impl@E@details@Concurrency@@@std@@@0@0@Z 10051ce0 f i WinRTVFS.obj
 0002:00013d10       ??$?9$$A6AXXZ@std@@YA_NABV?$function@$$A6AXXZ@0@$$T@Z 10051d10 f i WinRTVFS.obj
 0002:00013d90       ??$?9U_ExceptionHolder@details@Concurrency@@@std@@YA_NABV?$shared_ptr@U_ExceptionHolder@details@Concurrency@@@0@$$T@Z 10051d90 f i WinRTVFS.obj
 0002:00013e10       ??$?9U_Task_impl_base@details@Concurrency@@@std@@YA_NABV?$shared_ptr@U_Task_impl_base@details@Concurrency@@@0@$$T@Z 10051e10 f i WinRTVFS.obj
 0002:00013e90       ??$?9V?$allocator@PAX@std@@V01@@std@@YA_NABU?$_Wrap_alloc@V?$allocator@PAX@std@@@0@0@Z 10051e90 f i WinRTVFS.obj
 0002:00013f10       ??$GetProxy@U?$IAsyncOperationWithProgress@II@Foundation@Windows@@@Details@Platform@@YAJP$AAU?$IAsyncOperationWithProgress@II@Foundation@Windows@@PAUIUnknown@@PAP$AAU234@@Z 10051f10 f i WinRTVFS.obj
 0002:00013f80       ??$GetProxy@U?$IAsyncOperationWithProgress@P$AAUIBuffer@Streams@Storage@Windows@@I@Foundation@Windows@@@Details@Platform@@YAJP$AAU?$IAsyncOperationWithProgress@P$AAUIBuffer@Streams@Storage@Windows@@I@Foundation@Windows@@PAUIUnknown@@PAP$AAU234@@Z 10051f80 f i WinRTVFS.obj
 0002:00013ff0       ??$GetProxy@UIAsyncAction@Foundation@Windows@@@Details@Platform@@YAJP$AAUIAsyncAction@Foundation@Windows@@PAUIUnknown@@PAP$AAU234@@Z 10051ff0 f i WinRTVFS.obj
 0002:00014060       ??$GetProxy@UIBuffer@Streams@Storage@Windows@@@Details@Platform@@YAJP$AAUIBuffer@Streams@Storage@Windows@@PAUIUnknown@@PAP$AAU2345@@Z 10052060 f i WinRTVFS.obj
 0002:000140d0       ??$GetProxy@UIRandomAccessStream@Streams@Storage@Windows@@@Details@Platform@@YAJP$AAUIRandomAccessStream@Streams@Storage@Windows@@PAUIUnknown@@PAP$AAU2345@@Z 100520d0 f i WinRTVFS.obj
 0002:00014140       ??$IID_PPV_ARGS_Helper@V?$ComPtr@UIBufferByteAccess@Streams@Storage@Windows@@@WRL@Microsoft@@@@YAPAPAXV?$ComPtrRef@V?$ComPtr@UIBufferByteAccess@Streams@Storage@Windows@@@WRL@Microsoft@@@Details@WRL@Microsoft@@@Z 10052140 f i WinRTVFS.obj
 0002:00014190       ??$ReleaseInContext@UIUnknown@@@Details@Platform@@YAJPAUIUnknown@@0@Z 10052190 f i WinRTVFS.obj
 0002:000141f0       ??$_Allocate@PAX@std@@YAPAPAXIPAPAX@Z 100521f0 f i WinRTVFS.obj
 0002:00014290       ??$_Allocate@V?$_Func_impl@U?$_Callable_obj@V<lambda_02d862f9cfc639ff7c37ca52d43e6a8c>@@$0A@@std@@V?$allocator@V?$_Func_class@X$$$V@std@@@2@X$$$V@std@@@std@@YAPAV?$_Func_impl@U?$_Callable_obj@V<lambda_02d862f9cfc639ff7c37ca52d43e6a8c>@@$0A@@std@@V?$allocator@V?$_Func_class@X$$$V@std@@@2@X$$$V@0@IPAV10@@Z 10052290 f i WinRTVFS.obj
 0002:00014320       ??$_Allocate@V?$_Func_impl@U?$_Callable_obj@V<lambda_095a938ce4c5765dcc6b67f548aeb9c7>@@$0A@@std@@V?$allocator@V?$_Func_class@X$$$V@std@@@2@X$$$V@std@@@std@@YAPAV?$_Func_impl@U?$_Callable_obj@V<lambda_095a938ce4c5765dcc6b67f548aeb9c7>@@$0A@@std@@V?$allocator@V?$_Func_class@X$$$V@std@@@2@X$$$V@0@IPAV10@@Z 10052320 f i WinRTVFS.obj
 0002:000143b0       ??$_Allocate@V?$_Func_impl@U?$_Callable_obj@V<lambda_0b7f78ec4ced38495cec46e0d346e0b9>@@$0A@@std@@V?$allocator@V?$_Func_class@X$$$V@std@@@2@X$$$V@std@@@std@@YAPAV?$_Func_impl@U?$_Callable_obj@V<lambda_0b7f78ec4ced38495cec46e0d346e0b9>@@$0A@@std@@V?$allocator@V?$_Func_class@X$$$V@std@@@2@X$$$V@0@IPAV10@@Z 100523b0 f i WinRTVFS.obj
 0002:00014440       ??$_Allocate@V?$_Func_impl@U?$_Callable_obj@V<lambda_0fe479da16d43edb8e9a254c493d643e>@@$0A@@std@@V?$allocator@V?$_Func_class@X$$$V@std@@@2@X$$$V@std@@@std@@YAPAV?$_Func_impl@U?$_Callable_obj@V<lambda_0fe479da16d43edb8e9a254c493d643e>@@$0A@@std@@V?$allocator@V?$_Func_class@X$$$V@std@@@2@X$$$V@0@IPAV10@@Z 10052440 f i WinRTVFS.obj
 0002:000144d0       ??$_Allocate@V?$_Func_impl@U?$_Callable_obj@V<lambda_1a93da980d6fe77644a4eefc4e1ad756>@@$0A@@std@@V?$allocator@V?$_Func_class@XABH@std@@@2@XABH@std@@@std@@YAPAV?$_Func_impl@U?$_Callable_obj@V<lambda_1a93da980d6fe77644a4eefc4e1ad756>@@$0A@@std@@V?$allocator@V?$_Func_class@XABH@std@@@2@XABH@0@IPAV10@@Z 100524d0 f i WinRTVFS.obj
 0002:00014570       ??$_Allocate@V?$_Func_impl@U?$_Callable_obj@V<lambda_295bc5f846209cba149a5e74d0d63a72>@@$0A@@std@@V?$allocator@V?$_Func_class@XPAV?$message@H@Concurrency@@@std@@@2@XPAV?$message@H@Concurrency@@@std@@@std@@YAPAV?$_Func_impl@U?$_Callable_obj@V<lambda_295bc5f846209cba149a5e74d0d63a72>@@$0A@@std@@V?$allocator@V?$_Func_class@XPAV?$message@H@Concurrency@@@std@@@2@XPAV?$message@H@Concurrency@@@0@IPAV10@@Z 10052570 f i WinRTVFS.obj
 0002:00014600       ??$_Allocate@V?$_Func_impl@U?$_Callable_obj@V<lambda_364e75aa895e992ae8821732ca646aa2>@@$0A@@std@@V?$allocator@V?$_Func_class@X$$$V@std@@@2@X$$$V@std@@@std@@YAPAV?$_Func_impl@U?$_Callable_obj@V<lambda_364e75aa895e992ae8821732ca646aa2>@@$0A@@std@@V?$allocator@V?$_Func_class@X$$$V@std@@@2@X$$$V@0@IPAV10@@Z 10052600 f i WinRTVFS.obj
 0002:00014690       ??$_Allocate@V?$_Func_impl@U?$_Callable_obj@V<lambda_39cde079c01d1b5b9307ff255a1ccdd9>@@$0A@@std@@V?$allocator@V?$_Func_class@EE@std@@@2@EE@std@@@std@@YAPAV?$_Func_impl@U?$_Callable_obj@V<lambda_39cde079c01d1b5b9307ff255a1ccdd9>@@$0A@@std@@V?$allocator@V?$_Func_class@EE@std@@@2@EE@0@IPAV10@@Z 10052690 f i WinRTVFS.obj
 0002:00014720       ??$_Allocate@V?$_Func_impl@U?$_Callable_obj@V<lambda_528650821c608ced6534641e311542a5>@@$0A@@std@@V?$allocator@V?$_Func_class@X$$$V@std@@@2@X$$$V@std@@@std@@YAPAV?$_Func_impl@U?$_Callable_obj@V<lambda_528650821c608ced6534641e311542a5>@@$0A@@std@@V?$allocator@V?$_Func_class@X$$$V@std@@@2@X$$$V@0@IPAV10@@Z 10052720 f i WinRTVFS.obj
 0002:000147b0       ??$_Allocate@V?$_Func_impl@U?$_Callable_obj@V<lambda_579ccd68d569251046038e8620afec85>@@$0A@@std@@V?$allocator@V?$_Func_class@XPAV?$message@H@Concurrency@@@std@@@2@XPAV?$message@H@Concurrency@@@std@@@std@@YAPAV?$_Func_impl@U?$_Callable_obj@V<lambda_579ccd68d569251046038e8620afec85>@@$0A@@std@@V?$allocator@V?$_Func_class@XPAV?$message@H@Concurrency@@@std@@@2@XPAV?$message@H@Concurrency@@@0@IPAV10@@Z 100527b0 f i WinRTVFS.obj
 0002:00014840       ??$_Allocate@V?$_Func_impl@U?$_Callable_obj@V<lambda_9fc58f08a03183e50e06176727aeb396>@@$0A@@std@@V?$allocator@V?$_Func_class@X$$$V@std@@@2@X$$$V@std@@@std@@YAPAV?$_Func_impl@U?$_Callable_obj@V<lambda_9fc58f08a03183e50e06176727aeb396>@@$0A@@std@@V?$allocator@V?$_Func_class@X$$$V@std@@@2@X$$$V@0@IPAV10@@Z 10052840 f i WinRTVFS.obj
 0002:000148e0       ??$_Allocate@V?$_Func_impl@U?$_Callable_obj@V<lambda_a66b3ee15e662226a0b0b15ae647d32f>@@$0A@@std@@V?$allocator@V?$_Func_class@X$$$V@std@@@2@X$$$V@std@@@std@@YAPAV?$_Func_impl@U?$_Callable_obj@V<lambda_a66b3ee15e662226a0b0b15ae647d32f>@@$0A@@std@@V?$allocator@V?$_Func_class@X$$$V@std@@@2@X$$$V@0@IPAV10@@Z 100528e0 f i WinRTVFS.obj
 0002:00014970       ??$_Allocate@V?$_Func_impl@U?$_Callable_obj@V<lambda_c1a554f2383dae03f169289aed8c4103>@@$0A@@std@@V?$allocator@V?$_Func_class@X$$$V@std@@@2@X$$$V@std@@@std@@YAPAV?$_Func_impl@U?$_Callable_obj@V<lambda_c1a554f2383dae03f169289aed8c4103>@@$0A@@std@@V?$allocator@V?$_Func_class@X$$$V@std@@@2@X$$$V@0@IPAV10@@Z 10052970 f i WinRTVFS.obj
 0002:00014a00       ??$_Allocate@V?$_Func_impl@U?$_Callable_obj@V<lambda_c28a53003ed51cdfe295a7d756f98c2f>@@$0A@@std@@V?$allocator@V?$_Func_class@XPAV?$message@H@Concurrency@@@std@@@2@XPAV?$message@H@Concurrency@@@std@@@std@@YAPAV?$_Func_impl@U?$_Callable_obj@V<lambda_c28a53003ed51cdfe295a7d756f98c2f>@@$0A@@std@@V?$allocator@V?$_Func_class@XPAV?$message@H@Concurrency@@@std@@@2@XPAV?$message@H@Concurrency@@@0@IPAV10@@Z 10052a00 f i WinRTVFS.obj
 0002:00014a90       ??$_Allocate@V?$_Func_impl@U?$_Callable_obj@V<lambda_e7ef5f1e4e1eca0ae8efc6086cf9f417>@@$0A@@std@@V?$allocator@V?$_Func_class@X$$$V@std@@@2@X$$$V@std@@@std@@YAPAV?$_Func_impl@U?$_Callable_obj@V<lambda_e7ef5f1e4e1eca0ae8efc6086cf9f417>@@$0A@@std@@V?$allocator@V?$_Func_class@X$$$V@std@@@2@X$$$V@0@IPAV10@@Z 10052a90 f i WinRTVFS.obj
 0002:00014b20       ??$_Allocate@V?$shared_ptr@U?$_Task_impl@E@details@Concurrency@@@std@@@std@@YAPAV?$shared_ptr@U?$_Task_impl@E@details@Concurrency@@@0@IPAV10@@Z 10052b20 f i WinRTVFS.obj
 0002:00014bc0       ??$_ApplyX@EE@?$_Callable_obj@V<lambda_39cde079c01d1b5b9307ff255a1ccdd9>@@$0A@@std@@QAEE$$QAE@Z 10052bc0 f i WinRTVFS.obj
 0002:00014c30       ??$_ApplyX@X$$$V@?$_Callable_obj@V<lambda_02d862f9cfc639ff7c37ca52d43e6a8c>@@$0A@@std@@QAEXXZ 10052c30 f i WinRTVFS.obj
 0002:00014c90       ??$_ApplyX@X$$$V@?$_Callable_obj@V<lambda_095a938ce4c5765dcc6b67f548aeb9c7>@@$0A@@std@@QAEXXZ 10052c90 f i WinRTVFS.obj
 0002:00014cf0       ??$_ApplyX@X$$$V@?$_Callable_obj@V<lambda_0b7f78ec4ced38495cec46e0d346e0b9>@@$0A@@std@@QAEXXZ 10052cf0 f i WinRTVFS.obj
 0002:00014d50       ??$_ApplyX@X$$$V@?$_Callable_obj@V<lambda_0fe479da16d43edb8e9a254c493d643e>@@$0A@@std@@QAEXXZ 10052d50 f i WinRTVFS.obj
 0002:00014db0       ??$_ApplyX@X$$$V@?$_Callable_obj@V<lambda_364e75aa895e992ae8821732ca646aa2>@@$0A@@std@@QAEXXZ 10052db0 f i WinRTVFS.obj
 0002:00014e10       ??$_ApplyX@X$$$V@?$_Callable_obj@V<lambda_528650821c608ced6534641e311542a5>@@$0A@@std@@QAEXXZ 10052e10 f i WinRTVFS.obj
 0002:00014e70       ??$_ApplyX@X$$$V@?$_Callable_obj@V<lambda_9fc58f08a03183e50e06176727aeb396>@@$0A@@std@@QAEXXZ 10052e70 f i WinRTVFS.obj
 0002:00014ed0       ??$_ApplyX@X$$$V@?$_Callable_obj@V<lambda_a66b3ee15e662226a0b0b15ae647d32f>@@$0A@@std@@QAEXXZ 10052ed0 f i WinRTVFS.obj
 0002:00014f30       ??$_ApplyX@X$$$V@?$_Callable_obj@V<lambda_c1a554f2383dae03f169289aed8c4103>@@$0A@@std@@QAEXXZ 10052f30 f i WinRTVFS.obj
 0002:00014f90       ??$_ApplyX@X$$$V@?$_Callable_obj@V<lambda_e7ef5f1e4e1eca0ae8efc6086cf9f417>@@$0A@@std@@QAEXXZ 10052f90 f i WinRTVFS.obj
 0002:00014ff0       ??$_ApplyX@XABH@?$_Callable_obj@V<lambda_1a93da980d6fe77644a4eefc4e1ad756>@@$0A@@std@@QAEXABH@Z 10052ff0 f i WinRTVFS.obj
 0002:00015060       ??$_ApplyX@XPAV?$message@H@Concurrency@@@?$_Callable_obj@V<lambda_295bc5f846209cba149a5e74d0d63a72>@@$0A@@std@@QAEX$$QAPAV?$message@H@Concurrency@@@Z 10053060 f i WinRTVFS.obj
 0002:000150d0       ??$_ApplyX@XPAV?$message@H@Concurrency@@@?$_Callable_obj@V<lambda_579ccd68d569251046038e8620afec85>@@$0A@@std@@QAEX$$QAPAV?$message@H@Concurrency@@@Z 100530d0 f i WinRTVFS.obj
 0002:00015140       ??$_ApplyX@XPAV?$message@H@Concurrency@@@?$_Callable_obj@V<lambda_c28a53003ed51cdfe295a7d756f98c2f>@@$0A@@std@@QAEX$$QAPAV?$message@H@Concurrency@@@Z 10053140 f i WinRTVFS.obj
 0002:000151b0       ??$_AsyncInit@EE@_Task_impl_base@details@Concurrency@@SAXABV?$shared_ptr@U?$_Task_impl@E@details@Concurrency@@@std@@P$AAU?$IAsyncOperation@E@Foundation@Windows@@@Z 100531b0 f i WinRTVFS.obj
 0002:00015300       ??$_AsyncInit@II@_Task_impl_base@details@Concurrency@@SAXABV?$shared_ptr@U?$_Task_impl@I@details@Concurrency@@@std@@P$AAU?$IAsyncOperation@I@Foundation@Windows@@@Z 10053300 f i WinRTVFS.obj
 0002:00015450       ??$_AsyncInit@P$AAUIBuffer@Streams@Storage@Windows@@P$AAU1234@@_Task_impl_base@details@Concurrency@@SAXABV?$shared_ptr@U?$_Task_impl@P$AAUIBuffer@Streams@Storage@Windows@@@details@Concurrency@@@std@@P$AAU?$IAsyncOperation@P$AAUIBuffer@Streams@Storage@Windows@@@Foundation@Windows@@@Z 10053450 f i WinRTVFS.obj
 0002:000155a0       ??$_AsyncInit@P$AAUIRandomAccessStream@Streams@Storage@Windows@@P$AAU1234@@_Task_impl_base@details@Concurrency@@SAXABV?$shared_ptr@U?$_Task_impl@P$AAUIRandomAccessStream@Streams@Storage@Windows@@@details@Concurrency@@@std@@P$AAU?$IAsyncOperation@P$AAUIRandomAccessStream@Streams@Storage@Windows@@@Foundation@Windows@@@Z 100535a0 f i WinRTVFS.obj
 0002:000156f0       ??$_AsyncInit@P$AAVStorageFile@Storage@Windows@@P$AAV123@@_Task_impl_base@details@Concurrency@@SAXABV?$shared_ptr@U?$_Task_impl@P$AAVStorageFile@Storage@Windows@@@details@Concurrency@@@std@@P$AAU?$IAsyncOperation@P$AAVStorageFile@Storage@Windows@@@Foundation@Windows@@@Z 100536f0 f i WinRTVFS.obj
 0002:00015840       ??$_AsyncInit@P$AAVStorageFolder@Storage@Windows@@P$AAV123@@_Task_impl_base@details@Concurrency@@SAXABV?$shared_ptr@U?$_Task_impl@P$AAVStorageFolder@Storage@Windows@@@details@Concurrency@@@std@@P$AAU?$IAsyncOperation@P$AAVStorageFolder@Storage@Windows@@@Foundation@Windows@@@Z 10053840 f i WinRTVFS.obj
 0002:00015990       ??$_AsyncInit@_N_N@_Task_impl_base@details@Concurrency@@SAXABV?$shared_ptr@U?$_Task_impl@_N@details@Concurrency@@@std@@P$AAU?$IAsyncOperation@_N@Foundation@Windows@@@Z 10053990 f i WinRTVFS.obj
 0002:00015ae0       ??$_Copy_impl@PAPAXPAPAX@std@@YAPAPAXPAPAX00@Z 10053ae0 f i WinRTVFS.obj
 0002:00015b60       ??$_Copy_impl@PAPAXPAPAX@std@@YAPAPAXPAPAX00U_Scalar_ptr_iterator_tag@0@@Z 10053b60 f i WinRTVFS.obj
 0002:00015bf0       ??$_Debug_pointer@PAX@std@@YAXPAPAXPB_WI@Z 10053bf0 f i WinRTVFS.obj
 0002:00015c60       ??$_Debug_pointer@PAX@std@@YAXPBQAXPB_WI@Z 10053c60 f i WinRTVFS.obj
 0002:00015cd0       ??$_Debug_pointer@V?$shared_ptr@U?$_Task_impl@E@details@Concurrency@@@std@@@std@@YAXPAV?$shared_ptr@U?$_Task_impl@E@details@Concurrency@@@0@PB_WI@Z 10053cd0 f i WinRTVFS.obj
 0002:00015d40       ??$_Debug_range2@PAPAX@std@@YAXPAPAX0PB_WIUrandom_access_iterator_tag@0@@Z 10053d40 f i WinRTVFS.obj
 0002:00015df0       ??$_Debug_range2@PAV?$shared_ptr@U?$_Task_impl@E@details@Concurrency@@@std@@@std@@YAXPAV?$shared_ptr@U?$_Task_impl@E@details@Concurrency@@@0@0PB_WIUrandom_access_iterator_tag@0@@Z 10053df0 f i WinRTVFS.obj
 0002:00015ea0       ??$_Debug_range2@PBQAX@std@@YAXPBQAX0PB_WIUrandom_access_iterator_tag@0@@Z 10053ea0 f i WinRTVFS.obj
 0002:00015f50       ??$_Debug_range@PAPAX@std@@YAXPAPAX0PB_WI@Z 10053f50 f i WinRTVFS.obj
 0002:00015fd0       ??$_Debug_range@PAV?$shared_ptr@U?$_Task_impl@E@details@Concurrency@@@std@@@std@@YAXPAV?$shared_ptr@U?$_Task_impl@E@details@Concurrency@@@0@0PB_WI@Z 10053fd0 f i WinRTVFS.obj
 0002:00016050       ??$_Debug_range@PBQAX@std@@YAXPBQAX0PB_WI@Z 10054050 f i WinRTVFS.obj
 0002:000160d0       ??$_Destroy_range@U?$_Wrap_alloc@V?$allocator@PAX@std@@@std@@@std@@YAXPAPAX0AAU?$_Wrap_alloc@V?$allocator@PAX@std@@@0@@Z 100540d0 f i WinRTVFS.obj
 0002:00016150       ??$_Destroy_range@U?$_Wrap_alloc@V?$allocator@PAX@std@@@std@@@std@@YAXPAPAX0AAU?$_Wrap_alloc@V?$allocator@PAX@std@@@0@U_Scalar_ptr_iterator_tag@0@@Z 10054150 f i WinRTVFS.obj
 0002:00016180       ??$_Destroy_range@U?$_Wrap_alloc@V?$allocator@V?$shared_ptr@U?$_Task_impl@E@details@Concurrency@@@std@@@std@@@std@@@std@@YAXPAV?$shared_ptr@U?$_Task_impl@E@details@Concurrency@@@0@0AAU?$_Wrap_alloc@V?$allocator@V?$shared_ptr@U?$_Task_impl@E@details@Concurrency@@@std@@@std@@@0@@Z 10054180 f i WinRTVFS.obj
 0002:00016200       ??$_Destroy_range@U?$_Wrap_alloc@V?$allocator@V?$shared_ptr@U?$_Task_impl@E@details@Concurrency@@@std@@@std@@@std@@@std@@YAXPAV?$shared_ptr@U?$_Task_impl@E@details@Concurrency@@@0@0AAU?$_Wrap_alloc@V?$allocator@V?$shared_ptr@U?$_Task_impl@E@details@Concurrency@@@std@@@std@@@0@U_Nonscalar_ptr_iterator_tag@0@@Z 10054200 f i WinRTVFS.obj
 0002:00016270       ??$_Do_alloc@V?$_Func_impl@U?$_Callable_obj@V<lambda_02d862f9cfc639ff7c37ca52d43e6a8c>@@$0A@@std@@V?$allocator@V?$_Func_class@X$$$V@std@@@2@X$$$V@std@@V<lambda_02d862f9cfc639ff7c37ca52d43e6a8c>@@V?$allocator@V?$_Func_class@X$$$V@std@@@2@@?$_Func_class@X$$$V@std@@AAEX$$QAV<lambda_02d862f9cfc639ff7c37ca52d43e6a8c>@@V?$allocator@V?$_Func_class@X$$$V@std@@@1@@Z 10054270 f i WinRTVFS.obj
 0002:000164e0       ??$_Do_alloc@V?$_Func_impl@U?$_Callable_obj@V<lambda_095a938ce4c5765dcc6b67f548aeb9c7>@@$0A@@std@@V?$allocator@V?$_Func_class@X$$$V@std@@@2@X$$$V@std@@V<lambda_095a938ce4c5765dcc6b67f548aeb9c7>@@V?$allocator@V?$_Func_class@X$$$V@std@@@2@@?$_Func_class@X$$$V@std@@AAEX$$QAV<lambda_095a938ce4c5765dcc6b67f548aeb9c7>@@V?$allocator@V?$_Func_class@X$$$V@std@@@1@@Z 100544e0 f i WinRTVFS.obj
 0002:00016750       ??$_Do_alloc@V?$_Func_impl@U?$_Callable_obj@V<lambda_0b7f78ec4ced38495cec46e0d346e0b9>@@$0A@@std@@V?$allocator@V?$_Func_class@X$$$V@std@@@2@X$$$V@std@@V<lambda_0b7f78ec4ced38495cec46e0d346e0b9>@@V?$allocator@V?$_Func_class@X$$$V@std@@@2@@?$_Func_class@X$$$V@std@@AAEX$$QAV<lambda_0b7f78ec4ced38495cec46e0d346e0b9>@@V?$allocator@V?$_Func_class@X$$$V@std@@@1@@Z 10054750 f i WinRTVFS.obj
 0002:000169c0       ??$_Do_alloc@V?$_Func_impl@U?$_Callable_obj@V<lambda_0fe479da16d43edb8e9a254c493d643e>@@$0A@@std@@V?$allocator@V?$_Func_class@X$$$V@std@@@2@X$$$V@std@@V<lambda_0fe479da16d43edb8e9a254c493d643e>@@V?$allocator@V?$_Func_class@X$$$V@std@@@2@@?$_Func_class@X$$$V@std@@AAEX$$QAV<lambda_0fe479da16d43edb8e9a254c493d643e>@@V?$allocator@V?$_Func_class@X$$$V@std@@@1@@Z 100549c0 f i WinRTVFS.obj
 0002:00016c30       ??$_Do_alloc@V?$_Func_impl@U?$_Callable_obj@V<lambda_1a93da980d6fe77644a4eefc4e1ad756>@@$0A@@std@@V?$allocator@V?$_Func_class@XABH@std@@@2@XABH@std@@V<lambda_1a93da980d6fe77644a4eefc4e1ad756>@@V?$allocator@V?$_Func_class@XABH@std@@@2@@?$_Func_class@XABH@std@@AAEX$$QAV<lambda_1a93da980d6fe77644a4eefc4e1ad756>@@V?$allocator@V?$_Func_class@XABH@std@@@1@@Z 10054c30 f i WinRTVFS.obj
 0002:00016ea0       ??$_Do_alloc@V?$_Func_impl@U?$_Callable_obj@V<lambda_295bc5f846209cba149a5e74d0d63a72>@@$0A@@std@@V?$allocator@V?$_Func_class@XPAV?$message@H@Concurrency@@@std@@@2@XPAV?$message@H@Concurrency@@@std@@V<lambda_295bc5f846209cba149a5e74d0d63a72>@@V?$allocator@V?$_Func_class@XPAV?$message@H@Concurrency@@@std@@@2@@?$_Func_class@XPAV?$message@H@Concurrency@@@std@@AAEX$$QAV<lambda_295bc5f846209cba149a5e74d0d63a72>@@V?$allocator@V?$_Func_class@XPAV?$message@H@Concurrency@@@std@@@1@@Z 10054ea0 f i WinRTVFS.obj
 0002:00017110       ??$_Do_alloc@V?$_Func_impl@U?$_Callable_obj@V<lambda_364e75aa895e992ae8821732ca646aa2>@@$0A@@std@@V?$allocator@V?$_Func_class@X$$$V@std@@@2@X$$$V@std@@V<lambda_364e75aa895e992ae8821732ca646aa2>@@V?$allocator@V?$_Func_class@X$$$V@std@@@2@@?$_Func_class@X$$$V@std@@AAEX$$QAV<lambda_364e75aa895e992ae8821732ca646aa2>@@V?$allocator@V?$_Func_class@X$$$V@std@@@1@@Z 10055110 f i WinRTVFS.obj
 0002:00017380       ??$_Do_alloc@V?$_Func_impl@U?$_Callable_obj@V<lambda_39cde079c01d1b5b9307ff255a1ccdd9>@@$0A@@std@@V?$allocator@V?$_Func_class@EE@std@@@2@EE@std@@V<lambda_39cde079c01d1b5b9307ff255a1ccdd9>@@V?$allocator@V?$_Func_class@EE@std@@@2@@?$_Func_class@EE@std@@AAEX$$QAV<lambda_39cde079c01d1b5b9307ff255a1ccdd9>@@V?$allocator@V?$_Func_class@EE@std@@@1@@Z 10055380 f i WinRTVFS.obj
 0002:000175f0       ??$_Do_alloc@V?$_Func_impl@U?$_Callable_obj@V<lambda_528650821c608ced6534641e311542a5>@@$0A@@std@@V?$allocator@V?$_Func_class@X$$$V@std@@@2@X$$$V@std@@V<lambda_528650821c608ced6534641e311542a5>@@V?$allocator@V?$_Func_class@X$$$V@std@@@2@@?$_Func_class@X$$$V@std@@AAEX$$QAV<lambda_528650821c608ced6534641e311542a5>@@V?$allocator@V?$_Func_class@X$$$V@std@@@1@@Z 100555f0 f i WinRTVFS.obj
 0002:00017860       ??$_Do_alloc@V?$_Func_impl@U?$_Callable_obj@V<lambda_579ccd68d569251046038e8620afec85>@@$0A@@std@@V?$allocator@V?$_Func_class@XPAV?$message@H@Concurrency@@@std@@@2@XPAV?$message@H@Concurrency@@@std@@V<lambda_579ccd68d569251046038e8620afec85>@@V?$allocator@V?$_Func_class@XPAV?$message@H@Concurrency@@@std@@@2@@?$_Func_class@XPAV?$message@H@Concurrency@@@std@@AAEX$$QAV<lambda_579ccd68d569251046038e8620afec85>@@V?$allocator@V?$_Func_class@XPAV?$message@H@Concurrency@@@std@@@1@@Z 10055860 f i WinRTVFS.obj
 0002:00017ad0       ??$_Do_alloc@V?$_Func_impl@U?$_Callable_obj@V<lambda_9fc58f08a03183e50e06176727aeb396>@@$0A@@std@@V?$allocator@V?$_Func_class@X$$$V@std@@@2@X$$$V@std@@ABV<lambda_9fc58f08a03183e50e06176727aeb396>@@V?$allocator@V?$_Func_class@X$$$V@std@@@2@@?$_Func_class@X$$$V@std@@AAEXABV<lambda_9fc58f08a03183e50e06176727aeb396>@@V?$allocator@V?$_Func_class@X$$$V@std@@@1@@Z 10055ad0 f i WinRTVFS.obj
 0002:00017d40       ??$_Do_alloc@V?$_Func_impl@U?$_Callable_obj@V<lambda_a66b3ee15e662226a0b0b15ae647d32f>@@$0A@@std@@V?$allocator@V?$_Func_class@X$$$V@std@@@2@X$$$V@std@@V<lambda_a66b3ee15e662226a0b0b15ae647d32f>@@V?$allocator@V?$_Func_class@X$$$V@std@@@2@@?$_Func_class@X$$$V@std@@AAEX$$QAV<lambda_a66b3ee15e662226a0b0b15ae647d32f>@@V?$allocator@V?$_Func_class@X$$$V@std@@@1@@Z 10055d40 f i WinRTVFS.obj
 0002:00017fb0       ??$_Do_alloc@V?$_Func_impl@U?$_Callable_obj@V<lambda_c1a554f2383dae03f169289aed8c4103>@@$0A@@std@@V?$allocator@V?$_Func_class@X$$$V@std@@@2@X$$$V@std@@V<lambda_c1a554f2383dae03f169289aed8c4103>@@V?$allocator@V?$_Func_class@X$$$V@std@@@2@@?$_Func_class@X$$$V@std@@AAEX$$QAV<lambda_c1a554f2383dae03f169289aed8c4103>@@V?$allocator@V?$_Func_class@X$$$V@std@@@1@@Z 10055fb0 f i WinRTVFS.obj
 0002:00018220       ??$_Do_alloc@V?$_Func_impl@U?$_Callable_obj@V<lambda_c28a53003ed51cdfe295a7d756f98c2f>@@$0A@@std@@V?$allocator@V?$_Func_class@XPAV?$message@H@Concurrency@@@std@@@2@XPAV?$message@H@Concurrency@@@std@@V<lambda_c28a53003ed51cdfe295a7d756f98c2f>@@V?$allocator@V?$_Func_class@XPAV?$message@H@Concurrency@@@std@@@2@@?$_Func_class@XPAV?$message@H@Concurrency@@@std@@AAEX$$QAV<lambda_c28a53003ed51cdfe295a7d756f98c2f>@@V?$allocator@V?$_Func_class@XPAV?$message@H@Concurrency@@@std@@@1@@Z 10056220 f i WinRTVFS.obj
 0002:00018490       ??$_Do_alloc@V?$_Func_impl@U?$_Callable_obj@V<lambda_e7ef5f1e4e1eca0ae8efc6086cf9f417>@@$0A@@std@@V?$allocator@V?$_Func_class@X$$$V@std@@@2@X$$$V@std@@V<lambda_e7ef5f1e4e1eca0ae8efc6086cf9f417>@@V?$allocator@V?$_Func_class@X$$$V@std@@@2@@?$_Func_class@X$$$V@std@@AAEX$$QAV<lambda_e7ef5f1e4e1eca0ae8efc6086cf9f417>@@V?$allocator@V?$_Func_class@X$$$V@std@@@1@@Z 10056490 f i WinRTVFS.obj
 0002:00018700       ??$_Fill_n@PAPAXIPAX@std@@YAPAPAXPAPAXIABQAX@Z 10056700 f i WinRTVFS.obj
 0002:00018770       ??$_InvokeBridge@U_TaskProcHandle@details@Concurrency@@@_UnrealizedChore@details@Concurrency@@KAXPAX@Z 10056770 f i WinRTVFS.obj
 0002:000187c0       ??$_IsCallable@P$AAU?$IAsyncOperation@P$AAUIRandomAccessStream@Streams@Storage@Windows@@@Foundation@Windows@@@details@Concurrency@@YA?AU?$integral_constant@_N$0A@@std@@P$AAU?$IAsyncOperation@P$AAUIRandomAccessStream@Streams@Storage@Windows@@@Foundation@Windows@@ZZ 100567c0 f i WinRTVFS.obj
 0002:00018810       ??$_IsCallable@P$AAU?$IAsyncOperation@P$AAVStorageFile@Storage@Windows@@@Foundation@Windows@@@details@Concurrency@@YA?AU?$integral_constant@_N$0A@@std@@P$AAU?$IAsyncOperation@P$AAVStorageFile@Storage@Windows@@@Foundation@Windows@@ZZ 10056810 f i WinRTVFS.obj
 0002:00018860       ??$_IsCallable@P$AAU?$IAsyncOperation@P$AAVStorageFolder@Storage@Windows@@@Foundation@Windows@@@details@Concurrency@@YA?AU?$integral_constant@_N$0A@@std@@P$AAU?$IAsyncOperation@P$AAVStorageFolder@Storage@Windows@@@Foundation@Windows@@ZZ 10056860 f i WinRTVFS.obj
 0002:000188b0       ??$_IsCallable@P$AAU?$IAsyncOperation@_N@Foundation@Windows@@@details@Concurrency@@YA?AU?$integral_constant@_N$0A@@std@@P$AAU?$IAsyncOperation@_N@Foundation@Windows@@ZZ 100568b0 f i WinRTVFS.obj
 0002:00018900       ??$_IsCallable@P$AAU?$IAsyncOperationWithProgress@II@Foundation@Windows@@@details@Concurrency@@YA?AU?$integral_constant@_N$0A@@std@@P$AAU?$IAsyncOperationWithProgress@II@Foundation@Windows@@ZZ 10056900 f i WinRTVFS.obj
 0002:00018950       ??$_IsCallable@P$AAU?$IAsyncOperationWithProgress@P$AAUIBuffer@Streams@Storage@Windows@@I@Foundation@Windows@@@details@Concurrency@@YA?AU?$integral_constant@_N$0A@@std@@P$AAU?$IAsyncOperationWithProgress@P$AAUIBuffer@Streams@Storage@Windows@@I@Foundation@Windows@@ZZ 10056950 f i WinRTVFS.obj
 0002:000189a0       ??$_IsCallable@P$AAUIAsyncAction@Foundation@Windows@@@details@Concurrency@@YA?AU?$integral_constant@_N$0A@@std@@P$AAUIAsyncAction@Foundation@Windows@@ZZ 100569a0 f i WinRTVFS.obj
 0002:000189f0       ??$_IsCallable@V?$task_completion_event@X@Concurrency@@@details@Concurrency@@YA?AU?$integral_constant@_N$0A@@std@@V?$task_completion_event@X@1@ZZ 100569f0 f i WinRTVFS.obj
 0002:00018a60       ??$_Iter_cat@PAPAX@std@@YA?AUrandom_access_iterator_tag@0@ABQAPAX@Z 10056a60 f i WinRTVFS.obj
 0002:00018ae0       ??$_Iter_cat@PAV?$shared_ptr@U?$_Task_impl@E@details@Concurrency@@@std@@@std@@YA?AUrandom_access_iterator_tag@0@ABQAV?$shared_ptr@U?$_Task_impl@E@details@Concurrency@@@0@@Z 10056ae0 f i WinRTVFS.obj
 0002:00018b60       ??$_Iter_cat@PBQAX@std@@YA?AUrandom_access_iterator_tag@0@ABQBQAX@Z 10056b60 f i WinRTVFS.obj
 0002:00018be0       ??$_LogWorkItemAndInvokeUserLambda@V?$function@$$A6AEE@Z@std@@E@?$_ContinuationTaskHandle@XXV<lambda_9fc58f08a03183e50e06176727aeb396>@@U?$integral_constant@_N$0A@@std@@U_TypeSelectorNoAsync@details@Concurrency@@@?$task@E@Concurrency@@QBEE$$QAV?$function@$$A6AEE@Z@std@@$$QAE@Z 10056be0 f i WinRTVFS.obj
 0002:00018d20       ??$_Move@AAK@std@@YA$$QAKAAK@Z 10056d20 f i WinRTVFS.obj
 0002:00018d60       ??$_Move@AAP$AAUIBuffer@Streams@Storage@Windows@@@std@@YA$$QAP$AAUIBuffer@Streams@Storage@Windows@@AAP$AAU1234@@Z 10056d60 f i WinRTVFS.obj
 0002:00018da0       ??$_Move@AAP$AAUIRandomAccessStream@Streams@Storage@Windows@@@std@@YA$$QAP$AAUIRandomAccessStream@Streams@Storage@Windows@@AAP$AAU1234@@Z 10056da0 f i WinRTVFS.obj
 0002:00018de0       ??$_Move@AAPAU?$_Task_completion_event_impl@E@details@Concurrency@@@std@@YA$$QAPAU?$_Task_completion_event_impl@E@details@Concurrency@@AAPAU123@@Z 10056de0 f i WinRTVFS.obj
 0002:00018e20       ??$_Move@AAPAU?$_Task_impl@E@details@Concurrency@@@std@@YA$$QAPAU?$_Task_impl@E@details@Concurrency@@AAPAU123@@Z 10056e20 f i WinRTVFS.obj
 0002:00018e60       ??$_Move@AAPAU?$_Task_impl@I@details@Concurrency@@@std@@YA$$QAPAU?$_Task_impl@I@details@Concurrency@@AAPAU123@@Z 10056e60 f i WinRTVFS.obj
 0002:00018ea0       ??$_Move@AAPAU?$_Task_impl@P$AAUIBuffer@Streams@Storage@Windows@@@details@Concurrency@@@std@@YA$$QAPAU?$_Task_impl@P$AAUIBuffer@Streams@Storage@Windows@@@details@Concurrency@@AAPAU123@@Z 10056ea0 f i WinRTVFS.obj
 0002:00018ee0       ??$_Move@AAPAU?$_Task_impl@P$AAUIRandomAccessStream@Streams@Storage@Windows@@@details@Concurrency@@@std@@YA$$QAPAU?$_Task_impl@P$AAUIRandomAccessStream@Streams@Storage@Windows@@@details@Concurrency@@AAPAU123@@Z 10056ee0 f i WinRTVFS.obj
 0002:00018f20       ??$_Move@AAPAU?$_Task_impl@P$AAVStorageFile@Storage@Windows@@@details@Concurrency@@@std@@YA$$QAPAU?$_Task_impl@P$AAVStorageFile@Storage@Windows@@@details@Concurrency@@AAPAU123@@Z 10056f20 f i WinRTVFS.obj
 0002:00018f60       ??$_Move@AAPAU?$_Task_impl@P$AAVStorageFolder@Storage@Windows@@@details@Concurrency@@@std@@YA$$QAPAU?$_Task_impl@P$AAVStorageFolder@Storage@Windows@@@details@Concurrency@@AAPAU123@@Z 10056f60 f i WinRTVFS.obj
 0002:00018fa0       ??$_Move@AAPAU?$_Task_impl@_N@details@Concurrency@@@std@@YA$$QAPAU?$_Task_impl@_N@details@Concurrency@@AAPAU123@@Z 10056fa0 f i WinRTVFS.obj
 0002:00018fe0       ??$_Move@AAPAU_Container_proxy@std@@@std@@YA$$QAPAU_Container_proxy@0@AAPAU10@@Z 10056fe0 f i WinRTVFS.obj
 0002:00019020       ??$_Move@AAPAU_ExceptionHolder@details@Concurrency@@@std@@YA$$QAPAU_ExceptionHolder@details@Concurrency@@AAPAU123@@Z 10057020 f i WinRTVFS.obj
 0002:00019060       ??$_Move@AAPAUscheduler_interface@Concurrency@@@std@@YA$$QAPAUscheduler_interface@Concurrency@@AAPAU12@@Z 10057060 f i WinRTVFS.obj
 0002:000190a0       ??$_Move@AAPAV?$shared_ptr@U?$_Task_impl@E@details@Concurrency@@@std@@@std@@YA$$QAPAV?$shared_ptr@U?$_Task_impl@E@details@Concurrency@@@0@AAPAV10@@Z 100570a0 f i WinRTVFS.obj
 0002:000190e0       ??$_Move@AAPAV_Ref_count_base@std@@@std@@YA$$QAPAV_Ref_count_base@0@AAPAV10@@Z 100570e0 f i WinRTVFS.obj
 0002:00019120       ??$_Move@AAV?$ComPtr@UIUnknown@@@WRL@Microsoft@@@std@@YA$$QAV?$ComPtr@UIUnknown@@@WRL@Microsoft@@AAV123@@Z 10057120 f i WinRTVFS.obj
 0002:00019160       ??$_Move@AAW4AgileState@?$Agile@P$AAUIBuffer@Streams@Storage@Windows@@$00@Platform@@@std@@YA$$QAW4AgileState@?$Agile@P$AAUIBuffer@Streams@Storage@Windows@@$00@Platform@@AAW4123@@Z 10057160 f i WinRTVFS.obj
 0002:000191a0       ??$_Move@AAW4AgileState@?$Agile@P$AAUIRandomAccessStream@Streams@Storage@Windows@@$00@Platform@@@std@@YA$$QAW4AgileState@?$Agile@P$AAUIRandomAccessStream@Streams@Storage@Windows@@$00@Platform@@AAW4123@@Z 100571a0 f i WinRTVFS.obj
 0002:000191e0       ??$_Ptr_cat@PAXPAX@std@@YA?AU_Scalar_ptr_iterator_tag@0@PAPAX0@Z 100571e0 f i WinRTVFS.obj
 0002:00019250       ??$_Ptr_cat@PAXPAX@std@@YA?AU_Scalar_ptr_iterator_tag@0@PBQAXPAPAX@Z 10057250 f i WinRTVFS.obj
 0002:000192c0       ??$_Ptr_cat@V?$shared_ptr@U?$_Task_impl@E@details@Concurrency@@@std@@V12@@std@@YA?AU_Nonscalar_ptr_iterator_tag@0@PAV?$shared_ptr@U?$_Task_impl@E@details@Concurrency@@@0@0@Z 100572c0 f i WinRTVFS.obj
 0002:00019330       ??$_Rechecked@PAPAXPAPAX@std@@YAAAPAPAXAAPAPAXPAPAX@Z 10057330 f i WinRTVFS.obj
 0002:00019370       ??$_Rechecked@PAV?$shared_ptr@U?$_Task_impl@E@details@Concurrency@@@std@@PAV12@@std@@YAAAPAV?$shared_ptr@U?$_Task_impl@E@details@Concurrency@@@0@AAPAV10@PAV10@@Z 10057370 f i WinRTVFS.obj
 0002:000193b0       ??$_Reset@ABV<lambda_9fc58f08a03183e50e06176727aeb396>@@@?$_Func_class@X$$$V@std@@IAEXABV<lambda_9fc58f08a03183e50e06176727aeb396>@@@Z 100573b0 f i WinRTVFS.obj
 0002:00019420       ??$_Reset@U?$_Task_completion_event_impl@E@details@Concurrency@@@?$_Ptr_base@U?$_Task_completion_event_impl@E@details@Concurrency@@@std@@QAEXABV01@@Z 10057420 f i WinRTVFS.obj
 0002:00019490       ??$_Reset@U?$_Task_impl@E@details@Concurrency@@@?$_Ptr_base@U?$_Task_impl@E@details@Concurrency@@@std@@QAEXABV01@@Z 10057490 f i WinRTVFS.obj
 0002:00019500       ??$_Reset@U?$_Task_impl@E@details@Concurrency@@@?$_Ptr_base@U_Task_impl_base@details@Concurrency@@@std@@QAEXABV?$_Ptr_base@U?$_Task_impl@E@details@Concurrency@@@1@@Z 10057500 f i WinRTVFS.obj
 0002:00019570       ??$_Reset@U?$_Task_impl@I@details@Concurrency@@@?$_Ptr_base@U?$_Task_impl@I@details@Concurrency@@@std@@QAEXABV01@@Z 10057570 f i WinRTVFS.obj
 0002:000195e0       ??$_Reset@U?$_Task_impl@P$AAUIBuffer@Streams@Storage@Windows@@@details@Concurrency@@@?$_Ptr_base@U?$_Task_impl@P$AAUIBuffer@Streams@Storage@Windows@@@details@Concurrency@@@std@@QAEXABV01@@Z 100575e0 f i WinRTVFS.obj
 0002:00019650       ??$_Reset@U?$_Task_impl@P$AAUIRandomAccessStream@Streams@Storage@Windows@@@details@Concurrency@@@?$_Ptr_base@U?$_Task_impl@P$AAUIRandomAccessStream@Streams@Storage@Windows@@@details@Concurrency@@@std@@QAEXABV01@@Z 10057650 f i WinRTVFS.obj
 0002:000196c0       ??$_Reset@U?$_Task_impl@P$AAVStorageFile@Storage@Windows@@@details@Concurrency@@@?$_Ptr_base@U?$_Task_impl@P$AAVStorageFile@Storage@Windows@@@details@Concurrency@@@std@@QAEXABV01@@Z 100576c0 f i WinRTVFS.obj
 0002:00019730       ??$_Reset@U?$_Task_impl@P$AAVStorageFolder@Storage@Windows@@@details@Concurrency@@@?$_Ptr_base@U?$_Task_impl@P$AAVStorageFolder@Storage@Windows@@@details@Concurrency@@@std@@QAEXABV01@@Z 10057730 f i WinRTVFS.obj
 0002:000197a0       ??$_Reset@U?$_Task_impl@_N@details@Concurrency@@@?$_Ptr_base@U?$_Task_impl@_N@details@Concurrency@@@std@@QAEXABV01@@Z 100577a0 f i WinRTVFS.obj
 0002:00019810       ??$_Reset@U_ExceptionHolder@details@Concurrency@@@?$_Ptr_base@U_ExceptionHolder@details@Concurrency@@@std@@QAEXABV01@@Z 10057810 f i WinRTVFS.obj
 0002:00019880       ??$_Reset@U_Task_impl_base@details@Concurrency@@@?$_Ptr_base@U_Task_impl_base@details@Concurrency@@@std@@QAEXABV01@@Z 10057880 f i WinRTVFS.obj
 0002:000198f0       ??$_Reset@U_Task_impl_base@details@Concurrency@@@?$_Ptr_base@U_Task_impl_base@details@Concurrency@@@std@@QAEXABV01@_N@Z 100578f0 f i WinRTVFS.obj
 0002:00019960       ??$_Reset@Uscheduler_interface@Concurrency@@@?$_Ptr_base@Uscheduler_interface@Concurrency@@@std@@QAEXABV01@@Z 10057960 f i WinRTVFS.obj
 0002:000199d0       ??$_Reset@V<lambda_02d862f9cfc639ff7c37ca52d43e6a8c>@@@?$_Func_class@X$$$V@std@@IAEX$$QAV<lambda_02d862f9cfc639ff7c37ca52d43e6a8c>@@@Z 100579d0 f i WinRTVFS.obj
 0002:00019a40       ??$_Reset@V<lambda_095a938ce4c5765dcc6b67f548aeb9c7>@@@?$_Func_class@X$$$V@std@@IAEX$$QAV<lambda_095a938ce4c5765dcc6b67f548aeb9c7>@@@Z 10057a40 f i WinRTVFS.obj
 0002:00019ab0       ??$_Reset@V<lambda_0b7f78ec4ced38495cec46e0d346e0b9>@@@?$_Func_class@X$$$V@std@@IAEX$$QAV<lambda_0b7f78ec4ced38495cec46e0d346e0b9>@@@Z 10057ab0 f i WinRTVFS.obj
 0002:00019b20       ??$_Reset@V<lambda_0fe479da16d43edb8e9a254c493d643e>@@@?$_Func_class@X$$$V@std@@IAEX$$QAV<lambda_0fe479da16d43edb8e9a254c493d643e>@@@Z 10057b20 f i WinRTVFS.obj
 0002:00019b90       ??$_Reset@V<lambda_1a93da980d6fe77644a4eefc4e1ad756>@@@?$_Func_class@XABH@std@@IAEX$$QAV<lambda_1a93da980d6fe77644a4eefc4e1ad756>@@@Z 10057b90 f i WinRTVFS.obj
 0002:00019c00       ??$_Reset@V<lambda_295bc5f846209cba149a5e74d0d63a72>@@@?$_Func_class@XPAV?$message@H@Concurrency@@@std@@IAEX$$QAV<lambda_295bc5f846209cba149a5e74d0d63a72>@@@Z 10057c00 f i WinRTVFS.obj
 0002:00019c70       ??$_Reset@V<lambda_364e75aa895e992ae8821732ca646aa2>@@@?$_Func_class@X$$$V@std@@IAEX$$QAV<lambda_364e75aa895e992ae8821732ca646aa2>@@@Z 10057c70 f i WinRTVFS.obj
 0002:00019ce0       ??$_Reset@V<lambda_39cde079c01d1b5b9307ff255a1ccdd9>@@@?$_Func_class@EE@std@@IAEX$$QAV<lambda_39cde079c01d1b5b9307ff255a1ccdd9>@@@Z 10057ce0 f i WinRTVFS.obj
 0002:00019d50       ??$_Reset@V<lambda_528650821c608ced6534641e311542a5>@@@?$_Func_class@X$$$V@std@@IAEX$$QAV<lambda_528650821c608ced6534641e311542a5>@@@Z 10057d50 f i WinRTVFS.obj
 0002:00019dc0       ??$_Reset@V<lambda_579ccd68d569251046038e8620afec85>@@@?$_Func_class@XPAV?$message@H@Concurrency@@@std@@IAEX$$QAV<lambda_579ccd68d569251046038e8620afec85>@@@Z 10057dc0 f i WinRTVFS.obj
 0002:00019e30       ??$_Reset@V<lambda_a66b3ee15e662226a0b0b15ae647d32f>@@@?$_Func_class@X$$$V@std@@IAEX$$QAV<lambda_a66b3ee15e662226a0b0b15ae647d32f>@@@Z 10057e30 f i WinRTVFS.obj
 0002:00019ea0       ??$_Reset@V<lambda_c1a554f2383dae03f169289aed8c4103>@@@?$_Func_class@X$$$V@std@@IAEX$$QAV<lambda_c1a554f2383dae03f169289aed8c4103>@@@Z 10057ea0 f i WinRTVFS.obj
 0002:00019f10       ??$_Reset@V<lambda_c28a53003ed51cdfe295a7d756f98c2f>@@@?$_Func_class@XPAV?$message@H@Concurrency@@@std@@IAEX$$QAV<lambda_c28a53003ed51cdfe295a7d756f98c2f>@@@Z 10057f10 f i WinRTVFS.obj
 0002:00019f80       ??$_Reset@V<lambda_e7ef5f1e4e1eca0ae8efc6086cf9f417>@@@?$_Func_class@X$$$V@std@@IAEX$$QAV<lambda_e7ef5f1e4e1eca0ae8efc6086cf9f417>@@@Z 10057f80 f i WinRTVFS.obj
 0002:00019ff0       ??$_Reset_alloc@ABV<lambda_9fc58f08a03183e50e06176727aeb396>@@V?$allocator@V?$_Func_class@X$$$V@std@@@std@@@?$_Func_class@X$$$V@std@@IAEXABV<lambda_9fc58f08a03183e50e06176727aeb396>@@V?$allocator@V?$_Func_class@X$$$V@std@@@1@@Z 10057ff0 f i WinRTVFS.obj
 0002:0001a060       ??$_Reset_alloc@V<lambda_02d862f9cfc639ff7c37ca52d43e6a8c>@@V?$allocator@V?$_Func_class@X$$$V@std@@@std@@@?$_Func_class@X$$$V@std@@IAEX$$QAV<lambda_02d862f9cfc639ff7c37ca52d43e6a8c>@@V?$allocator@V?$_Func_class@X$$$V@std@@@1@@Z 10058060 f i WinRTVFS.obj
 0002:0001a0d0       ??$_Reset_alloc@V<lambda_095a938ce4c5765dcc6b67f548aeb9c7>@@V?$allocator@V?$_Func_class@X$$$V@std@@@std@@@?$_Func_class@X$$$V@std@@IAEX$$QAV<lambda_095a938ce4c5765dcc6b67f548aeb9c7>@@V?$allocator@V?$_Func_class@X$$$V@std@@@1@@Z 100580d0 f i WinRTVFS.obj
 0002:0001a140       ??$_Reset_alloc@V<lambda_0b7f78ec4ced38495cec46e0d346e0b9>@@V?$allocator@V?$_Func_class@X$$$V@std@@@std@@@?$_Func_class@X$$$V@std@@IAEX$$QAV<lambda_0b7f78ec4ced38495cec46e0d346e0b9>@@V?$allocator@V?$_Func_class@X$$$V@std@@@1@@Z 10058140 f i WinRTVFS.obj
 0002:0001a1b0       ??$_Reset_alloc@V<lambda_0fe479da16d43edb8e9a254c493d643e>@@V?$allocator@V?$_Func_class@X$$$V@std@@@std@@@?$_Func_class@X$$$V@std@@IAEX$$QAV<lambda_0fe479da16d43edb8e9a254c493d643e>@@V?$allocator@V?$_Func_class@X$$$V@std@@@1@@Z 100581b0 f i WinRTVFS.obj
 0002:0001a220       ??$_Reset_alloc@V<lambda_1a93da980d6fe77644a4eefc4e1ad756>@@V?$allocator@V?$_Func_class@XABH@std@@@std@@@?$_Func_class@XABH@std@@IAEX$$QAV<lambda_1a93da980d6fe77644a4eefc4e1ad756>@@V?$allocator@V?$_Func_class@XABH@std@@@1@@Z 10058220 f i WinRTVFS.obj
 0002:0001a290       ??$_Reset_alloc@V<lambda_295bc5f846209cba149a5e74d0d63a72>@@V?$allocator@V?$_Func_class@XPAV?$message@H@Concurrency@@@std@@@std@@@?$_Func_class@XPAV?$message@H@Concurrency@@@std@@IAEX$$QAV<lambda_295bc5f846209cba149a5e74d0d63a72>@@V?$allocator@V?$_Func_class@XPAV?$message@H@Concurrency@@@std@@@1@@Z 10058290 f i WinRTVFS.obj
 0002:0001a300       ??$_Reset_alloc@V<lambda_364e75aa895e992ae8821732ca646aa2>@@V?$allocator@V?$_Func_class@X$$$V@std@@@std@@@?$_Func_class@X$$$V@std@@IAEX$$QAV<lambda_364e75aa895e992ae8821732ca646aa2>@@V?$allocator@V?$_Func_class@X$$$V@std@@@1@@Z 10058300 f i WinRTVFS.obj
 0002:0001a370       ??$_Reset_alloc@V<lambda_39cde079c01d1b5b9307ff255a1ccdd9>@@V?$allocator@V?$_Func_class@EE@std@@@std@@@?$_Func_class@EE@std@@IAEX$$QAV<lambda_39cde079c01d1b5b9307ff255a1ccdd9>@@V?$allocator@V?$_Func_class@EE@std@@@1@@Z 10058370 f i WinRTVFS.obj
 0002:0001a3e0       ??$_Reset_alloc@V<lambda_528650821c608ced6534641e311542a5>@@V?$allocator@V?$_Func_class@X$$$V@std@@@std@@@?$_Func_class@X$$$V@std@@IAEX$$QAV<lambda_528650821c608ced6534641e311542a5>@@V?$allocator@V?$_Func_class@X$$$V@std@@@1@@Z 100583e0 f i WinRTVFS.obj
 0002:0001a450       ??$_Reset_alloc@V<lambda_579ccd68d569251046038e8620afec85>@@V?$allocator@V?$_Func_class@XPAV?$message@H@Concurrency@@@std@@@std@@@?$_Func_class@XPAV?$message@H@Concurrency@@@std@@IAEX$$QAV<lambda_579ccd68d569251046038e8620afec85>@@V?$allocator@V?$_Func_class@XPAV?$message@H@Concurrency@@@std@@@1@@Z 10058450 f i WinRTVFS.obj
 0002:0001a4c0       ??$_Reset_alloc@V<lambda_a66b3ee15e662226a0b0b15ae647d32f>@@V?$allocator@V?$_Func_class@X$$$V@std@@@std@@@?$_Func_class@X$$$V@std@@IAEX$$QAV<lambda_a66b3ee15e662226a0b0b15ae647d32f>@@V?$allocator@V?$_Func_class@X$$$V@std@@@1@@Z 100584c0 f i WinRTVFS.obj
 0002:0001a530       ??$_Reset_alloc@V<lambda_c1a554f2383dae03f169289aed8c4103>@@V?$allocator@V?$_Func_class@X$$$V@std@@@std@@@?$_Func_class@X$$$V@std@@IAEX$$QAV<lambda_c1a554f2383dae03f169289aed8c4103>@@V?$allocator@V?$_Func_class@X$$$V@std@@@1@@Z 10058530 f i WinRTVFS.obj
 0002:0001a5a0       ??$_Reset_alloc@V<lambda_c28a53003ed51cdfe295a7d756f98c2f>@@V?$allocator@V?$_Func_class@XPAV?$message@H@Concurrency@@@std@@@std@@@?$_Func_class@XPAV?$message@H@Concurrency@@@std@@IAEX$$QAV<lambda_c28a53003ed51cdfe295a7d756f98c2f>@@V?$allocator@V?$_Func_class@XPAV?$message@H@Concurrency@@@std@@@1@@Z 100585a0 f i WinRTVFS.obj
 0002:0001a610       ??$_Reset_alloc@V<lambda_e7ef5f1e4e1eca0ae8efc6086cf9f417>@@V?$allocator@V?$_Func_class@X$$$V@std@@@std@@@?$_Func_class@X$$$V@std@@IAEX$$QAV<lambda_e7ef5f1e4e1eca0ae8efc6086cf9f417>@@V?$allocator@V?$_Func_class@X$$$V@std@@@1@@Z 10058610 f i WinRTVFS.obj
 0002:0001a680       ??$_Resetp0@U?$_Task_completion_event_impl@E@details@Concurrency@@@?$shared_ptr@U?$_Task_completion_event_impl@E@details@Concurrency@@@std@@QAEXPAU?$_Task_completion_event_impl@E@details@Concurrency@@PAV_Ref_count_base@1@@Z 10058680 f i WinRTVFS.obj
 0002:0001a6f0       ??$_Resetp0@U?$_Task_impl@E@details@Concurrency@@@?$shared_ptr@U?$_Task_impl@E@details@Concurrency@@@std@@QAEXPAU?$_Task_impl@E@details@Concurrency@@PAV_Ref_count_base@1@@Z 100586f0 f i WinRTVFS.obj
 0002:0001a760       ??$_Resetp0@U?$_Task_impl@I@details@Concurrency@@@?$shared_ptr@U?$_Task_impl@I@details@Concurrency@@@std@@QAEXPAU?$_Task_impl@I@details@Concurrency@@PAV_Ref_count_base@1@@Z 10058760 f i WinRTVFS.obj
 0002:0001a7d0       ??$_Resetp0@U?$_Task_impl@P$AAUIBuffer@Streams@Storage@Windows@@@details@Concurrency@@@?$shared_ptr@U?$_Task_impl@P$AAUIBuffer@Streams@Storage@Windows@@@details@Concurrency@@@std@@QAEXPAU?$_Task_impl@P$AAUIBuffer@Streams@Storage@Windows@@@details@Concurrency@@PAV_Ref_count_base@1@@Z 100587d0 f i WinRTVFS.obj
 0002:0001a840       ??$_Resetp0@U?$_Task_impl@P$AAUIRandomAccessStream@Streams@Storage@Windows@@@details@Concurrency@@@?$shared_ptr@U?$_Task_impl@P$AAUIRandomAccessStream@Streams@Storage@Windows@@@details@Concurrency@@@std@@QAEXPAU?$_Task_impl@P$AAUIRandomAccessStream@Streams@Storage@Windows@@@details@Concurrency@@PAV_Ref_count_base@1@@Z 10058840 f i WinRTVFS.obj
 0002:0001a8b0       ??$_Resetp0@U?$_Task_impl@P$AAVStorageFile@Storage@Windows@@@details@Concurrency@@@?$shared_ptr@U?$_Task_impl@P$AAVStorageFile@Storage@Windows@@@details@Concurrency@@@std@@QAEXPAU?$_Task_impl@P$AAVStorageFile@Storage@Windows@@@details@Concurrency@@PAV_Ref_count_base@1@@Z 100588b0 f i WinRTVFS.obj
 0002:0001a920       ??$_Resetp0@U?$_Task_impl@P$AAVStorageFolder@Storage@Windows@@@details@Concurrency@@@?$shared_ptr@U?$_Task_impl@P$AAVStorageFolder@Storage@Windows@@@details@Concurrency@@@std@@QAEXPAU?$_Task_impl@P$AAVStorageFolder@Storage@Windows@@@details@Concurrency@@PAV_Ref_count_base@1@@Z 10058920 f i WinRTVFS.obj
 0002:0001a990       ??$_Resetp0@U?$_Task_impl@_N@details@Concurrency@@@?$shared_ptr@U?$_Task_impl@_N@details@Concurrency@@@std@@QAEXPAU?$_Task_impl@_N@details@Concurrency@@PAV_Ref_count_base@1@@Z 10058990 f i WinRTVFS.obj
 0002:0001aa00       ??$_Resetp0@U_ExceptionHolder@details@Concurrency@@@?$shared_ptr@U_ExceptionHolder@details@Concurrency@@@std@@QAEXPAU_ExceptionHolder@details@Concurrency@@PAV_Ref_count_base@1@@Z 10058a00 f i WinRTVFS.obj
 0002:0001aa70       ??$_Resetw@U?$_Task_impl@E@details@Concurrency@@@?$_Ptr_base@U_Task_impl_base@details@Concurrency@@@std@@QAEXABV?$_Ptr_base@U?$_Task_impl@E@details@Concurrency@@@1@@Z 10058a70 f i WinRTVFS.obj
 0002:0001aae0       ??$_Resetw@U?$_Task_impl@E@details@Concurrency@@@?$_Ptr_base@U_Task_impl_base@details@Concurrency@@@std@@QAEXPAU?$_Task_impl@E@details@Concurrency@@PAV_Ref_count_base@1@@Z 10058ae0 f i WinRTVFS.obj
 0002:0001ab70       ??$_Resetw@U?$_Task_impl@I@details@Concurrency@@@?$_Ptr_base@U_Task_impl_base@details@Concurrency@@@std@@QAEXABV?$_Ptr_base@U?$_Task_impl@I@details@Concurrency@@@1@@Z 10058b70 f i WinRTVFS.obj
 0002:0001abe0       ??$_Resetw@U?$_Task_impl@I@details@Concurrency@@@?$_Ptr_base@U_Task_impl_base@details@Concurrency@@@std@@QAEXPAU?$_Task_impl@I@details@Concurrency@@PAV_Ref_count_base@1@@Z 10058be0 f i WinRTVFS.obj
 0002:0001ac70       ??$_Resetw@U?$_Task_impl@P$AAUIBuffer@Streams@Storage@Windows@@@details@Concurrency@@@?$_Ptr_base@U_Task_impl_base@details@Concurrency@@@std@@QAEXABV?$_Ptr_base@U?$_Task_impl@P$AAUIBuffer@Streams@Storage@Windows@@@details@Concurrency@@@1@@Z 10058c70 f i WinRTVFS.obj
 0002:0001ace0       ??$_Resetw@U?$_Task_impl@P$AAUIBuffer@Streams@Storage@Windows@@@details@Concurrency@@@?$_Ptr_base@U_Task_impl_base@details@Concurrency@@@std@@QAEXPAU?$_Task_impl@P$AAUIBuffer@Streams@Storage@Windows@@@details@Concurrency@@PAV_Ref_count_base@1@@Z 10058ce0 f i WinRTVFS.obj
 0002:0001ad70       ??$_Resetw@U?$_Task_impl@P$AAUIRandomAccessStream@Streams@Storage@Windows@@@details@Concurrency@@@?$_Ptr_base@U_Task_impl_base@details@Concurrency@@@std@@QAEXABV?$_Ptr_base@U?$_Task_impl@P$AAUIRandomAccessStream@Streams@Storage@Windows@@@details@Concurrency@@@1@@Z 10058d70 f i WinRTVFS.obj
 0002:0001ade0       ??$_Resetw@U?$_Task_impl@P$AAUIRandomAccessStream@Streams@Storage@Windows@@@details@Concurrency@@@?$_Ptr_base@U_Task_impl_base@details@Concurrency@@@std@@QAEXPAU?$_Task_impl@P$AAUIRandomAccessStream@Streams@Storage@Windows@@@details@Concurrency@@PAV_Ref_count_base@1@@Z 10058de0 f i WinRTVFS.obj
 0002:0001ae70       ??$_Resetw@U?$_Task_impl@P$AAVStorageFile@Storage@Windows@@@details@Concurrency@@@?$_Ptr_base@U_Task_impl_base@details@Concurrency@@@std@@QAEXABV?$_Ptr_base@U?$_Task_impl@P$AAVStorageFile@Storage@Windows@@@details@Concurrency@@@1@@Z 10058e70 f i WinRTVFS.obj
 0002:0001aee0       ??$_Resetw@U?$_Task_impl@P$AAVStorageFile@Storage@Windows@@@details@Concurrency@@@?$_Ptr_base@U_Task_impl_base@details@Concurrency@@@std@@QAEXPAU?$_Task_impl@P$AAVStorageFile@Storage@Windows@@@details@Concurrency@@PAV_Ref_count_base@1@@Z 10058ee0 f i WinRTVFS.obj
 0002:0001af70       ??$_Resetw@U?$_Task_impl@P$AAVStorageFolder@Storage@Windows@@@details@Concurrency@@@?$_Ptr_base@U_Task_impl_base@details@Concurrency@@@std@@QAEXABV?$_Ptr_base@U?$_Task_impl@P$AAVStorageFolder@Storage@Windows@@@details@Concurrency@@@1@@Z 10058f70 f i WinRTVFS.obj
 0002:0001afe0       ??$_Resetw@U?$_Task_impl@P$AAVStorageFolder@Storage@Windows@@@details@Concurrency@@@?$_Ptr_base@U_Task_impl_base@details@Concurrency@@@std@@QAEXPAU?$_Task_impl@P$AAVStorageFolder@Storage@Windows@@@details@Concurrency@@PAV_Ref_count_base@1@@Z 10058fe0 f i WinRTVFS.obj
 0002:0001b070       ??$_Resetw@U?$_Task_impl@_N@details@Concurrency@@@?$_Ptr_base@U_Task_impl_base@details@Concurrency@@@std@@QAEXABV?$_Ptr_base@U?$_Task_impl@_N@details@Concurrency@@@1@@Z 10059070 f i WinRTVFS.obj
 0002:0001b0e0       ??$_Resetw@U?$_Task_impl@_N@details@Concurrency@@@?$_Ptr_base@U_Task_impl_base@details@Concurrency@@@std@@QAEXPAU?$_Task_impl@_N@details@Concurrency@@PAV_Ref_count_base@1@@Z 100590e0 f i WinRTVFS.obj
 0002:0001b170       ??$_Resetw@U_Task_impl_base@details@Concurrency@@@?$_Ptr_base@U_Task_impl_base@details@Concurrency@@@std@@QAEXABV01@@Z 10059170 f i WinRTVFS.obj
 0002:0001b1e0       ??$_Resetw@U_Task_impl_base@details@Concurrency@@@?$_Ptr_base@U_Task_impl_base@details@Concurrency@@@std@@QAEXPAU_Task_impl_base@details@Concurrency@@PAV_Ref_count_base@1@@Z 100591e0 f i WinRTVFS.obj
 0002:0001b270       ??$_Swap_adl@PAU_Container_proxy@std@@@std@@YAXAAPAU_Container_proxy@0@0@Z 10059270 f i WinRTVFS.obj
 0002:0001b2d0       ??$_Swap_adl@PAV?$shared_ptr@U?$_Task_impl@E@details@Concurrency@@@std@@@std@@YAXAAPAV?$shared_ptr@U?$_Task_impl@E@details@Concurrency@@@0@0@Z 100592d0 f i WinRTVFS.obj
 0002:0001b330       ??$_TaskInitMaybeFunctor@P$AAU?$IAsyncOperation@P$AAUIRandomAccessStream@Streams@Storage@Windows@@@Foundation@Windows@@@?$task@P$AAUIRandomAccessStream@Streams@Storage@Windows@@@Concurrency@@AAEXAAP$AAU?$IAsyncOperation@P$AAUIRandomAccessStream@Streams@Storage@Windows@@@Foundation@Windows@@U?$integral_constant@_N$0A@@std@@@Z 10059330 f i WinRTVFS.obj
 0002:0001b390       ??$_TaskInitMaybeFunctor@P$AAU?$IAsyncOperation@P$AAVStorageFile@Storage@Windows@@@Foundation@Windows@@@?$task@P$AAVStorageFile@Storage@Windows@@@Concurrency@@AAEXAAP$AAU?$IAsyncOperation@P$AAVStorageFile@Storage@Windows@@@Foundation@Windows@@U?$integral_constant@_N$0A@@std@@@Z 10059390 f i WinRTVFS.obj
 0002:0001b3f0       ??$_TaskInitMaybeFunctor@P$AAU?$IAsyncOperation@P$AAVStorageFolder@Storage@Windows@@@Foundation@Windows@@@?$task@P$AAVStorageFolder@Storage@Windows@@@Concurrency@@AAEXAAP$AAU?$IAsyncOperation@P$AAVStorageFolder@Storage@Windows@@@Foundation@Windows@@U?$integral_constant@_N$0A@@std@@@Z 100593f0 f i WinRTVFS.obj
 0002:0001b450       ??$_TaskInitMaybeFunctor@P$AAU?$IAsyncOperation@_N@Foundation@Windows@@@?$task@_N@Concurrency@@AAEXAAP$AAU?$IAsyncOperation@_N@Foundation@Windows@@U?$integral_constant@_N$0A@@std@@@Z 10059450 f i WinRTVFS.obj
 0002:0001b4b0       ??$_TaskInitMaybeFunctor@P$AAU?$IAsyncOperationWithProgress@II@Foundation@Windows@@@?$task@I@Concurrency@@AAEXAAP$AAU?$IAsyncOperationWithProgress@II@Foundation@Windows@@U?$integral_constant@_N$0A@@std@@@Z 100594b0 f i WinRTVFS.obj
 0002:0001b510       ??$_TaskInitMaybeFunctor@P$AAU?$IAsyncOperationWithProgress@P$AAUIBuffer@Streams@Storage@Windows@@I@Foundation@Windows@@@?$task@P$AAUIBuffer@Streams@Storage@Windows@@@Concurrency@@AAEXAAP$AAU?$IAsyncOperationWithProgress@P$AAUIBuffer@Streams@Storage@Windows@@I@Foundation@Windows@@U?$integral_constant@_N$0A@@std@@@Z 10059510 f i WinRTVFS.obj
 0002:0001b570       ??$_TaskInitMaybeFunctor@P$AAUIAsyncAction@Foundation@Windows@@@?$task@X@Concurrency@@AAEXAAP$AAUIAsyncAction@Foundation@Windows@@U?$integral_constant@_N$0A@@std@@@Z 10059570 f i WinRTVFS.obj
 0002:0001b5d0       ??$_TaskInitMaybeFunctor@V?$task_completion_event@X@Concurrency@@@?$task@X@Concurrency@@AAEXAAV?$task_completion_event@X@1@U?$integral_constant@_N$0A@@std@@@Z 100595d0 f i WinRTVFS.obj
 0002:0001b630       ??$_TaskInitNoFunctor@I@?$task@I@Concurrency@@AAEXP$AAU?$IAsyncOperationWithProgress@II@Foundation@Windows@@@Z 10059630 f i WinRTVFS.obj
 0002:0001b760       ??$_TaskInitNoFunctor@I@?$task@P$AAUIBuffer@Streams@Storage@Windows@@@Concurrency@@AAEXP$AAU?$IAsyncOperationWithProgress@P$AAUIBuffer@Streams@Storage@Windows@@I@Foundation@Windows@@@Z 10059760 f i WinRTVFS.obj
 0002:0001b890       ??$_Test_callable@$$CBV<lambda_9fc58f08a03183e50e06176727aeb396>@@@std@@YA_NABV<lambda_9fc58f08a03183e50e06176727aeb396>@@@Z 10059890 f i WinRTVFS.obj
 0002:0001b8f0       ??$_Test_callable@$$CBV<lambda_9fc58f08a03183e50e06176727aeb396>@@@std@@YA_NABV<lambda_9fc58f08a03183e50e06176727aeb396>@@U?$integral_constant@_N$0A@@0@@Z 100598f0 f i WinRTVFS.obj
 0002:0001b920       ??$_Test_callable@V<lambda_02d862f9cfc639ff7c37ca52d43e6a8c>@@@std@@YA_NAAV<lambda_02d862f9cfc639ff7c37ca52d43e6a8c>@@@Z 10059920 f i WinRTVFS.obj
 0002:0001b980       ??$_Test_callable@V<lambda_02d862f9cfc639ff7c37ca52d43e6a8c>@@@std@@YA_NAAV<lambda_02d862f9cfc639ff7c37ca52d43e6a8c>@@U?$integral_constant@_N$0A@@0@@Z 10059980 f i WinRTVFS.obj
 0002:0001b9b0       ??$_Test_callable@V<lambda_095a938ce4c5765dcc6b67f548aeb9c7>@@@std@@YA_NAAV<lambda_095a938ce4c5765dcc6b67f548aeb9c7>@@@Z 100599b0 f i WinRTVFS.obj
 0002:0001ba10       ??$_Test_callable@V<lambda_095a938ce4c5765dcc6b67f548aeb9c7>@@@std@@YA_NAAV<lambda_095a938ce4c5765dcc6b67f548aeb9c7>@@U?$integral_constant@_N$0A@@0@@Z 10059a10 f i WinRTVFS.obj
 0002:0001ba40       ??$_Test_callable@V<lambda_0b7f78ec4ced38495cec46e0d346e0b9>@@@std@@YA_NAAV<lambda_0b7f78ec4ced38495cec46e0d346e0b9>@@@Z 10059a40 f i WinRTVFS.obj
 0002:0001baa0       ??$_Test_callable@V<lambda_0b7f78ec4ced38495cec46e0d346e0b9>@@@std@@YA_NAAV<lambda_0b7f78ec4ced38495cec46e0d346e0b9>@@U?$integral_constant@_N$0A@@0@@Z 10059aa0 f i WinRTVFS.obj
 0002:0001bad0       ??$_Test_callable@V<lambda_0fe479da16d43edb8e9a254c493d643e>@@@std@@YA_NAAV<lambda_0fe479da16d43edb8e9a254c493d643e>@@@Z 10059ad0 f i WinRTVFS.obj
 0002:0001bb30       ??$_Test_callable@V<lambda_0fe479da16d43edb8e9a254c493d643e>@@@std@@YA_NAAV<lambda_0fe479da16d43edb8e9a254c493d643e>@@U?$integral_constant@_N$0A@@0@@Z 10059b30 f i WinRTVFS.obj
 0002:0001bb60       ??$_Test_callable@V<lambda_1a93da980d6fe77644a4eefc4e1ad756>@@@std@@YA_NAAV<lambda_1a93da980d6fe77644a4eefc4e1ad756>@@@Z 10059b60 f i WinRTVFS.obj
 0002:0001bbc0       ??$_Test_callable@V<lambda_1a93da980d6fe77644a4eefc4e1ad756>@@@std@@YA_NAAV<lambda_1a93da980d6fe77644a4eefc4e1ad756>@@U?$integral_constant@_N$0A@@0@@Z 10059bc0 f i WinRTVFS.obj
 0002:0001bbf0       ??$_Test_callable@V<lambda_295bc5f846209cba149a5e74d0d63a72>@@@std@@YA_NAAV<lambda_295bc5f846209cba149a5e74d0d63a72>@@@Z 10059bf0 f i WinRTVFS.obj
 0002:0001bc50       ??$_Test_callable@V<lambda_295bc5f846209cba149a5e74d0d63a72>@@@std@@YA_NAAV<lambda_295bc5f846209cba149a5e74d0d63a72>@@U?$integral_constant@_N$0A@@0@@Z 10059c50 f i WinRTVFS.obj
 0002:0001bc80       ??$_Test_callable@V<lambda_364e75aa895e992ae8821732ca646aa2>@@@std@@YA_NAAV<lambda_364e75aa895e992ae8821732ca646aa2>@@@Z 10059c80 f i WinRTVFS.obj
 0002:0001bce0       ??$_Test_callable@V<lambda_364e75aa895e992ae8821732ca646aa2>@@@std@@YA_NAAV<lambda_364e75aa895e992ae8821732ca646aa2>@@U?$integral_constant@_N$0A@@0@@Z 10059ce0 f i WinRTVFS.obj
 0002:0001bd10       ??$_Test_callable@V<lambda_39cde079c01d1b5b9307ff255a1ccdd9>@@@std@@YA_NAAV<lambda_39cde079c01d1b5b9307ff255a1ccdd9>@@@Z 10059d10 f i WinRTVFS.obj
 0002:0001bd70       ??$_Test_callable@V<lambda_39cde079c01d1b5b9307ff255a1ccdd9>@@@std@@YA_NAAV<lambda_39cde079c01d1b5b9307ff255a1ccdd9>@@U?$integral_constant@_N$0A@@0@@Z 10059d70 f i WinRTVFS.obj
 0002:0001bda0       ??$_Test_callable@V<lambda_528650821c608ced6534641e311542a5>@@@std@@YA_NAAV<lambda_528650821c608ced6534641e311542a5>@@@Z 10059da0 f i WinRTVFS.obj
 0002:0001be00       ??$_Test_callable@V<lambda_528650821c608ced6534641e311542a5>@@@std@@YA_NAAV<lambda_528650821c608ced6534641e311542a5>@@U?$integral_constant@_N$0A@@0@@Z 10059e00 f i WinRTVFS.obj
 0002:0001be30       ??$_Test_callable@V<lambda_579ccd68d569251046038e8620afec85>@@@std@@YA_NAAV<lambda_579ccd68d569251046038e8620afec85>@@@Z 10059e30 f i WinRTVFS.obj
 0002:0001be90       ??$_Test_callable@V<lambda_579ccd68d569251046038e8620afec85>@@@std@@YA_NAAV<lambda_579ccd68d569251046038e8620afec85>@@U?$integral_constant@_N$0A@@0@@Z 10059e90 f i WinRTVFS.obj
 0002:0001bec0       ??$_Test_callable@V<lambda_a66b3ee15e662226a0b0b15ae647d32f>@@@std@@YA_NAAV<lambda_a66b3ee15e662226a0b0b15ae647d32f>@@@Z 10059ec0 f i WinRTVFS.obj
 0002:0001bf20       ??$_Test_callable@V<lambda_a66b3ee15e662226a0b0b15ae647d32f>@@@std@@YA_NAAV<lambda_a66b3ee15e662226a0b0b15ae647d32f>@@U?$integral_constant@_N$0A@@0@@Z 10059f20 f i WinRTVFS.obj
 0002:0001bf50       ??$_Test_callable@V<lambda_c1a554f2383dae03f169289aed8c4103>@@@std@@YA_NAAV<lambda_c1a554f2383dae03f169289aed8c4103>@@@Z 10059f50 f i WinRTVFS.obj
 0002:0001bfb0       ??$_Test_callable@V<lambda_c1a554f2383dae03f169289aed8c4103>@@@std@@YA_NAAV<lambda_c1a554f2383dae03f169289aed8c4103>@@U?$integral_constant@_N$0A@@0@@Z 10059fb0 f i WinRTVFS.obj
 0002:0001bfe0       ??$_Test_callable@V<lambda_c28a53003ed51cdfe295a7d756f98c2f>@@@std@@YA_NAAV<lambda_c28a53003ed51cdfe295a7d756f98c2f>@@@Z 10059fe0 f i WinRTVFS.obj
 0002:0001c040       ??$_Test_callable@V<lambda_c28a53003ed51cdfe295a7d756f98c2f>@@@std@@YA_NAAV<lambda_c28a53003ed51cdfe295a7d756f98c2f>@@U?$integral_constant@_N$0A@@0@@Z 1005a040 f i WinRTVFS.obj
 0002:0001c070       ??$_Test_callable@V<lambda_e7ef5f1e4e1eca0ae8efc6086cf9f417>@@@std@@YA_NAAV<lambda_e7ef5f1e4e1eca0ae8efc6086cf9f417>@@@Z 1005a070 f i WinRTVFS.obj
 0002:0001c0d0       ??$_Test_callable@V<lambda_e7ef5f1e4e1eca0ae8efc6086cf9f417>@@@std@@YA_NAAV<lambda_e7ef5f1e4e1eca0ae8efc6086cf9f417>@@U?$integral_constant@_N$0A@@0@@Z 1005a0d0 f i WinRTVFS.obj
 0002:0001c100       ??$_ThenImpl@XV<lambda_9fc58f08a03183e50e06176727aeb396>@@@?$task@E@Concurrency@@ABE?AV?$task@X@1@ABV<lambda_9fc58f08a03183e50e06176727aeb396>@@ABVtask_options@1@@Z 1005a100 f i WinRTVFS.obj
 0002:0001c680       ??$_ThenImpl@XV<lambda_9fc58f08a03183e50e06176727aeb396>@@@?$task@E@Concurrency@@ABE?AV?$task@X@1@ABV<lambda_9fc58f08a03183e50e06176727aeb396>@@PAV_CancellationTokenState@details@1@ABVtask_continuation_context@1@Uscheduler_ptr@1@V_TaskCreationCallstack@51@W4_TaskInliningMode@51@@Z 1005a680 f i WinRTVFS.obj
 0002:0001c9b0       ??$_Trace_agents_get_id@V?$ISource@H@Concurrency@@@details@Concurrency@@YA_JPAV?$ISource@H@1@@Z 1005a9b0 f i WinRTVFS.obj
 0002:0001c9f0       ??$_Trace_agents_get_id@V?$ordered_message_processor@H@Concurrency@@@details@Concurrency@@YA_JPAV?$ordered_message_processor@H@1@@Z 1005a9f0 f i WinRTVFS.obj
 0002:0001ca30       ??$_Trace_agents_get_id@V?$source_block@V?$single_link_registry@V?$ITarget@H@Concurrency@@@Concurrency@@V?$ordered_message_processor@H@2@@Concurrency@@@details@Concurrency@@YA_JPAV?$source_block@V?$single_link_registry@V?$ITarget@H@Concurrency@@@Concurrency@@V?$ordered_message_processor@H@2@@1@@Z 1005aa30 f i WinRTVFS.obj
 0002:0001ca70       ??$_Trace_agents_get_id@V?$target_block@V?$multi_link_registry@V?$ISource@H@Concurrency@@@Concurrency@@V?$ordered_message_processor@H@2@@Concurrency@@@details@Concurrency@@YA_JPAV?$target_block@V?$multi_link_registry@V?$ISource@H@Concurrency@@@Concurrency@@V?$ordered_message_processor@H@2@@1@@Z 1005aa70 f i WinRTVFS.obj
 0002:0001cab0       ??$_Ucopy@PAPAX@?$vector@PAXV?$allocator@PAX@std@@@std@@IAEPAPAXPAPAX00@Z 1005aab0 f i WinRTVFS.obj
 0002:0001cb80       ??$_Ucopy@V?$_Vector_const_iterator@V?$_Vector_val@U?$_Simple_types@PAX@std@@@std@@@std@@@?$vector@PAXV?$allocator@PAX@std@@@std@@IAEPAPAXV?$_Vector_const_iterator@V?$_Vector_val@U?$_Simple_types@PAX@std@@@std@@@1@0PAPAX@Z 1005ab80 f i WinRTVFS.obj
 0002:0001cd10       ??$_Umove@PAPAX@?$vector@PAXV?$allocator@PAX@std@@@std@@IAEPAPAXPAPAX00@Z 1005ad10 f i WinRTVFS.obj
 0002:0001cde0       ??$_Umove@PAV?$shared_ptr@U?$_Task_impl@E@details@Concurrency@@@std@@@?$vector@V?$shared_ptr@U?$_Task_impl@E@details@Concurrency@@@std@@V?$allocator@V?$shared_ptr@U?$_Task_impl@E@details@Concurrency@@@std@@@2@@std@@IAEPAV?$shared_ptr@U?$_Task_impl@E@details@Concurrency@@@1@PAV21@00@Z 1005ade0 f i WinRTVFS.obj
 0002:0001ceb0       ??$_Unchecked@PAPAX@std@@YAPAPAXPAPAX@Z 1005aeb0 f i WinRTVFS.obj
 0002:0001cef0       ??$_Unchecked@PAV?$shared_ptr@U?$_Task_impl@E@details@Concurrency@@@std@@@std@@YAPAV?$shared_ptr@U?$_Task_impl@E@details@Concurrency@@@0@PAV10@@Z 1005aef0 f i WinRTVFS.obj
 0002:0001cf30       ??$_Unchecked@V?$_Vector_val@U?$_Simple_types@PAX@std@@@std@@@std@@YAPBQAXV?$_Vector_const_iterator@V?$_Vector_val@U?$_Simple_types@PAX@std@@@std@@@0@@Z 1005af30 f i WinRTVFS.obj
 0002:0001cfe0       ??$_Uninit_copy@PAPAXPAPAXU?$_Wrap_alloc@V?$allocator@PAX@std@@@std@@@std@@YAPAPAXPAPAX00AAU?$_Wrap_alloc@V?$allocator@PAX@std@@@0@@Z 1005afe0 f i WinRTVFS.obj
 0002:0001d070       ??$_Uninit_copy@PAXPAX@std@@YAPAPAXPAPAX00AAU?$_Wrap_alloc@V?$allocator@PAX@std@@@0@U_Scalar_ptr_iterator_tag@0@@Z 1005b070 f i WinRTVFS.obj
 0002:0001d130       ??$_Uninit_copy@PBQAXPAPAXU?$_Wrap_alloc@V?$allocator@PAX@std@@@std@@@std@@YAPAPAXPBQAX0PAPAXAAU?$_Wrap_alloc@V?$allocator@PAX@std@@@0@@Z 1005b130 f i WinRTVFS.obj
 0002:0001d1c0       ??$_Uninit_copy@QAXPAX@std@@YAPAPAXPBQAX0PAPAXAAU?$_Wrap_alloc@V?$allocator@PAX@std@@@0@U_Scalar_ptr_iterator_tag@0@@Z 1005b1c0 f i WinRTVFS.obj
 0002:0001d280       ??$_Uninit_def_fill_n@PAXIPAX@std@@YAXPAPAXIAAU?$_Wrap_alloc@V?$allocator@PAX@std@@@0@0U_Scalar_ptr_iterator_tag@0@@Z 1005b280 f i WinRTVFS.obj
 0002:0001d2f0       ??$_Uninit_move@PAPAXPAPAXU?$_Wrap_alloc@V?$allocator@PAX@std@@@std@@@std@@YAPAPAXPAPAX00AAU?$_Wrap_alloc@V?$allocator@PAX@std@@@0@@Z 1005b2f0 f i WinRTVFS.obj
 0002:0001d390       ??$_Uninit_move@PAV?$shared_ptr@U?$_Task_impl@E@details@Concurrency@@@std@@PAV12@U?$_Wrap_alloc@V?$allocator@V?$shared_ptr@U?$_Task_impl@E@details@Concurrency@@@std@@@std@@@2@@std@@YAPAV?$shared_ptr@U?$_Task_impl@E@details@Concurrency@@@0@PAV10@00AAU?$_Wrap_alloc@V?$allocator@V?$shared_ptr@U?$_Task_impl@E@details@Concurrency@@@std@@@std@@@0@@Z 1005b390 f i WinRTVFS.obj
 0002:0001d430       ??$_Uninit_move@PAV?$shared_ptr@U?$_Task_impl@E@details@Concurrency@@@std@@PAV12@V?$allocator@V?$shared_ptr@U?$_Task_impl@E@details@Concurrency@@@std@@@2@V12@@std@@YAPAV?$shared_ptr@U?$_Task_impl@E@details@Concurrency@@@0@PAV10@00AAU?$_Wrap_alloc@V?$allocator@V?$shared_ptr@U?$_Task_impl@E@details@Concurrency@@@std@@@std@@@0@0U_Nonscalar_ptr_iterator_tag@0@@Z 1005b430 f i WinRTVFS.obj
 0002:0001d590       ??$_Uninit_move@PAXPAXPAX@std@@YAPAPAXPAPAX00AAU?$_Wrap_alloc@V?$allocator@PAX@std@@@0@0U_Scalar_ptr_iterator_tag@0@@Z 1005b590 f i WinRTVFS.obj
 0002:0001d650       ??$_Uninitialized_copy@PAPAXPAPAXU?$_Wrap_alloc@V?$allocator@PAX@std@@@std@@@std@@YAPAPAXPAPAX00AAU?$_Wrap_alloc@V?$allocator@PAX@std@@@0@@Z 1005b650 f i WinRTVFS.obj
 0002:0001d6f0       ??$_Uninitialized_copy@V?$_Vector_const_iterator@V?$_Vector_val@U?$_Simple_types@PAX@std@@@std@@@std@@PAPAXU?$_Wrap_alloc@V?$allocator@PAX@std@@@2@@std@@YAPAPAXV?$_Vector_const_iterator@V?$_Vector_val@U?$_Simple_types@PAX@std@@@std@@@0@0PAPAXAAU?$_Wrap_alloc@V?$allocator@PAX@std@@@0@@Z 1005b6f0 f i WinRTVFS.obj
 0002:0001d860       ??$_Uninitialized_default_fill_n@PAPAXIU?$_Wrap_alloc@V?$allocator@PAX@std@@@std@@@std@@YAXPAPAXIAAU?$_Wrap_alloc@V?$allocator@PAX@std@@@0@@Z 1005b860 f i WinRTVFS.obj
 0002:0001d8f0       ??$_Uninitialized_move@PAPAXPAPAXU?$_Wrap_alloc@V?$allocator@PAX@std@@@std@@@std@@YAPAPAXPAPAX00AAU?$_Wrap_alloc@V?$allocator@PAX@std@@@0@@Z 1005b8f0 f i WinRTVFS.obj
 0002:0001d990       ??$_Uninitialized_move@PAV?$shared_ptr@U?$_Task_impl@E@details@Concurrency@@@std@@PAV12@U?$_Wrap_alloc@V?$allocator@V?$shared_ptr@U?$_Task_impl@E@details@Concurrency@@@std@@@std@@@2@@std@@YAPAV?$shared_ptr@U?$_Task_impl@E@details@Concurrency@@@0@PAV10@00AAU?$_Wrap_alloc@V?$allocator@V?$shared_ptr@U?$_Task_impl@E@details@Concurrency@@@std@@@std@@@0@@Z 1005b990 f i WinRTVFS.obj
 0002:0001da30       ??$_Val_type@PAPAX@std@@YAPAPAXPAPAX@Z 1005ba30 f i WinRTVFS.obj
 0002:0001da60       ??$_Val_type@PAV?$shared_ptr@U?$_Task_impl@E@details@Concurrency@@@std@@@std@@YAPAV?$shared_ptr@U?$_Task_impl@E@details@Concurrency@@@0@PAV10@@Z 1005ba60 f i WinRTVFS.obj
 0002:0001da90       ??$_ValidateTaskConstructorArgs@IP$AAU?$IAsyncOperationWithProgress@II@Foundation@Windows@@@details@Concurrency@@YAXP$AAU?$IAsyncOperationWithProgress@II@Foundation@Windows@@@Z 1005ba90 f i WinRTVFS.obj
 0002:0001dac0       ??$_ValidateTaskConstructorArgs@P$AAUIBuffer@Streams@Storage@Windows@@P$AAU?$IAsyncOperationWithProgress@P$AAUIBuffer@Streams@Storage@Windows@@I@Foundation@4@@details@Concurrency@@YAXP$AAU?$IAsyncOperationWithProgress@P$AAUIBuffer@Streams@Storage@Windows@@I@Foundation@Windows@@@Z 1005bac0 f i WinRTVFS.obj
 0002:0001daf0       ??$_ValidateTaskConstructorArgs@P$AAUIRandomAccessStream@Streams@Storage@Windows@@P$AAU?$IAsyncOperation@P$AAUIRandomAccessStream@Streams@Storage@Windows@@@Foundation@4@@details@Concurrency@@YAXP$AAU?$IAsyncOperation@P$AAUIRandomAccessStream@Streams@Storage@Windows@@@Foundation@Windows@@@Z 1005baf0 f i WinRTVFS.obj
 0002:0001db20       ??$_ValidateTaskConstructorArgs@P$AAVStorageFile@Storage@Windows@@P$AAU?$IAsyncOperation@P$AAVStorageFile@Storage@Windows@@@Foundation@3@@details@Concurrency@@YAXP$AAU?$IAsyncOperation@P$AAVStorageFile@Storage@Windows@@@Foundation@Windows@@@Z 1005bb20 f i WinRTVFS.obj
 0002:0001db50       ??$_ValidateTaskConstructorArgs@P$AAVStorageFolder@Storage@Windows@@P$AAU?$IAsyncOperation@P$AAVStorageFolder@Storage@Windows@@@Foundation@3@@details@Concurrency@@YAXP$AAU?$IAsyncOperation@P$AAVStorageFolder@Storage@Windows@@@Foundation@Windows@@@Z 1005bb50 f i WinRTVFS.obj
 0002:0001db80       ??$_ValidateTaskConstructorArgs@XP$AAUIAsyncAction@Foundation@Windows@@@details@Concurrency@@YAXP$AAUIAsyncAction@Foundation@Windows@@@Z 1005bb80 f i WinRTVFS.obj
 0002:0001dbb0       ??$_ValidateTaskConstructorArgs@XV?$task_completion_event@X@Concurrency@@@details@Concurrency@@YAXV?$task_completion_event@X@1@@Z 1005bbb0 f i WinRTVFS.obj
 0002:0001dc00       ??$_ValidateTaskConstructorArgs@_NP$AAU?$IAsyncOperation@_N@Foundation@Windows@@@details@Concurrency@@YAXP$AAU?$IAsyncOperation@_N@Foundation@Windows@@@Z 1005bc00 f i WinRTVFS.obj
 0002:0001dc30       ??$__abi_winrt_ptrto_delegate_assign@V?$AsyncOperationCompletedHandler@E@Foundation@Windows@@@@YAPAXPAPAXP$ADV?$AsyncOperationCompletedHandler@E@Foundation@Windows@@@Z 1005bc30 f i WinRTVFS.obj
 0002:0001dc90       ??$__abi_winrt_ptrto_delegate_assign@V?$AsyncOperationCompletedHandler@I@Foundation@Windows@@@@YAPAXPAPAXP$ADV?$AsyncOperationCompletedHandler@I@Foundation@Windows@@@Z 1005bc90 f i WinRTVFS.obj
 0002:0001dcf0       ??$__abi_winrt_ptrto_delegate_assign@V?$AsyncOperationCompletedHandler@P$AAUIBuffer@Streams@Storage@Windows@@@Foundation@Windows@@@@YAPAXPAPAXP$ADV?$AsyncOperationCompletedHandler@P$AAUIBuffer@Streams@Storage@Windows@@@Foundation@Windows@@@Z 1005bcf0 f i WinRTVFS.obj
 0002:0001dd50       ??$__abi_winrt_ptrto_delegate_ctor@V?$AsyncOperationCompletedHandler@E@Foundation@Windows@@@@YAPAXP$ADV?$AsyncOperationCompletedHandler@E@Foundation@Windows@@@Z 1005bd50 f i WinRTVFS.obj
 0002:0001dda0       ??$__abi_winrt_ptrto_delegate_ctor@V?$AsyncOperationCompletedHandler@I@Foundation@Windows@@@@YAPAXP$ADV?$AsyncOperationCompletedHandler@I@Foundation@Windows@@@Z 1005bda0 f i WinRTVFS.obj
 0002:0001ddf0       ??$__abi_winrt_ptrto_delegate_ctor@V?$AsyncOperationCompletedHandler@P$AAUIBuffer@Streams@Storage@Windows@@@Foundation@Windows@@@@YAPAXP$ADV?$AsyncOperationCompletedHandler@P$AAUIBuffer@Streams@Storage@Windows@@@Foundation@Windows@@@Z 1005bdf0 f i WinRTVFS.obj
 0002:0001de40       ??$__abi_winrt_ptrto_delegate_dtor@V?$AsyncOperationCompletedHandler@E@Foundation@Windows@@@@YAXP$ADV?$AsyncOperationCompletedHandler@E@Foundation@Windows@@@Z 1005be40 f i WinRTVFS.obj
 0002:0001de90       ??$__abi_winrt_ptrto_delegate_dtor@V?$AsyncOperationCompletedHandler@I@Foundation@Windows@@@@YAXP$ADV?$AsyncOperationCompletedHandler@I@Foundation@Windows@@@Z 1005be90 f i WinRTVFS.obj
 0002:0001dee0       ??$__abi_winrt_ptrto_delegate_dtor@V?$AsyncOperationCompletedHandler@P$AAUIBuffer@Streams@Storage@Windows@@@Foundation@Windows@@@@YAXP$ADV?$AsyncOperationCompletedHandler@P$AAUIBuffer@Streams@Storage@Windows@@@Foundation@Windows@@@Z 1005bee0 f i WinRTVFS.obj
 0002:0001df30       ??$__abi_winrt_ptrto_delegate_dtor@V?$AsyncOperationCompletedHandler@P$AAUIRandomAccessStream@Streams@Storage@Windows@@@Foundation@Windows@@@@YAXP$ADV?$AsyncOperationCompletedHandler@P$AAUIRandomAccessStream@Streams@Storage@Windows@@@Foundation@Windows@@@Z 1005bf30 f i WinRTVFS.obj
 0002:0001df80       ??$__abi_winrt_ptrto_delegate_dtor@V?$AsyncOperationCompletedHandler@P$AAVStorageFile@Storage@Windows@@@Foundation@Windows@@@@YAXP$ADV?$AsyncOperationCompletedHandler@P$AAVStorageFile@Storage@Windows@@@Foundation@Windows@@@Z 1005bf80 f i WinRTVFS.obj
 0002:0001dfd0       ??$__abi_winrt_ptrto_delegate_dtor@V?$AsyncOperationCompletedHandler@P$AAVStorageFolder@Storage@Windows@@@Foundation@Windows@@@@YAXP$ADV?$AsyncOperationCompletedHandler@P$AAVStorageFolder@Storage@Windows@@@Foundation@Windows@@@Z 1005bfd0 f i WinRTVFS.obj
 0002:0001e020       ??$__abi_winrt_ptrto_delegate_dtor@V?$AsyncOperationCompletedHandler@_N@Foundation@Windows@@@@YAXP$ADV?$AsyncOperationCompletedHandler@_N@Foundation@Windows@@@Z 1005c020 f i WinRTVFS.obj
 0002:0001e070       ??$__abi_winrt_ptrto_delegate_dtor@V?$AsyncOperationWithProgressCompletedHandler@II@Foundation@Windows@@@@YAXP$ADV?$AsyncOperationWithProgressCompletedHandler@II@Foundation@Windows@@@Z 1005c070 f i WinRTVFS.obj
 0002:0001e0c0       ??$__abi_winrt_ptrto_delegate_dtor@V?$AsyncOperationWithProgressCompletedHandler@P$AAUIBuffer@Streams@Storage@Windows@@I@Foundation@Windows@@@@YAXP$ADV?$AsyncOperationWithProgressCompletedHandler@P$AAUIBuffer@Streams@Storage@Windows@@I@Foundation@Windows@@@Z 1005c0c0 f i WinRTVFS.obj
 0002:0001e110       ??$__abi_winrt_ptrto_delegate_dtor@VAsyncActionCompletedHandler@Foundation@Windows@@@@YAXP$ADVAsyncActionCompletedHandler@Foundation@Windows@@@Z 1005c110 f i WinRTVFS.obj
 0002:0001e160       ??$__winrt_Empty_Struct@VHResult@Foundation@Windows@@@@YA?AVHResult@Foundation@Windows@@XZ 1005c160 f i WinRTVFS.obj
 0002:0001e210       ??$addressof@$$CBV?$shared_ptr@U?$_Task_impl@E@details@Concurrency@@@std@@@std@@YAPBV?$shared_ptr@U?$_Task_impl@E@details@Concurrency@@@0@ABV10@@Z 1005c210 f i WinRTVFS.obj
 0002:0001e250       ??$atomic_compare_exchange@J@details@Concurrency@@YAJAAU?$atomic@J@std@@JJ@Z 1005c250 f i WinRTVFS.obj
 0002:0001e310       ??$atomic_exchange@J@details@Concurrency@@YAJAAU?$atomic@J@std@@J@Z 1005c310 f i WinRTVFS.obj
 0002:0001e360       ??$construct@U_Container_proxy@std@@U12@@?$_Wrap_alloc@V?$allocator@U_Container_proxy@std@@@std@@@std@@QAEXPAU_Container_proxy@1@$$QAU21@@Z 1005c360 f i WinRTVFS.obj
 0002:0001e3d0       ??$construct@U_Container_proxy@std@@U12@@?$allocator_traits@V?$allocator@U_Container_proxy@std@@@std@@@std@@SAXAAV?$allocator@U_Container_proxy@std@@@1@PAU_Container_proxy@1@$$QAU31@@Z 1005c3d0 f i WinRTVFS.obj
 0002:0001e430       ??$construct@V?$shared_ptr@U?$_Task_impl@E@details@Concurrency@@@std@@AAV12@@?$_Wrap_alloc@V?$allocator@V?$shared_ptr@U?$_Task_impl@E@details@Concurrency@@@std@@@std@@@std@@QAEXPAV?$shared_ptr@U?$_Task_impl@E@details@Concurrency@@@1@AAV21@@Z 1005c430 f i WinRTVFS.obj
 0002:0001e4a0       ??$construct@V?$shared_ptr@U?$_Task_impl@E@details@Concurrency@@@std@@AAV12@@?$allocator@V?$shared_ptr@U?$_Task_impl@E@details@Concurrency@@@std@@@std@@QAEXPAV?$shared_ptr@U?$_Task_impl@E@details@Concurrency@@@1@AAV21@@Z 1005c4a0 f i WinRTVFS.obj
 0002:0001e5a0       ??$construct@V?$shared_ptr@U?$_Task_impl@E@details@Concurrency@@@std@@AAV12@@?$allocator_traits@V?$allocator@V?$shared_ptr@U?$_Task_impl@E@details@Concurrency@@@std@@@std@@@std@@SAXAAV?$allocator@V?$shared_ptr@U?$_Task_impl@E@details@Concurrency@@@std@@@1@PAV?$shared_ptr@U?$_Task_impl@E@details@Concurrency@@@1@AAV31@@Z 1005c5a0 f i WinRTVFS.obj
 0002:0001e600       ??$construct@V?$shared_ptr@U?$_Task_impl@E@details@Concurrency@@@std@@ABV12@@?$_Wrap_alloc@V?$allocator@V?$shared_ptr@U?$_Task_impl@E@details@Concurrency@@@std@@@std@@@std@@QAEXPAV?$shared_ptr@U?$_Task_impl@E@details@Concurrency@@@1@ABV21@@Z 1005c600 f i WinRTVFS.obj
 0002:0001e670       ??$construct@V?$shared_ptr@U?$_Task_impl@E@details@Concurrency@@@std@@ABV12@@?$allocator_traits@V?$allocator@V?$shared_ptr@U?$_Task_impl@E@details@Concurrency@@@std@@@std@@@std@@SAXAAV?$allocator@V?$shared_ptr@U?$_Task_impl@E@details@Concurrency@@@std@@@1@PAV?$shared_ptr@U?$_Task_impl@E@details@Concurrency@@@1@ABV31@@Z 1005c670 f i WinRTVFS.obj
 0002:0001e6d0       ??$construct@V?$shared_ptr@U?$_Task_impl@E@details@Concurrency@@@std@@V12@@?$_Wrap_alloc@V?$allocator@V?$shared_ptr@U?$_Task_impl@E@details@Concurrency@@@std@@@std@@@std@@QAEXPAV?$shared_ptr@U?$_Task_impl@E@details@Concurrency@@@1@$$QAV21@@Z 1005c6d0 f i WinRTVFS.obj
 0002:0001e740       ??$construct@V?$shared_ptr@U?$_Task_impl@E@details@Concurrency@@@std@@V12@@?$allocator@V?$shared_ptr@U?$_Task_impl@E@details@Concurrency@@@std@@@std@@QAEXPAV?$shared_ptr@U?$_Task_impl@E@details@Concurrency@@@1@$$QAV21@@Z 1005c740 f i WinRTVFS.obj
 0002:0001e840       ??$construct@V?$shared_ptr@U?$_Task_impl@E@details@Concurrency@@@std@@V12@@?$allocator_traits@V?$allocator@V?$shared_ptr@U?$_Task_impl@E@details@Concurrency@@@std@@@std@@@std@@SAXAAV?$allocator@V?$shared_ptr@U?$_Task_impl@E@details@Concurrency@@@std@@@1@PAV?$shared_ptr@U?$_Task_impl@E@details@Concurrency@@@1@$$QAV31@@Z 1005c840 f i WinRTVFS.obj
 0002:0001e8a0       ??$create_task@P$AAU?$IAsyncOperation@P$AAUIRandomAccessStream@Streams@Storage@Windows@@@Foundation@Windows@@@Concurrency@@YA?AV?$task@P$AAUIRandomAccessStream@Streams@Storage@Windows@@@0@P$AAU?$IAsyncOperation@P$AAUIRandomAccessStream@Streams@Storage@Windows@@@Foundation@Windows@@Vtask_options@0@@Z 1005c8a0 f i WinRTVFS.obj
 0002:0001ea50       ??$create_task@P$AAU?$IAsyncOperation@P$AAVStorageFile@Storage@Windows@@@Foundation@Windows@@@Concurrency@@YA?AV?$task@P$AAVStorageFile@Storage@Windows@@@0@P$AAU?$IAsyncOperation@P$AAVStorageFile@Storage@Windows@@@Foundation@Windows@@Vtask_options@0@@Z 1005ca50 f i WinRTVFS.obj
 0002:0001ec00       ??$create_task@P$AAU?$IAsyncOperation@P$AAVStorageFolder@Storage@Windows@@@Foundation@Windows@@@Concurrency@@YA?AV?$task@P$AAVStorageFolder@Storage@Windows@@@0@P$AAU?$IAsyncOperation@P$AAVStorageFolder@Storage@Windows@@@Foundation@Windows@@Vtask_options@0@@Z 1005cc00 f i WinRTVFS.obj
 0002:0001edb0       ??$create_task@P$AAU?$IAsyncOperation@_N@Foundation@Windows@@@Concurrency@@YA?AV?$task@_N@0@P$AAU?$IAsyncOperation@_N@Foundation@Windows@@Vtask_options@0@@Z 1005cdb0 f i WinRTVFS.obj
 0002:0001ef60       ??$create_task@P$AAU?$IAsyncOperationWithProgress@II@Foundation@Windows@@@Concurrency@@YA?AV?$task@I@0@P$AAU?$IAsyncOperationWithProgress@II@Foundation@Windows@@Vtask_options@0@@Z 1005cf60 f i WinRTVFS.obj
 0002:0001f110       ??$create_task@P$AAU?$IAsyncOperationWithProgress@P$AAUIBuffer@Streams@Storage@Windows@@I@Foundation@Windows@@@Concurrency@@YA?AV?$task@P$AAUIBuffer@Streams@Storage@Windows@@@0@P$AAU?$IAsyncOperationWithProgress@P$AAUIBuffer@Streams@Storage@Windows@@I@Foundation@Windows@@Vtask_options@0@@Z 1005d110 f i WinRTVFS.obj
 0002:0001f2c0       ??$create_task@P$AAUIAsyncAction@Foundation@Windows@@@Concurrency@@YA?AV?$task@X@0@P$AAUIAsyncAction@Foundation@Windows@@Vtask_options@0@@Z 1005d2c0 f i WinRTVFS.obj
 0002:0001f470       ??$destroy@U_Container_proxy@std@@@?$_Wrap_alloc@V?$allocator@U_Container_proxy@std@@@std@@@std@@QAEXPAU_Container_proxy@1@@Z 1005d470 f i WinRTVFS.obj
 0002:0001f4d0       ??$destroy@U_Container_proxy@std@@@?$allocator_traits@V?$allocator@U_Container_proxy@std@@@std@@@std@@SAXAAV?$allocator@U_Container_proxy@std@@@1@PAU_Container_proxy@1@@Z 1005d4d0 f i WinRTVFS.obj
 0002:0001f520       ??$destroy@V?$_Func_impl@U?$_Callable_obj@V<lambda_02d862f9cfc639ff7c37ca52d43e6a8c>@@$0A@@std@@V?$allocator@V?$_Func_class@X$$$V@std@@@2@X$$$V@std@@@?$allocator@V?$_Func_impl@U?$_Callable_obj@V<lambda_02d862f9cfc639ff7c37ca52d43e6a8c>@@$0A@@std@@V?$allocator@V?$_Func_class@X$$$V@std@@@2@X$$$V@std@@@std@@QAEXPAV?$_Func_impl@U?$_Callable_obj@V<lambda_02d862f9cfc639ff7c37ca52d43e6a8c>@@$0A@@std@@V?$allocator@V?$_Func_class@X$$$V@std@@@2@X$$$V@1@@Z 1005d520 f i WinRTVFS.obj
 0002:0001f590       ??$destroy@V?$_Func_impl@U?$_Callable_obj@V<lambda_095a938ce4c5765dcc6b67f548aeb9c7>@@$0A@@std@@V?$allocator@V?$_Func_class@X$$$V@std@@@2@X$$$V@std@@@?$allocator@V?$_Func_impl@U?$_Callable_obj@V<lambda_095a938ce4c5765dcc6b67f548aeb9c7>@@$0A@@std@@V?$allocator@V?$_Func_class@X$$$V@std@@@2@X$$$V@std@@@std@@QAEXPAV?$_Func_impl@U?$_Callable_obj@V<lambda_095a938ce4c5765dcc6b67f548aeb9c7>@@$0A@@std@@V?$allocator@V?$_Func_class@X$$$V@std@@@2@X$$$V@1@@Z 1005d590 f i WinRTVFS.obj
 0002:0001f600       ??$destroy@V?$_Func_impl@U?$_Callable_obj@V<lambda_0b7f78ec4ced38495cec46e0d346e0b9>@@$0A@@std@@V?$allocator@V?$_Func_class@X$$$V@std@@@2@X$$$V@std@@@?$allocator@V?$_Func_impl@U?$_Callable_obj@V<lambda_0b7f78ec4ced38495cec46e0d346e0b9>@@$0A@@std@@V?$allocator@V?$_Func_class@X$$$V@std@@@2@X$$$V@std@@@std@@QAEXPAV?$_Func_impl@U?$_Callable_obj@V<lambda_0b7f78ec4ced38495cec46e0d346e0b9>@@$0A@@std@@V?$allocator@V?$_Func_class@X$$$V@std@@@2@X$$$V@1@@Z 1005d600 f i WinRTVFS.obj
 0002:0001f670       ??$destroy@V?$_Func_impl@U?$_Callable_obj@V<lambda_0fe479da16d43edb8e9a254c493d643e>@@$0A@@std@@V?$allocator@V?$_Func_class@X$$$V@std@@@2@X$$$V@std@@@?$allocator@V?$_Func_impl@U?$_Callable_obj@V<lambda_0fe479da16d43edb8e9a254c493d643e>@@$0A@@std@@V?$allocator@V?$_Func_class@X$$$V@std@@@2@X$$$V@std@@@std@@QAEXPAV?$_Func_impl@U?$_Callable_obj@V<lambda_0fe479da16d43edb8e9a254c493d643e>@@$0A@@std@@V?$allocator@V?$_Func_class@X$$$V@std@@@2@X$$$V@1@@Z 1005d670 f i WinRTVFS.obj
 0002:0001f6e0       ??$destroy@V?$_Func_impl@U?$_Callable_obj@V<lambda_1a93da980d6fe77644a4eefc4e1ad756>@@$0A@@std@@V?$allocator@V?$_Func_class@XABH@std@@@2@XABH@std@@@?$allocator@V?$_Func_impl@U?$_Callable_obj@V<lambda_1a93da980d6fe77644a4eefc4e1ad756>@@$0A@@std@@V?$allocator@V?$_Func_class@XABH@std@@@2@XABH@std@@@std@@QAEXPAV?$_Func_impl@U?$_Callable_obj@V<lambda_1a93da980d6fe77644a4eefc4e1ad756>@@$0A@@std@@V?$allocator@V?$_Func_class@XABH@std@@@2@XABH@1@@Z 1005d6e0 f i WinRTVFS.obj
 0002:0001f750       ??$destroy@V?$_Func_impl@U?$_Callable_obj@V<lambda_295bc5f846209cba149a5e74d0d63a72>@@$0A@@std@@V?$allocator@V?$_Func_class@XPAV?$message@H@Concurrency@@@std@@@2@XPAV?$message@H@Concurrency@@@std@@@?$allocator@V?$_Func_impl@U?$_Callable_obj@V<lambda_295bc5f846209cba149a5e74d0d63a72>@@$0A@@std@@V?$allocator@V?$_Func_class@XPAV?$message@H@Concurrency@@@std@@@2@XPAV?$message@H@Concurrency@@@std@@@std@@QAEXPAV?$_Func_impl@U?$_Callable_obj@V<lambda_295bc5f846209cba149a5e74d0d63a72>@@$0A@@std@@V?$allocator@V?$_Func_class@XPAV?$message@H@Concurrency@@@std@@@2@XPAV?$message@H@Concurrency@@@1@@Z 1005d750 f i WinRTVFS.obj
 0002:0001f7c0       ??$destroy@V?$_Func_impl@U?$_Callable_obj@V<lambda_364e75aa895e992ae8821732ca646aa2>@@$0A@@std@@V?$allocator@V?$_Func_class@X$$$V@std@@@2@X$$$V@std@@@?$allocator@V?$_Func_impl@U?$_Callable_obj@V<lambda_364e75aa895e992ae8821732ca646aa2>@@$0A@@std@@V?$allocator@V?$_Func_class@X$$$V@std@@@2@X$$$V@std@@@std@@QAEXPAV?$_Func_impl@U?$_Callable_obj@V<lambda_364e75aa895e992ae8821732ca646aa2>@@$0A@@std@@V?$allocator@V?$_Func_class@X$$$V@std@@@2@X$$$V@1@@Z 1005d7c0 f i WinRTVFS.obj
 0002:0001f830       ??$destroy@V?$_Func_impl@U?$_Callable_obj@V<lambda_39cde079c01d1b5b9307ff255a1ccdd9>@@$0A@@std@@V?$allocator@V?$_Func_class@EE@std@@@2@EE@std@@@?$allocator@V?$_Func_impl@U?$_Callable_obj@V<lambda_39cde079c01d1b5b9307ff255a1ccdd9>@@$0A@@std@@V?$allocator@V?$_Func_class@EE@std@@@2@EE@std@@@std@@QAEXPAV?$_Func_impl@U?$_Callable_obj@V<lambda_39cde079c01d1b5b9307ff255a1ccdd9>@@$0A@@std@@V?$allocator@V?$_Func_class@EE@std@@@2@EE@1@@Z 1005d830 f i WinRTVFS.obj
 0002:0001f8a0       ??$destroy@V?$_Func_impl@U?$_Callable_obj@V<lambda_528650821c608ced6534641e311542a5>@@$0A@@std@@V?$allocator@V?$_Func_class@X$$$V@std@@@2@X$$$V@std@@@?$allocator@V?$_Func_impl@U?$_Callable_obj@V<lambda_528650821c608ced6534641e311542a5>@@$0A@@std@@V?$allocator@V?$_Func_class@X$$$V@std@@@2@X$$$V@std@@@std@@QAEXPAV?$_Func_impl@U?$_Callable_obj@V<lambda_528650821c608ced6534641e311542a5>@@$0A@@std@@V?$allocator@V?$_Func_class@X$$$V@std@@@2@X$$$V@1@@Z 1005d8a0 f i WinRTVFS.obj
 0002:0001f910       ??$destroy@V?$_Func_impl@U?$_Callable_obj@V<lambda_579ccd68d569251046038e8620afec85>@@$0A@@std@@V?$allocator@V?$_Func_class@XPAV?$message@H@Concurrency@@@std@@@2@XPAV?$message@H@Concurrency@@@std@@@?$allocator@V?$_Func_impl@U?$_Callable_obj@V<lambda_579ccd68d569251046038e8620afec85>@@$0A@@std@@V?$allocator@V?$_Func_class@XPAV?$message@H@Concurrency@@@std@@@2@XPAV?$message@H@Concurrency@@@std@@@std@@QAEXPAV?$_Func_impl@U?$_Callable_obj@V<lambda_579ccd68d569251046038e8620afec85>@@$0A@@std@@V?$allocator@V?$_Func_class@XPAV?$message@H@Concurrency@@@std@@@2@XPAV?$message@H@Concurrency@@@1@@Z 1005d910 f i WinRTVFS.obj
 0002:0001f980       ??$destroy@V?$_Func_impl@U?$_Callable_obj@V<lambda_9fc58f08a03183e50e06176727aeb396>@@$0A@@std@@V?$allocator@V?$_Func_class@X$$$V@std@@@2@X$$$V@std@@@?$allocator@V?$_Func_impl@U?$_Callable_obj@V<lambda_9fc58f08a03183e50e06176727aeb396>@@$0A@@std@@V?$allocator@V?$_Func_class@X$$$V@std@@@2@X$$$V@std@@@std@@QAEXPAV?$_Func_impl@U?$_Callable_obj@V<lambda_9fc58f08a03183e50e06176727aeb396>@@$0A@@std@@V?$allocator@V?$_Func_class@X$$$V@std@@@2@X$$$V@1@@Z 1005d980 f i WinRTVFS.obj
 0002:0001f9f0       ??$destroy@V?$_Func_impl@U?$_Callable_obj@V<lambda_a66b3ee15e662226a0b0b15ae647d32f>@@$0A@@std@@V?$allocator@V?$_Func_class@X$$$V@std@@@2@X$$$V@std@@@?$allocator@V?$_Func_impl@U?$_Callable_obj@V<lambda_a66b3ee15e662226a0b0b15ae647d32f>@@$0A@@std@@V?$allocator@V?$_Func_class@X$$$V@std@@@2@X$$$V@std@@@std@@QAEXPAV?$_Func_impl@U?$_Callable_obj@V<lambda_a66b3ee15e662226a0b0b15ae647d32f>@@$0A@@std@@V?$allocator@V?$_Func_class@X$$$V@std@@@2@X$$$V@1@@Z 1005d9f0 f i WinRTVFS.obj
 0002:0001fa60       ??$destroy@V?$_Func_impl@U?$_Callable_obj@V<lambda_c1a554f2383dae03f169289aed8c4103>@@$0A@@std@@V?$allocator@V?$_Func_class@X$$$V@std@@@2@X$$$V@std@@@?$allocator@V?$_Func_impl@U?$_Callable_obj@V<lambda_c1a554f2383dae03f169289aed8c4103>@@$0A@@std@@V?$allocator@V?$_Func_class@X$$$V@std@@@2@X$$$V@std@@@std@@QAEXPAV?$_Func_impl@U?$_Callable_obj@V<lambda_c1a554f2383dae03f169289aed8c4103>@@$0A@@std@@V?$allocator@V?$_Func_class@X$$$V@std@@@2@X$$$V@1@@Z 1005da60 f i WinRTVFS.obj
 0002:0001fad0       ??$destroy@V?$_Func_impl@U?$_Callable_obj@V<lambda_c28a53003ed51cdfe295a7d756f98c2f>@@$0A@@std@@V?$allocator@V?$_Func_class@XPAV?$message@H@Concurrency@@@std@@@2@XPAV?$message@H@Concurrency@@@std@@@?$allocator@V?$_Func_impl@U?$_Callable_obj@V<lambda_c28a53003ed51cdfe295a7d756f98c2f>@@$0A@@std@@V?$allocator@V?$_Func_class@XPAV?$message@H@Concurrency@@@std@@@2@XPAV?$message@H@Concurrency@@@std@@@std@@QAEXPAV?$_Func_impl@U?$_Callable_obj@V<lambda_c28a53003ed51cdfe295a7d756f98c2f>@@$0A@@std@@V?$allocator@V?$_Func_class@XPAV?$message@H@Concurrency@@@std@@@2@XPAV?$message@H@Concurrency@@@1@@Z 1005dad0 f i WinRTVFS.obj
 0002:0001fb40       ??$destroy@V?$_Func_impl@U?$_Callable_obj@V<lambda_e7ef5f1e4e1eca0ae8efc6086cf9f417>@@$0A@@std@@V?$allocator@V?$_Func_class@X$$$V@std@@@2@X$$$V@std@@@?$allocator@V?$_Func_impl@U?$_Callable_obj@V<lambda_e7ef5f1e4e1eca0ae8efc6086cf9f417>@@$0A@@std@@V?$allocator@V?$_Func_class@X$$$V@std@@@2@X$$$V@std@@@std@@QAEXPAV?$_Func_impl@U?$_Callable_obj@V<lambda_e7ef5f1e4e1eca0ae8efc6086cf9f417>@@$0A@@std@@V?$allocator@V?$_Func_class@X$$$V@std@@@2@X$$$V@1@@Z 1005db40 f i WinRTVFS.obj
 0002:0001fbb0       ??$destroy@V?$shared_ptr@U?$_Task_impl@E@details@Concurrency@@@std@@@?$_Wrap_alloc@V?$allocator@V?$shared_ptr@U?$_Task_impl@E@details@Concurrency@@@std@@@std@@@std@@QAEXPAV?$shared_ptr@U?$_Task_impl@E@details@Concurrency@@@1@@Z 1005dbb0 f i WinRTVFS.obj
 0002:0001fc10       ??$destroy@V?$shared_ptr@U?$_Task_impl@E@details@Concurrency@@@std@@@?$allocator@V?$shared_ptr@U?$_Task_impl@E@details@Concurrency@@@std@@@std@@QAEXPAV?$shared_ptr@U?$_Task_impl@E@details@Concurrency@@@1@@Z 1005dc10 f i WinRTVFS.obj
 0002:0001fc70       ??$destroy@V?$shared_ptr@U?$_Task_impl@E@details@Concurrency@@@std@@@?$allocator_traits@V?$allocator@V?$shared_ptr@U?$_Task_impl@E@details@Concurrency@@@std@@@std@@@std@@SAXAAV?$allocator@V?$shared_ptr@U?$_Task_impl@E@details@Concurrency@@@std@@@1@PAV?$shared_ptr@U?$_Task_impl@E@details@Concurrency@@@1@@Z 1005dc70 f i WinRTVFS.obj
 0002:0001fcc0       ??$forward@AAP$AAVException@Platform@@@std@@YAAAP$AAVException@Platform@@AAP$AAV12@@Z 1005dcc0 f i WinRTVFS.obj
 0002:0001fd00       ??$forward@AAPAV_CancellationTokenState@details@Concurrency@@@std@@YAAAPAV_CancellationTokenState@details@Concurrency@@AAPAV123@@Z 1005dd00 f i WinRTVFS.obj
 0002:0001fd40       ??$forward@AAU?$_Callable_obj@V<lambda_02d862f9cfc639ff7c37ca52d43e6a8c>@@$0A@@std@@@std@@YAAAU?$_Callable_obj@V<lambda_02d862f9cfc639ff7c37ca52d43e6a8c>@@$0A@@0@AAU10@@Z 1005dd40 f i WinRTVFS.obj
 0002:0001fd80       ??$forward@AAU?$_Callable_obj@V<lambda_095a938ce4c5765dcc6b67f548aeb9c7>@@$0A@@std@@@std@@YAAAU?$_Callable_obj@V<lambda_095a938ce4c5765dcc6b67f548aeb9c7>@@$0A@@0@AAU10@@Z 1005dd80 f i WinRTVFS.obj
 0002:0001fdc0       ??$forward@AAU?$_Callable_obj@V<lambda_0b7f78ec4ced38495cec46e0d346e0b9>@@$0A@@std@@@std@@YAAAU?$_Callable_obj@V<lambda_0b7f78ec4ced38495cec46e0d346e0b9>@@$0A@@0@AAU10@@Z 1005ddc0 f i WinRTVFS.obj
 0002:0001fe00       ??$forward@AAU?$_Callable_obj@V<lambda_0fe479da16d43edb8e9a254c493d643e>@@$0A@@std@@@std@@YAAAU?$_Callable_obj@V<lambda_0fe479da16d43edb8e9a254c493d643e>@@$0A@@0@AAU10@@Z 1005de00 f i WinRTVFS.obj
 0002:0001fe40       ??$forward@AAU?$_Callable_obj@V<lambda_1a93da980d6fe77644a4eefc4e1ad756>@@$0A@@std@@@std@@YAAAU?$_Callable_obj@V<lambda_1a93da980d6fe77644a4eefc4e1ad756>@@$0A@@0@AAU10@@Z 1005de40 f i WinRTVFS.obj
 0002:0001fe80       ??$forward@AAU?$_Callable_obj@V<lambda_295bc5f846209cba149a5e74d0d63a72>@@$0A@@std@@@std@@YAAAU?$_Callable_obj@V<lambda_295bc5f846209cba149a5e74d0d63a72>@@$0A@@0@AAU10@@Z 1005de80 f i WinRTVFS.obj
 0002:0001fec0       ??$forward@AAU?$_Callable_obj@V<lambda_364e75aa895e992ae8821732ca646aa2>@@$0A@@std@@@std@@YAAAU?$_Callable_obj@V<lambda_364e75aa895e992ae8821732ca646aa2>@@$0A@@0@AAU10@@Z 1005dec0 f i WinRTVFS.obj
 0002:0001ff00       ??$forward@AAU?$_Callable_obj@V<lambda_39cde079c01d1b5b9307ff255a1ccdd9>@@$0A@@std@@@std@@YAAAU?$_Callable_obj@V<lambda_39cde079c01d1b5b9307ff255a1ccdd9>@@$0A@@0@AAU10@@Z 1005df00 f i WinRTVFS.obj
 0002:0001ff40       ??$forward@AAU?$_Callable_obj@V<lambda_528650821c608ced6534641e311542a5>@@$0A@@std@@@std@@YAAAU?$_Callable_obj@V<lambda_528650821c608ced6534641e311542a5>@@$0A@@0@AAU10@@Z 1005df40 f i WinRTVFS.obj
 0002:0001ff80       ??$forward@AAU?$_Callable_obj@V<lambda_579ccd68d569251046038e8620afec85>@@$0A@@std@@@std@@YAAAU?$_Callable_obj@V<lambda_579ccd68d569251046038e8620afec85>@@$0A@@0@AAU10@@Z 1005df80 f i WinRTVFS.obj
 0002:0001ffc0       ??$forward@AAU?$_Callable_obj@V<lambda_9fc58f08a03183e50e06176727aeb396>@@$0A@@std@@@std@@YAAAU?$_Callable_obj@V<lambda_9fc58f08a03183e50e06176727aeb396>@@$0A@@0@AAU10@@Z 1005dfc0 f i WinRTVFS.obj
 0002:00020000       ??$forward@AAU?$_Callable_obj@V<lambda_a66b3ee15e662226a0b0b15ae647d32f>@@$0A@@std@@@std@@YAAAU?$_Callable_obj@V<lambda_a66b3ee15e662226a0b0b15ae647d32f>@@$0A@@0@AAU10@@Z 1005e000 f i WinRTVFS.obj
 0002:00020040       ??$forward@AAU?$_Callable_obj@V<lambda_c1a554f2383dae03f169289aed8c4103>@@$0A@@std@@@std@@YAAAU?$_Callable_obj@V<lambda_c1a554f2383dae03f169289aed8c4103>@@$0A@@0@AAU10@@Z 1005e040 f i WinRTVFS.obj
 0002:00020080       ??$forward@AAU?$_Callable_obj@V<lambda_c28a53003ed51cdfe295a7d756f98c2f>@@$0A@@std@@@std@@YAAAU?$_Callable_obj@V<lambda_c28a53003ed51cdfe295a7d756f98c2f>@@$0A@@0@AAU10@@Z 1005e080 f i WinRTVFS.obj
 0002:000200c0       ??$forward@AAU?$_Callable_obj@V<lambda_e7ef5f1e4e1eca0ae8efc6086cf9f417>@@$0A@@std@@@std@@YAAAU?$_Callable_obj@V<lambda_e7ef5f1e4e1eca0ae8efc6086cf9f417>@@$0A@@0@AAU10@@Z 1005e0c0 f i WinRTVFS.obj
 0002:00020100       ??$forward@AAUscheduler_ptr@Concurrency@@@std@@YAAAUscheduler_ptr@Concurrency@@AAU12@@Z 1005e100 f i WinRTVFS.obj
 0002:00020140       ??$forward@AAV?$shared_ptr@U?$_Task_impl@E@details@Concurrency@@@std@@@std@@YAAAV?$shared_ptr@U?$_Task_impl@E@details@Concurrency@@@0@AAV10@@Z 1005e140 f i WinRTVFS.obj
 0002:00020180       ??$forward@ABH@std@@YAABHABH@Z 1005e180 f i WinRTVFS.obj
 0002:000201c0       ??$forward@ABV<lambda_9fc58f08a03183e50e06176727aeb396>@@@std@@YAABV<lambda_9fc58f08a03183e50e06176727aeb396>@@ABV1@@Z 1005e1c0 f i WinRTVFS.obj
 0002:00020200       ??$forward@ABV?$shared_ptr@U?$_Task_impl@E@details@Concurrency@@@std@@@std@@YAABV?$shared_ptr@U?$_Task_impl@E@details@Concurrency@@@0@ABV10@@Z 1005e200 f i WinRTVFS.obj
 0002:00020240       ??$forward@ABVexception_ptr@std@@@std@@YAABVexception_ptr@0@ABV10@@Z 1005e240 f i WinRTVFS.obj
 0002:00020280       ??$forward@E@std@@YA$$QAEAAE@Z 1005e280 f i WinRTVFS.obj
 0002:000202c0       ??$forward@PAV?$message@H@Concurrency@@@std@@YA$$QAPAV?$message@H@Concurrency@@AAPAV12@@Z 1005e2c0 f i WinRTVFS.obj
 0002:00020300       ??$forward@U?$_Callable_obj@V<lambda_02d862f9cfc639ff7c37ca52d43e6a8c>@@$0A@@std@@@std@@YA$$QAU?$_Callable_obj@V<lambda_02d862f9cfc639ff7c37ca52d43e6a8c>@@$0A@@0@AAU10@@Z 1005e300 f i WinRTVFS.obj
 0002:00020340       ??$forward@U?$_Callable_obj@V<lambda_095a938ce4c5765dcc6b67f548aeb9c7>@@$0A@@std@@@std@@YA$$QAU?$_Callable_obj@V<lambda_095a938ce4c5765dcc6b67f548aeb9c7>@@$0A@@0@AAU10@@Z 1005e340 f i WinRTVFS.obj
 0002:00020380       ??$forward@U?$_Callable_obj@V<lambda_0b7f78ec4ced38495cec46e0d346e0b9>@@$0A@@std@@@std@@YA$$QAU?$_Callable_obj@V<lambda_0b7f78ec4ced38495cec46e0d346e0b9>@@$0A@@0@AAU10@@Z 1005e380 f i WinRTVFS.obj
 0002:000203c0       ??$forward@U?$_Callable_obj@V<lambda_0fe479da16d43edb8e9a254c493d643e>@@$0A@@std@@@std@@YA$$QAU?$_Callable_obj@V<lambda_0fe479da16d43edb8e9a254c493d643e>@@$0A@@0@AAU10@@Z 1005e3c0 f i WinRTVFS.obj
 0002:00020400       ??$forward@U?$_Callable_obj@V<lambda_1a93da980d6fe77644a4eefc4e1ad756>@@$0A@@std@@@std@@YA$$QAU?$_Callable_obj@V<lambda_1a93da980d6fe77644a4eefc4e1ad756>@@$0A@@0@AAU10@@Z 1005e400 f i WinRTVFS.obj
 0002:00020440       ??$forward@U?$_Callable_obj@V<lambda_295bc5f846209cba149a5e74d0d63a72>@@$0A@@std@@@std@@YA$$QAU?$_Callable_obj@V<lambda_295bc5f846209cba149a5e74d0d63a72>@@$0A@@0@AAU10@@Z 1005e440 f i WinRTVFS.obj
 0002:00020480       ??$forward@U?$_Callable_obj@V<lambda_364e75aa895e992ae8821732ca646aa2>@@$0A@@std@@@std@@YA$$QAU?$_Callable_obj@V<lambda_364e75aa895e992ae8821732ca646aa2>@@$0A@@0@AAU10@@Z 1005e480 f i WinRTVFS.obj
 0002:000204c0       ??$forward@U?$_Callable_obj@V<lambda_39cde079c01d1b5b9307ff255a1ccdd9>@@$0A@@std@@@std@@YA$$QAU?$_Callable_obj@V<lambda_39cde079c01d1b5b9307ff255a1ccdd9>@@$0A@@0@AAU10@@Z 1005e4c0 f i WinRTVFS.obj
 0002:00020500       ??$forward@U?$_Callable_obj@V<lambda_528650821c608ced6534641e311542a5>@@$0A@@std@@@std@@YA$$QAU?$_Callable_obj@V<lambda_528650821c608ced6534641e311542a5>@@$0A@@0@AAU10@@Z 1005e500 f i WinRTVFS.obj
 0002:00020540       ??$forward@U?$_Callable_obj@V<lambda_579ccd68d569251046038e8620afec85>@@$0A@@std@@@std@@YA$$QAU?$_Callable_obj@V<lambda_579ccd68d569251046038e8620afec85>@@$0A@@0@AAU10@@Z 1005e540 f i WinRTVFS.obj
 0002:00020580       ??$forward@U?$_Callable_obj@V<lambda_9fc58f08a03183e50e06176727aeb396>@@$0A@@std@@@std@@YA$$QAU?$_Callable_obj@V<lambda_9fc58f08a03183e50e06176727aeb396>@@$0A@@0@AAU10@@Z 1005e580 f i WinRTVFS.obj
 0002:000205c0       ??$forward@U?$_Callable_obj@V<lambda_a66b3ee15e662226a0b0b15ae647d32f>@@$0A@@std@@@std@@YA$$QAU?$_Callable_obj@V<lambda_a66b3ee15e662226a0b0b15ae647d32f>@@$0A@@0@AAU10@@Z 1005e5c0 f i WinRTVFS.obj
 0002:00020600       ??$forward@U?$_Callable_obj@V<lambda_c1a554f2383dae03f169289aed8c4103>@@$0A@@std@@@std@@YA$$QAU?$_Callable_obj@V<lambda_c1a554f2383dae03f169289aed8c4103>@@$0A@@0@AAU10@@Z 1005e600 f i WinRTVFS.obj
 0002:00020640       ??$forward@U?$_Callable_obj@V<lambda_c28a53003ed51cdfe295a7d756f98c2f>@@$0A@@std@@@std@@YA$$QAU?$_Callable_obj@V<lambda_c28a53003ed51cdfe295a7d756f98c2f>@@$0A@@0@AAU10@@Z 1005e640 f i WinRTVFS.obj
 0002:00020680       ??$forward@U?$_Callable_obj@V<lambda_e7ef5f1e4e1eca0ae8efc6086cf9f417>@@$0A@@std@@@std@@YA$$QAU?$_Callable_obj@V<lambda_e7ef5f1e4e1eca0ae8efc6086cf9f417>@@$0A@@0@AAU10@@Z 1005e680 f i WinRTVFS.obj
 0002:000206c0       ??$forward@V<lambda_02d862f9cfc639ff7c37ca52d43e6a8c>@@@std@@YA$$QAV<lambda_02d862f9cfc639ff7c37ca52d43e6a8c>@@AAV1@@Z 1005e6c0 f i WinRTVFS.obj
 0002:00020700       ??$forward@V<lambda_095a938ce4c5765dcc6b67f548aeb9c7>@@@std@@YA$$QAV<lambda_095a938ce4c5765dcc6b67f548aeb9c7>@@AAV1@@Z 1005e700 f i WinRTVFS.obj
 0002:00020740       ??$forward@V<lambda_0b7f78ec4ced38495cec46e0d346e0b9>@@@std@@YA$$QAV<lambda_0b7f78ec4ced38495cec46e0d346e0b9>@@AAV1@@Z 1005e740 f i WinRTVFS.obj
 0002:00020780       ??$forward@V<lambda_0fe479da16d43edb8e9a254c493d643e>@@@std@@YA$$QAV<lambda_0fe479da16d43edb8e9a254c493d643e>@@AAV1@@Z 1005e780 f i WinRTVFS.obj
 0002:000207c0       ??$forward@V<lambda_1a93da980d6fe77644a4eefc4e1ad756>@@@std@@YA$$QAV<lambda_1a93da980d6fe77644a4eefc4e1ad756>@@AAV1@@Z 1005e7c0 f i WinRTVFS.obj
 0002:00020800       ??$forward@V<lambda_295bc5f846209cba149a5e74d0d63a72>@@@std@@YA$$QAV<lambda_295bc5f846209cba149a5e74d0d63a72>@@AAV1@@Z 1005e800 f i WinRTVFS.obj
 0002:00020840       ??$forward@V<lambda_364e75aa895e992ae8821732ca646aa2>@@@std@@YA$$QAV<lambda_364e75aa895e992ae8821732ca646aa2>@@AAV1@@Z 1005e840 f i WinRTVFS.obj
 0002:00020880       ??$forward@V<lambda_39cde079c01d1b5b9307ff255a1ccdd9>@@@std@@YA$$QAV<lambda_39cde079c01d1b5b9307ff255a1ccdd9>@@AAV1@@Z 1005e880 f i WinRTVFS.obj
 0002:000208c0       ??$forward@V<lambda_528650821c608ced6534641e311542a5>@@@std@@YA$$QAV<lambda_528650821c608ced6534641e311542a5>@@AAV1@@Z 1005e8c0 f i WinRTVFS.obj
 0002:00020900       ??$forward@V<lambda_579ccd68d569251046038e8620afec85>@@@std@@YA$$QAV<lambda_579ccd68d569251046038e8620afec85>@@AAV1@@Z 1005e900 f i WinRTVFS.obj
 0002:00020940       ??$forward@V<lambda_a66b3ee15e662226a0b0b15ae647d32f>@@@std@@YA$$QAV<lambda_a66b3ee15e662226a0b0b15ae647d32f>@@AAV1@@Z 1005e940 f i WinRTVFS.obj
 0002:00020980       ??$forward@V<lambda_c1a554f2383dae03f169289aed8c4103>@@@std@@YA$$QAV<lambda_c1a554f2383dae03f169289aed8c4103>@@AAV1@@Z 1005e980 f i WinRTVFS.obj
 0002:000209c0       ??$forward@V<lambda_c28a53003ed51cdfe295a7d756f98c2f>@@@std@@YA$$QAV<lambda_c28a53003ed51cdfe295a7d756f98c2f>@@AAV1@@Z 1005e9c0 f i WinRTVFS.obj
 0002:00020a00       ??$forward@V<lambda_e7ef5f1e4e1eca0ae8efc6086cf9f417>@@@std@@YA$$QAV<lambda_e7ef5f1e4e1eca0ae8efc6086cf9f417>@@AAV1@@Z 1005ea00 f i WinRTVFS.obj
 0002:00020a40       ??$forward@V?$_Ptr_base@U?$_Task_completion_event_impl@E@details@Concurrency@@@std@@@std@@YA$$QAV?$_Ptr_base@U?$_Task_completion_event_impl@E@details@Concurrency@@@0@AAV10@@Z 1005ea40 f i WinRTVFS.obj
 0002:00020a80       ??$forward@V?$_Ptr_base@U?$_Task_impl@E@details@Concurrency@@@std@@@std@@YA$$QAV?$_Ptr_base@U?$_Task_impl@E@details@Concurrency@@@0@AAV10@@Z 1005ea80 f i WinRTVFS.obj
 0002:00020ac0       ??$forward@V?$_Ptr_base@U?$_Task_impl@I@details@Concurrency@@@std@@@std@@YA$$QAV?$_Ptr_base@U?$_Task_impl@I@details@Concurrency@@@0@AAV10@@Z 1005eac0 f i WinRTVFS.obj
 0002:00020b00       ??$forward@V?$_Ptr_base@U?$_Task_impl@P$AAUIBuffer@Streams@Storage@Windows@@@details@Concurrency@@@std@@@std@@YA$$QAV?$_Ptr_base@U?$_Task_impl@P$AAUIBuffer@Streams@Storage@Windows@@@details@Concurrency@@@0@AAV10@@Z 1005eb00 f i WinRTVFS.obj
 0002:00020b40       ??$forward@V?$_Ptr_base@U?$_Task_impl@P$AAUIRandomAccessStream@Streams@Storage@Windows@@@details@Concurrency@@@std@@@std@@YA$$QAV?$_Ptr_base@U?$_Task_impl@P$AAUIRandomAccessStream@Streams@Storage@Windows@@@details@Concurrency@@@0@AAV10@@Z 1005eb40 f i WinRTVFS.obj
 0002:00020b80       ??$forward@V?$_Ptr_base@U?$_Task_impl@P$AAVStorageFile@Storage@Windows@@@details@Concurrency@@@std@@@std@@YA$$QAV?$_Ptr_base@U?$_Task_impl@P$AAVStorageFile@Storage@Windows@@@details@Concurrency@@@0@AAV10@@Z 1005eb80 f i WinRTVFS.obj
 0002:00020bc0       ??$forward@V?$_Ptr_base@U?$_Task_impl@P$AAVStorageFolder@Storage@Windows@@@details@Concurrency@@@std@@@std@@YA$$QAV?$_Ptr_base@U?$_Task_impl@P$AAVStorageFolder@Storage@Windows@@@details@Concurrency@@@0@AAV10@@Z 1005ebc0 f i WinRTVFS.obj
 0002:00020c00       ??$forward@V?$_Ptr_base@U?$_Task_impl@_N@details@Concurrency@@@std@@@std@@YA$$QAV?$_Ptr_base@U?$_Task_impl@_N@details@Concurrency@@@0@AAV10@@Z 1005ec00 f i WinRTVFS.obj
 0002:00020c40       ??$forward@V?$_Ptr_base@U_ExceptionHolder@details@Concurrency@@@std@@@std@@YA$$QAV?$_Ptr_base@U_ExceptionHolder@details@Concurrency@@@0@AAV10@@Z 1005ec40 f i WinRTVFS.obj
 0002:00020c80       ??$forward@V?$_Ptr_base@Uscheduler_interface@Concurrency@@@std@@@std@@YA$$QAV?$_Ptr_base@Uscheduler_interface@Concurrency@@@0@AAV10@@Z 1005ec80 f i WinRTVFS.obj
 0002:00020cc0       ??$forward@V?$shared_ptr@U?$_Task_completion_event_impl@E@details@Concurrency@@@std@@@std@@YA$$QAV?$shared_ptr@U?$_Task_completion_event_impl@E@details@Concurrency@@@0@AAV10@@Z 1005ecc0 f i WinRTVFS.obj
 0002:00020d00       ??$forward@V?$shared_ptr@U?$_Task_impl@E@details@Concurrency@@@std@@@std@@YA$$QAV?$shared_ptr@U?$_Task_impl@E@details@Concurrency@@@0@AAV10@@Z 1005ed00 f i WinRTVFS.obj
 0002:00020d40       ??$forward@V?$shared_ptr@U?$_Task_impl@I@details@Concurrency@@@std@@@std@@YA$$QAV?$shared_ptr@U?$_Task_impl@I@details@Concurrency@@@0@AAV10@@Z 1005ed40 f i WinRTVFS.obj
 0002:00020d80       ??$forward@V?$shared_ptr@U?$_Task_impl@P$AAUIBuffer@Streams@Storage@Windows@@@details@Concurrency@@@std@@@std@@YA$$QAV?$shared_ptr@U?$_Task_impl@P$AAUIBuffer@Streams@Storage@Windows@@@details@Concurrency@@@0@AAV10@@Z 1005ed80 f i WinRTVFS.obj
 0002:00020dc0       ??$forward@V?$shared_ptr@U?$_Task_impl@P$AAUIRandomAccessStream@Streams@Storage@Windows@@@details@Concurrency@@@std@@@std@@YA$$QAV?$shared_ptr@U?$_Task_impl@P$AAUIRandomAccessStream@Streams@Storage@Windows@@@details@Concurrency@@@0@AAV10@@Z 1005edc0 f i WinRTVFS.obj
 0002:00020e00       ??$forward@V?$shared_ptr@U?$_Task_impl@P$AAVStorageFile@Storage@Windows@@@details@Concurrency@@@std@@@std@@YA$$QAV?$shared_ptr@U?$_Task_impl@P$AAVStorageFile@Storage@Windows@@@details@Concurrency@@@0@AAV10@@Z 1005ee00 f i WinRTVFS.obj
 0002:00020e40       ??$forward@V?$shared_ptr@U?$_Task_impl@P$AAVStorageFolder@Storage@Windows@@@details@Concurrency@@@std@@@std@@YA$$QAV?$shared_ptr@U?$_Task_impl@P$AAVStorageFolder@Storage@Windows@@@details@Concurrency@@@0@AAV10@@Z 1005ee40 f i WinRTVFS.obj
 0002:00020e80       ??$forward@V?$shared_ptr@U?$_Task_impl@_N@details@Concurrency@@@std@@@std@@YA$$QAV?$shared_ptr@U?$_Task_impl@_N@details@Concurrency@@@0@AAV10@@Z 1005ee80 f i WinRTVFS.obj
 0002:00020ec0       ??$forward@V?$shared_ptr@U_ExceptionHolder@details@Concurrency@@@std@@@std@@YA$$QAV?$shared_ptr@U_ExceptionHolder@details@Concurrency@@@0@AAV10@@Z 1005eec0 f i WinRTVFS.obj
 0002:00020f00       ??$forward@V?$shared_ptr@Uscheduler_interface@Concurrency@@@std@@@std@@YA$$QAV?$shared_ptr@Uscheduler_interface@Concurrency@@@0@AAV10@@Z 1005ef00 f i WinRTVFS.obj
 0002:00020f40       ??$forward@V_TaskCreationCallstack@details@Concurrency@@@std@@YA$$QAV_TaskCreationCallstack@details@Concurrency@@AAV123@@Z 1005ef40 f i WinRTVFS.obj
 0002:00020f80       ??$make_shared@U?$_Task_completion_event_impl@E@details@Concurrency@@$$$V@std@@YA?AV?$shared_ptr@U?$_Task_completion_event_impl@E@details@Concurrency@@@0@XZ 1005ef80 f i WinRTVFS.obj
 0002:00021130       ??$make_shared@U?$_Task_impl@E@details@Concurrency@@AAPAV_CancellationTokenState@23@AAUscheduler_ptr@3@@std@@YA?AV?$shared_ptr@U?$_Task_impl@E@details@Concurrency@@@0@AAPAV_CancellationTokenState@details@Concurrency@@AAUscheduler_ptr@4@@Z 1005f130 f i WinRTVFS.obj
 0002:00021300       ??$make_shared@U?$_Task_impl@I@details@Concurrency@@AAPAV_CancellationTokenState@23@AAUscheduler_ptr@3@@std@@YA?AV?$shared_ptr@U?$_Task_impl@I@details@Concurrency@@@0@AAPAV_CancellationTokenState@details@Concurrency@@AAUscheduler_ptr@4@@Z 1005f300 f i WinRTVFS.obj
 0002:000214d0       ??$make_shared@U?$_Task_impl@P$AAUIBuffer@Streams@Storage@Windows@@@details@Concurrency@@AAPAV_CancellationTokenState@23@AAUscheduler_ptr@3@@std@@YA?AV?$shared_ptr@U?$_Task_impl@P$AAUIBuffer@Streams@Storage@Windows@@@details@Concurrency@@@0@AAPAV_CancellationTokenState@details@Concurrency@@AAUscheduler_ptr@4@@Z 1005f4d0 f i WinRTVFS.obj
 0002:000216a0       ??$make_shared@U?$_Task_impl@P$AAUIRandomAccessStream@Streams@Storage@Windows@@@details@Concurrency@@AAPAV_CancellationTokenState@23@AAUscheduler_ptr@3@@std@@YA?AV?$shared_ptr@U?$_Task_impl@P$AAUIRandomAccessStream@Streams@Storage@Windows@@@details@Concurrency@@@0@AAPAV_CancellationTokenState@details@Concurrency@@AAUscheduler_ptr@4@@Z 1005f6a0 f i WinRTVFS.obj
 0002:00021870       ??$make_shared@U?$_Task_impl@P$AAVStorageFile@Storage@Windows@@@details@Concurrency@@AAPAV_CancellationTokenState@23@AAUscheduler_ptr@3@@std@@YA?AV?$shared_ptr@U?$_Task_impl@P$AAVStorageFile@Storage@Windows@@@details@Concurrency@@@0@AAPAV_CancellationTokenState@details@Concurrency@@AAUscheduler_ptr@4@@Z 1005f870 f i WinRTVFS.obj
 0002:00021a40       ??$make_shared@U?$_Task_impl@P$AAVStorageFolder@Storage@Windows@@@details@Concurrency@@AAPAV_CancellationTokenState@23@AAUscheduler_ptr@3@@std@@YA?AV?$shared_ptr@U?$_Task_impl@P$AAVStorageFolder@Storage@Windows@@@details@Concurrency@@@0@AAPAV_CancellationTokenState@details@Concurrency@@AAUscheduler_ptr@4@@Z 1005fa40 f i WinRTVFS.obj
 0002:00021c10       ??$make_shared@U?$_Task_impl@_N@details@Concurrency@@AAPAV_CancellationTokenState@23@AAUscheduler_ptr@3@@std@@YA?AV?$shared_ptr@U?$_Task_impl@_N@details@Concurrency@@@0@AAPAV_CancellationTokenState@details@Concurrency@@AAUscheduler_ptr@4@@Z 1005fc10 f i WinRTVFS.obj
 0002:00021de0       ??$make_shared@U_ExceptionHolder@details@Concurrency@@AAP$AAVException@Platform@@V_TaskCreationCallstack@23@@std@@YA?AV?$shared_ptr@U_ExceptionHolder@details@Concurrency@@@0@AAP$AAVException@Platform@@$$QAV_TaskCreationCallstack@details@Concurrency@@@Z 1005fde0 f i WinRTVFS.obj
 0002:00021fb0       ??$make_shared@U_ExceptionHolder@details@Concurrency@@ABVexception_ptr@std@@V_TaskCreationCallstack@23@@std@@YA?AV?$shared_ptr@U_ExceptionHolder@details@Concurrency@@@0@ABVexception_ptr@0@$$QAV_TaskCreationCallstack@details@Concurrency@@@Z 1005ffb0 f i WinRTVFS.obj
 0002:00022180       ??$move@AAPAV?$message@H@Concurrency@@@std@@YA$$QAPAV?$message@H@Concurrency@@AAPAV12@@Z 10060180 f i WinRTVFS.obj
 0002:000221c0       ??$move@AAV?$_Func_impl@U?$_Callable_obj@V<lambda_02d862f9cfc639ff7c37ca52d43e6a8c>@@$0A@@std@@V?$allocator@V?$_Func_class@X$$$V@std@@@2@X$$$V@std@@@std@@YA$$QAV?$_Func_impl@U?$_Callable_obj@V<lambda_02d862f9cfc639ff7c37ca52d43e6a8c>@@$0A@@std@@V?$allocator@V?$_Func_class@X$$$V@std@@@2@X$$$V@0@AAV10@@Z 100601c0 f i WinRTVFS.obj
 0002:00022200       ??$move@AAV?$_Func_impl@U?$_Callable_obj@V<lambda_095a938ce4c5765dcc6b67f548aeb9c7>@@$0A@@std@@V?$allocator@V?$_Func_class@X$$$V@std@@@2@X$$$V@std@@@std@@YA$$QAV?$_Func_impl@U?$_Callable_obj@V<lambda_095a938ce4c5765dcc6b67f548aeb9c7>@@$0A@@std@@V?$allocator@V?$_Func_class@X$$$V@std@@@2@X$$$V@0@AAV10@@Z 10060200 f i WinRTVFS.obj
 0002:00022240       ??$move@AAV?$_Func_impl@U?$_Callable_obj@V<lambda_0b7f78ec4ced38495cec46e0d346e0b9>@@$0A@@std@@V?$allocator@V?$_Func_class@X$$$V@std@@@2@X$$$V@std@@@std@@YA$$QAV?$_Func_impl@U?$_Callable_obj@V<lambda_0b7f78ec4ced38495cec46e0d346e0b9>@@$0A@@std@@V?$allocator@V?$_Func_class@X$$$V@std@@@2@X$$$V@0@AAV10@@Z 10060240 f i WinRTVFS.obj
 0002:00022280       ??$move@AAV?$_Func_impl@U?$_Callable_obj@V<lambda_0fe479da16d43edb8e9a254c493d643e>@@$0A@@std@@V?$allocator@V?$_Func_class@X$$$V@std@@@2@X$$$V@std@@@std@@YA$$QAV?$_Func_impl@U?$_Callable_obj@V<lambda_0fe479da16d43edb8e9a254c493d643e>@@$0A@@std@@V?$allocator@V?$_Func_class@X$$$V@std@@@2@X$$$V@0@AAV10@@Z 10060280 f i WinRTVFS.obj
 0002:000222c0       ??$move@AAV?$_Func_impl@U?$_Callable_obj@V<lambda_1a93da980d6fe77644a4eefc4e1ad756>@@$0A@@std@@V?$allocator@V?$_Func_class@XABH@std@@@2@XABH@std@@@std@@YA$$QAV?$_Func_impl@U?$_Callable_obj@V<lambda_1a93da980d6fe77644a4eefc4e1ad756>@@$0A@@std@@V?$allocator@V?$_Func_class@XABH@std@@@2@XABH@0@AAV10@@Z 100602c0 f i WinRTVFS.obj
 0002:00022300       ??$move@AAV?$_Func_impl@U?$_Callable_obj@V<lambda_295bc5f846209cba149a5e74d0d63a72>@@$0A@@std@@V?$allocator@V?$_Func_class@XPAV?$message@H@Concurrency@@@std@@@2@XPAV?$message@H@Concurrency@@@std@@@std@@YA$$QAV?$_Func_impl@U?$_Callable_obj@V<lambda_295bc5f846209cba149a5e74d0d63a72>@@$0A@@std@@V?$allocator@V?$_Func_class@XPAV?$message@H@Concurrency@@@std@@@2@XPAV?$message@H@Concurrency@@@0@AAV10@@Z 10060300 f i WinRTVFS.obj
 0002:00022340       ??$move@AAV?$_Func_impl@U?$_Callable_obj@V<lambda_364e75aa895e992ae8821732ca646aa2>@@$0A@@std@@V?$allocator@V?$_Func_class@X$$$V@std@@@2@X$$$V@std@@@std@@YA$$QAV?$_Func_impl@U?$_Callable_obj@V<lambda_364e75aa895e992ae8821732ca646aa2>@@$0A@@std@@V?$allocator@V?$_Func_class@X$$$V@std@@@2@X$$$V@0@AAV10@@Z 10060340 f i WinRTVFS.obj
 0002:00022380       ??$move@AAV?$_Func_impl@U?$_Callable_obj@V<lambda_39cde079c01d1b5b9307ff255a1ccdd9>@@$0A@@std@@V?$allocator@V?$_Func_class@EE@std@@@2@EE@std@@@std@@YA$$QAV?$_Func_impl@U?$_Callable_obj@V<lambda_39cde079c01d1b5b9307ff255a1ccdd9>@@$0A@@std@@V?$allocator@V?$_Func_class@EE@std@@@2@EE@0@AAV10@@Z 10060380 f i WinRTVFS.obj
 0002:000223c0       ??$move@AAV?$_Func_impl@U?$_Callable_obj@V<lambda_528650821c608ced6534641e311542a5>@@$0A@@std@@V?$allocator@V?$_Func_class@X$$$V@std@@@2@X$$$V@std@@@std@@YA$$QAV?$_Func_impl@U?$_Callable_obj@V<lambda_528650821c608ced6534641e311542a5>@@$0A@@std@@V?$allocator@V?$_Func_class@X$$$V@std@@@2@X$$$V@0@AAV10@@Z 100603c0 f i WinRTVFS.obj
 0002:00022400       ??$move@AAV?$_Func_impl@U?$_Callable_obj@V<lambda_579ccd68d569251046038e8620afec85>@@$0A@@std@@V?$allocator@V?$_Func_class@XPAV?$message@H@Concurrency@@@std@@@2@XPAV?$message@H@Concurrency@@@std@@@std@@YA$$QAV?$_Func_impl@U?$_Callable_obj@V<lambda_579ccd68d569251046038e8620afec85>@@$0A@@std@@V?$allocator@V?$_Func_class@XPAV?$message@H@Concurrency@@@std@@@2@XPAV?$message@H@Concurrency@@@0@AAV10@@Z 10060400 f i WinRTVFS.obj
 0002:00022440       ??$move@AAV?$_Func_impl@U?$_Callable_obj@V<lambda_9fc58f08a03183e50e06176727aeb396>@@$0A@@std@@V?$allocator@V?$_Func_class@X$$$V@std@@@2@X$$$V@std@@@std@@YA$$QAV?$_Func_impl@U?$_Callable_obj@V<lambda_9fc58f08a03183e50e06176727aeb396>@@$0A@@std@@V?$allocator@V?$_Func_class@X$$$V@std@@@2@X$$$V@0@AAV10@@Z 10060440 f i WinRTVFS.obj
 0002:00022480       ??$move@AAV?$_Func_impl@U?$_Callable_obj@V<lambda_a66b3ee15e662226a0b0b15ae647d32f>@@$0A@@std@@V?$allocator@V?$_Func_class@X$$$V@std@@@2@X$$$V@std@@@std@@YA$$QAV?$_Func_impl@U?$_Callable_obj@V<lambda_a66b3ee15e662226a0b0b15ae647d32f>@@$0A@@std@@V?$allocator@V?$_Func_class@X$$$V@std@@@2@X$$$V@0@AAV10@@Z 10060480 f i WinRTVFS.obj
 0002:000224c0       ??$move@AAV?$_Func_impl@U?$_Callable_obj@V<lambda_c1a554f2383dae03f169289aed8c4103>@@$0A@@std@@V?$allocator@V?$_Func_class@X$$$V@std@@@2@X$$$V@std@@@std@@YA$$QAV?$_Func_impl@U?$_Callable_obj@V<lambda_c1a554f2383dae03f169289aed8c4103>@@$0A@@std@@V?$allocator@V?$_Func_class@X$$$V@std@@@2@X$$$V@0@AAV10@@Z 100604c0 f i WinRTVFS.obj
 0002:00022500       ??$move@AAV?$_Func_impl@U?$_Callable_obj@V<lambda_c28a53003ed51cdfe295a7d756f98c2f>@@$0A@@std@@V?$allocator@V?$_Func_class@XPAV?$message@H@Concurrency@@@std@@@2@XPAV?$message@H@Concurrency@@@std@@@std@@YA$$QAV?$_Func_impl@U?$_Callable_obj@V<lambda_c28a53003ed51cdfe295a7d756f98c2f>@@$0A@@std@@V?$allocator@V?$_Func_class@XPAV?$message@H@Concurrency@@@std@@@2@XPAV?$message@H@Concurrency@@@0@AAV10@@Z 10060500 f i WinRTVFS.obj
 0002:00022540       ??$move@AAV?$_Func_impl@U?$_Callable_obj@V<lambda_e7ef5f1e4e1eca0ae8efc6086cf9f417>@@$0A@@std@@V?$allocator@V?$_Func_class@X$$$V@std@@@2@X$$$V@std@@@std@@YA$$QAV?$_Func_impl@U?$_Callable_obj@V<lambda_e7ef5f1e4e1eca0ae8efc6086cf9f417>@@$0A@@std@@V?$allocator@V?$_Func_class@X$$$V@std@@@2@X$$$V@0@AAV10@@Z 10060540 f i WinRTVFS.obj
 0002:00022580       ??$move@AAV?$shared_ptr@U?$_Task_impl@E@details@Concurrency@@@std@@@std@@YA$$QAV?$shared_ptr@U?$_Task_impl@E@details@Concurrency@@@0@AAV10@@Z 10060580 f i WinRTVFS.obj
 0002:000225c0       ??$move@AAV?$shared_ptr@U?$_Task_impl@I@details@Concurrency@@@std@@@std@@YA$$QAV?$shared_ptr@U?$_Task_impl@I@details@Concurrency@@@0@AAV10@@Z 100605c0 f i WinRTVFS.obj
 0002:00022600       ??$move@AAV?$shared_ptr@U?$_Task_impl@P$AAUIBuffer@Streams@Storage@Windows@@@details@Concurrency@@@std@@@std@@YA$$QAV?$shared_ptr@U?$_Task_impl@P$AAUIBuffer@Streams@Storage@Windows@@@details@Concurrency@@@0@AAV10@@Z 10060600 f i WinRTVFS.obj
 0002:00022640       ??$move@AAV?$shared_ptr@U?$_Task_impl@P$AAUIRandomAccessStream@Streams@Storage@Windows@@@details@Concurrency@@@std@@@std@@YA$$QAV?$shared_ptr@U?$_Task_impl@P$AAUIRandomAccessStream@Streams@Storage@Windows@@@details@Concurrency@@@0@AAV10@@Z 10060640 f i WinRTVFS.obj
 0002:00022680       ??$move@AAV?$shared_ptr@U?$_Task_impl@P$AAVStorageFile@Storage@Windows@@@details@Concurrency@@@std@@@std@@YA$$QAV?$shared_ptr@U?$_Task_impl@P$AAVStorageFile@Storage@Windows@@@details@Concurrency@@@0@AAV10@@Z 10060680 f i WinRTVFS.obj
 0002:000226c0       ??$move@AAV?$shared_ptr@U?$_Task_impl@P$AAVStorageFolder@Storage@Windows@@@details@Concurrency@@@std@@@std@@YA$$QAV?$shared_ptr@U?$_Task_impl@P$AAVStorageFolder@Storage@Windows@@@details@Concurrency@@@0@AAV10@@Z 100606c0 f i WinRTVFS.obj
 0002:00022700       ??$move@AAV?$shared_ptr@U?$_Task_impl@_N@details@Concurrency@@@std@@@std@@YA$$QAV?$shared_ptr@U?$_Task_impl@_N@details@Concurrency@@@0@AAV10@@Z 10060700 f i WinRTVFS.obj
 0002:00022740       ??$move@AAV?$shared_ptr@Uscheduler_interface@Concurrency@@@std@@@std@@YA$$QAV?$shared_ptr@Uscheduler_interface@Concurrency@@@0@AAV10@@Z 10060740 f i WinRTVFS.obj
 0002:00022780       ??$move@AAV?$task@E@Concurrency@@@std@@YA$$QAV?$task@E@Concurrency@@AAV12@@Z 10060780 f i WinRTVFS.obj
 0002:000227c0       ??$swap@K@std@@YAXAAK0@Z   100607c0 f i WinRTVFS.obj
 0002:000228a0       ??$swap@P$AAUIBuffer@Streams@Storage@Windows@@@std@@YAXAAP$AAUIBuffer@Streams@Storage@Windows@@0@Z 100608a0 f i WinRTVFS.obj
 0002:000229e0       ??$swap@P$AAUIRandomAccessStream@Streams@Storage@Windows@@@std@@YAXAAP$AAUIRandomAccessStream@Streams@Storage@Windows@@0@Z 100609e0 f i WinRTVFS.obj
 0002:00022b20       ??$swap@PAU?$_Task_completion_event_impl@E@details@Concurrency@@@std@@YAXAAPAU?$_Task_completion_event_impl@E@details@Concurrency@@0@Z 10060b20 f i WinRTVFS.obj
 0002:00022c00       ??$swap@PAU?$_Task_impl@E@details@Concurrency@@@std@@YAXAAPAU?$_Task_impl@E@details@Concurrency@@0@Z 10060c00 f i WinRTVFS.obj
 0002:00022ce0       ??$swap@PAU?$_Task_impl@I@details@Concurrency@@@std@@YAXAAPAU?$_Task_impl@I@details@Concurrency@@0@Z 10060ce0 f i WinRTVFS.obj
 0002:00022dc0       ??$swap@PAU?$_Task_impl@P$AAUIBuffer@Streams@Storage@Windows@@@details@Concurrency@@@std@@YAXAAPAU?$_Task_impl@P$AAUIBuffer@Streams@Storage@Windows@@@details@Concurrency@@0@Z 10060dc0 f i WinRTVFS.obj
 0002:00022ea0       ??$swap@PAU?$_Task_impl@P$AAUIRandomAccessStream@Streams@Storage@Windows@@@details@Concurrency@@@std@@YAXAAPAU?$_Task_impl@P$AAUIRandomAccessStream@Streams@Storage@Windows@@@details@Concurrency@@0@Z 10060ea0 f i WinRTVFS.obj
 0002:00022f80       ??$swap@PAU?$_Task_impl@P$AAVStorageFile@Storage@Windows@@@details@Concurrency@@@std@@YAXAAPAU?$_Task_impl@P$AAVStorageFile@Storage@Windows@@@details@Concurrency@@0@Z 10060f80 f i WinRTVFS.obj
 0002:00023060       ??$swap@PAU?$_Task_impl@P$AAVStorageFolder@Storage@Windows@@@details@Concurrency@@@std@@YAXAAPAU?$_Task_impl@P$AAVStorageFolder@Storage@Windows@@@details@Concurrency@@0@Z 10061060 f i WinRTVFS.obj
 0002:00023140       ??$swap@PAU?$_Task_impl@_N@details@Concurrency@@@std@@YAXAAPAU?$_Task_impl@_N@details@Concurrency@@0@Z 10061140 f i WinRTVFS.obj
 0002:00023220       ??$swap@PAU_Container_proxy@std@@@std@@YAXAAPAU_Container_proxy@0@0@Z 10061220 f i WinRTVFS.obj
 0002:00023300       ??$swap@PAU_ExceptionHolder@details@Concurrency@@@std@@YAXAAPAU_ExceptionHolder@details@Concurrency@@0@Z 10061300 f i WinRTVFS.obj
 0002:000233e0       ??$swap@PAUscheduler_interface@Concurrency@@@std@@YAXAAPAUscheduler_interface@Concurrency@@0@Z 100613e0 f i WinRTVFS.obj
 0002:000234c0       ??$swap@PAV?$shared_ptr@U?$_Task_impl@E@details@Concurrency@@@std@@@std@@YAXAAPAV?$shared_ptr@U?$_Task_impl@E@details@Concurrency@@@0@0@Z 100614c0 f i WinRTVFS.obj
 0002:000235a0       ??$swap@PAV_Ref_count_base@std@@@std@@YAXAAPAV_Ref_count_base@0@0@Z 100615a0 f i WinRTVFS.obj
 0002:00023680       ??$swap@V?$ComPtr@UIUnknown@@@WRL@Microsoft@@@std@@YAXAAV?$ComPtr@UIUnknown@@@WRL@Microsoft@@0@Z 10061680 f i WinRTVFS.obj
 0002:00023780       ??$swap@W4AgileState@?$Agile@P$AAUIBuffer@Streams@Storage@Windows@@$00@Platform@@@std@@YAXAAW4AgileState@?$Agile@P$AAUIBuffer@Streams@Storage@Windows@@$00@Platform@@0@Z 10061780 f i WinRTVFS.obj
 0002:00023860       ??$swap@W4AgileState@?$Agile@P$AAUIRandomAccessStream@Streams@Storage@Windows@@$00@Platform@@@std@@YAXAAW4AgileState@?$Agile@P$AAUIRandomAccessStream@Streams@Storage@Windows@@$00@Platform@@0@Z 10061860 f i WinRTVFS.obj
 0002:00023940       ??$then@V<lambda_9fc58f08a03183e50e06176727aeb396>@@@?$task@X@Concurrency@@QBE?AV01@ABV<lambda_9fc58f08a03183e50e06176727aeb396>@@Vtask_options@1@@Z 10061940 f i WinRTVFS.obj
 0002:00024920       ??0?$Agile@P$AAU?$IAsyncOperationWithProgress@II@Foundation@Windows@@$00@Platform@@QAE@P$AAU?$IAsyncOperationWithProgress@II@Foundation@Windows@@@Z 10062920 f i WinRTVFS.obj
 0002:000249b0       ??0?$Agile@P$AAU?$IAsyncOperationWithProgress@P$AAUIBuffer@Streams@Storage@Windows@@I@Foundation@Windows@@$00@Platform@@QAE@P$AAU?$IAsyncOperationWithProgress@P$AAUIBuffer@Streams@Storage@Windows@@I@Foundation@Windows@@@Z 100629b0 f i WinRTVFS.obj
 0002:00024a40       ??0?$Agile@P$AAUIAsyncAction@Foundation@Windows@@$00@Platform@@QAE@P$AAUIAsyncAction@Foundation@Windows@@@Z 10062a40 f i WinRTVFS.obj
 0002:00024ad0       ??0?$Agile@P$AAUIBuffer@Streams@Storage@Windows@@$00@Platform@@QAE@P$AAUIBuffer@Streams@Storage@Windows@@@Z 10062ad0 f i WinRTVFS.obj
 0002:00024b60       ??0?$Agile@P$AAUIBuffer@Streams@Storage@Windows@@$00@Platform@@QAE@XZ 10062b60 f i WinRTVFS.obj
 0002:00024be0       ??0?$Agile@P$AAUIRandomAccessStream@Streams@Storage@Windows@@$00@Platform@@QAE@P$AAUIRandomAccessStream@Streams@Storage@Windows@@@Z 10062be0 f i WinRTVFS.obj
 0002:00024c70       ??0?$Agile@P$AAUIRandomAccessStream@Streams@Storage@Windows@@$00@Platform@@QAE@XZ 10062c70 f i WinRTVFS.obj
 0002:00024cf0       ??0?$Agile@P$AAVStorageFile@Storage@Windows@@$0A@@Platform@@QAE@XZ 10062cf0 f i WinRTVFS.obj
 0002:00024d40       ??0?$Agile@P$AAVStorageFolder@Storage@Windows@@$0A@@Platform@@QAE@XZ 10062d40 f i WinRTVFS.obj
 0002:00024d90       ??0?$ComPtr@UIAgileObject@@@WRL@Microsoft@@QAE@XZ 10062d90 f i WinRTVFS.obj
 0002:00024de0       ??0?$ComPtr@UIBufferByteAccess@Streams@Storage@Windows@@@WRL@Microsoft@@QAE@XZ 10062de0 f i WinRTVFS.obj
 0002:00024e30       ??0?$ComPtr@UIUnknown@@@WRL@Microsoft@@QAE@$$QAV012@@Z 10062e30 f i WinRTVFS.obj
 0002:00024ea0       ??0?$ComPtr@UIUnknown@@@WRL@Microsoft@@QAE@XZ 10062ea0 f i WinRTVFS.obj
 0002:00024ef0       ??0?$ComPtrRef@V?$ComPtr@UIAgileObject@@@WRL@Microsoft@@@Details@WRL@Microsoft@@QAE@PAV?$ComPtr@UIAgileObject@@@23@@Z 10062ef0 f i WinRTVFS.obj
 0002:00024f40       ??0?$ComPtrRef@V?$ComPtr@UIBufferByteAccess@Streams@Storage@Windows@@@WRL@Microsoft@@@Details@WRL@Microsoft@@QAE@PAV?$ComPtr@UIBufferByteAccess@Streams@Storage@Windows@@@23@@Z 10062f40 f i WinRTVFS.obj
 0002:00024f90       ??0?$ISource@H@Concurrency@@QAE@XZ 10062f90 f i WinRTVFS.obj
 0002:00024fe0       ??0?$ITarget@H@Concurrency@@QAE@XZ 10062fe0 f i WinRTVFS.obj
 0002:00025030       ??0?$_AsyncInfoImpl@P$AAU?$IAsyncOperationWithProgress@II@Foundation@Windows@@V?$AsyncOperationWithProgressCompletedHandler@II@23@I@details@Concurrency@@Q$AAA@P$AAU?$IAsyncOperationWithProgress@II@Foundation@Windows@@@Z 10063030 f i WinRTVFS.obj
 0002:000250e0       ??0?$_AsyncInfoImpl@P$AAU?$IAsyncOperationWithProgress@P$AAUIBuffer@Streams@Storage@Windows@@I@Foundation@Windows@@V?$AsyncOperationWithProgressCompletedHandler@P$AAUIBuffer@Streams@Storage@Windows@@I@23@P$AAUIBuffer@Streams@Storage@3@@details@Concurrency@@Q$AAA@P$AAU?$IAsyncOperationWithProgress@P$AAUIBuffer@Streams@Storage@Windows@@I@Foundation@Windows@@@Z 100630e0 f i WinRTVFS.obj
 0002:00025190       ??0?$_AsyncInfoImpl@P$AAUIAsyncAction@Foundation@Windows@@VAsyncActionCompletedHandler@23@E@details@Concurrency@@Q$AAA@P$AAUIAsyncAction@Foundation@Windows@@@Z 10063190 f i WinRTVFS.obj
 0002:00025240       ??0?$_AutoDeleter@U_TaskProcHandle@details@Concurrency@@@details@Concurrency@@QAE@PAU_TaskProcHandle@12@@Z 10063240 f i WinRTVFS.obj
 0002:00025290       ??0?$_Callable_base@V<lambda_02d862f9cfc639ff7c37ca52d43e6a8c>@@$0A@@std@@QAE@ABV<lambda_02d862f9cfc639ff7c37ca52d43e6a8c>@@@Z 10063290 f i WinRTVFS.obj
 0002:000252e0       ??0?$_Callable_base@V<lambda_095a938ce4c5765dcc6b67f548aeb9c7>@@$0A@@std@@QAE@ABV<lambda_095a938ce4c5765dcc6b67f548aeb9c7>@@@Z 100632e0 f i WinRTVFS.obj
 0002:00025330       ??0?$_Callable_base@V<lambda_0b7f78ec4ced38495cec46e0d346e0b9>@@$0A@@std@@QAE@ABV<lambda_0b7f78ec4ced38495cec46e0d346e0b9>@@@Z 10063330 f i WinRTVFS.obj
 0002:00025380       ??0?$_Callable_base@V<lambda_0fe479da16d43edb8e9a254c493d643e>@@$0A@@std@@QAE@ABV<lambda_0fe479da16d43edb8e9a254c493d643e>@@@Z 10063380 f i WinRTVFS.obj
 0002:000253d0       ??0?$_Callable_base@V<lambda_1a93da980d6fe77644a4eefc4e1ad756>@@$0A@@std@@QAE@ABU01@@Z 100633d0 f i WinRTVFS.obj
 0002:00025430       ??0?$_Callable_base@V<lambda_1a93da980d6fe77644a4eefc4e1ad756>@@$0A@@std@@QAE@ABV<lambda_1a93da980d6fe77644a4eefc4e1ad756>@@@Z 10063430 f i WinRTVFS.obj
 0002:00025490       ??0?$_Callable_base@V<lambda_295bc5f846209cba149a5e74d0d63a72>@@$0A@@std@@QAE@ABV<lambda_295bc5f846209cba149a5e74d0d63a72>@@@Z 10063490 f i WinRTVFS.obj
 0002:000254e0       ??0?$_Callable_base@V<lambda_364e75aa895e992ae8821732ca646aa2>@@$0A@@std@@QAE@ABV<lambda_364e75aa895e992ae8821732ca646aa2>@@@Z 100634e0 f i WinRTVFS.obj
 0002:00025530       ??0?$_Callable_base@V<lambda_39cde079c01d1b5b9307ff255a1ccdd9>@@$0A@@std@@QAE@ABU01@@Z 10063530 f i WinRTVFS.obj
 0002:00025590       ??0?$_Callable_base@V<lambda_39cde079c01d1b5b9307ff255a1ccdd9>@@$0A@@std@@QAE@ABV<lambda_39cde079c01d1b5b9307ff255a1ccdd9>@@@Z 10063590 f i WinRTVFS.obj
 0002:000255f0       ??0?$_Callable_base@V<lambda_528650821c608ced6534641e311542a5>@@$0A@@std@@QAE@ABV<lambda_528650821c608ced6534641e311542a5>@@@Z 100635f0 f i WinRTVFS.obj
 0002:00025640       ??0?$_Callable_base@V<lambda_579ccd68d569251046038e8620afec85>@@$0A@@std@@QAE@ABV<lambda_579ccd68d569251046038e8620afec85>@@@Z 10063640 f i WinRTVFS.obj
 0002:00025690       ??0?$_Callable_base@V<lambda_9fc58f08a03183e50e06176727aeb396>@@$0A@@std@@QAE@ABV<lambda_9fc58f08a03183e50e06176727aeb396>@@@Z 10063690 f i WinRTVFS.obj
 0002:000256e0       ??0?$_Callable_base@V<lambda_a66b3ee15e662226a0b0b15ae647d32f>@@$0A@@std@@QAE@ABV<lambda_a66b3ee15e662226a0b0b15ae647d32f>@@@Z 100636e0 f i WinRTVFS.obj
 0002:00025730       ??0?$_Callable_base@V<lambda_c1a554f2383dae03f169289aed8c4103>@@$0A@@std@@QAE@ABV<lambda_c1a554f2383dae03f169289aed8c4103>@@@Z 10063730 f i WinRTVFS.obj
 0002:00025780       ??0?$_Callable_base@V<lambda_c28a53003ed51cdfe295a7d756f98c2f>@@$0A@@std@@QAE@ABV<lambda_c28a53003ed51cdfe295a7d756f98c2f>@@@Z 10063780 f i WinRTVFS.obj
 0002:000257d0       ??0?$_Callable_base@V<lambda_e7ef5f1e4e1eca0ae8efc6086cf9f417>@@$0A@@std@@QAE@ABU01@@Z 100637d0 f i WinRTVFS.obj
 0002:00025830       ??0?$_Callable_base@V<lambda_e7ef5f1e4e1eca0ae8efc6086cf9f417>@@$0A@@std@@QAE@ABV<lambda_e7ef5f1e4e1eca0ae8efc6086cf9f417>@@@Z 10063830 f i WinRTVFS.obj
 0002:00025890       ??0?$_CancellationTokenCallback@V<lambda_17cb9174022a2677ccd4c777403439ce>@@@details@Concurrency@@QAE@ABV<lambda_17cb9174022a2677ccd4c777403439ce>@@@Z 10063890 f i WinRTVFS.obj
 0002:00025910       ??0?$_ContinuationTaskHandle@XXV<lambda_9fc58f08a03183e50e06176727aeb396>@@U?$integral_constant@_N$0A@@std@@U_TypeSelectorNoAsync@details@Concurrency@@@?$task@E@Concurrency@@QAE@ABV?$shared_ptr@U?$_Task_impl@E@details@Concurrency@@@std@@0ABV<lambda_9fc58f08a03183e50e06176727aeb396>@@ABVtask_continuation_context@2@W4_TaskInliningMode@details@2@@Z 10063910 f i WinRTVFS.obj
 0002:00025a40       ??0?$_Dynamic_array@PAV?$ISource@H@Concurrency@@@details@Concurrency@@QAE@XZ 10063a40 f i WinRTVFS.obj
 0002:00025aa0       ??0?$_Func_base@EE@std@@QAE@XZ 10063aa0 f i WinRTVFS.obj
 0002:00025af0       ??0?$_Func_base@X$$$V@std@@QAE@XZ 10063af0 f i WinRTVFS.obj
 0002:00025b40       ??0?$_Func_base@XABH@std@@QAE@XZ 10063b40 f i WinRTVFS.obj
 0002:00025b90       ??0?$_Func_base@XPAV?$message@H@Concurrency@@@std@@QAE@XZ 10063b90 f i WinRTVFS.obj
 0002:00025be0       ??0?$_Func_class@EE@std@@QAE@XZ 10063be0 f i WinRTVFS.obj
 0002:00025c30       ??0?$_Func_class@X$$$V@std@@QAE@XZ 10063c30 f i WinRTVFS.obj
 0002:00025c80       ??0?$_Func_class@XABH@std@@QAE@XZ 10063c80 f i WinRTVFS.obj
 0002:00025cd0       ??0?$_Func_class@XPAV?$message@H@Concurrency@@@std@@QAE@XZ 10063cd0 f i WinRTVFS.obj
 0002:00025d20       ??0?$_Func_impl@U?$_Callable_obj@V<lambda_02d862f9cfc639ff7c37ca52d43e6a8c>@@$0A@@std@@V?$allocator@V?$_Func_class@X$$$V@std@@@2@X$$$V@std@@QAE@$$QAV01@@Z 10063d20 f i WinRTVFS.obj
 0002:00025e00       ??0?$_Func_impl@U?$_Callable_obj@V<lambda_02d862f9cfc639ff7c37ca52d43e6a8c>@@$0A@@std@@V?$allocator@V?$_Func_class@X$$$V@std@@@2@X$$$V@std@@QAE@$$QAV<lambda_02d862f9cfc639ff7c37ca52d43e6a8c>@@ABV?$allocator@V?$_Func_impl@U?$_Callable_obj@V<lambda_02d862f9cfc639ff7c37ca52d43e6a8c>@@$0A@@std@@V?$allocator@V?$_Func_class@X$$$V@std@@@2@X$$$V@std@@@1@@Z 10063e00 f i WinRTVFS.obj
 0002:00025ee0       ??0?$_Func_impl@U?$_Callable_obj@V<lambda_02d862f9cfc639ff7c37ca52d43e6a8c>@@$0A@@std@@V?$allocator@V?$_Func_class@X$$$V@std@@@2@X$$$V@std@@QAE@AAV01@@Z 10063ee0 f i WinRTVFS.obj
 0002:00025fc0       ??0?$_Func_impl@U?$_Callable_obj@V<lambda_095a938ce4c5765dcc6b67f548aeb9c7>@@$0A@@std@@V?$allocator@V?$_Func_class@X$$$V@std@@@2@X$$$V@std@@QAE@$$QAV01@@Z 10063fc0 f i WinRTVFS.obj
 0002:000260a0       ??0?$_Func_impl@U?$_Callable_obj@V<lambda_095a938ce4c5765dcc6b67f548aeb9c7>@@$0A@@std@@V?$allocator@V?$_Func_class@X$$$V@std@@@2@X$$$V@std@@QAE@$$QAV<lambda_095a938ce4c5765dcc6b67f548aeb9c7>@@ABV?$allocator@V?$_Func_impl@U?$_Callable_obj@V<lambda_095a938ce4c5765dcc6b67f548aeb9c7>@@$0A@@std@@V?$allocator@V?$_Func_class@X$$$V@std@@@2@X$$$V@std@@@1@@Z 100640a0 f i WinRTVFS.obj
 0002:00026180       ??0?$_Func_impl@U?$_Callable_obj@V<lambda_095a938ce4c5765dcc6b67f548aeb9c7>@@$0A@@std@@V?$allocator@V?$_Func_class@X$$$V@std@@@2@X$$$V@std@@QAE@AAV01@@Z 10064180 f i WinRTVFS.obj
 0002:00026260       ??0?$_Func_impl@U?$_Callable_obj@V<lambda_0b7f78ec4ced38495cec46e0d346e0b9>@@$0A@@std@@V?$allocator@V?$_Func_class@X$$$V@std@@@2@X$$$V@std@@QAE@$$QAV01@@Z 10064260 f i WinRTVFS.obj
 0002:00026340       ??0?$_Func_impl@U?$_Callable_obj@V<lambda_0b7f78ec4ced38495cec46e0d346e0b9>@@$0A@@std@@V?$allocator@V?$_Func_class@X$$$V@std@@@2@X$$$V@std@@QAE@$$QAV<lambda_0b7f78ec4ced38495cec46e0d346e0b9>@@ABV?$allocator@V?$_Func_impl@U?$_Callable_obj@V<lambda_0b7f78ec4ced38495cec46e0d346e0b9>@@$0A@@std@@V?$allocator@V?$_Func_class@X$$$V@std@@@2@X$$$V@std@@@1@@Z 10064340 f i WinRTVFS.obj
 0002:00026420       ??0?$_Func_impl@U?$_Callable_obj@V<lambda_0b7f78ec4ced38495cec46e0d346e0b9>@@$0A@@std@@V?$allocator@V?$_Func_class@X$$$V@std@@@2@X$$$V@std@@QAE@AAV01@@Z 10064420 f i WinRTVFS.obj
 0002:00026500       ??0?$_Func_impl@U?$_Callable_obj@V<lambda_0fe479da16d43edb8e9a254c493d643e>@@$0A@@std@@V?$allocator@V?$_Func_class@X$$$V@std@@@2@X$$$V@std@@QAE@$$QAV01@@Z 10064500 f i WinRTVFS.obj
 0002:000265e0       ??0?$_Func_impl@U?$_Callable_obj@V<lambda_0fe479da16d43edb8e9a254c493d643e>@@$0A@@std@@V?$allocator@V?$_Func_class@X$$$V@std@@@2@X$$$V@std@@QAE@$$QAV<lambda_0fe479da16d43edb8e9a254c493d643e>@@ABV?$allocator@V?$_Func_impl@U?$_Callable_obj@V<lambda_0fe479da16d43edb8e9a254c493d643e>@@$0A@@std@@V?$allocator@V?$_Func_class@X$$$V@std@@@2@X$$$V@std@@@1@@Z 100645e0 f i WinRTVFS.obj
 0002:000266c0       ??0?$_Func_impl@U?$_Callable_obj@V<lambda_0fe479da16d43edb8e9a254c493d643e>@@$0A@@std@@V?$allocator@V?$_Func_class@X$$$V@std@@@2@X$$$V@std@@QAE@AAV01@@Z 100646c0 f i WinRTVFS.obj
 0002:000267a0       ??0?$_Func_impl@U?$_Callable_obj@V<lambda_1a93da980d6fe77644a4eefc4e1ad756>@@$0A@@std@@V?$allocator@V?$_Func_class@XABH@std@@@2@XABH@std@@QAE@$$QAV01@@Z 100647a0 f i WinRTVFS.obj
 0002:00026880       ??0?$_Func_impl@U?$_Callable_obj@V<lambda_1a93da980d6fe77644a4eefc4e1ad756>@@$0A@@std@@V?$allocator@V?$_Func_class@XABH@std@@@2@XABH@std@@QAE@$$QAV<lambda_1a93da980d6fe77644a4eefc4e1ad756>@@ABV?$allocator@V?$_Func_impl@U?$_Callable_obj@V<lambda_1a93da980d6fe77644a4eefc4e1ad756>@@$0A@@std@@V?$allocator@V?$_Func_class@XABH@std@@@2@XABH@std@@@1@@Z 10064880 f i WinRTVFS.obj
 0002:00026960       ??0?$_Func_impl@U?$_Callable_obj@V<lambda_1a93da980d6fe77644a4eefc4e1ad756>@@$0A@@std@@V?$allocator@V?$_Func_class@XABH@std@@@2@XABH@std@@QAE@AAV01@@Z 10064960 f i WinRTVFS.obj
 0002:00026a40       ??0?$_Func_impl@U?$_Callable_obj@V<lambda_295bc5f846209cba149a5e74d0d63a72>@@$0A@@std@@V?$allocator@V?$_Func_class@XPAV?$message@H@Concurrency@@@std@@@2@XPAV?$message@H@Concurrency@@@std@@QAE@$$QAV01@@Z 10064a40 f i WinRTVFS.obj
 0002:00026b20       ??0?$_Func_impl@U?$_Callable_obj@V<lambda_295bc5f846209cba149a5e74d0d63a72>@@$0A@@std@@V?$allocator@V?$_Func_class@XPAV?$message@H@Concurrency@@@std@@@2@XPAV?$message@H@Concurrency@@@std@@QAE@$$QAV<lambda_295bc5f846209cba149a5e74d0d63a72>@@ABV?$allocator@V?$_Func_impl@U?$_Callable_obj@V<lambda_295bc5f846209cba149a5e74d0d63a72>@@$0A@@std@@V?$allocator@V?$_Func_class@XPAV?$message@H@Concurrency@@@std@@@2@XPAV?$message@H@Concurrency@@@std@@@1@@Z 10064b20 f i WinRTVFS.obj
 0002:00026c00       ??0?$_Func_impl@U?$_Callable_obj@V<lambda_295bc5f846209cba149a5e74d0d63a72>@@$0A@@std@@V?$allocator@V?$_Func_class@XPAV?$message@H@Concurrency@@@std@@@2@XPAV?$message@H@Concurrency@@@std@@QAE@AAV01@@Z 10064c00 f i WinRTVFS.obj
 0002:00026ce0       ??0?$_Func_impl@U?$_Callable_obj@V<lambda_364e75aa895e992ae8821732ca646aa2>@@$0A@@std@@V?$allocator@V?$_Func_class@X$$$V@std@@@2@X$$$V@std@@QAE@$$QAV01@@Z 10064ce0 f i WinRTVFS.obj
 0002:00026dc0       ??0?$_Func_impl@U?$_Callable_obj@V<lambda_364e75aa895e992ae8821732ca646aa2>@@$0A@@std@@V?$allocator@V?$_Func_class@X$$$V@std@@@2@X$$$V@std@@QAE@$$QAV<lambda_364e75aa895e992ae8821732ca646aa2>@@ABV?$allocator@V?$_Func_impl@U?$_Callable_obj@V<lambda_364e75aa895e992ae8821732ca646aa2>@@$0A@@std@@V?$allocator@V?$_Func_class@X$$$V@std@@@2@X$$$V@std@@@1@@Z 10064dc0 f i WinRTVFS.obj
 0002:00026ea0       ??0?$_Func_impl@U?$_Callable_obj@V<lambda_364e75aa895e992ae8821732ca646aa2>@@$0A@@std@@V?$allocator@V?$_Func_class@X$$$V@std@@@2@X$$$V@std@@QAE@AAV01@@Z 10064ea0 f i WinRTVFS.obj
 0002:00026f80       ??0?$_Func_impl@U?$_Callable_obj@V<lambda_39cde079c01d1b5b9307ff255a1ccdd9>@@$0A@@std@@V?$allocator@V?$_Func_class@EE@std@@@2@EE@std@@QAE@$$QAV01@@Z 10064f80 f i WinRTVFS.obj
 0002:00027060       ??0?$_Func_impl@U?$_Callable_obj@V<lambda_39cde079c01d1b5b9307ff255a1ccdd9>@@$0A@@std@@V?$allocator@V?$_Func_class@EE@std@@@2@EE@std@@QAE@$$QAV<lambda_39cde079c01d1b5b9307ff255a1ccdd9>@@ABV?$allocator@V?$_Func_impl@U?$_Callable_obj@V<lambda_39cde079c01d1b5b9307ff255a1ccdd9>@@$0A@@std@@V?$allocator@V?$_Func_class@EE@std@@@2@EE@std@@@1@@Z 10065060 f i WinRTVFS.obj
 0002:00027140       ??0?$_Func_impl@U?$_Callable_obj@V<lambda_39cde079c01d1b5b9307ff255a1ccdd9>@@$0A@@std@@V?$allocator@V?$_Func_class@EE@std@@@2@EE@std@@QAE@AAV01@@Z 10065140 f i WinRTVFS.obj
 0002:00027220       ??0?$_Func_impl@U?$_Callable_obj@V<lambda_528650821c608ced6534641e311542a5>@@$0A@@std@@V?$allocator@V?$_Func_class@X$$$V@std@@@2@X$$$V@std@@QAE@$$QAV01@@Z 10065220 f i WinRTVFS.obj
 0002:00027300       ??0?$_Func_impl@U?$_Callable_obj@V<lambda_528650821c608ced6534641e311542a5>@@$0A@@std@@V?$allocator@V?$_Func_class@X$$$V@std@@@2@X$$$V@std@@QAE@$$QAV<lambda_528650821c608ced6534641e311542a5>@@ABV?$allocator@V?$_Func_impl@U?$_Callable_obj@V<lambda_528650821c608ced6534641e311542a5>@@$0A@@std@@V?$allocator@V?$_Func_class@X$$$V@std@@@2@X$$$V@std@@@1@@Z 10065300 f i WinRTVFS.obj
 0002:000273e0       ??0?$_Func_impl@U?$_Callable_obj@V<lambda_528650821c608ced6534641e311542a5>@@$0A@@std@@V?$allocator@V?$_Func_class@X$$$V@std@@@2@X$$$V@std@@QAE@AAV01@@Z 100653e0 f i WinRTVFS.obj
 0002:000274c0       ??0?$_Func_impl@U?$_Callable_obj@V<lambda_579ccd68d569251046038e8620afec85>@@$0A@@std@@V?$allocator@V?$_Func_class@XPAV?$message@H@Concurrency@@@std@@@2@XPAV?$message@H@Concurrency@@@std@@QAE@$$QAV01@@Z 100654c0 f i WinRTVFS.obj
 0002:000275a0       ??0?$_Func_impl@U?$_Callable_obj@V<lambda_579ccd68d569251046038e8620afec85>@@$0A@@std@@V?$allocator@V?$_Func_class@XPAV?$message@H@Concurrency@@@std@@@2@XPAV?$message@H@Concurrency@@@std@@QAE@$$QAV<lambda_579ccd68d569251046038e8620afec85>@@ABV?$allocator@V?$_Func_impl@U?$_Callable_obj@V<lambda_579ccd68d569251046038e8620afec85>@@$0A@@std@@V?$allocator@V?$_Func_class@XPAV?$message@H@Concurrency@@@std@@@2@XPAV?$message@H@Concurrency@@@std@@@1@@Z 100655a0 f i WinRTVFS.obj
 0002:00027680       ??0?$_Func_impl@U?$_Callable_obj@V<lambda_579ccd68d569251046038e8620afec85>@@$0A@@std@@V?$allocator@V?$_Func_class@XPAV?$message@H@Concurrency@@@std@@@2@XPAV?$message@H@Concurrency@@@std@@QAE@AAV01@@Z 10065680 f i WinRTVFS.obj
 0002:00027760       ??0?$_Func_impl@U?$_Callable_obj@V<lambda_9fc58f08a03183e50e06176727aeb396>@@$0A@@std@@V?$allocator@V?$_Func_class@X$$$V@std@@@2@X$$$V@std@@QAE@$$QAV01@@Z 10065760 f i WinRTVFS.obj
 0002:00027840       ??0?$_Func_impl@U?$_Callable_obj@V<lambda_9fc58f08a03183e50e06176727aeb396>@@$0A@@std@@V?$allocator@V?$_Func_class@X$$$V@std@@@2@X$$$V@std@@QAE@AAV01@@Z 10065840 f i WinRTVFS.obj
 0002:00027920       ??0?$_Func_impl@U?$_Callable_obj@V<lambda_a66b3ee15e662226a0b0b15ae647d32f>@@$0A@@std@@V?$allocator@V?$_Func_class@X$$$V@std@@@2@X$$$V@std@@QAE@$$QAV01@@Z 10065920 f i WinRTVFS.obj
 0002:00027a00       ??0?$_Func_impl@U?$_Callable_obj@V<lambda_a66b3ee15e662226a0b0b15ae647d32f>@@$0A@@std@@V?$allocator@V?$_Func_class@X$$$V@std@@@2@X$$$V@std@@QAE@$$QAV<lambda_a66b3ee15e662226a0b0b15ae647d32f>@@ABV?$allocator@V?$_Func_impl@U?$_Callable_obj@V<lambda_a66b3ee15e662226a0b0b15ae647d32f>@@$0A@@std@@V?$allocator@V?$_Func_class@X$$$V@std@@@2@X$$$V@std@@@1@@Z 10065a00 f i WinRTVFS.obj
 0002:00027ae0       ??0?$_Func_impl@U?$_Callable_obj@V<lambda_a66b3ee15e662226a0b0b15ae647d32f>@@$0A@@std@@V?$allocator@V?$_Func_class@X$$$V@std@@@2@X$$$V@std@@QAE@AAV01@@Z 10065ae0 f i WinRTVFS.obj
 0002:00027bc0       ??0?$_Func_impl@U?$_Callable_obj@V<lambda_c1a554f2383dae03f169289aed8c4103>@@$0A@@std@@V?$allocator@V?$_Func_class@X$$$V@std@@@2@X$$$V@std@@QAE@$$QAV01@@Z 10065bc0 f i WinRTVFS.obj
 0002:00027ca0       ??0?$_Func_impl@U?$_Callable_obj@V<lambda_c1a554f2383dae03f169289aed8c4103>@@$0A@@std@@V?$allocator@V?$_Func_class@X$$$V@std@@@2@X$$$V@std@@QAE@$$QAV<lambda_c1a554f2383dae03f169289aed8c4103>@@ABV?$allocator@V?$_Func_impl@U?$_Callable_obj@V<lambda_c1a554f2383dae03f169289aed8c4103>@@$0A@@std@@V?$allocator@V?$_Func_class@X$$$V@std@@@2@X$$$V@std@@@1@@Z 10065ca0 f i WinRTVFS.obj
 0002:00027d80       ??0?$_Func_impl@U?$_Callable_obj@V<lambda_c1a554f2383dae03f169289aed8c4103>@@$0A@@std@@V?$allocator@V?$_Func_class@X$$$V@std@@@2@X$$$V@std@@QAE@AAV01@@Z 10065d80 f i WinRTVFS.obj
 0002:00027e60       ??0?$_Func_impl@U?$_Callable_obj@V<lambda_c28a53003ed51cdfe295a7d756f98c2f>@@$0A@@std@@V?$allocator@V?$_Func_class@XPAV?$message@H@Concurrency@@@std@@@2@XPAV?$message@H@Concurrency@@@std@@QAE@$$QAV01@@Z 10065e60 f i WinRTVFS.obj
 0002:00027f40       ??0?$_Func_impl@U?$_Callable_obj@V<lambda_c28a53003ed51cdfe295a7d756f98c2f>@@$0A@@std@@V?$allocator@V?$_Func_class@XPAV?$message@H@Concurrency@@@std@@@2@XPAV?$message@H@Concurrency@@@std@@QAE@$$QAV<lambda_c28a53003ed51cdfe295a7d756f98c2f>@@ABV?$allocator@V?$_Func_impl@U?$_Callable_obj@V<lambda_c28a53003ed51cdfe295a7d756f98c2f>@@$0A@@std@@V?$allocator@V?$_Func_class@XPAV?$message@H@Concurrency@@@std@@@2@XPAV?$message@H@Concurrency@@@std@@@1@@Z 10065f40 f i WinRTVFS.obj
 0002:00028020       ??0?$_Func_impl@U?$_Callable_obj@V<lambda_c28a53003ed51cdfe295a7d756f98c2f>@@$0A@@std@@V?$allocator@V?$_Func_class@XPAV?$message@H@Concurrency@@@std@@@2@XPAV?$message@H@Concurrency@@@std@@QAE@AAV01@@Z 10066020 f i WinRTVFS.obj
 0002:00028100       ??0?$_Func_impl@U?$_Callable_obj@V<lambda_e7ef5f1e4e1eca0ae8efc6086cf9f417>@@$0A@@std@@V?$allocator@V?$_Func_class@X$$$V@std@@@2@X$$$V@std@@QAE@$$QAV01@@Z 10066100 f i WinRTVFS.obj
 0002:000281e0       ??0?$_Func_impl@U?$_Callable_obj@V<lambda_e7ef5f1e4e1eca0ae8efc6086cf9f417>@@$0A@@std@@V?$allocator@V?$_Func_class@X$$$V@std@@@2@X$$$V@std@@QAE@$$QAV<lambda_e7ef5f1e4e1eca0ae8efc6086cf9f417>@@ABV?$allocator@V?$_Func_impl@U?$_Callable_obj@V<lambda_e7ef5f1e4e1eca0ae8efc6086cf9f417>@@$0A@@std@@V?$allocator@V?$_Func_class@X$$$V@std@@@2@X$$$V@std@@@1@@Z 100661e0 f i WinRTVFS.obj
 0002:000282c0       ??0?$_Func_impl@U?$_Callable_obj@V<lambda_e7ef5f1e4e1eca0ae8efc6086cf9f417>@@$0A@@std@@V?$allocator@V?$_Func_class@X$$$V@std@@@2@X$$$V@std@@QAE@AAV01@@Z 100662c0 f i WinRTVFS.obj
 0002:000283a0       ??0?$_IAsyncOperationWithProgressToAsyncOperationConverter@II@details@Concurrency@@Q$AAA@P$AAU?$IAsyncOperationWithProgress@II@Foundation@Windows@@@Z 100663a0 f i WinRTVFS.obj
 0002:00028470       ??0?$_IAsyncOperationWithProgressToAsyncOperationConverter@P$AAUIBuffer@Streams@Storage@Windows@@I@details@Concurrency@@Q$AAA@P$AAU?$IAsyncOperationWithProgress@P$AAUIBuffer@Streams@Storage@Windows@@I@Foundation@Windows@@@Z 10066470 f i WinRTVFS.obj
 0002:00028540       ??0?$_Iterator012@Urandom_access_iterator_tag@std@@PAXHPBQAXABQAXU_Iterator_base12@2@@std@@QAE@ABU01@@Z 10066540 f i WinRTVFS.obj
 0002:000285a0       ??0?$_Iterator012@Urandom_access_iterator_tag@std@@PAXHPBQAXABQAXU_Iterator_base12@2@@std@@QAE@XZ 100665a0 f i WinRTVFS.obj
 0002:00028600       ??0?$_Iterator012@Urandom_access_iterator_tag@std@@V?$shared_ptr@U?$_Task_impl@E@details@Concurrency@@@2@HPBV32@ABV32@U_Iterator_base12@2@@std@@QAE@XZ 10066600 f i WinRTVFS.obj
 0002:00028660       ??0?$_Network_link_iterator@V?$ISource@H@Concurrency@@@Concurrency@@QAE@ABV01@@Z 10066660 f i WinRTVFS.obj
 0002:000286c0       ??0?$_Network_link_iterator@V?$ISource@H@Concurrency@@@Concurrency@@QAE@PAV?$network_link_registry@V?$ISource@H@Concurrency@@@1@I@Z 100666c0 f i WinRTVFS.obj
 0002:00028760       ??0?$_Network_link_iterator@V?$ITarget@H@Concurrency@@@Concurrency@@QAE@PAV?$network_link_registry@V?$ITarget@H@Concurrency@@@1@I@Z 10066760 f i WinRTVFS.obj
 0002:00028800       ??0?$_PPLTaskHandle@EU?$_ContinuationTaskHandle@XXV<lambda_9fc58f08a03183e50e06176727aeb396>@@U?$integral_constant@_N$0A@@std@@U_TypeSelectorNoAsync@details@Concurrency@@@?$task@E@Concurrency@@U_ContinuationTaskHandleBase@details@3@@details@Concurrency@@QAE@ABV?$shared_ptr@U?$_Task_impl@E@details@Concurrency@@@std@@@Z 10066800 f i WinRTVFS.obj
 0002:00028880       ??0?$_Ptr_base@U?$_Task_completion_event_impl@E@details@Concurrency@@@std@@QAE@$$QAV01@@Z 10066880 f i WinRTVFS.obj
 0002:00028900       ??0?$_Ptr_base@U?$_Task_completion_event_impl@E@details@Concurrency@@@std@@QAE@XZ 10066900 f i WinRTVFS.obj
 0002:00028950       ??0?$_Ptr_base@U?$_Task_impl@E@details@Concurrency@@@std@@QAE@$$QAV01@@Z 10066950 f i WinRTVFS.obj
 0002:000289d0       ??0?$_Ptr_base@U?$_Task_impl@E@details@Concurrency@@@std@@QAE@XZ 100669d0 f i WinRTVFS.obj
 0002:00028a20       ??0?$_Ptr_base@U?$_Task_impl@I@details@Concurrency@@@std@@QAE@$$QAV01@@Z 10066a20 f i WinRTVFS.obj
 0002:00028aa0       ??0?$_Ptr_base@U?$_Task_impl@I@details@Concurrency@@@std@@QAE@XZ 10066aa0 f i WinRTVFS.obj
 0002:00028af0       ??0?$_Ptr_base@U?$_Task_impl@P$AAUIBuffer@Streams@Storage@Windows@@@details@Concurrency@@@std@@QAE@$$QAV01@@Z 10066af0 f i WinRTVFS.obj
 0002:00028b70       ??0?$_Ptr_base@U?$_Task_impl@P$AAUIBuffer@Streams@Storage@Windows@@@details@Concurrency@@@std@@QAE@XZ 10066b70 f i WinRTVFS.obj
 0002:00028bc0       ??0?$_Ptr_base@U?$_Task_impl@P$AAUIRandomAccessStream@Streams@Storage@Windows@@@details@Concurrency@@@std@@QAE@$$QAV01@@Z 10066bc0 f i WinRTVFS.obj
 0002:00028c40       ??0?$_Ptr_base@U?$_Task_impl@P$AAUIRandomAccessStream@Streams@Storage@Windows@@@details@Concurrency@@@std@@QAE@XZ 10066c40 f i WinRTVFS.obj
 0002:00028c90       ??0?$_Ptr_base@U?$_Task_impl@P$AAVStorageFile@Storage@Windows@@@details@Concurrency@@@std@@QAE@$$QAV01@@Z 10066c90 f i WinRTVFS.obj
 0002:00028d10       ??0?$_Ptr_base@U?$_Task_impl@P$AAVStorageFile@Storage@Windows@@@details@Concurrency@@@std@@QAE@XZ 10066d10 f i WinRTVFS.obj
 0002:00028d60       ??0?$_Ptr_base@U?$_Task_impl@P$AAVStorageFolder@Storage@Windows@@@details@Concurrency@@@std@@QAE@$$QAV01@@Z 10066d60 f i WinRTVFS.obj
 0002:00028de0       ??0?$_Ptr_base@U?$_Task_impl@P$AAVStorageFolder@Storage@Windows@@@details@Concurrency@@@std@@QAE@XZ 10066de0 f i WinRTVFS.obj
 0002:00028e30       ??0?$_Ptr_base@U?$_Task_impl@_N@details@Concurrency@@@std@@QAE@$$QAV01@@Z 10066e30 f i WinRTVFS.obj
 0002:00028eb0       ??0?$_Ptr_base@U?$_Task_impl@_N@details@Concurrency@@@std@@QAE@XZ 10066eb0 f i WinRTVFS.obj
 0002:00028f00       ??0?$_Ptr_base@U_ExceptionHolder@details@Concurrency@@@std@@QAE@$$QAV01@@Z 10066f00 f i WinRTVFS.obj
 0002:00028f80       ??0?$_Ptr_base@U_ExceptionHolder@details@Concurrency@@@std@@QAE@XZ 10066f80 f i WinRTVFS.obj
 0002:00028fd0       ??0?$_Ptr_base@U_Task_impl_base@details@Concurrency@@@std@@QAE@XZ 10066fd0 f i WinRTVFS.obj
 0002:00029020       ??0?$_Ptr_base@Uscheduler_interface@Concurrency@@@std@@QAE@$$QAV01@@Z 10067020 f i WinRTVFS.obj
 0002:000290a0       ??0?$_Ptr_base@Uscheduler_interface@Concurrency@@@std@@QAE@XZ 100670a0 f i WinRTVFS.obj
 0002:000290f0       ??0?$_ResultHolder@P$AAUIBuffer@Streams@Storage@Windows@@@details@Concurrency@@QAE@XZ 100670f0 f i WinRTVFS.obj
 0002:00029150       ??0?$_ResultHolder@P$AAUIRandomAccessStream@Streams@Storage@Windows@@@details@Concurrency@@QAE@XZ 10067150 f i WinRTVFS.obj
 0002:000291b0       ??0?$_ResultHolder@P$AAVStorageFile@Storage@Windows@@@details@Concurrency@@QAE@XZ 100671b0 f i WinRTVFS.obj
 0002:00029210       ??0?$_ResultHolder@P$AAVStorageFolder@Storage@Windows@@@details@Concurrency@@QAE@XZ 10067210 f i WinRTVFS.obj
 0002:00029270       ??0?$_Source_link_iterator@V?$multi_link_registry@V?$ISource@H@Concurrency@@@Concurrency@@@Concurrency@@QAE@PAV?$source_link_manager@V?$multi_link_registry@V?$ISource@H@Concurrency@@@Concurrency@@@1@I@Z 10067270 f i WinRTVFS.obj
 0002:00029360       ??0?$_Task_completion_event_impl@E@details@Concurrency@@QAE@XZ 10067360 f i WinRTVFS.obj
 0002:00029440       ??0?$_Task_impl@E@details@Concurrency@@QAE@PAV_CancellationTokenState@12@Uscheduler_ptr@2@@Z 10067440 f i WinRTVFS.obj
 0002:00029550       ??0?$_Task_impl@I@details@Concurrency@@QAE@PAV_CancellationTokenState@12@Uscheduler_ptr@2@@Z 10067550 f i WinRTVFS.obj
 0002:00029660       ??0?$_Task_impl@P$AAUIBuffer@Streams@Storage@Windows@@@details@Concurrency@@QAE@PAV_CancellationTokenState@12@Uscheduler_ptr@2@@Z 10067660 f i WinRTVFS.obj
 0002:00029790       ??0?$_Task_impl@P$AAUIRandomAccessStream@Streams@Storage@Windows@@@details@Concurrency@@QAE@PAV_CancellationTokenState@12@Uscheduler_ptr@2@@Z 10067790 f i WinRTVFS.obj
 0002:000298c0       ??0?$_Task_impl@P$AAVStorageFile@Storage@Windows@@@details@Concurrency@@QAE@PAV_CancellationTokenState@12@Uscheduler_ptr@2@@Z 100678c0 f i WinRTVFS.obj
 0002:000299f0       ??0?$_Task_impl@P$AAVStorageFolder@Storage@Windows@@@details@Concurrency@@QAE@PAV_CancellationTokenState@12@Uscheduler_ptr@2@@Z 100679f0 f i WinRTVFS.obj
 0002:00029b20       ??0?$_Task_impl@_N@details@Concurrency@@QAE@PAV_CancellationTokenState@12@Uscheduler_ptr@2@@Z 10067b20 f i WinRTVFS.obj
 0002:00029c30       ??0?$_Vector_alloc@$0A@U?$_Vec_base_types@PAXV?$allocator@PAX@std@@@std@@@std@@QAE@ABV?$allocator@PAX@1@@Z 10067c30 f i WinRTVFS.obj
 0002:00029ce0       ??0?$_Vector_alloc@$0A@U?$_Vec_base_types@V?$shared_ptr@U?$_Task_impl@E@details@Concurrency@@@std@@V?$allocator@V?$shared_ptr@U?$_Task_impl@E@details@Concurrency@@@std@@@2@@std@@@std@@QAE@ABV?$allocator@V?$shared_ptr@U?$_Task_impl@E@details@Concurrency@@@std@@@1@@Z 10067ce0 f i WinRTVFS.obj
 0002:00029d90       ??0?$_Vector_const_iterator@V?$_Vector_val@U?$_Simple_types@PAX@std@@@std@@@std@@QAE@ABV01@@Z 10067d90 f i WinRTVFS.obj
 0002:00029e00       ??0?$_Vector_const_iterator@V?$_Vector_val@U?$_Simple_types@PAX@std@@@std@@@std@@QAE@PAPAXPBU_Container_base12@1@@Z 10067e00 f i WinRTVFS.obj
 0002:00029ec0       ??0?$_Vector_const_iterator@V?$_Vector_val@U?$_Simple_types@V?$shared_ptr@U?$_Task_impl@E@details@Concurrency@@@std@@@std@@@std@@@std@@QAE@PAV?$shared_ptr@U?$_Task_impl@E@details@Concurrency@@@1@PBU_Container_base12@1@@Z 10067ec0 f i WinRTVFS.obj
 0002:00029f80       ??0?$_Vector_iterator@V?$_Vector_val@U?$_Simple_types@V?$shared_ptr@U?$_Task_impl@E@details@Concurrency@@@std@@@std@@@std@@@std@@QAE@PAV?$shared_ptr@U?$_Task_impl@E@details@Concurrency@@@1@PBU_Container_base12@1@@Z 10067f80 f i WinRTVFS.obj
 0002:00029fe0       ??0?$_Vector_val@U?$_Simple_types@PAX@std@@@std@@QAE@XZ 10067fe0 f i WinRTVFS.obj
 0002:0002a070       ??0?$_Vector_val@U?$_Simple_types@V?$shared_ptr@U?$_Task_impl@E@details@Concurrency@@@std@@@std@@@std@@QAE@XZ 10068070 f i WinRTVFS.obj
 0002:0002a100       ??0?$_Wrap_alloc@V?$allocator@PAX@std@@@std@@QAE@ABV?$allocator@PAX@1@@Z 10068100 f i WinRTVFS.obj
 0002:0002a160       ??0?$_Wrap_alloc@V?$allocator@PAX@std@@@std@@QAE@XZ 10068160 f i WinRTVFS.obj
 0002:0002a1c0       ??0?$_Wrap_alloc@V?$allocator@U_Container_proxy@std@@@std@@@std@@QAE@XZ 100681c0 f i WinRTVFS.obj
 0002:0002a220       ??0?$_Wrap_alloc@V?$allocator@V?$shared_ptr@U?$_Task_impl@E@details@Concurrency@@@std@@@std@@@std@@QAE@XZ 10068220 f i WinRTVFS.obj
 0002:0002a280       ??0?$__abi_FunctorCapture@V<lambda_06940b0a4178dd98f799c96a43aa5761>@@XP$AAUIAsyncAction@Foundation@Windows@@W4AsyncStatus@34@@Details@Platform@@QAE@V<lambda_06940b0a4178dd98f799c96a43aa5761>@@@Z 10068280 f i WinRTVFS.obj
 0002:0002a300       ??0?$__abi_FunctorCapture@V<lambda_3e0d823744565aaa3c572230ef0680e7>@@XP$AAU?$IAsyncOperationWithProgress@P$AAUIBuffer@Streams@Storage@Windows@@I@Foundation@Windows@@W4AsyncStatus@34@@Details@Platform@@QAE@V<lambda_3e0d823744565aaa3c572230ef0680e7>@@@Z 10068300 f i WinRTVFS.obj
 0002:0002a380       ??0?$__abi_FunctorCapture@V<lambda_50a95a3b918e2a131c7de197f9d43680>@@XP$AAU?$IAsyncOperation@I@Foundation@Windows@@W4AsyncStatus@34@@Details@Platform@@QAE@V<lambda_50a95a3b918e2a131c7de197f9d43680>@@@Z 10068380 f i WinRTVFS.obj
 0002:0002a400       ??0?$__abi_FunctorCapture@V<lambda_58b35b2c39cebe76475502e8be1fa050>@@XP$AAU?$IAsyncOperation@P$AAUIRandomAccessStream@Streams@Storage@Windows@@@Foundation@Windows@@W4AsyncStatus@34@@Details@Platform@@QAE@V<lambda_58b35b2c39cebe76475502e8be1fa050>@@@Z 10068400 f i WinRTVFS.obj
 0002:0002a480       ??0?$__abi_FunctorCapture@V<lambda_78c8bde34479949ab00939bfc3c21b9e>@@XP$AAU?$IAsyncOperation@_N@Foundation@Windows@@W4AsyncStatus@34@@Details@Platform@@QAE@V<lambda_78c8bde34479949ab00939bfc3c21b9e>@@@Z 10068480 f i WinRTVFS.obj
 0002:0002a500       ??0?$__abi_FunctorCapture@V<lambda_7a641106db6b220fc1bd53009e5e1b6e>@@XP$AAU?$IAsyncOperationWithProgress@II@Foundation@Windows@@W4AsyncStatus@34@@Details@Platform@@QAE@V<lambda_7a641106db6b220fc1bd53009e5e1b6e>@@@Z 10068500 f i WinRTVFS.obj
 0002:0002a580       ??0?$__abi_FunctorCapture@V<lambda_8b35f48eeaabe3dd7cb14b365c80a64b>@@XP$AAU?$IAsyncOperation@P$AAUIBuffer@Streams@Storage@Windows@@@Foundation@Windows@@W4AsyncStatus@34@@Details@Platform@@QAE@V<lambda_8b35f48eeaabe3dd7cb14b365c80a64b>@@@Z 10068580 f i WinRTVFS.obj
 0002:0002a600       ??0?$__abi_FunctorCapture@V<lambda_b5ec294d64b7ae7d96b9bd52c133d46d>@@XP$AAU?$IAsyncOperation@E@Foundation@Windows@@W4AsyncStatus@34@@Details@Platform@@QAE@V<lambda_b5ec294d64b7ae7d96b9bd52c133d46d>@@@Z 10068600 f i WinRTVFS.obj
 0002:0002a680       ??0?$__abi_FunctorCapture@V<lambda_c124a470bc399dc48f76de2d0d06ac02>@@XP$AAU?$IAsyncOperation@P$AAVStorageFolder@Storage@Windows@@@Foundation@Windows@@W4AsyncStatus@34@@Details@Platform@@QAE@V<lambda_c124a470bc399dc48f76de2d0d06ac02>@@@Z 10068680 f i WinRTVFS.obj
 0002:0002a700       ??0?$__abi_FunctorCapture@V<lambda_f0a7c2b0a64e3b533e4acd91ff29d36c>@@XP$AAU?$IAsyncOperation@P$AAVStorageFile@Storage@Windows@@@Foundation@Windows@@W4AsyncStatus@34@@Details@Platform@@QAE@V<lambda_f0a7c2b0a64e3b533e4acd91ff29d36c>@@@Z 10068700 f i WinRTVFS.obj
 0002:0002a780       ??0?$allocator@PAV?$message@H@Concurrency@@@std@@QAE@XZ 10068780 f i WinRTVFS.obj
 0002:0002a7c0       ??0?$allocator@PAX@std@@QAE@ABV01@@Z 100687c0 f i WinRTVFS.obj
 0002:0002a800       ??0?$allocator@PAX@std@@QAE@XZ 10068800 f i WinRTVFS.obj
 0002:0002a840       ??0?$allocator@V?$_Func_class@EE@std@@@std@@QAE@ABV01@@Z 10068840 f i WinRTVFS.obj
 0002:0002a880       ??0?$allocator@V?$_Func_class@EE@std@@@std@@QAE@XZ 10068880 f i WinRTVFS.obj
 0002:0002a8c0       ??0?$allocator@V?$_Func_class@X$$$V@std@@@std@@QAE@ABV01@@Z 100688c0 f i WinRTVFS.obj
 0002:0002a900       ??0?$allocator@V?$_Func_class@X$$$V@std@@@std@@QAE@XZ 10068900 f i WinRTVFS.obj
 0002:0002a940       ??0?$allocator@V?$_Func_class@XABH@std@@@std@@QAE@ABV01@@Z 10068940 f i WinRTVFS.obj
 0002:0002a980       ??0?$allocator@V?$_Func_class@XABH@std@@@std@@QAE@XZ 10068980 f i WinRTVFS.obj
 0002:0002a9c0       ??0?$allocator@V?$_Func_class@XPAV?$message@H@Concurrency@@@std@@@std@@QAE@ABV01@@Z 100689c0 f i WinRTVFS.obj
 0002:0002aa00       ??0?$allocator@V?$_Func_class@XPAV?$message@H@Concurrency@@@std@@@std@@QAE@XZ 10068a00 f i WinRTVFS.obj
 0002:0002aa40       ??0?$allocator@V?$_Func_impl@U?$_Callable_obj@V<lambda_02d862f9cfc639ff7c37ca52d43e6a8c>@@$0A@@std@@V?$allocator@V?$_Func_class@X$$$V@std@@@2@X$$$V@std@@@std@@QAE@ABV01@@Z 10068a40 f i WinRTVFS.obj
 0002:0002aa80       ??0?$allocator@V?$_Func_impl@U?$_Callable_obj@V<lambda_02d862f9cfc639ff7c37ca52d43e6a8c>@@$0A@@std@@V?$allocator@V?$_Func_class@X$$$V@std@@@2@X$$$V@std@@@std@@QAE@XZ 10068a80 f i WinRTVFS.obj
 0002:0002aac0       ??0?$allocator@V?$_Func_impl@U?$_Callable_obj@V<lambda_095a938ce4c5765dcc6b67f548aeb9c7>@@$0A@@std@@V?$allocator@V?$_Func_class@X$$$V@std@@@2@X$$$V@std@@@std@@QAE@ABV01@@Z 10068ac0 f i WinRTVFS.obj
 0002:0002ab00       ??0?$allocator@V?$_Func_impl@U?$_Callable_obj@V<lambda_095a938ce4c5765dcc6b67f548aeb9c7>@@$0A@@std@@V?$allocator@V?$_Func_class@X$$$V@std@@@2@X$$$V@std@@@std@@QAE@XZ 10068b00 f i WinRTVFS.obj
 0002:0002ab40       ??0?$allocator@V?$_Func_impl@U?$_Callable_obj@V<lambda_0b7f78ec4ced38495cec46e0d346e0b9>@@$0A@@std@@V?$allocator@V?$_Func_class@X$$$V@std@@@2@X$$$V@std@@@std@@QAE@ABV01@@Z 10068b40 f i WinRTVFS.obj
 0002:0002ab80       ??0?$allocator@V?$_Func_impl@U?$_Callable_obj@V<lambda_0b7f78ec4ced38495cec46e0d346e0b9>@@$0A@@std@@V?$allocator@V?$_Func_class@X$$$V@std@@@2@X$$$V@std@@@std@@QAE@XZ 10068b80 f i WinRTVFS.obj
 0002:0002abc0       ??0?$allocator@V?$_Func_impl@U?$_Callable_obj@V<lambda_0fe479da16d43edb8e9a254c493d643e>@@$0A@@std@@V?$allocator@V?$_Func_class@X$$$V@std@@@2@X$$$V@std@@@std@@QAE@ABV01@@Z 10068bc0 f i WinRTVFS.obj
 0002:0002ac00       ??0?$allocator@V?$_Func_impl@U?$_Callable_obj@V<lambda_0fe479da16d43edb8e9a254c493d643e>@@$0A@@std@@V?$allocator@V?$_Func_class@X$$$V@std@@@2@X$$$V@std@@@std@@QAE@XZ 10068c00 f i WinRTVFS.obj
 0002:0002ac40       ??0?$allocator@V?$_Func_impl@U?$_Callable_obj@V<lambda_1a93da980d6fe77644a4eefc4e1ad756>@@$0A@@std@@V?$allocator@V?$_Func_class@XABH@std@@@2@XABH@std@@@std@@QAE@ABV01@@Z 10068c40 f i WinRTVFS.obj
 0002:0002ac80       ??0?$allocator@V?$_Func_impl@U?$_Callable_obj@V<lambda_1a93da980d6fe77644a4eefc4e1ad756>@@$0A@@std@@V?$allocator@V?$_Func_class@XABH@std@@@2@XABH@std@@@std@@QAE@XZ 10068c80 f i WinRTVFS.obj
 0002:0002acc0       ??0?$allocator@V?$_Func_impl@U?$_Callable_obj@V<lambda_295bc5f846209cba149a5e74d0d63a72>@@$0A@@std@@V?$allocator@V?$_Func_class@XPAV?$message@H@Concurrency@@@std@@@2@XPAV?$message@H@Concurrency@@@std@@@std@@QAE@ABV01@@Z 10068cc0 f i WinRTVFS.obj
 0002:0002ad00       ??0?$allocator@V?$_Func_impl@U?$_Callable_obj@V<lambda_295bc5f846209cba149a5e74d0d63a72>@@$0A@@std@@V?$allocator@V?$_Func_class@XPAV?$message@H@Concurrency@@@std@@@2@XPAV?$message@H@Concurrency@@@std@@@std@@QAE@XZ 10068d00 f i WinRTVFS.obj
 0002:0002ad40       ??0?$allocator@V?$_Func_impl@U?$_Callable_obj@V<lambda_364e75aa895e992ae8821732ca646aa2>@@$0A@@std@@V?$allocator@V?$_Func_class@X$$$V@std@@@2@X$$$V@std@@@std@@QAE@ABV01@@Z 10068d40 f i WinRTVFS.obj
 0002:0002ad80       ??0?$allocator@V?$_Func_impl@U?$_Callable_obj@V<lambda_364e75aa895e992ae8821732ca646aa2>@@$0A@@std@@V?$allocator@V?$_Func_class@X$$$V@std@@@2@X$$$V@std@@@std@@QAE@XZ 10068d80 f i WinRTVFS.obj
 0002:0002adc0       ??0?$allocator@V?$_Func_impl@U?$_Callable_obj@V<lambda_39cde079c01d1b5b9307ff255a1ccdd9>@@$0A@@std@@V?$allocator@V?$_Func_class@EE@std@@@2@EE@std@@@std@@QAE@ABV01@@Z 10068dc0 f i WinRTVFS.obj
 0002:0002ae00       ??0?$allocator@V?$_Func_impl@U?$_Callable_obj@V<lambda_39cde079c01d1b5b9307ff255a1ccdd9>@@$0A@@std@@V?$allocator@V?$_Func_class@EE@std@@@2@EE@std@@@std@@QAE@XZ 10068e00 f i WinRTVFS.obj
 0002:0002ae40       ??0?$allocator@V?$_Func_impl@U?$_Callable_obj@V<lambda_528650821c608ced6534641e311542a5>@@$0A@@std@@V?$allocator@V?$_Func_class@X$$$V@std@@@2@X$$$V@std@@@std@@QAE@ABV01@@Z 10068e40 f i WinRTVFS.obj
 0002:0002ae80       ??0?$allocator@V?$_Func_impl@U?$_Callable_obj@V<lambda_528650821c608ced6534641e311542a5>@@$0A@@std@@V?$allocator@V?$_Func_class@X$$$V@std@@@2@X$$$V@std@@@std@@QAE@XZ 10068e80 f i WinRTVFS.obj
 0002:0002aec0       ??0?$allocator@V?$_Func_impl@U?$_Callable_obj@V<lambda_579ccd68d569251046038e8620afec85>@@$0A@@std@@V?$allocator@V?$_Func_class@XPAV?$message@H@Concurrency@@@std@@@2@XPAV?$message@H@Concurrency@@@std@@@std@@QAE@ABV01@@Z 10068ec0 f i WinRTVFS.obj
 0002:0002af00       ??0?$allocator@V?$_Func_impl@U?$_Callable_obj@V<lambda_579ccd68d569251046038e8620afec85>@@$0A@@std@@V?$allocator@V?$_Func_class@XPAV?$message@H@Concurrency@@@std@@@2@XPAV?$message@H@Concurrency@@@std@@@std@@QAE@XZ 10068f00 f i WinRTVFS.obj
 0002:0002af40       ??0?$allocator@V?$_Func_impl@U?$_Callable_obj@V<lambda_9fc58f08a03183e50e06176727aeb396>@@$0A@@std@@V?$allocator@V?$_Func_class@X$$$V@std@@@2@X$$$V@std@@@std@@QAE@ABV01@@Z 10068f40 f i WinRTVFS.obj
 0002:0002af80       ??0?$allocator@V?$_Func_impl@U?$_Callable_obj@V<lambda_9fc58f08a03183e50e06176727aeb396>@@$0A@@std@@V?$allocator@V?$_Func_class@X$$$V@std@@@2@X$$$V@std@@@std@@QAE@XZ 10068f80 f i WinRTVFS.obj
 0002:0002afc0       ??0?$allocator@V?$_Func_impl@U?$_Callable_obj@V<lambda_a66b3ee15e662226a0b0b15ae647d32f>@@$0A@@std@@V?$allocator@V?$_Func_class@X$$$V@std@@@2@X$$$V@std@@@std@@QAE@ABV01@@Z 10068fc0 f i WinRTVFS.obj
 0002:0002b000       ??0?$allocator@V?$_Func_impl@U?$_Callable_obj@V<lambda_a66b3ee15e662226a0b0b15ae647d32f>@@$0A@@std@@V?$allocator@V?$_Func_class@X$$$V@std@@@2@X$$$V@std@@@std@@QAE@XZ 10069000 f i WinRTVFS.obj
 0002:0002b040       ??0?$allocator@V?$_Func_impl@U?$_Callable_obj@V<lambda_c1a554f2383dae03f169289aed8c4103>@@$0A@@std@@V?$allocator@V?$_Func_class@X$$$V@std@@@2@X$$$V@std@@@std@@QAE@ABV01@@Z 10069040 f i WinRTVFS.obj
 0002:0002b080       ??0?$allocator@V?$_Func_impl@U?$_Callable_obj@V<lambda_c1a554f2383dae03f169289aed8c4103>@@$0A@@std@@V?$allocator@V?$_Func_class@X$$$V@std@@@2@X$$$V@std@@@std@@QAE@XZ 10069080 f i WinRTVFS.obj
 0002:0002b0c0       ??0?$allocator@V?$_Func_impl@U?$_Callable_obj@V<lambda_c28a53003ed51cdfe295a7d756f98c2f>@@$0A@@std@@V?$allocator@V?$_Func_class@XPAV?$message@H@Concurrency@@@std@@@2@XPAV?$message@H@Concurrency@@@std@@@std@@QAE@ABV01@@Z 100690c0 f i WinRTVFS.obj
 0002:0002b100       ??0?$allocator@V?$_Func_impl@U?$_Callable_obj@V<lambda_c28a53003ed51cdfe295a7d756f98c2f>@@$0A@@std@@V?$allocator@V?$_Func_class@XPAV?$message@H@Concurrency@@@std@@@2@XPAV?$message@H@Concurrency@@@std@@@std@@QAE@XZ 10069100 f i WinRTVFS.obj
 0002:0002b140       ??0?$allocator@V?$_Func_impl@U?$_Callable_obj@V<lambda_e7ef5f1e4e1eca0ae8efc6086cf9f417>@@$0A@@std@@V?$allocator@V?$_Func_class@X$$$V@std@@@2@X$$$V@std@@@std@@QAE@ABV01@@Z 10069140 f i WinRTVFS.obj
 0002:0002b180       ??0?$allocator@V?$_Func_impl@U?$_Callable_obj@V<lambda_e7ef5f1e4e1eca0ae8efc6086cf9f417>@@$0A@@std@@V?$allocator@V?$_Func_class@X$$$V@std@@@2@X$$$V@std@@@std@@QAE@XZ 10069180 f i WinRTVFS.obj
 0002:0002b1c0       ??0?$allocator@V?$shared_ptr@U?$_Task_impl@E@details@Concurrency@@@std@@@std@@QAE@ABV01@@Z 100691c0 f i WinRTVFS.obj
 0002:0002b200       ??0?$allocator@V?$shared_ptr@U?$_Task_impl@E@details@Concurrency@@@std@@@std@@QAE@XZ 10069200 f i WinRTVFS.obj
 0002:0002b240       ??0?$atomic@J@std@@QAE@J@Z 10069240 f i WinRTVFS.obj
 0002:0002b2a0       ??0?$call@HV?$function@$$A6AXABH@Z@std@@@Concurrency@@QAE@ABV?$function@$$A6AXABH@Z@std@@@Z 100692a0 f i WinRTVFS.obj
 0002:0002b380       ??0?$concurrent_queue@PAV?$message@H@Concurrency@@V?$allocator@PAV?$message@H@Concurrency@@@std@@@Concurrency@@QAE@ABV?$allocator@PAV?$message@H@Concurrency@@@std@@@Z 10069380 f i WinRTVFS.obj
 0002:0002b410       ??0?$function@$$A6AXABH@Z@std@@QAE@ABV01@@Z 10069410 f i WinRTVFS.obj
 0002:0002b4c0       ??0?$function@$$A6AXPAV?$message@H@Concurrency@@@Z@std@@QAE@$$T@Z 100694c0 f i WinRTVFS.obj
 0002:0002b520       ??0?$function@$$A6AXXZ@std@@QAE@$$T@Z 10069520 f i WinRTVFS.obj
 0002:0002b580       ??0?$function@$$A6AXXZ@std@@QAE@ABV01@@Z 10069580 f i WinRTVFS.obj
 0002:0002b630       ??0?$message@H@Concurrency@@QAE@ABH@Z 10069630 f i WinRTVFS.obj
 0002:0002b6d0       ??0?$message_processor@H@Concurrency@@QAE@XZ 100696d0 f i WinRTVFS.obj
 0002:0002b720       ??0?$multi_link_registry@V?$ISource@H@Concurrency@@@Concurrency@@QAE@XZ 10069720 f i WinRTVFS.obj
 0002:0002b7a0       ??0?$network_link_registry@V?$ISource@H@Concurrency@@@Concurrency@@QAE@XZ 100697a0 f i WinRTVFS.obj
 0002:0002b7f0       ??0?$network_link_registry@V?$ITarget@H@Concurrency@@@Concurrency@@QAE@XZ 100697f0 f i WinRTVFS.obj
 0002:0002b840       ??0?$ordered_message_processor@H@Concurrency@@QAE@XZ 10069840 f i WinRTVFS.obj
 0002:0002b990       ??0?$shared_ptr@U?$_Task_completion_event_impl@E@details@Concurrency@@@std@@QAE@$$QAV01@@Z 10069990 f i WinRTVFS.obj
 0002:0002ba00       ??0?$shared_ptr@U?$_Task_completion_event_impl@E@details@Concurrency@@@std@@QAE@ABV01@@Z 10069a00 f i WinRTVFS.obj
 0002:0002ba70       ??0?$shared_ptr@U?$_Task_completion_event_impl@E@details@Concurrency@@@std@@QAE@XZ 10069a70 f i WinRTVFS.obj
 0002:0002bad0       ??0?$shared_ptr@U?$_Task_impl@E@details@Concurrency@@@std@@QAE@$$QAV01@@Z 10069ad0 f i WinRTVFS.obj
 0002:0002bb40       ??0?$shared_ptr@U?$_Task_impl@E@details@Concurrency@@@std@@QAE@$$T@Z 10069b40 f i WinRTVFS.obj
 0002:0002bba0       ??0?$shared_ptr@U?$_Task_impl@E@details@Concurrency@@@std@@QAE@ABV01@@Z 10069ba0 f i WinRTVFS.obj
 0002:0002bc10       ??0?$shared_ptr@U?$_Task_impl@E@details@Concurrency@@@std@@QAE@XZ 10069c10 f i WinRTVFS.obj
 0002:0002bc70       ??0?$shared_ptr@U?$_Task_impl@I@details@Concurrency@@@std@@QAE@$$QAV01@@Z 10069c70 f i WinRTVFS.obj
 0002:0002bce0       ??0?$shared_ptr@U?$_Task_impl@I@details@Concurrency@@@std@@QAE@ABV01@@Z 10069ce0 f i WinRTVFS.obj
 0002:0002bd50       ??0?$shared_ptr@U?$_Task_impl@I@details@Concurrency@@@std@@QAE@XZ 10069d50 f i WinRTVFS.obj
 0002:0002bdb0       ??0?$shared_ptr@U?$_Task_impl@P$AAUIBuffer@Streams@Storage@Windows@@@details@Concurrency@@@std@@QAE@$$QAV01@@Z 10069db0 f i WinRTVFS.obj
 0002:0002be20       ??0?$shared_ptr@U?$_Task_impl@P$AAUIBuffer@Streams@Storage@Windows@@@details@Concurrency@@@std@@QAE@ABV01@@Z 10069e20 f i WinRTVFS.obj
 0002:0002be90       ??0?$shared_ptr@U?$_Task_impl@P$AAUIBuffer@Streams@Storage@Windows@@@details@Concurrency@@@std@@QAE@XZ 10069e90 f i WinRTVFS.obj
 0002:0002bef0       ??0?$shared_ptr@U?$_Task_impl@P$AAUIRandomAccessStream@Streams@Storage@Windows@@@details@Concurrency@@@std@@QAE@$$QAV01@@Z 10069ef0 f i WinRTVFS.obj
 0002:0002bf60       ??0?$shared_ptr@U?$_Task_impl@P$AAUIRandomAccessStream@Streams@Storage@Windows@@@details@Concurrency@@@std@@QAE@ABV01@@Z 10069f60 f i WinRTVFS.obj
 0002:0002bfd0       ??0?$shared_ptr@U?$_Task_impl@P$AAUIRandomAccessStream@Streams@Storage@Windows@@@details@Concurrency@@@std@@QAE@XZ 10069fd0 f i WinRTVFS.obj
 0002:0002c030       ??0?$shared_ptr@U?$_Task_impl@P$AAVStorageFile@Storage@Windows@@@details@Concurrency@@@std@@QAE@$$QAV01@@Z 1006a030 f i WinRTVFS.obj
 0002:0002c0a0       ??0?$shared_ptr@U?$_Task_impl@P$AAVStorageFile@Storage@Windows@@@details@Concurrency@@@std@@QAE@ABV01@@Z 1006a0a0 f i WinRTVFS.obj
 0002:0002c110       ??0?$shared_ptr@U?$_Task_impl@P$AAVStorageFile@Storage@Windows@@@details@Concurrency@@@std@@QAE@XZ 1006a110 f i WinRTVFS.obj
 0002:0002c170       ??0?$shared_ptr@U?$_Task_impl@P$AAVStorageFolder@Storage@Windows@@@details@Concurrency@@@std@@QAE@$$QAV01@@Z 1006a170 f i WinRTVFS.obj
 0002:0002c1e0       ??0?$shared_ptr@U?$_Task_impl@P$AAVStorageFolder@Storage@Windows@@@details@Concurrency@@@std@@QAE@ABV01@@Z 1006a1e0 f i WinRTVFS.obj
 0002:0002c250       ??0?$shared_ptr@U?$_Task_impl@P$AAVStorageFolder@Storage@Windows@@@details@Concurrency@@@std@@QAE@XZ 1006a250 f i WinRTVFS.obj
 0002:0002c2b0       ??0?$shared_ptr@U?$_Task_impl@_N@details@Concurrency@@@std@@QAE@$$QAV01@@Z 1006a2b0 f i WinRTVFS.obj
 0002:0002c320       ??0?$shared_ptr@U?$_Task_impl@_N@details@Concurrency@@@std@@QAE@ABV01@@Z 1006a320 f i WinRTVFS.obj
 0002:0002c390       ??0?$shared_ptr@U?$_Task_impl@_N@details@Concurrency@@@std@@QAE@XZ 1006a390 f i WinRTVFS.obj
 0002:0002c3f0       ??0?$shared_ptr@U_ExceptionHolder@details@Concurrency@@@std@@QAE@$$QAV01@@Z 1006a3f0 f i WinRTVFS.obj
 0002:0002c460       ??0?$shared_ptr@U_ExceptionHolder@details@Concurrency@@@std@@QAE@ABV01@@Z 1006a460 f i WinRTVFS.obj
 0002:0002c4d0       ??0?$shared_ptr@U_ExceptionHolder@details@Concurrency@@@std@@QAE@XZ 1006a4d0 f i WinRTVFS.obj
 0002:0002c530       ??0?$shared_ptr@U_Task_impl_base@details@Concurrency@@@std@@QAE@ABV01@@Z 1006a530 f i WinRTVFS.obj
 0002:0002c5a0       ??0?$shared_ptr@Uscheduler_interface@Concurrency@@@std@@QAE@$$QAV01@@Z 1006a5a0 f i WinRTVFS.obj
 0002:0002c610       ??0?$shared_ptr@Uscheduler_interface@Concurrency@@@std@@QAE@$$T@Z 1006a610 f i WinRTVFS.obj
 0002:0002c670       ??0?$shared_ptr@Uscheduler_interface@Concurrency@@@std@@QAE@ABV01@@Z 1006a670 f i WinRTVFS.obj
 0002:0002c6e0       ??0?$single_link_registry@V?$ITarget@H@Concurrency@@@Concurrency@@QAE@XZ 1006a6e0 f i WinRTVFS.obj
 0002:0002c750       ??0?$source_block@V?$single_link_registry@V?$ITarget@H@Concurrency@@@Concurrency@@V?$ordered_message_processor@H@2@@Concurrency@@QAE@XZ 1006a750 f i WinRTVFS.obj
 0002:0002c8b0       ??0?$source_link_manager@V?$multi_link_registry@V?$ISource@H@Concurrency@@@Concurrency@@@Concurrency@@QAE@XZ 1006a8b0 f i WinRTVFS.obj
 0002:0002c990       ??0?$target_block@V?$multi_link_registry@V?$ISource@H@Concurrency@@@Concurrency@@V?$ordered_message_processor@H@2@@Concurrency@@QAE@XZ 1006a990 f i WinRTVFS.obj
 0002:0002cab0       ??0?$task@E@Concurrency@@QAE@$$QAV01@@Z 1006aab0 f i WinRTVFS.obj
 0002:0002cb20       ??0?$task@E@Concurrency@@QAE@XZ 1006ab20 f i WinRTVFS.obj
 0002:0002cb80       ??0?$task@I@Concurrency@@QAE@$$QAV01@@Z 1006ab80 f i WinRTVFS.obj
 0002:0002cbf0       ??0?$task@P$AAUIBuffer@Streams@Storage@Windows@@@Concurrency@@QAE@$$QAV01@@Z 1006abf0 f i WinRTVFS.obj
 0002:0002cc60       ??0?$task@P$AAUIRandomAccessStream@Streams@Storage@Windows@@@Concurrency@@QAE@$$QAV01@@Z 1006ac60 f i WinRTVFS.obj
 0002:0002ccd0       ??0?$task@P$AAVStorageFile@Storage@Windows@@@Concurrency@@QAE@$$QAV01@@Z 1006acd0 f i WinRTVFS.obj
 0002:0002cd40       ??0?$task@P$AAVStorageFolder@Storage@Windows@@@Concurrency@@QAE@$$QAV01@@Z 1006ad40 f i WinRTVFS.obj
 0002:0002cdb0       ??0?$task@X@Concurrency@@QAE@$$QAV01@@Z 1006adb0 f i WinRTVFS.obj
 0002:0002ce20       ??0?$task@X@Concurrency@@QAE@XZ 1006ae20 f i WinRTVFS.obj
 0002:0002ce80       ??0?$task@_N@Concurrency@@QAE@$$QAV01@@Z 1006ae80 f i WinRTVFS.obj
 0002:0002cef0       ??0?$task_completion_event@E@Concurrency@@QAE@ABV01@@Z 1006aef0 f i WinRTVFS.obj
 0002:0002cf50       ??0?$task_completion_event@E@Concurrency@@QAE@XZ 1006af50 f i WinRTVFS.obj
 0002:0002cfb0       ??0?$task_completion_event@X@Concurrency@@QAE@ABV01@@Z 1006afb0 f i WinRTVFS.obj
 0002:0002d010       ??0?$task_completion_event@X@Concurrency@@QAE@XZ 1006b010 f i WinRTVFS.obj
 0002:0002d070       ??0?$timer@H@Concurrency@@QAE@IABHPAV?$ITarget@H@1@_N@Z 1006b070 f i WinRTVFS.obj
 0002:0002d170       ??0?$vector@PAXV?$allocator@PAX@std@@@std@@QAE@ABV01@@Z 1006b170 f i WinRTVFS.obj
 0002:0002d300       ??0?$vector@PAXV?$allocator@PAX@std@@@std@@QAE@XZ 1006b300 f i WinRTVFS.obj
 0002:0002d370       ??0?$vector@V?$shared_ptr@U?$_Task_impl@E@details@Concurrency@@@std@@V?$allocator@V?$shared_ptr@U?$_Task_impl@E@details@Concurrency@@@std@@@2@@std@@QAE@XZ 1006b370 f i WinRTVFS.obj
 0002:0002d3e0       ??0?$weak_ptr@U_Task_impl_base@details@Concurrency@@@std@@QAE@ABV01@@Z 1006b3e0 f i WinRTVFS.obj
 0002:0002d450       ??0Buffer@Streams@Storage@Windows@@Q$AAA@I@Z 1006b450 f i WinRTVFS.obj
 0002:0002d650       ??0String@Platform@@Q$AAA@PB_WI@Z 1006b650 f i WinRTVFS.obj
 0002:0002d720       ??0_CancellationTokenRegistration@details@Concurrency@@QAE@J@Z 1006b720 f i WinRTVFS.obj
 0002:0002d7b0       ??0_Chore@details@Concurrency@@IAE@XZ 1006b7b0 f i WinRTVFS.obj
 0002:0002d800       ??0_ContextCallback@details@Concurrency@@QAE@$$QAV012@@Z 1006b800 f i WinRTVFS.obj
 0002:0002d860       ??0_ContextCallback@details@Concurrency@@QAE@ABV012@@Z 1006b860 f i WinRTVFS.obj
 0002:0002d8c0       ??0_ContextCallback@details@Concurrency@@QAE@_N@Z 1006b8c0 f i WinRTVFS.obj
 0002:0002d920       ??0_ContinuationTaskHandleBase@details@Concurrency@@QAE@XZ 1006b920 f i WinRTVFS.obj
 0002:0002da00       ??0_Destroyer@?$concurrent_queue@PAV?$message@H@Concurrency@@V?$allocator@PAV?$message@H@Concurrency@@@std@@@Concurrency@@QAE@AAPAV?$message@H@2@@Z 1006ba00 f i WinRTVFS.obj
 0002:0002da50       ??0_ExceptionHolder@details@Concurrency@@QAE@ABVexception_ptr@std@@ABV_TaskCreationCallstack@12@@Z 1006ba50 f i WinRTVFS.obj
 0002:0002db30       ??0_ExceptionHolder@details@Concurrency@@QAE@P$AAVException@Platform@@ABV_TaskCreationCallstack@12@@Z 1006bb30 f i WinRTVFS.obj
 0002:0002dc10       ??0_Holder@_TaskProcThunk@details@Concurrency@@QAE@PAU123@@Z 1006bc10 f i WinRTVFS.obj
 0002:0002dc60       ??0_IAsyncActionToAsyncOperationConverter@details@Concurrency@@Q$AAA@P$AAUIAsyncAction@Foundation@Windows@@@Z 1006bc60 f i WinRTVFS.obj
 0002:0002dd30       ??0_Internal_task_options@details@Concurrency@@QAE@XZ 1006bd30 f i WinRTVFS.obj
 0002:0002dd90       ??0_Iterator_base12@std@@QAE@ABU01@@Z 1006bd90 f i WinRTVFS.obj
 0002:0002de10       ??0_Iterator_base12@std@@QAE@XZ 1006be10 f i WinRTVFS.obj
 0002:0002de60       ??0_RefCounter@details@Concurrency@@IAE@J@Z 1006be60 f i WinRTVFS.obj
 0002:0002df10       ??0_Ref_count_base@std@@IAE@XZ 1006bf10 f i WinRTVFS.obj
 0002:0002df90       ??0_StackGuard@details@Concurrency@@QAE@XZ 1006bf90 f i WinRTVFS.obj
 0002:0002e010       ??0_TaskCollectionImpl@details@Concurrency@@QAE@Uscheduler_ptr@2@@Z 1006c010 f i WinRTVFS.obj
 0002:0002e100       ??0_TaskCreationCallstack@details@Concurrency@@QAE@ABV012@@Z 1006c100 f i WinRTVFS.obj
 0002:0002e170       ??0_TaskCreationCallstack@details@Concurrency@@QAE@XZ 1006c170 f i WinRTVFS.obj
 0002:0002e1e0       ??0_TaskEventLogger@details@Concurrency@@QAE@PAU_Task_impl_base@12@@Z 1006c1e0 f i WinRTVFS.obj
 0002:0002e240       ??0_TaskProcHandle@details@Concurrency@@QAE@XZ 1006c240 f i WinRTVFS.obj
 0002:0002e300       ??0_TaskProcThunk@details@Concurrency@@QAE@ABV?$function@$$A6AXXZ@std@@@Z 1006c300 f i WinRTVFS.obj
 0002:0002e360       ??0_TaskWorkItemRAIILogger@details@Concurrency@@QAE@AAU_TaskEventLogger@12@@Z 1006c360 f i WinRTVFS.obj
 0002:0002e3d0       ??0_Task_impl_base@details@Concurrency@@QAE@PAV_CancellationTokenState@12@Uscheduler_ptr@2@@Z 1006c3d0 f i WinRTVFS.obj
 0002:0002e5c0       ??0_UnrealizedChore@details@Concurrency@@QAE@XZ 1006c5c0 f i WinRTVFS.obj
 0002:0002e630       ??0__abi_CaptureBase@Details@Platform@@QAE@XZ 1006c630 f i WinRTVFS.obj
 0002:0002e680       ??0__abi_CapturePtr@Details@Platform@@QAE@XZ 1006c680 f i WinRTVFS.obj
 0002:0002e6d0       ??0__abi_FTMWeakRefData@@QAE@P$AAVObject@Platform@@W4CallbackContext@2@@Z 1006c6d0 f i WinRTVFS.obj
 0002:0002e770       ??0bad_alloc@std@@QAE@ABV01@@Z 1006c770 f i WinRTVFS.obj
 0002:0002e7f0       ??0bad_alloc@std@@QAE@XZ   1006c7f0 f i WinRTVFS.obj
 0002:0002e880       ??0bad_target@Concurrency@@QAE@ABV01@@Z 1006c880 f i WinRTVFS.obj
 0002:0002e900       ??0bad_weak_ptr@std@@QAE@ABV01@@Z 1006c900 f i WinRTVFS.obj
 0002:0002e980       ??0bad_weak_ptr@std@@QAE@PBD@Z 1006c980 f i WinRTVFS.obj
 0002:0002e9f0       ??0cancellation_token@Concurrency@@AAE@XZ 1006c9f0 f i WinRTVFS.obj
 0002:0002ea40       ??0cancellation_token@Concurrency@@QAE@ABV01@@Z 1006ca40 f i WinRTVFS.obj
 0002:0002eaa0       ??0exception_ptr@std@@QAE@ABV01@@Z 1006caa0 f i WinRTVFS.obj
 0002:0002eb10       ??0exception_ptr@std@@QAE@XZ 1006cb10 f i WinRTVFS.obj
 0002:0002eb80       ??0invalid_argument@std@@QAE@ABV01@@Z 1006cb80 f i WinRTVFS.obj
 0002:0002ebf0       ??0invalid_argument@std@@QAE@PBD@Z 1006cbf0 f i WinRTVFS.obj
 0002:0002ec60       ??0invalid_link_target@Concurrency@@QAE@ABV01@@Z 1006cc60 f i WinRTVFS.obj
 0002:0002ece0       ??0invalid_operation@Concurrency@@QAE@ABV01@@Z 1006cce0 f i WinRTVFS.obj
 0002:0002ed60       ??0logic_error@std@@QAE@ABV01@@Z 1006cd60 f i WinRTVFS.obj
 0002:0002ede0       ??0logic_error@std@@QAE@PBD@Z 1006cde0 f i WinRTVFS.obj
 0002:0002ee60       ??0message_not_found@Concurrency@@QAE@ABV01@@Z 1006ce60 f i WinRTVFS.obj
 0002:0002eee0       ??0runtime_error@std@@QAE@ABV01@@Z 1006cee0 f i WinRTVFS.obj
 0002:0002ef60       ??0runtime_error@std@@QAE@PBD@Z 1006cf60 f i WinRTVFS.obj
 0002:0002efe0       ??0scheduler_ptr@Concurrency@@QAE@ABU01@@Z 1006cfe0 f i WinRTVFS.obj
 0002:0002f050       ??0scheduler_ptr@Concurrency@@QAE@V?$shared_ptr@Uscheduler_interface@Concurrency@@@std@@@Z 1006d050 f i WinRTVFS.obj
 0002:0002f0d0       ??0task_canceled@Concurrency@@QAE@ABV01@@Z 1006d0d0 f i WinRTVFS.obj
 0002:0002f150       ??0task_continuation_context@Concurrency@@AAE@_N@Z 1006d150 f i WinRTVFS.obj
 0002:0002f1b0       ??0task_continuation_context@Concurrency@@QAE@ABV01@@Z 1006d1b0 f i WinRTVFS.obj
 0002:0002f210       ??0task_options@Concurrency@@QAE@XZ 1006d210 f i WinRTVFS.obj
 0002:0002f7c0       ??1?$Agile@P$AAU?$IAsyncOperationWithProgress@II@Foundation@Windows@@$00@Platform@@QAE@XZ 1006d7c0 f i WinRTVFS.obj
 0002:0002f830       ??1?$Agile@P$AAU?$IAsyncOperationWithProgress@P$AAUIBuffer@Streams@Storage@Windows@@I@Foundation@Windows@@$00@Platform@@QAE@XZ 1006d830 f i WinRTVFS.obj
 0002:0002f8a0       ??1?$Agile@P$AAUIAsyncAction@Foundation@Windows@@$00@Platform@@QAE@XZ 1006d8a0 f i WinRTVFS.obj
 0002:0002f910       ??1?$Agile@P$AAUIBuffer@Streams@Storage@Windows@@$00@Platform@@QAE@XZ 1006d910 f i WinRTVFS.obj
 0002:0002f980       ??1?$Agile@P$AAUIRandomAccessStream@Streams@Storage@Windows@@$00@Platform@@QAE@XZ 1006d980 f i WinRTVFS.obj
 0002:0002f9f0       ??1?$Agile@P$AAVStorageFile@Storage@Windows@@$0A@@Platform@@QAE@XZ 1006d9f0 f i WinRTVFS.obj
 0002:0002fa50       ??1?$Agile@P$AAVStorageFolder@Storage@Windows@@$0A@@Platform@@QAE@XZ 1006da50 f i WinRTVFS.obj
 0002:0002fab0       ??1?$ComPtr@UIAgileObject@@@WRL@Microsoft@@QAE@XZ 1006dab0 f i WinRTVFS.obj
 0002:0002fb00       ??1?$ComPtr@UIBufferByteAccess@Streams@Storage@Windows@@@WRL@Microsoft@@QAE@XZ 1006db00 f i WinRTVFS.obj
 0002:0002fb50       ??1?$ComPtr@UIUnknown@@@WRL@Microsoft@@QAE@XZ 1006db50 f i WinRTVFS.obj
 0002:0002fba0       ??1?$ISource@H@Concurrency@@UAE@XZ 1006dba0 f i WinRTVFS.obj
 0002:0002fbe0       ??1?$ITarget@H@Concurrency@@UAE@XZ 1006dbe0 f i WinRTVFS.obj
 0002:0002fc20       ??1?$_AsyncInfoImpl@P$AAU?$IAsyncOperationWithProgress@II@Foundation@Windows@@V?$AsyncOperationWithProgressCompletedHandler@II@23@I@details@Concurrency@@I$AAA@XZ 1006dc20 f i WinRTVFS.obj
 0002:0002fc80       ??1?$_AsyncInfoImpl@P$AAU?$IAsyncOperationWithProgress@P$AAUIBuffer@Streams@Storage@Windows@@I@Foundation@Windows@@V?$AsyncOperationWithProgressCompletedHandler@P$AAUIBuffer@Streams@Storage@Windows@@I@23@P$AAUIBuffer@Streams@Storage@3@@details@Concurrency@@I$AAA@XZ 1006dc80 f i WinRTVFS.obj
 0002:0002fce0       ??1?$_AsyncInfoImpl@P$AAUIAsyncAction@Foundation@Windows@@VAsyncActionCompletedHandler@23@E@details@Concurrency@@I$AAA@XZ 1006dce0 f i WinRTVFS.obj
 0002:0002fd40       ??1?$_AutoDeleter@U_TaskProcHandle@details@Concurrency@@@details@Concurrency@@QAE@XZ 1006dd40 f i WinRTVFS.obj
 0002:0002fdf0       ??1?$_Callable_base@V<lambda_1a93da980d6fe77644a4eefc4e1ad756>@@$0A@@std@@QAE@XZ 1006ddf0 f i WinRTVFS.obj
 0002:0002fe40       ??1?$_Callable_base@V<lambda_39cde079c01d1b5b9307ff255a1ccdd9>@@$0A@@std@@QAE@XZ 1006de40 f i WinRTVFS.obj
 0002:0002fe90       ??1?$_Callable_base@V<lambda_e7ef5f1e4e1eca0ae8efc6086cf9f417>@@$0A@@std@@QAE@XZ 1006de90 f i WinRTVFS.obj
 0002:0002fee0       ??1?$_Callable_obj@V<lambda_1a93da980d6fe77644a4eefc4e1ad756>@@$0A@@std@@QAE@XZ 1006dee0 f i WinRTVFS.obj
 0002:0002ff30       ??1?$_Callable_obj@V<lambda_39cde079c01d1b5b9307ff255a1ccdd9>@@$0A@@std@@QAE@XZ 1006df30 f i WinRTVFS.obj
 0002:0002ff80       ??1?$_Callable_obj@V<lambda_e7ef5f1e4e1eca0ae8efc6086cf9f417>@@$0A@@std@@QAE@XZ 1006df80 f i WinRTVFS.obj
 0002:0002ffd0       ??1?$_CancellationTokenCallback@V<lambda_17cb9174022a2677ccd4c777403439ce>@@@details@Concurrency@@UAE@XZ 1006dfd0 f i WinRTVFS.obj
 0002:00030030       ??1?$_ContinuationTaskHandle@XXV<lambda_9fc58f08a03183e50e06176727aeb396>@@U?$integral_constant@_N$0A@@std@@U_TypeSelectorNoAsync@details@Concurrency@@@?$task@E@Concurrency@@UAE@XZ 1006e030 f i WinRTVFS.obj
 0002:000300a0       ??1?$_Dynamic_array@PAV?$ISource@H@Concurrency@@@details@Concurrency@@QAE@XZ 1006e0a0 f i WinRTVFS.obj
 0002:000300f0       ??1?$_Func_base@EE@std@@UAE@XZ 1006e0f0 f i WinRTVFS.obj
 0002:00030130       ??1?$_Func_base@X$$$V@std@@UAE@XZ 1006e130 f i WinRTVFS.obj
 0002:00030170       ??1?$_Func_base@XABH@std@@UAE@XZ 1006e170 f i WinRTVFS.obj
 0002:000301b0       ??1?$_Func_base@XPAV?$message@H@Concurrency@@@std@@UAE@XZ 1006e1b0 f i WinRTVFS.obj
 0002:000301f0       ??1?$_Func_class@EE@std@@QAE@XZ 1006e1f0 f i WinRTVFS.obj
 0002:00030240       ??1?$_Func_class@X$$$V@std@@QAE@XZ 1006e240 f i WinRTVFS.obj
 0002:00030290       ??1?$_Func_class@XABH@std@@QAE@XZ 1006e290 f i WinRTVFS.obj
 0002:000302e0       ??1?$_Func_class@XPAV?$message@H@Concurrency@@@std@@QAE@XZ 1006e2e0 f i WinRTVFS.obj
 0002:00030330       ??1?$_Func_class@_NABH@std@@QAE@XZ 1006e330 f i WinRTVFS.obj
 0002:00030380       ??1?$_Func_impl@U?$_Callable_obj@V<lambda_02d862f9cfc639ff7c37ca52d43e6a8c>@@$0A@@std@@V?$allocator@V?$_Func_class@X$$$V@std@@@2@X$$$V@std@@UAE@XZ 1006e380 f i WinRTVFS.obj
 0002:000303e0       ??1?$_Func_impl@U?$_Callable_obj@V<lambda_095a938ce4c5765dcc6b67f548aeb9c7>@@$0A@@std@@V?$allocator@V?$_Func_class@X$$$V@std@@@2@X$$$V@std@@UAE@XZ 1006e3e0 f i WinRTVFS.obj
 0002:00030440       ??1?$_Func_impl@U?$_Callable_obj@V<lambda_0b7f78ec4ced38495cec46e0d346e0b9>@@$0A@@std@@V?$allocator@V?$_Func_class@X$$$V@std@@@2@X$$$V@std@@UAE@XZ 1006e440 f i WinRTVFS.obj
 0002:000304a0       ??1?$_Func_impl@U?$_Callable_obj@V<lambda_0fe479da16d43edb8e9a254c493d643e>@@$0A@@std@@V?$allocator@V?$_Func_class@X$$$V@std@@@2@X$$$V@std@@UAE@XZ 1006e4a0 f i WinRTVFS.obj
 0002:00030500       ??1?$_Func_impl@U?$_Callable_obj@V<lambda_1a93da980d6fe77644a4eefc4e1ad756>@@$0A@@std@@V?$allocator@V?$_Func_class@XABH@std@@@2@XABH@std@@UAE@XZ 1006e500 f i WinRTVFS.obj
 0002:00030570       ??1?$_Func_impl@U?$_Callable_obj@V<lambda_295bc5f846209cba149a5e74d0d63a72>@@$0A@@std@@V?$allocator@V?$_Func_class@XPAV?$message@H@Concurrency@@@std@@@2@XPAV?$message@H@Concurrency@@@std@@UAE@XZ 1006e570 f i WinRTVFS.obj
 0002:000305d0       ??1?$_Func_impl@U?$_Callable_obj@V<lambda_364e75aa895e992ae8821732ca646aa2>@@$0A@@std@@V?$allocator@V?$_Func_class@X$$$V@std@@@2@X$$$V@std@@UAE@XZ 1006e5d0 f i WinRTVFS.obj
 0002:00030630       ??1?$_Func_impl@U?$_Callable_obj@V<lambda_39cde079c01d1b5b9307ff255a1ccdd9>@@$0A@@std@@V?$allocator@V?$_Func_class@EE@std@@@2@EE@std@@UAE@XZ 1006e630 f i WinRTVFS.obj
 0002:000306a0       ??1?$_Func_impl@U?$_Callable_obj@V<lambda_528650821c608ced6534641e311542a5>@@$0A@@std@@V?$allocator@V?$_Func_class@X$$$V@std@@@2@X$$$V@std@@UAE@XZ 1006e6a0 f i WinRTVFS.obj
 0002:00030700       ??1?$_Func_impl@U?$_Callable_obj@V<lambda_579ccd68d569251046038e8620afec85>@@$0A@@std@@V?$allocator@V?$_Func_class@XPAV?$message@H@Concurrency@@@std@@@2@XPAV?$message@H@Concurrency@@@std@@UAE@XZ 1006e700 f i WinRTVFS.obj
 0002:00030760       ??1?$_Func_impl@U?$_Callable_obj@V<lambda_9fc58f08a03183e50e06176727aeb396>@@$0A@@std@@V?$allocator@V?$_Func_class@X$$$V@std@@@2@X$$$V@std@@UAE@XZ 1006e760 f i WinRTVFS.obj
 0002:000307c0       ??1?$_Func_impl@U?$_Callable_obj@V<lambda_a66b3ee15e662226a0b0b15ae647d32f>@@$0A@@std@@V?$allocator@V?$_Func_class@X$$$V@std@@@2@X$$$V@std@@UAE@XZ 1006e7c0 f i WinRTVFS.obj
 0002:00030820       ??1?$_Func_impl@U?$_Callable_obj@V<lambda_c1a554f2383dae03f169289aed8c4103>@@$0A@@std@@V?$allocator@V?$_Func_class@X$$$V@std@@@2@X$$$V@std@@UAE@XZ 1006e820 f i WinRTVFS.obj
 0002:00030880       ??1?$_Func_impl@U?$_Callable_obj@V<lambda_c28a53003ed51cdfe295a7d756f98c2f>@@$0A@@std@@V?$allocator@V?$_Func_class@XPAV?$message@H@Concurrency@@@std@@@2@XPAV?$message@H@Concurrency@@@std@@UAE@XZ 1006e880 f i WinRTVFS.obj
 0002:000308e0       ??1?$_Func_impl@U?$_Callable_obj@V<lambda_e7ef5f1e4e1eca0ae8efc6086cf9f417>@@$0A@@std@@V?$allocator@V?$_Func_class@X$$$V@std@@@2@X$$$V@std@@UAE@XZ 1006e8e0 f i WinRTVFS.obj
 0002:00030950       ??1?$_IAsyncOperationWithProgressToAsyncOperationConverter@II@details@Concurrency@@A$AAA@XZ 1006e950 f i WinRTVFS.obj
 0002:000309b0       ??1?$_IAsyncOperationWithProgressToAsyncOperationConverter@P$AAUIBuffer@Streams@Storage@Windows@@I@details@Concurrency@@A$AAA@XZ 1006e9b0 f i WinRTVFS.obj
 0002:00030a10       ??1?$_Iterator012@Urandom_access_iterator_tag@std@@PAXHPBQAXABQAXU_Iterator_base12@2@@std@@QAE@XZ 1006ea10 f i WinRTVFS.obj
 0002:00030a60       ??1?$_Iterator012@Urandom_access_iterator_tag@std@@V?$shared_ptr@U?$_Task_impl@E@details@Concurrency@@@2@HPBV32@ABV32@U_Iterator_base12@2@@std@@QAE@XZ 1006ea60 f i WinRTVFS.obj
 0002:00030ab0       ??1?$_PPLTaskHandle@EU?$_ContinuationTaskHandle@XXV<lambda_9fc58f08a03183e50e06176727aeb396>@@U?$integral_constant@_N$0A@@std@@U_TypeSelectorNoAsync@details@Concurrency@@@?$task@E@Concurrency@@U_ContinuationTaskHandleBase@details@3@@details@Concurrency@@UAE@XZ 1006eab0 f i WinRTVFS.obj
 0002:00030b80       ??1?$_Ref_count_obj@U?$_Task_completion_event_impl@E@details@Concurrency@@@std@@UAE@XZ 1006eb80 f i WinRTVFS.obj
 0002:00030bd0       ??1?$_Ref_count_obj@U?$_Task_impl@E@details@Concurrency@@@std@@UAE@XZ 1006ebd0 f i WinRTVFS.obj
 0002:00030c20       ??1?$_Ref_count_obj@U?$_Task_impl@I@details@Concurrency@@@std@@UAE@XZ 1006ec20 f i WinRTVFS.obj
 0002:00030c70       ??1?$_Ref_count_obj@U?$_Task_impl@P$AAUIBuffer@Streams@Storage@Windows@@@details@Concurrency@@@std@@UAE@XZ 1006ec70 f i WinRTVFS.obj
 0002:00030cc0       ??1?$_Ref_count_obj@U?$_Task_impl@P$AAUIRandomAccessStream@Streams@Storage@Windows@@@details@Concurrency@@@std@@UAE@XZ 1006ecc0 f i WinRTVFS.obj
 0002:00030d10       ??1?$_Ref_count_obj@U?$_Task_impl@P$AAVStorageFile@Storage@Windows@@@details@Concurrency@@@std@@UAE@XZ 1006ed10 f i WinRTVFS.obj
 0002:00030d60       ??1?$_Ref_count_obj@U?$_Task_impl@P$AAVStorageFolder@Storage@Windows@@@details@Concurrency@@@std@@UAE@XZ 1006ed60 f i WinRTVFS.obj
 0002:00030db0       ??1?$_Ref_count_obj@U?$_Task_impl@_N@details@Concurrency@@@std@@UAE@XZ 1006edb0 f i WinRTVFS.obj
 0002:00030e00       ??1?$_Ref_count_obj@U_ExceptionHolder@details@Concurrency@@@std@@UAE@XZ 1006ee00 f i WinRTVFS.obj
 0002:00030e50       ??1?$_ResultHolder@P$AAUIBuffer@Streams@Storage@Windows@@@details@Concurrency@@QAE@XZ 1006ee50 f i WinRTVFS.obj
 0002:00030ea0       ??1?$_ResultHolder@P$AAUIRandomAccessStream@Streams@Storage@Windows@@@details@Concurrency@@QAE@XZ 1006eea0 f i WinRTVFS.obj
 0002:00030ef0       ??1?$_ResultHolder@P$AAVStorageFile@Storage@Windows@@@details@Concurrency@@QAE@XZ 1006eef0 f i WinRTVFS.obj
 0002:00030f40       ??1?$_ResultHolder@P$AAVStorageFolder@Storage@Windows@@@details@Concurrency@@QAE@XZ 1006ef40 f i WinRTVFS.obj
 0002:00030f90       ??1?$_Source_link_iterator@V?$multi_link_registry@V?$ISource@H@Concurrency@@@Concurrency@@@Concurrency@@UAE@XZ 1006ef90 f i WinRTVFS.obj
 0002:00031050       ??1?$_Task_completion_event_impl@E@details@Concurrency@@QAE@XZ 1006f050 f i WinRTVFS.obj
 0002:00031280       ??1?$_Task_impl@E@details@Concurrency@@UAE@XZ 1006f280 f i WinRTVFS.obj
 0002:00031350       ??1?$_Task_impl@I@details@Concurrency@@UAE@XZ 1006f350 f i WinRTVFS.obj
 0002:00031420       ??1?$_Task_impl@P$AAUIBuffer@Streams@Storage@Windows@@@details@Concurrency@@UAE@XZ 1006f420 f i WinRTVFS.obj
 0002:00031500       ??1?$_Task_impl@P$AAUIRandomAccessStream@Streams@Storage@Windows@@@details@Concurrency@@UAE@XZ 1006f500 f i WinRTVFS.obj
 0002:000315e0       ??1?$_Task_impl@P$AAVStorageFile@Storage@Windows@@@details@Concurrency@@UAE@XZ 1006f5e0 f i WinRTVFS.obj
 0002:000316c0       ??1?$_Task_impl@P$AAVStorageFolder@Storage@Windows@@@details@Concurrency@@UAE@XZ 1006f6c0 f i WinRTVFS.obj
 0002:000317a0       ??1?$_Task_impl@_N@details@Concurrency@@UAE@XZ 1006f7a0 f i WinRTVFS.obj
 0002:00031870       ??1?$_Vector_alloc@$0A@U?$_Vec_base_types@PAXV?$allocator@PAX@std@@@std@@@std@@QAE@XZ 1006f870 f i WinRTVFS.obj
 0002:000318d0       ??1?$_Vector_alloc@$0A@U?$_Vec_base_types@V?$shared_ptr@U?$_Task_impl@E@details@Concurrency@@@std@@V?$allocator@V?$shared_ptr@U?$_Task_impl@E@details@Concurrency@@@std@@@2@@std@@@std@@QAE@XZ 1006f8d0 f i WinRTVFS.obj
 0002:00031930       ??1?$_Vector_const_iterator@V?$_Vector_val@U?$_Simple_types@PAX@std@@@std@@@std@@QAE@XZ 1006f930 f i WinRTVFS.obj
 0002:00031980       ??1?$_Vector_const_iterator@V?$_Vector_val@U?$_Simple_types@V?$shared_ptr@U?$_Task_impl@E@details@Concurrency@@@std@@@std@@@std@@@std@@QAE@XZ 1006f980 f i WinRTVFS.obj
 0002:000319d0       ??1?$_Vector_iterator@V?$_Vector_val@U?$_Simple_types@V?$shared_ptr@U?$_Task_impl@E@details@Concurrency@@@std@@@std@@@std@@@std@@QAE@XZ 1006f9d0 f i WinRTVFS.obj
 0002:00031a20       ??1?$_Vector_val@U?$_Simple_types@PAX@std@@@std@@QAE@XZ 1006fa20 f i WinRTVFS.obj
 0002:00031a80       ??1?$_Vector_val@U?$_Simple_types@V?$shared_ptr@U?$_Task_impl@E@details@Concurrency@@@std@@@std@@@std@@QAE@XZ 1006fa80 f i WinRTVFS.obj
 0002:00031ae0       ??1?$__abi_FunctorCapture@V<lambda_06940b0a4178dd98f799c96a43aa5761>@@XP$AAUIAsyncAction@Foundation@Windows@@W4AsyncStatus@34@@Details@Platform@@UAE@XZ 1006fae0 f i WinRTVFS.obj
 0002:00031b40       ??1?$__abi_FunctorCapture@V<lambda_3e0d823744565aaa3c572230ef0680e7>@@XP$AAU?$IAsyncOperationWithProgress@P$AAUIBuffer@Streams@Storage@Windows@@I@Foundation@Windows@@W4AsyncStatus@34@@Details@Platform@@UAE@XZ 1006fb40 f i WinRTVFS.obj
 0002:00031ba0       ??1?$__abi_FunctorCapture@V<lambda_50a95a3b918e2a131c7de197f9d43680>@@XP$AAU?$IAsyncOperation@I@Foundation@Windows@@W4AsyncStatus@34@@Details@Platform@@UAE@XZ 1006fba0 f i WinRTVFS.obj
 0002:00031c00       ??1?$__abi_FunctorCapture@V<lambda_58b35b2c39cebe76475502e8be1fa050>@@XP$AAU?$IAsyncOperation@P$AAUIRandomAccessStream@Streams@Storage@Windows@@@Foundation@Windows@@W4AsyncStatus@34@@Details@Platform@@UAE@XZ 1006fc00 f i WinRTVFS.obj
 0002:00031c60       ??1?$__abi_FunctorCapture@V<lambda_78c8bde34479949ab00939bfc3c21b9e>@@XP$AAU?$IAsyncOperation@_N@Foundation@Windows@@W4AsyncStatus@34@@Details@Platform@@UAE@XZ 1006fc60 f i WinRTVFS.obj
 0002:00031cc0       ??1?$__abi_FunctorCapture@V<lambda_7a641106db6b220fc1bd53009e5e1b6e>@@XP$AAU?$IAsyncOperationWithProgress@II@Foundation@Windows@@W4AsyncStatus@34@@Details@Platform@@UAE@XZ 1006fcc0 f i WinRTVFS.obj
 0002:00031d20       ??1?$__abi_FunctorCapture@V<lambda_8b35f48eeaabe3dd7cb14b365c80a64b>@@XP$AAU?$IAsyncOperation@P$AAUIBuffer@Streams@Storage@Windows@@@Foundation@Windows@@W4AsyncStatus@34@@Details@Platform@@UAE@XZ 1006fd20 f i WinRTVFS.obj
 0002:00031d80       ??1?$__abi_FunctorCapture@V<lambda_b5ec294d64b7ae7d96b9bd52c133d46d>@@XP$AAU?$IAsyncOperation@E@Foundation@Windows@@W4AsyncStatus@34@@Details@Platform@@UAE@XZ 1006fd80 f i WinRTVFS.obj
 0002:00031de0       ??1?$__abi_FunctorCapture@V<lambda_c124a470bc399dc48f76de2d0d06ac02>@@XP$AAU?$IAsyncOperation@P$AAVStorageFolder@Storage@Windows@@@Foundation@Windows@@W4AsyncStatus@34@@Details@Platform@@UAE@XZ 1006fde0 f i WinRTVFS.obj
 0002:00031e40       ??1?$__abi_FunctorCapture@V<lambda_f0a7c2b0a64e3b533e4acd91ff29d36c>@@XP$AAU?$IAsyncOperation@P$AAVStorageFile@Storage@Windows@@@Foundation@Windows@@W4AsyncStatus@34@@Details@Platform@@UAE@XZ 1006fe40 f i WinRTVFS.obj
 0002:00031ea0       ??1?$call@HV?$function@$$A6AXABH@Z@std@@@Concurrency@@UAE@XZ 1006fea0 f i WinRTVFS.obj
 0002:00031f60       ??1?$concurrent_queue@PAV?$message@H@Concurrency@@V?$allocator@PAV?$message@H@Concurrency@@@std@@@Concurrency@@UAE@XZ 1006ff60 f i WinRTVFS.obj
 0002:00032030       ??1?$function@$$A6AEE@Z@std@@QAE@XZ 10070030 f i WinRTVFS.obj
 0002:00032090       ??1?$function@$$A6AXABH@Z@std@@QAE@XZ 10070090 f i WinRTVFS.obj
 0002:000320f0       ??1?$function@$$A6AXPAV?$message@H@Concurrency@@@Z@std@@QAE@XZ 100700f0 f i WinRTVFS.obj
 0002:00032150       ??1?$function@$$A6AXXZ@std@@QAE@XZ 10070150 f i WinRTVFS.obj
 0002:000321b0       ??1?$function@$$A6A_NABH@Z@std@@QAE@XZ 100701b0 f i WinRTVFS.obj
 0002:00032210       ??1?$message@H@Concurrency@@UAE@XZ 10070210 f i WinRTVFS.obj
 0002:00032250       ??1?$multi_link_registry@V?$ISource@H@Concurrency@@@Concurrency@@UAE@XZ 10070250 f i WinRTVFS.obj
 0002:00032340       ??1?$ordered_message_processor@H@Concurrency@@UAE@XZ 10070340 f i WinRTVFS.obj
 0002:00032440       ??1?$shared_ptr@U?$_Task_completion_event_impl@E@details@Concurrency@@@std@@QAE@XZ 10070440 f i WinRTVFS.obj
 0002:00032490       ??1?$shared_ptr@U?$_Task_impl@E@details@Concurrency@@@std@@QAE@XZ 10070490 f i WinRTVFS.obj
 0002:000324e0       ??1?$shared_ptr@U?$_Task_impl@I@details@Concurrency@@@std@@QAE@XZ 100704e0 f i WinRTVFS.obj
 0002:00032530       ??1?$shared_ptr@U?$_Task_impl@P$AAUIBuffer@Streams@Storage@Windows@@@details@Concurrency@@@std@@QAE@XZ 10070530 f i WinRTVFS.obj
 0002:00032580       ??1?$shared_ptr@U?$_Task_impl@P$AAUIRandomAccessStream@Streams@Storage@Windows@@@details@Concurrency@@@std@@QAE@XZ 10070580 f i WinRTVFS.obj
 0002:000325d0       ??1?$shared_ptr@U?$_Task_impl@P$AAVStorageFile@Storage@Windows@@@details@Concurrency@@@std@@QAE@XZ 100705d0 f i WinRTVFS.obj
 0002:00032620       ??1?$shared_ptr@U?$_Task_impl@P$AAVStorageFolder@Storage@Windows@@@details@Concurrency@@@std@@QAE@XZ 10070620 f i WinRTVFS.obj
 0002:00032670       ??1?$shared_ptr@U?$_Task_impl@_N@details@Concurrency@@@std@@QAE@XZ 10070670 f i WinRTVFS.obj
 0002:000326c0       ??1?$shared_ptr@U_ExceptionHolder@details@Concurrency@@@std@@QAE@XZ 100706c0 f i WinRTVFS.obj
 0002:00032710       ??1?$shared_ptr@U_Task_impl_base@details@Concurrency@@@std@@QAE@XZ 10070710 f i WinRTVFS.obj
 0002:00032760       ??1?$shared_ptr@Uscheduler_interface@Concurrency@@@std@@QAE@XZ 10070760 f i WinRTVFS.obj
 0002:000327b0       ??1?$single_link_registry@V?$ITarget@H@Concurrency@@@Concurrency@@UAE@XZ 100707b0 f i WinRTVFS.obj
 0002:00032850       ??1?$source_block@V?$single_link_registry@V?$ITarget@H@Concurrency@@@Concurrency@@V?$ordered_message_processor@H@2@@Concurrency@@UAE@XZ 10070850 f i WinRTVFS.obj
 0002:000329c0       ??1?$source_link_manager@V?$multi_link_registry@V?$ISource@H@Concurrency@@@Concurrency@@@Concurrency@@QAE@XZ 100709c0 f i WinRTVFS.obj
 0002:00032ad0       ??1?$target_block@V?$multi_link_registry@V?$ISource@H@Concurrency@@@Concurrency@@V?$ordered_message_processor@H@2@@Concurrency@@UAE@XZ 10070ad0 f i WinRTVFS.obj
 0002:00032c70       ??1?$task@E@Concurrency@@QAE@XZ 10070c70 f i WinRTVFS.obj
 0002:00032cc0       ??1?$task@I@Concurrency@@QAE@XZ 10070cc0 f i WinRTVFS.obj
 0002:00032d10       ??1?$task@P$AAUIBuffer@Streams@Storage@Windows@@@Concurrency@@QAE@XZ 10070d10 f i WinRTVFS.obj
 0002:00032d60       ??1?$task@P$AAUIRandomAccessStream@Streams@Storage@Windows@@@Concurrency@@QAE@XZ 10070d60 f i WinRTVFS.obj
 0002:00032db0       ??1?$task@P$AAVStorageFile@Storage@Windows@@@Concurrency@@QAE@XZ 10070db0 f i WinRTVFS.obj
 0002:00032e00       ??1?$task@P$AAVStorageFolder@Storage@Windows@@@Concurrency@@QAE@XZ 10070e00 f i WinRTVFS.obj
 0002:00032e50       ??1?$task@X@Concurrency@@QAE@XZ 10070e50 f i WinRTVFS.obj
 0002:00032ea0       ??1?$task@_N@Concurrency@@QAE@XZ 10070ea0 f i WinRTVFS.obj
 0002:00032ef0       ??1?$task_completion_event@E@Concurrency@@QAE@XZ 10070ef0 f i WinRTVFS.obj
 0002:00032f40       ??1?$task_completion_event@X@Concurrency@@QAE@XZ 10070f40 f i WinRTVFS.obj
 0002:00032f90       ??1?$timer@H@Concurrency@@UAE@XZ 10070f90 f i WinRTVFS.obj
 0002:000330f0       ??1?$vector@PAXV?$allocator@PAX@std@@@std@@QAE@XZ 100710f0 f i WinRTVFS.obj
 0002:00033150       ??1?$vector@V?$shared_ptr@U?$_Task_impl@E@details@Concurrency@@@std@@V?$allocator@V?$shared_ptr@U?$_Task_impl@E@details@Concurrency@@@std@@@2@@std@@QAE@XZ 10071150 f i WinRTVFS.obj
 0002:000331b0       ??1?$weak_ptr@U_Task_impl_base@details@Concurrency@@@std@@QAE@XZ 100711b0 f i WinRTVFS.obj
 0002:00033200       ??1_CancellationTokenRegistration@details@Concurrency@@MAE@XZ 10071200 f i WinRTVFS.obj
 0002:000332b0       ??1_Chore@details@Concurrency@@MAE@XZ 100712b0 f i WinRTVFS.obj
 0002:000332f0       ??1_ContextCallback@details@Concurrency@@QAE@XZ 100712f0 f i WinRTVFS.obj
 0002:00033340       ??1_ContinuationTaskHandleBase@details@Concurrency@@UAE@XZ 10071340 f i WinRTVFS.obj
 0002:000333f0       ??1_Destroyer@?$concurrent_queue@PAV?$message@H@Concurrency@@V?$allocator@PAV?$message@H@Concurrency@@@std@@@Concurrency@@QAE@XZ 100713f0 f i WinRTVFS.obj
 0002:00033430       ??1_ExceptionHolder@details@Concurrency@@QAE@XZ 10071430 f i WinRTVFS.obj
 0002:00033530       ??1_Holder@_TaskProcThunk@details@Concurrency@@QAE@XZ 10071530 f i WinRTVFS.obj
 0002:000335d0       ??1_IAsyncActionToAsyncOperationConverter@details@Concurrency@@A$AAA@XZ 100715d0 f i WinRTVFS.obj
 0002:00033630       ??1_Internal_task_options@details@Concurrency@@QAE@XZ 10071630 f i WinRTVFS.obj
 0002:00033690       ??1_Iterator_base12@std@@QAE@XZ 10071690 f i WinRTVFS.obj
 0002:00033760       ??1_NonReentrantPPLLock@details@Concurrency@@QAE@XZ 10071760 f i WinRTVFS.obj
 0002:000337c0       ??1_ReentrantPPLLock@details@Concurrency@@QAE@XZ 100717c0 f i WinRTVFS.obj
 0002:00033820       ??1_RefCounter@details@Concurrency@@UAE@XZ 10071820 f i WinRTVFS.obj
 0002:000338c0       ??1_Ref_count_base@std@@UAE@XZ 100718c0 f i WinRTVFS.obj
 0002:00033900       ??1_StackGuard@details@Concurrency@@QAE@XZ 10071900 f i WinRTVFS.obj
 0002:00033950       ??1_TaskCollectionImpl@details@Concurrency@@QAE@XZ 10071950 f i WinRTVFS.obj
 0002:00033a50       ??1_TaskCreationCallstack@details@Concurrency@@QAE@XZ 10071a50 f i WinRTVFS.obj
 0002:00033ab0       ??1_TaskProcHandle@details@Concurrency@@UAE@XZ 10071ab0 f i WinRTVFS.obj
 0002:00033b10       ??1_TaskProcThunk@details@Concurrency@@QAE@XZ 10071b10 f i WinRTVFS.obj
 0002:00033b60       ??1_TaskWorkItemRAIILogger@details@Concurrency@@QAE@XZ 10071b60 f i WinRTVFS.obj
 0002:00033bc0       ??1_Task_impl_base@details@Concurrency@@UAE@XZ 10071bc0 f i WinRTVFS.obj
 0002:00033d20       ??1_UnrealizedChore@details@Concurrency@@UAE@XZ 10071d20 f i WinRTVFS.obj
 0002:00033d80       ??1__abi_CaptureBase@Details@Platform@@MAE@XZ 10071d80 f i WinRTVFS.obj
 0002:00033dc0       ??1__abi_CapturePtr@Details@Platform@@QAE@XZ 10071dc0 f i WinRTVFS.obj
 0002:00033e20       ??1bad_alloc@std@@UAE@XZ   10071e20 f i WinRTVFS.obj
 0002:00033e90       ??1bad_target@Concurrency@@UAE@XZ 10071e90 f i WinRTVFS.obj
 0002:00033ef0       ??1bad_weak_ptr@std@@UAE@XZ 10071ef0 f i WinRTVFS.obj
 0002:00033f50       ??1cancellation_token@Concurrency@@QAE@XZ 10071f50 f i WinRTVFS.obj
 0002:00033fa0       ??1exception_ptr@std@@QAE@XZ 10071fa0 f i WinRTVFS.obj
 0002:00034000       ??1invalid_argument@std@@UAE@XZ 10072000 f i WinRTVFS.obj
 0002:00034050       ??1invalid_link_target@Concurrency@@UAE@XZ 10072050 f i WinRTVFS.obj
 0002:000340b0       ??1invalid_operation@Concurrency@@UAE@XZ 100720b0 f i WinRTVFS.obj
 0002:00034110       ??1logic_error@std@@UAE@XZ 10072110 f i WinRTVFS.obj
 0002:00034170       ??1message_not_found@Concurrency@@UAE@XZ 10072170 f i WinRTVFS.obj
 0002:000341d0       ??1runtime_error@std@@UAE@XZ 100721d0 f i WinRTVFS.obj
 0002:00034230       ??1scheduler_ptr@Concurrency@@QAE@XZ 10072230 f i WinRTVFS.obj
 0002:00034280       ??1task_canceled@Concurrency@@UAE@XZ 10072280 f i WinRTVFS.obj
 0002:000342e0       ??1task_continuation_context@Concurrency@@QAE@XZ 100722e0 f i WinRTVFS.obj
 0002:00034330       ??1task_options@Concurrency@@QAE@XZ 10072330 f i WinRTVFS.obj
 0002:00034400       ??2_AllocBase@details@Concurrency@@SAPAXI@Z 10072400 f i WinRTVFS.obj
 0002:00034460       ??2__abi_CaptureBase@Details@Platform@@SAPAXIPAX@Z 10072460 f i WinRTVFS.obj
 0002:000344c0       ??3_AllocBase@details@Concurrency@@SAXPAX@Z 100724c0 f i WinRTVFS.obj
 0002:00034520       ??3__abi_CaptureBase@Details@Platform@@SAXPAX0@Z 10072520 f i WinRTVFS.obj
 0002:00034580       ??4?$Agile@P$AAUIBuffer@Streams@Storage@Windows@@$00@Platform@@QAEAAV01@P$AAUIBuffer@Streams@Storage@Windows@@@Z 10072580 f i WinRTVFS.obj
 0002:00034610       ??4?$Agile@P$AAUIRandomAccessStream@Streams@Storage@Windows@@$00@Platform@@QAEAAV01@P$AAUIRandomAccessStream@Streams@Storage@Windows@@@Z 10072610 f i WinRTVFS.obj
 0002:000346a0       ??4?$Agile@P$AAVStorageFile@Storage@Windows@@$0A@@Platform@@QAEAAV01@P$AAVStorageFile@Storage@Windows@@@Z 100726a0 f i WinRTVFS.obj
 0002:00034720       ??4?$Agile@P$AAVStorageFolder@Storage@Windows@@$0A@@Platform@@QAEAAV01@P$AAVStorageFolder@Storage@Windows@@@Z 10072720 f i WinRTVFS.obj
 0002:000347a0       ??4?$ComPtr@UIUnknown@@@WRL@Microsoft@@QAEAAV012@$$QAV012@@Z 100727a0 f i WinRTVFS.obj
 0002:00034820       ??4?$ComPtr@UIUnknown@@@WRL@Microsoft@@QAEAAV012@$$T@Z 10072820 f i WinRTVFS.obj
 0002:00034880       ??4?$ComPtr@UIUnknown@@@WRL@Microsoft@@QAEAAV012@PAUIUnknown@@@Z 10072880 f i WinRTVFS.obj
 0002:00034910       ??4?$atomic@J@std@@QAEJJ@Z 10072910 f i WinRTVFS.obj
 0002:00034970       ??4?$function@$$A6AXPAV?$message@H@Concurrency@@@Z@std@@QAEAAV01@ABV01@@Z 10072970 f i WinRTVFS.obj
 0002:000349e0       ??4?$function@$$A6AXXZ@std@@QAEAAV01@ABV01@@Z 100729e0 f i WinRTVFS.obj
 0002:00034a50       ??4?$shared_ptr@U?$_Task_impl@E@details@Concurrency@@@std@@QAEAAV01@$$QAV01@@Z 10072a50 f i WinRTVFS.obj
 0002:00034ae0       ??4?$shared_ptr@U?$_Task_impl@I@details@Concurrency@@@std@@QAEAAV01@$$QAV01@@Z 10072ae0 f i WinRTVFS.obj
 0002:00034b70       ??4?$shared_ptr@U?$_Task_impl@P$AAUIBuffer@Streams@Storage@Windows@@@details@Concurrency@@@std@@QAEAAV01@$$QAV01@@Z 10072b70 f i WinRTVFS.obj
 0002:00034c00       ??4?$shared_ptr@U?$_Task_impl@P$AAUIRandomAccessStream@Streams@Storage@Windows@@@details@Concurrency@@@std@@QAEAAV01@$$QAV01@@Z 10072c00 f i WinRTVFS.obj
 0002:00034c90       ??4?$shared_ptr@U?$_Task_impl@P$AAVStorageFile@Storage@Windows@@@details@Concurrency@@@std@@QAEAAV01@$$QAV01@@Z 10072c90 f i WinRTVFS.obj
 0002:00034d20       ??4?$shared_ptr@U?$_Task_impl@P$AAVStorageFolder@Storage@Windows@@@details@Concurrency@@@std@@QAEAAV01@$$QAV01@@Z 10072d20 f i WinRTVFS.obj
 0002:00034db0       ??4?$shared_ptr@U?$_Task_impl@_N@details@Concurrency@@@std@@QAEAAV01@$$QAV01@@Z 10072db0 f i WinRTVFS.obj
 0002:00034e40       ??4?$shared_ptr@U_ExceptionHolder@details@Concurrency@@@std@@QAEAAV01@ABV01@@Z 10072e40 f i WinRTVFS.obj
 0002:00034ec0       ??4?$vector@PAXV?$allocator@PAX@std@@@std@@QAEAAV01@ABV01@@Z 10072ec0 f i WinRTVFS.obj
 0002:000351f0       ??4_ContextCallback@details@Concurrency@@QAEAAV012@ABV012@@Z 100731f0 f i WinRTVFS.obj
 0002:00035260       ??4_Iterator_base12@std@@QAEAAU01@ABU01@@Z 10073260 f i WinRTVFS.obj
 0002:000353b0       ??4_TaskCreationCallstack@details@Concurrency@@QAEAAV012@ABV012@@Z 100733b0 f i WinRTVFS.obj
 0002:00035420       ??4atomic_long@std@@QAEJJ@Z 10073420 f i WinRTVFS.obj
 0002:00035480       ??4task_continuation_context@Concurrency@@QAEAAV01@ABV01@@Z 10073480 f i WinRTVFS.obj
 0002:000354e0       ??8?$_Vector_const_iterator@V?$_Vector_val@U?$_Simple_types@V?$shared_ptr@U?$_Task_impl@E@details@Concurrency@@@std@@@std@@@std@@@std@@QBE_NABV01@@Z 100734e0 f i WinRTVFS.obj
 0002:00035570       ??8_ContextCallback@details@Concurrency@@QBE_NABV012@@Z 10073570 f i WinRTVFS.obj
 0002:000355e0       ??9?$_Vector_const_iterator@V?$_Vector_val@U?$_Simple_types@V?$shared_ptr@U?$_Task_impl@E@details@Concurrency@@@std@@@std@@@std@@@std@@QBE_NABV01@@Z 100735e0 f i WinRTVFS.obj
 0002:00035670       ??A?$_Dynamic_array@PAV?$ISource@H@Concurrency@@@details@Concurrency@@QAEAAPAV?$ISource@H@2@I@Z 10073670 f i WinRTVFS.obj
 0002:00035720       ??A?$_Dynamic_array@PAV?$ISource@H@Concurrency@@@details@Concurrency@@QBEABQAV?$ISource@H@2@I@Z 10073720 f i WinRTVFS.obj
 0002:000357d0       ??A?$vector@PAXV?$allocator@PAX@std@@@std@@QAEAAPAXI@Z 100737d0 f i WinRTVFS.obj
 0002:000358f0       ??B?$ComPtrRef@V?$ComPtr@UIAgileObject@@@WRL@Microsoft@@@Details@WRL@Microsoft@@QBEPAPAXXZ 100738f0 f i WinRTVFS.obj
 0002:00035950       ??B?$ComPtrRef@V?$ComPtr@UIBufferByteAccess@Streams@Storage@Windows@@@WRL@Microsoft@@@Details@WRL@Microsoft@@QBEPAPAXXZ 10073950 f i WinRTVFS.obj
 0002:000359b0       ??B?$function@$$A6AXPAV?$message@H@Concurrency@@@Z@std@@QBE_NXZ 100739b0 f i WinRTVFS.obj
 0002:00035a30       ??B?$function@$$A6AXXZ@std@@QBE_NXZ 10073a30 f i WinRTVFS.obj
 0002:00035ab0       ??B?$shared_ptr@U?$_Task_impl@E@details@Concurrency@@@std@@QBE_NXZ 10073ab0 f i WinRTVFS.obj
 0002:00035b30       ??B?$shared_ptr@U?$_Task_impl@I@details@Concurrency@@@std@@QBE_NXZ 10073b30 f i WinRTVFS.obj
 0002:00035bb0       ??B?$shared_ptr@U?$_Task_impl@P$AAUIBuffer@Streams@Storage@Windows@@@details@Concurrency@@@std@@QBE_NXZ 10073bb0 f i WinRTVFS.obj
 0002:00035c30       ??B?$shared_ptr@U?$_Task_impl@P$AAUIRandomAccessStream@Streams@Storage@Windows@@@details@Concurrency@@@std@@QBE_NXZ 10073c30 f i WinRTVFS.obj
 0002:00035cb0       ??B?$shared_ptr@U?$_Task_impl@P$AAVStorageFile@Storage@Windows@@@details@Concurrency@@@std@@QBE_NXZ 10073cb0 f i WinRTVFS.obj
 0002:00035d30       ??B?$shared_ptr@U?$_Task_impl@P$AAVStorageFolder@Storage@Windows@@@details@Concurrency@@@std@@QBE_NXZ 10073d30 f i WinRTVFS.obj
 0002:00035db0       ??B?$shared_ptr@U?$_Task_impl@_N@details@Concurrency@@@std@@QBE_NXZ 10073db0 f i WinRTVFS.obj
 0002:00035e30       ??B?$shared_ptr@U_ExceptionHolder@details@Concurrency@@@std@@QBE_NXZ 10073e30 f i WinRTVFS.obj
 0002:00035eb0       ??Batomic_long@std@@QBEJXZ 10073eb0 f i WinRTVFS.obj
 0002:00035f10       ??Bscheduler_ptr@Concurrency@@QBE_NXZ 10073f10 f i WinRTVFS.obj
 0002:00035f90       ??C?$ComPtr@UIBufferByteAccess@Streams@Storage@Windows@@@WRL@Microsoft@@QBEPAV?$RemoveIUnknownBase@UIBufferByteAccess@Streams@Storage@Windows@@@Details@12@XZ 10073f90 f i WinRTVFS.obj
 0002:00035fd0       ??C?$shared_ptr@U?$_Task_completion_event_impl@E@details@Concurrency@@@std@@QBEPAU?$_Task_completion_event_impl@E@details@Concurrency@@XZ 10073fd0 f i WinRTVFS.obj
 0002:00036020       ??C?$shared_ptr@U?$_Task_impl@E@details@Concurrency@@@std@@QBEPAU?$_Task_impl@E@details@Concurrency@@XZ 10074020 f i WinRTVFS.obj
 0002:00036070       ??C?$shared_ptr@U?$_Task_impl@I@details@Concurrency@@@std@@QBEPAU?$_Task_impl@I@details@Concurrency@@XZ 10074070 f i WinRTVFS.obj
 0002:000360c0       ??C?$shared_ptr@U?$_Task_impl@P$AAUIBuffer@Streams@Storage@Windows@@@details@Concurrency@@@std@@QBEPAU?$_Task_impl@P$AAUIBuffer@Streams@Storage@Windows@@@details@Concurrency@@XZ 100740c0 f i WinRTVFS.obj
 0002:00036110       ??C?$shared_ptr@U?$_Task_impl@P$AAUIRandomAccessStream@Streams@Storage@Windows@@@details@Concurrency@@@std@@QBEPAU?$_Task_impl@P$AAUIRandomAccessStream@Streams@Storage@Windows@@@details@Concurrency@@XZ 10074110 f i WinRTVFS.obj
 0002:00036160       ??C?$shared_ptr@U?$_Task_impl@P$AAVStorageFile@Storage@Windows@@@details@Concurrency@@@std@@QBEPAU?$_Task_impl@P$AAVStorageFile@Storage@Windows@@@details@Concurrency@@XZ 10074160 f i WinRTVFS.obj
 0002:000361b0       ??C?$shared_ptr@U?$_Task_impl@P$AAVStorageFolder@Storage@Windows@@@details@Concurrency@@@std@@QBEPAU?$_Task_impl@P$AAVStorageFolder@Storage@Windows@@@details@Concurrency@@XZ 100741b0 f i WinRTVFS.obj
 0002:00036200       ??C?$shared_ptr@U?$_Task_impl@_N@details@Concurrency@@@std@@QBEPAU?$_Task_impl@_N@details@Concurrency@@XZ 10074200 f i WinRTVFS.obj
 0002:00036250       ??C?$shared_ptr@U_ExceptionHolder@details@Concurrency@@@std@@QBEPAU_ExceptionHolder@details@Concurrency@@XZ 10074250 f i WinRTVFS.obj
 0002:000362a0       ??C?$shared_ptr@U_Task_impl_base@details@Concurrency@@@std@@QBEPAU_Task_impl_base@details@Concurrency@@XZ 100742a0 f i WinRTVFS.obj
 0002:000362f0       ??Cscheduler_ptr@Concurrency@@QBEPAUscheduler_interface@1@XZ 100742f0 f i WinRTVFS.obj
 0002:00036340       ??D?$_Network_link_iterator@V?$ISource@H@Concurrency@@@Concurrency@@QAEABQAV?$ISource@H@1@XZ 10074340 f i WinRTVFS.obj
 0002:000363c0       ??D?$_Network_link_iterator@V?$ITarget@H@Concurrency@@@Concurrency@@QAEABQAV?$ITarget@H@1@XZ 100743c0 f i WinRTVFS.obj
 0002:00036440       ??D?$_Source_link_iterator@V?$multi_link_registry@V?$ISource@H@Concurrency@@@Concurrency@@@Concurrency@@QAEABQAV?$ISource@H@1@XZ 10074440 f i WinRTVFS.obj
 0002:000364a0       ??D?$_Vector_const_iterator@V?$_Vector_val@U?$_Simple_types@V?$shared_ptr@U?$_Task_impl@E@details@Concurrency@@@std@@@std@@@std@@@std@@QBEABV?$shared_ptr@U?$_Task_impl@E@details@Concurrency@@@1@XZ 100744a0 f i WinRTVFS.obj
 0002:000365e0       ??D?$_Vector_iterator@V?$_Vector_val@U?$_Simple_types@V?$shared_ptr@U?$_Task_impl@E@details@Concurrency@@@std@@@std@@@std@@@std@@QBEAAV?$shared_ptr@U?$_Task_impl@E@details@Concurrency@@@1@XZ 100745e0 f i WinRTVFS.obj
 0002:00036630       ??E?$_Network_link_iterator@V?$ISource@H@Concurrency@@@Concurrency@@QAE?AV01@H@Z 10074630 f i WinRTVFS.obj
 0002:00036700       ??E?$_Network_link_iterator@V?$ISource@H@Concurrency@@@Concurrency@@QAEAAV01@XZ 10074700 f i WinRTVFS.obj
 0002:00036790       ??E?$_Network_link_iterator@V?$ITarget@H@Concurrency@@@Concurrency@@QAEAAV01@XZ 10074790 f i WinRTVFS.obj
 0002:00036820       ??E?$_Source_link_iterator@V?$multi_link_registry@V?$ISource@H@Concurrency@@@Concurrency@@@Concurrency@@QAEAAV01@XZ 10074820 f i WinRTVFS.obj
 0002:00036870       ??E?$_Vector_const_iterator@V?$_Vector_val@U?$_Simple_types@V?$shared_ptr@U?$_Task_impl@E@details@Concurrency@@@std@@@std@@@std@@@std@@QAEAAV01@XZ 10074870 f i WinRTVFS.obj
 0002:000369a0       ??E?$_Vector_iterator@V?$_Vector_val@U?$_Simple_types@V?$shared_ptr@U?$_Task_impl@E@details@Concurrency@@@std@@@std@@@std@@@std@@QAEAAV01@XZ 100749a0 f i WinRTVFS.obj
 0002:00036a00       ??I?$ComPtr@UIAgileObject@@@WRL@Microsoft@@QAE?AV?$ComPtrRef@V?$ComPtr@UIAgileObject@@@WRL@Microsoft@@@Details@12@XZ 10074a00 f i WinRTVFS.obj
 0002:00036a60       ??I?$ComPtr@UIBufferByteAccess@Streams@Storage@Windows@@@WRL@Microsoft@@QAE?AV?$ComPtrRef@V?$ComPtr@UIBufferByteAccess@Streams@Storage@Windows@@@WRL@Microsoft@@@Details@12@XZ 10074a60 f i WinRTVFS.obj
 0002:000384b0       ??R?$_Func_class@EE@std@@QBEEE@Z 100764b0 f i WinRTVFS.obj
 0002:00038550       ??R?$_Func_class@X$$$V@std@@QBEXXZ 10076550 f i WinRTVFS.obj
 0002:000385e0       ??R?$_Func_class@XABH@std@@QBEXABH@Z 100765e0 f i WinRTVFS.obj
 0002:00038680       ??R?$_Func_class@XPAV?$message@H@Concurrency@@@std@@QBEXPAV?$message@H@Concurrency@@@Z 10076680 f i WinRTVFS.obj
 0002:00038720       ??R?$_Func_class@_NABH@std@@QBE_NABH@Z 10076720 f i WinRTVFS.obj
 0002:000387c0       ??R_TaskProcHandle@details@Concurrency@@QBEXXZ 100767c0 f i WinRTVFS.obj
 0002:00038820       ??_E?$timer@H@Concurrency@@WBA@AEPAXI@Z 10076820 f i WinRTVFS.obj
 0002:00038830       ??_E?$ISource@H@Concurrency@@UAEPAXI@Z 10076830 f i WinRTVFS.obj
 0002:00038830       ??_G?$ISource@H@Concurrency@@UAEPAXI@Z 10076830 f i WinRTVFS.obj
 0002:000388a0       ??_E?$ITarget@H@Concurrency@@UAEPAXI@Z 100768a0 f i WinRTVFS.obj
 0002:000388a0       ??_G?$ITarget@H@Concurrency@@UAEPAXI@Z 100768a0 f i WinRTVFS.obj
 0002:00038910       ??_G?$_CancellationTokenCallback@V<lambda_17cb9174022a2677ccd4c777403439ce>@@@details@Concurrency@@UAEPAXI@Z 10076910 f i WinRTVFS.obj
 0002:00038910       ??_E?$_CancellationTokenCallback@V<lambda_17cb9174022a2677ccd4c777403439ce>@@@details@Concurrency@@UAEPAXI@Z 10076910 f i WinRTVFS.obj
 0002:00038980       ??_G?$_ContinuationTaskHandle@XXV<lambda_9fc58f08a03183e50e06176727aeb396>@@U?$integral_constant@_N$0A@@std@@U_TypeSelectorNoAsync@details@Concurrency@@@?$task@E@Concurrency@@UAEPAXI@Z 10076980 f i WinRTVFS.obj
 0002:00038980       ??_E?$_ContinuationTaskHandle@XXV<lambda_9fc58f08a03183e50e06176727aeb396>@@U?$integral_constant@_N$0A@@std@@U_TypeSelectorNoAsync@details@Concurrency@@@?$task@E@Concurrency@@UAEPAXI@Z 10076980 f i WinRTVFS.obj
 0002:000389f0       ??_E?$_Func_base@EE@std@@UAEPAXI@Z 100769f0 f i WinRTVFS.obj
 0002:000389f0       ??_G?$_Func_base@EE@std@@UAEPAXI@Z 100769f0 f i WinRTVFS.obj
 0002:00038a60       ??_E?$_Func_base@X$$$V@std@@UAEPAXI@Z 10076a60 f i WinRTVFS.obj
 0002:00038a60       ??_G?$_Func_base@X$$$V@std@@UAEPAXI@Z 10076a60 f i WinRTVFS.obj
 0002:00038ad0       ??_E?$_Func_base@XABH@std@@UAEPAXI@Z 10076ad0 f i WinRTVFS.obj
 0002:00038ad0       ??_G?$_Func_base@XABH@std@@UAEPAXI@Z 10076ad0 f i WinRTVFS.obj
 0002:00038b40       ??_E?$_Func_base@XPAV?$message@H@Concurrency@@@std@@UAEPAXI@Z 10076b40 f i WinRTVFS.obj
 0002:00038b40       ??_G?$_Func_base@XPAV?$message@H@Concurrency@@@std@@UAEPAXI@Z 10076b40 f i WinRTVFS.obj
 0002:00038bb0       ??_G?$_Func_impl@U?$_Callable_obj@V<lambda_02d862f9cfc639ff7c37ca52d43e6a8c>@@$0A@@std@@V?$allocator@V?$_Func_class@X$$$V@std@@@2@X$$$V@std@@UAEPAXI@Z 10076bb0 f i WinRTVFS.obj
 0002:00038bb0       ??_E?$_Func_impl@U?$_Callable_obj@V<lambda_02d862f9cfc639ff7c37ca52d43e6a8c>@@$0A@@std@@V?$allocator@V?$_Func_class@X$$$V@std@@@2@X$$$V@std@@UAEPAXI@Z 10076bb0 f i WinRTVFS.obj
 0002:00038c20       ??_G?$_Func_impl@U?$_Callable_obj@V<lambda_095a938ce4c5765dcc6b67f548aeb9c7>@@$0A@@std@@V?$allocator@V?$_Func_class@X$$$V@std@@@2@X$$$V@std@@UAEPAXI@Z 10076c20 f i WinRTVFS.obj
 0002:00038c20       ??_E?$_Func_impl@U?$_Callable_obj@V<lambda_095a938ce4c5765dcc6b67f548aeb9c7>@@$0A@@std@@V?$allocator@V?$_Func_class@X$$$V@std@@@2@X$$$V@std@@UAEPAXI@Z 10076c20 f i WinRTVFS.obj
 0002:00038c90       ??_E?$_Func_impl@U?$_Callable_obj@V<lambda_0b7f78ec4ced38495cec46e0d346e0b9>@@$0A@@std@@V?$allocator@V?$_Func_class@X$$$V@std@@@2@X$$$V@std@@UAEPAXI@Z 10076c90 f i WinRTVFS.obj
 0002:00038c90       ??_G?$_Func_impl@U?$_Callable_obj@V<lambda_0b7f78ec4ced38495cec46e0d346e0b9>@@$0A@@std@@V?$allocator@V?$_Func_class@X$$$V@std@@@2@X$$$V@std@@UAEPAXI@Z 10076c90 f i WinRTVFS.obj
 0002:00038d00       ??_G?$_Func_impl@U?$_Callable_obj@V<lambda_0fe479da16d43edb8e9a254c493d643e>@@$0A@@std@@V?$allocator@V?$_Func_class@X$$$V@std@@@2@X$$$V@std@@UAEPAXI@Z 10076d00 f i WinRTVFS.obj
 0002:00038d00       ??_E?$_Func_impl@U?$_Callable_obj@V<lambda_0fe479da16d43edb8e9a254c493d643e>@@$0A@@std@@V?$allocator@V?$_Func_class@X$$$V@std@@@2@X$$$V@std@@UAEPAXI@Z 10076d00 f i WinRTVFS.obj
 0002:00038d70       ??_G?$_Func_impl@U?$_Callable_obj@V<lambda_1a93da980d6fe77644a4eefc4e1ad756>@@$0A@@std@@V?$allocator@V?$_Func_class@XABH@std@@@2@XABH@std@@UAEPAXI@Z 10076d70 f i WinRTVFS.obj
 0002:00038d70       ??_E?$_Func_impl@U?$_Callable_obj@V<lambda_1a93da980d6fe77644a4eefc4e1ad756>@@$0A@@std@@V?$allocator@V?$_Func_class@XABH@std@@@2@XABH@std@@UAEPAXI@Z 10076d70 f i WinRTVFS.obj
 0002:00038de0       ??_G?$_Func_impl@U?$_Callable_obj@V<lambda_295bc5f846209cba149a5e74d0d63a72>@@$0A@@std@@V?$allocator@V?$_Func_class@XPAV?$message@H@Concurrency@@@std@@@2@XPAV?$message@H@Concurrency@@@std@@UAEPAXI@Z 10076de0 f i WinRTVFS.obj
 0002:00038de0       ??_E?$_Func_impl@U?$_Callable_obj@V<lambda_295bc5f846209cba149a5e74d0d63a72>@@$0A@@std@@V?$allocator@V?$_Func_class@XPAV?$message@H@Concurrency@@@std@@@2@XPAV?$message@H@Concurrency@@@std@@UAEPAXI@Z 10076de0 f i WinRTVFS.obj
 0002:00038e50       ??_G?$_Func_impl@U?$_Callable_obj@V<lambda_364e75aa895e992ae8821732ca646aa2>@@$0A@@std@@V?$allocator@V?$_Func_class@X$$$V@std@@@2@X$$$V@std@@UAEPAXI@Z 10076e50 f i WinRTVFS.obj
 0002:00038e50       ??_E?$_Func_impl@U?$_Callable_obj@V<lambda_364e75aa895e992ae8821732ca646aa2>@@$0A@@std@@V?$allocator@V?$_Func_class@X$$$V@std@@@2@X$$$V@std@@UAEPAXI@Z 10076e50 f i WinRTVFS.obj
 0002:00038ec0       ??_G?$_Func_impl@U?$_Callable_obj@V<lambda_39cde079c01d1b5b9307ff255a1ccdd9>@@$0A@@std@@V?$allocator@V?$_Func_class@EE@std@@@2@EE@std@@UAEPAXI@Z 10076ec0 f i WinRTVFS.obj
 0002:00038ec0       ??_E?$_Func_impl@U?$_Callable_obj@V<lambda_39cde079c01d1b5b9307ff255a1ccdd9>@@$0A@@std@@V?$allocator@V?$_Func_class@EE@std@@@2@EE@std@@UAEPAXI@Z 10076ec0 f i WinRTVFS.obj
 0002:00038f30       ??_E?$_Func_impl@U?$_Callable_obj@V<lambda_528650821c608ced6534641e311542a5>@@$0A@@std@@V?$allocator@V?$_Func_class@X$$$V@std@@@2@X$$$V@std@@UAEPAXI@Z 10076f30 f i WinRTVFS.obj
 0002:00038f30       ??_G?$_Func_impl@U?$_Callable_obj@V<lambda_528650821c608ced6534641e311542a5>@@$0A@@std@@V?$allocator@V?$_Func_class@X$$$V@std@@@2@X$$$V@std@@UAEPAXI@Z 10076f30 f i WinRTVFS.obj
 0002:00038fa0       ??_G?$_Func_impl@U?$_Callable_obj@V<lambda_579ccd68d569251046038e8620afec85>@@$0A@@std@@V?$allocator@V?$_Func_class@XPAV?$message@H@Concurrency@@@std@@@2@XPAV?$message@H@Concurrency@@@std@@UAEPAXI@Z 10076fa0 f i WinRTVFS.obj
 0002:00038fa0       ??_E?$_Func_impl@U?$_Callable_obj@V<lambda_579ccd68d569251046038e8620afec85>@@$0A@@std@@V?$allocator@V?$_Func_class@XPAV?$message@H@Concurrency@@@std@@@2@XPAV?$message@H@Concurrency@@@std@@UAEPAXI@Z 10076fa0 f i WinRTVFS.obj
 0002:00039010       ??_E?$_Func_impl@U?$_Callable_obj@V<lambda_9fc58f08a03183e50e06176727aeb396>@@$0A@@std@@V?$allocator@V?$_Func_class@X$$$V@std@@@2@X$$$V@std@@UAEPAXI@Z 10077010 f i WinRTVFS.obj
 0002:00039010       ??_G?$_Func_impl@U?$_Callable_obj@V<lambda_9fc58f08a03183e50e06176727aeb396>@@$0A@@std@@V?$allocator@V?$_Func_class@X$$$V@std@@@2@X$$$V@std@@UAEPAXI@Z 10077010 f i WinRTVFS.obj
 0002:00039080       ??_G?$_Func_impl@U?$_Callable_obj@V<lambda_a66b3ee15e662226a0b0b15ae647d32f>@@$0A@@std@@V?$allocator@V?$_Func_class@X$$$V@std@@@2@X$$$V@std@@UAEPAXI@Z 10077080 f i WinRTVFS.obj
 0002:00039080       ??_E?$_Func_impl@U?$_Callable_obj@V<lambda_a66b3ee15e662226a0b0b15ae647d32f>@@$0A@@std@@V?$allocator@V?$_Func_class@X$$$V@std@@@2@X$$$V@std@@UAEPAXI@Z 10077080 f i WinRTVFS.obj
 0002:000390f0       ??_E?$_Func_impl@U?$_Callable_obj@V<lambda_c1a554f2383dae03f169289aed8c4103>@@$0A@@std@@V?$allocator@V?$_Func_class@X$$$V@std@@@2@X$$$V@std@@UAEPAXI@Z 100770f0 f i WinRTVFS.obj
 0002:000390f0       ??_G?$_Func_impl@U?$_Callable_obj@V<lambda_c1a554f2383dae03f169289aed8c4103>@@$0A@@std@@V?$allocator@V?$_Func_class@X$$$V@std@@@2@X$$$V@std@@UAEPAXI@Z 100770f0 f i WinRTVFS.obj
 0002:00039160       ??_E?$_Func_impl@U?$_Callable_obj@V<lambda_c28a53003ed51cdfe295a7d756f98c2f>@@$0A@@std@@V?$allocator@V?$_Func_class@XPAV?$message@H@Concurrency@@@std@@@2@XPAV?$message@H@Concurrency@@@std@@UAEPAXI@Z 10077160 f i WinRTVFS.obj
 0002:00039160       ??_G?$_Func_impl@U?$_Callable_obj@V<lambda_c28a53003ed51cdfe295a7d756f98c2f>@@$0A@@std@@V?$allocator@V?$_Func_class@XPAV?$message@H@Concurrency@@@std@@@2@XPAV?$message@H@Concurrency@@@std@@UAEPAXI@Z 10077160 f i WinRTVFS.obj
 0002:000391d0       ??_G?$_Func_impl@U?$_Callable_obj@V<lambda_e7ef5f1e4e1eca0ae8efc6086cf9f417>@@$0A@@std@@V?$allocator@V?$_Func_class@X$$$V@std@@@2@X$$$V@std@@UAEPAXI@Z 100771d0 f i WinRTVFS.obj
 0002:000391d0       ??_E?$_Func_impl@U?$_Callable_obj@V<lambda_e7ef5f1e4e1eca0ae8efc6086cf9f417>@@$0A@@std@@V?$allocator@V?$_Func_class@X$$$V@std@@@2@X$$$V@std@@UAEPAXI@Z 100771d0 f i WinRTVFS.obj
 0002:00039240       ??_E?$_PPLTaskHandle@EU?$_ContinuationTaskHandle@XXV<lambda_9fc58f08a03183e50e06176727aeb396>@@U?$integral_constant@_N$0A@@std@@U_TypeSelectorNoAsync@details@Concurrency@@@?$task@E@Concurrency@@U_ContinuationTaskHandleBase@details@3@@details@Concurrency@@UAEPAXI@Z 10077240 f i WinRTVFS.obj
 0002:00039240       ??_G?$_PPLTaskHandle@EU?$_ContinuationTaskHandle@XXV<lambda_9fc58f08a03183e50e06176727aeb396>@@U?$integral_constant@_N$0A@@std@@U_TypeSelectorNoAsync@details@Concurrency@@@?$task@E@Concurrency@@U_ContinuationTaskHandleBase@details@3@@details@Concurrency@@UAEPAXI@Z 10077240 f i WinRTVFS.obj
 0002:000392b0       ??_G?$_Ref_count_obj@U?$_Task_completion_event_impl@E@details@Concurrency@@@std@@UAEPAXI@Z 100772b0 f i WinRTVFS.obj
 0002:000392b0       ??_E?$_Ref_count_obj@U?$_Task_completion_event_impl@E@details@Concurrency@@@std@@UAEPAXI@Z 100772b0 f i WinRTVFS.obj
 0002:00039320       ??_E?$_Ref_count_obj@U?$_Task_impl@E@details@Concurrency@@@std@@UAEPAXI@Z 10077320 f i WinRTVFS.obj
 0002:00039320       ??_G?$_Ref_count_obj@U?$_Task_impl@E@details@Concurrency@@@std@@UAEPAXI@Z 10077320 f i WinRTVFS.obj
 0002:00039390       ??_E?$_Ref_count_obj@U?$_Task_impl@I@details@Concurrency@@@std@@UAEPAXI@Z 10077390 f i WinRTVFS.obj
 0002:00039390       ??_G?$_Ref_count_obj@U?$_Task_impl@I@details@Concurrency@@@std@@UAEPAXI@Z 10077390 f i WinRTVFS.obj
 0002:00039400       ??_E?$_Ref_count_obj@U?$_Task_impl@P$AAUIBuffer@Streams@Storage@Windows@@@details@Concurrency@@@std@@UAEPAXI@Z 10077400 f i WinRTVFS.obj
 0002:00039400       ??_G?$_Ref_count_obj@U?$_Task_impl@P$AAUIBuffer@Streams@Storage@Windows@@@details@Concurrency@@@std@@UAEPAXI@Z 10077400 f i WinRTVFS.obj
 0002:00039470       ??_G?$_Ref_count_obj@U?$_Task_impl@P$AAUIRandomAccessStream@Streams@Storage@Windows@@@details@Concurrency@@@std@@UAEPAXI@Z 10077470 f i WinRTVFS.obj
 0002:00039470       ??_E?$_Ref_count_obj@U?$_Task_impl@P$AAUIRandomAccessStream@Streams@Storage@Windows@@@details@Concurrency@@@std@@UAEPAXI@Z 10077470 f i WinRTVFS.obj
 0002:000394e0       ??_G?$_Ref_count_obj@U?$_Task_impl@P$AAVStorageFile@Storage@Windows@@@details@Concurrency@@@std@@UAEPAXI@Z 100774e0 f i WinRTVFS.obj
 0002:000394e0       ??_E?$_Ref_count_obj@U?$_Task_impl@P$AAVStorageFile@Storage@Windows@@@details@Concurrency@@@std@@UAEPAXI@Z 100774e0 f i WinRTVFS.obj
 0002:00039550       ??_E?$_Ref_count_obj@U?$_Task_impl@P$AAVStorageFolder@Storage@Windows@@@details@Concurrency@@@std@@UAEPAXI@Z 10077550 f i WinRTVFS.obj
 0002:00039550       ??_G?$_Ref_count_obj@U?$_Task_impl@P$AAVStorageFolder@Storage@Windows@@@details@Concurrency@@@std@@UAEPAXI@Z 10077550 f i WinRTVFS.obj
 0002:000395c0       ??_E?$_Ref_count_obj@U?$_Task_impl@_N@details@Concurrency@@@std@@UAEPAXI@Z 100775c0 f i WinRTVFS.obj
 0002:000395c0       ??_G?$_Ref_count_obj@U?$_Task_impl@_N@details@Concurrency@@@std@@UAEPAXI@Z 100775c0 f i WinRTVFS.obj
 0002:00039630       ??_E?$_Ref_count_obj@U_ExceptionHolder@details@Concurrency@@@std@@UAEPAXI@Z 10077630 f i WinRTVFS.obj
 0002:00039630       ??_G?$_Ref_count_obj@U_ExceptionHolder@details@Concurrency@@@std@@UAEPAXI@Z 10077630 f i WinRTVFS.obj
 0002:000396a0       ??_E?$_Source_link_iterator@V?$multi_link_registry@V?$ISource@H@Concurrency@@@Concurrency@@@Concurrency@@UAEPAXI@Z 100776a0 f i WinRTVFS.obj
 0002:000396a0       ??_G?$_Source_link_iterator@V?$multi_link_registry@V?$ISource@H@Concurrency@@@Concurrency@@@Concurrency@@UAEPAXI@Z 100776a0 f i WinRTVFS.obj
 0002:00039710       ??_G?$_Task_completion_event_impl@E@details@Concurrency@@QAEPAXI@Z 10077710 f i WinRTVFS.obj
 0002:00039780       ??_G?$_Task_impl@E@details@Concurrency@@UAEPAXI@Z 10077780 f i WinRTVFS.obj
 0002:00039780       ??_E?$_Task_impl@E@details@Concurrency@@UAEPAXI@Z 10077780 f i WinRTVFS.obj
 0002:000397f0       ??_G?$_Task_impl@I@details@Concurrency@@UAEPAXI@Z 100777f0 f i WinRTVFS.obj
 0002:000397f0       ??_E?$_Task_impl@I@details@Concurrency@@UAEPAXI@Z 100777f0 f i WinRTVFS.obj
 0002:00039860       ??_E?$_Task_impl@P$AAUIBuffer@Streams@Storage@Windows@@@details@Concurrency@@UAEPAXI@Z 10077860 f i WinRTVFS.obj
 0002:00039860       ??_G?$_Task_impl@P$AAUIBuffer@Streams@Storage@Windows@@@details@Concurrency@@UAEPAXI@Z 10077860 f i WinRTVFS.obj
 0002:000398d0       ??_G?$_Task_impl@P$AAUIRandomAccessStream@Streams@Storage@Windows@@@details@Concurrency@@UAEPAXI@Z 100778d0 f i WinRTVFS.obj
 0002:000398d0       ??_E?$_Task_impl@P$AAUIRandomAccessStream@Streams@Storage@Windows@@@details@Concurrency@@UAEPAXI@Z 100778d0 f i WinRTVFS.obj
 0002:00039940       ??_E?$_Task_impl@P$AAVStorageFile@Storage@Windows@@@details@Concurrency@@UAEPAXI@Z 10077940 f i WinRTVFS.obj
 0002:00039940       ??_G?$_Task_impl@P$AAVStorageFile@Storage@Windows@@@details@Concurrency@@UAEPAXI@Z 10077940 f i WinRTVFS.obj
 0002:000399b0       ??_E?$_Task_impl@P$AAVStorageFolder@Storage@Windows@@@details@Concurrency@@UAEPAXI@Z 100779b0 f i WinRTVFS.obj
 0002:000399b0       ??_G?$_Task_impl@P$AAVStorageFolder@Storage@Windows@@@details@Concurrency@@UAEPAXI@Z 100779b0 f i WinRTVFS.obj
 0002:00039a20       ??_G?$_Task_impl@_N@details@Concurrency@@UAEPAXI@Z 10077a20 f i WinRTVFS.obj
 0002:00039a20       ??_E?$_Task_impl@_N@details@Concurrency@@UAEPAXI@Z 10077a20 f i WinRTVFS.obj
 0002:00039a90       ??_G?$__abi_FunctorCapture@V<lambda_06940b0a4178dd98f799c96a43aa5761>@@XP$AAUIAsyncAction@Foundation@Windows@@W4AsyncStatus@34@@Details@Platform@@UAEPAXI@Z 10077a90 f i WinRTVFS.obj
 0002:00039a90       ??_E?$__abi_FunctorCapture@V<lambda_06940b0a4178dd98f799c96a43aa5761>@@XP$AAUIAsyncAction@Foundation@Windows@@W4AsyncStatus@34@@Details@Platform@@UAEPAXI@Z 10077a90 f i WinRTVFS.obj
 0002:00039b00       ??_G?$__abi_FunctorCapture@V<lambda_3e0d823744565aaa3c572230ef0680e7>@@XP$AAU?$IAsyncOperationWithProgress@P$AAUIBuffer@Streams@Storage@Windows@@I@Foundation@Windows@@W4AsyncStatus@34@@Details@Platform@@UAEPAXI@Z 10077b00 f i WinRTVFS.obj
 0002:00039b00       ??_E?$__abi_FunctorCapture@V<lambda_3e0d823744565aaa3c572230ef0680e7>@@XP$AAU?$IAsyncOperationWithProgress@P$AAUIBuffer@Streams@Storage@Windows@@I@Foundation@Windows@@W4AsyncStatus@34@@Details@Platform@@UAEPAXI@Z 10077b00 f i WinRTVFS.obj
 0002:00039b70       ??_E?$__abi_FunctorCapture@V<lambda_50a95a3b918e2a131c7de197f9d43680>@@XP$AAU?$IAsyncOperation@I@Foundation@Windows@@W4AsyncStatus@34@@Details@Platform@@UAEPAXI@Z 10077b70 f i WinRTVFS.obj
 0002:00039b70       ??_G?$__abi_FunctorCapture@V<lambda_50a95a3b918e2a131c7de197f9d43680>@@XP$AAU?$IAsyncOperation@I@Foundation@Windows@@W4AsyncStatus@34@@Details@Platform@@UAEPAXI@Z 10077b70 f i WinRTVFS.obj
 0002:00039be0       ??_G?$__abi_FunctorCapture@V<lambda_58b35b2c39cebe76475502e8be1fa050>@@XP$AAU?$IAsyncOperation@P$AAUIRandomAccessStream@Streams@Storage@Windows@@@Foundation@Windows@@W4AsyncStatus@34@@Details@Platform@@UAEPAXI@Z 10077be0 f i WinRTVFS.obj
 0002:00039be0       ??_E?$__abi_FunctorCapture@V<lambda_58b35b2c39cebe76475502e8be1fa050>@@XP$AAU?$IAsyncOperation@P$AAUIRandomAccessStream@Streams@Storage@Windows@@@Foundation@Windows@@W4AsyncStatus@34@@Details@Platform@@UAEPAXI@Z 10077be0 f i WinRTVFS.obj
 0002:00039c50       ??_G?$__abi_FunctorCapture@V<lambda_78c8bde34479949ab00939bfc3c21b9e>@@XP$AAU?$IAsyncOperation@_N@Foundation@Windows@@W4AsyncStatus@34@@Details@Platform@@UAEPAXI@Z 10077c50 f i WinRTVFS.obj
 0002:00039c50       ??_E?$__abi_FunctorCapture@V<lambda_78c8bde34479949ab00939bfc3c21b9e>@@XP$AAU?$IAsyncOperation@_N@Foundation@Windows@@W4AsyncStatus@34@@Details@Platform@@UAEPAXI@Z 10077c50 f i WinRTVFS.obj
 0002:00039cc0       ??_G?$__abi_FunctorCapture@V<lambda_7a641106db6b220fc1bd53009e5e1b6e>@@XP$AAU?$IAsyncOperationWithProgress@II@Foundation@Windows@@W4AsyncStatus@34@@Details@Platform@@UAEPAXI@Z 10077cc0 f i WinRTVFS.obj
 0002:00039cc0       ??_E?$__abi_FunctorCapture@V<lambda_7a641106db6b220fc1bd53009e5e1b6e>@@XP$AAU?$IAsyncOperationWithProgress@II@Foundation@Windows@@W4AsyncStatus@34@@Details@Platform@@UAEPAXI@Z 10077cc0 f i WinRTVFS.obj
 0002:00039d30       ??_G?$__abi_FunctorCapture@V<lambda_8b35f48eeaabe3dd7cb14b365c80a64b>@@XP$AAU?$IAsyncOperation@P$AAUIBuffer@Streams@Storage@Windows@@@Foundation@Windows@@W4AsyncStatus@34@@Details@Platform@@UAEPAXI@Z 10077d30 f i WinRTVFS.obj
 0002:00039d30       ??_E?$__abi_FunctorCapture@V<lambda_8b35f48eeaabe3dd7cb14b365c80a64b>@@XP$AAU?$IAsyncOperation@P$AAUIBuffer@Streams@Storage@Windows@@@Foundation@Windows@@W4AsyncStatus@34@@Details@Platform@@UAEPAXI@Z 10077d30 f i WinRTVFS.obj
 0002:00039da0       ??_E?$__abi_FunctorCapture@V<lambda_b5ec294d64b7ae7d96b9bd52c133d46d>@@XP$AAU?$IAsyncOperation@E@Foundation@Windows@@W4AsyncStatus@34@@Details@Platform@@UAEPAXI@Z 10077da0 f i WinRTVFS.obj
 0002:00039da0       ??_G?$__abi_FunctorCapture@V<lambda_b5ec294d64b7ae7d96b9bd52c133d46d>@@XP$AAU?$IAsyncOperation@E@Foundation@Windows@@W4AsyncStatus@34@@Details@Platform@@UAEPAXI@Z 10077da0 f i WinRTVFS.obj
 0002:00039e10       ??_G?$__abi_FunctorCapture@V<lambda_c124a470bc399dc48f76de2d0d06ac02>@@XP$AAU?$IAsyncOperation@P$AAVStorageFolder@Storage@Windows@@@Foundation@Windows@@W4AsyncStatus@34@@Details@Platform@@UAEPAXI@Z 10077e10 f i WinRTVFS.obj
 0002:00039e10       ??_E?$__abi_FunctorCapture@V<lambda_c124a470bc399dc48f76de2d0d06ac02>@@XP$AAU?$IAsyncOperation@P$AAVStorageFolder@Storage@Windows@@@Foundation@Windows@@W4AsyncStatus@34@@Details@Platform@@UAEPAXI@Z 10077e10 f i WinRTVFS.obj
 0002:00039e80       ??_E?$__abi_FunctorCapture@V<lambda_f0a7c2b0a64e3b533e4acd91ff29d36c>@@XP$AAU?$IAsyncOperation@P$AAVStorageFile@Storage@Windows@@@Foundation@Windows@@W4AsyncStatus@34@@Details@Platform@@UAEPAXI@Z 10077e80 f i WinRTVFS.obj
 0002:00039e80       ??_G?$__abi_FunctorCapture@V<lambda_f0a7c2b0a64e3b533e4acd91ff29d36c>@@XP$AAU?$IAsyncOperation@P$AAVStorageFile@Storage@Windows@@@Foundation@Windows@@W4AsyncStatus@34@@Details@Platform@@UAEPAXI@Z 10077e80 f i WinRTVFS.obj
 0002:00039ef0       ??_E?$call@HV?$function@$$A6AXABH@Z@std@@@Concurrency@@UAEPAXI@Z 10077ef0 f i WinRTVFS.obj
 0002:00039ef0       ??_G?$call@HV?$function@$$A6AXABH@Z@std@@@Concurrency@@UAEPAXI@Z 10077ef0 f i WinRTVFS.obj
 0002:00039f60       ??_E?$concurrent_queue@PAV?$message@H@Concurrency@@V?$allocator@PAV?$message@H@Concurrency@@@std@@@Concurrency@@UAEPAXI@Z 10077f60 f i WinRTVFS.obj
 0002:00039f60       ??_G?$concurrent_queue@PAV?$message@H@Concurrency@@V?$allocator@PAV?$message@H@Concurrency@@@std@@@Concurrency@@UAEPAXI@Z 10077f60 f i WinRTVFS.obj
 0002:00039fd0       ??_G?$function@$$A6A_NABH@Z@std@@QAEPAXI@Z 10077fd0 f i WinRTVFS.obj
 0002:0003a040       ??_E?$message@H@Concurrency@@UAEPAXI@Z 10078040 f i WinRTVFS.obj
 0002:0003a040       ??_G?$message@H@Concurrency@@UAEPAXI@Z 10078040 f i WinRTVFS.obj
 0002:0003a0b0       ??_E?$multi_link_registry@V?$ISource@H@Concurrency@@@Concurrency@@UAEPAXI@Z 100780b0 f i WinRTVFS.obj
 0002:0003a0b0       ??_G?$multi_link_registry@V?$ISource@H@Concurrency@@@Concurrency@@UAEPAXI@Z 100780b0 f i WinRTVFS.obj
 0002:0003a120       ??_E?$ordered_message_processor@H@Concurrency@@UAEPAXI@Z 10078120 f i WinRTVFS.obj
 0002:0003a120       ??_G?$ordered_message_processor@H@Concurrency@@UAEPAXI@Z 10078120 f i WinRTVFS.obj
 0002:0003a190       ??_G?$shared_ptr@U?$_Task_impl@E@details@Concurrency@@@std@@QAEPAXI@Z 10078190 f i WinRTVFS.obj
 0002:0003a200       ??_G?$single_link_registry@V?$ITarget@H@Concurrency@@@Concurrency@@UAEPAXI@Z 10078200 f i WinRTVFS.obj
 0002:0003a200       ??_E?$single_link_registry@V?$ITarget@H@Concurrency@@@Concurrency@@UAEPAXI@Z 10078200 f i WinRTVFS.obj
 0002:0003a270       ??_G?$source_block@V?$single_link_registry@V?$ITarget@H@Concurrency@@@Concurrency@@V?$ordered_message_processor@H@2@@Concurrency@@UAEPAXI@Z 10078270 f i WinRTVFS.obj
 0002:0003a270       ??_E?$source_block@V?$single_link_registry@V?$ITarget@H@Concurrency@@@Concurrency@@V?$ordered_message_processor@H@2@@Concurrency@@UAEPAXI@Z 10078270 f i WinRTVFS.obj
 0002:0003a2e0       ??_E?$target_block@V?$multi_link_registry@V?$ISource@H@Concurrency@@@Concurrency@@V?$ordered_message_processor@H@2@@Concurrency@@UAEPAXI@Z 100782e0 f i WinRTVFS.obj
 0002:0003a2e0       ??_G?$target_block@V?$multi_link_registry@V?$ISource@H@Concurrency@@@Concurrency@@V?$ordered_message_processor@H@2@@Concurrency@@UAEPAXI@Z 100782e0 f i WinRTVFS.obj
 0002:0003a350       ??_G?$timer@H@Concurrency@@UAEPAXI@Z 10078350 f i WinRTVFS.obj
 0002:0003a350       ??_E?$timer@H@Concurrency@@UAEPAXI@Z 10078350 f i WinRTVFS.obj
 0002:0003a3c0       ??_E_CancellationTokenRegistration@details@Concurrency@@MAEPAXI@Z 100783c0 f i WinRTVFS.obj
 0002:0003a3c0       ??_G_CancellationTokenRegistration@details@Concurrency@@MAEPAXI@Z 100783c0 f i WinRTVFS.obj
 0002:0003a430       ??_G_Chore@details@Concurrency@@MAEPAXI@Z 10078430 f i WinRTVFS.obj
 0002:0003a430       ??_E_Chore@details@Concurrency@@MAEPAXI@Z 10078430 f i WinRTVFS.obj
 0002:0003a4a0       ??_G_ContinuationTaskHandleBase@details@Concurrency@@UAEPAXI@Z 100784a0 f i WinRTVFS.obj
 0002:0003a4a0       ??_E_ContinuationTaskHandleBase@details@Concurrency@@UAEPAXI@Z 100784a0 f i WinRTVFS.obj
 0002:0003a510       ??_G_ExceptionHolder@details@Concurrency@@QAEPAXI@Z 10078510 f i WinRTVFS.obj
 0002:0003a580       ??_G_RefCounter@details@Concurrency@@UAEPAXI@Z 10078580 f i WinRTVFS.obj
 0002:0003a580       ??_E_RefCounter@details@Concurrency@@UAEPAXI@Z 10078580 f i WinRTVFS.obj
 0002:0003a5f0       ??_G_Ref_count_base@std@@UAEPAXI@Z 100785f0 f i WinRTVFS.obj
 0002:0003a5f0       ??_E_Ref_count_base@std@@UAEPAXI@Z 100785f0 f i WinRTVFS.obj
 0002:0003a660       ??_G_TaskProcHandle@details@Concurrency@@UAEPAXI@Z 10078660 f i WinRTVFS.obj
 0002:0003a660       ??_E_TaskProcHandle@details@Concurrency@@UAEPAXI@Z 10078660 f i WinRTVFS.obj
 0002:0003a6d0       ??_G_TaskProcThunk@details@Concurrency@@QAEPAXI@Z 100786d0 f i WinRTVFS.obj
 0002:0003a740       ??_G_Task_impl_base@details@Concurrency@@UAEPAXI@Z 10078740 f i WinRTVFS.obj
 0002:0003a740       ??_E_Task_impl_base@details@Concurrency@@UAEPAXI@Z 10078740 f i WinRTVFS.obj
 0002:0003a7b0       ??_E_UnrealizedChore@details@Concurrency@@UAEPAXI@Z 100787b0 f i WinRTVFS.obj
 0002:0003a7b0       ??_G_UnrealizedChore@details@Concurrency@@UAEPAXI@Z 100787b0 f i WinRTVFS.obj
 0002:0003a820       ??_G__abi_CaptureBase@Details@Platform@@MAEPAXI@Z 10078820 f i WinRTVFS.obj
 0002:0003a820       ??_E__abi_CaptureBase@Details@Platform@@MAEPAXI@Z 10078820 f i WinRTVFS.obj
 0002:0003a890       ??_G__abi_CapturePtr@Details@Platform@@QAEPAXI@Z 10078890 f i WinRTVFS.obj
 0002:0003a900       ??_Gbad_alloc@std@@UAEPAXI@Z 10078900 f i WinRTVFS.obj
 0002:0003a900       ??_Ebad_alloc@std@@UAEPAXI@Z 10078900 f i WinRTVFS.obj
 0002:0003a970       ??_Ebad_target@Concurrency@@UAEPAXI@Z 10078970 f i WinRTVFS.obj
 0002:0003a970       ??_Gbad_target@Concurrency@@UAEPAXI@Z 10078970 f i WinRTVFS.obj
 0002:0003a9e0       ??_Ebad_weak_ptr@std@@UAEPAXI@Z 100789e0 f i WinRTVFS.obj
 0002:0003a9e0       ??_Gbad_weak_ptr@std@@UAEPAXI@Z 100789e0 f i WinRTVFS.obj
 0002:0003aa50       ??_Ginvalid_argument@std@@UAEPAXI@Z 10078a50 f i WinRTVFS.obj
 0002:0003aa50       ??_Einvalid_argument@std@@UAEPAXI@Z 10078a50 f i WinRTVFS.obj
 0002:0003aac0       ??_Ginvalid_link_target@Concurrency@@UAEPAXI@Z 10078ac0 f i WinRTVFS.obj
 0002:0003aac0       ??_Einvalid_link_target@Concurrency@@UAEPAXI@Z 10078ac0 f i WinRTVFS.obj
 0002:0003ab30       ??_Ginvalid_operation@Concurrency@@UAEPAXI@Z 10078b30 f i WinRTVFS.obj
 0002:0003ab30       ??_Einvalid_operation@Concurrency@@UAEPAXI@Z 10078b30 f i WinRTVFS.obj
 0002:0003aba0       ??_Elogic_error@std@@UAEPAXI@Z 10078ba0 f i WinRTVFS.obj
 0002:0003aba0       ??_Glogic_error@std@@UAEPAXI@Z 10078ba0 f i WinRTVFS.obj
 0002:0003ac10       ??_Emessage_not_found@Concurrency@@UAEPAXI@Z 10078c10 f i WinRTVFS.obj
 0002:0003ac10       ??_Gmessage_not_found@Concurrency@@UAEPAXI@Z 10078c10 f i WinRTVFS.obj
 0002:0003ac80       ??_Gruntime_error@std@@UAEPAXI@Z 10078c80 f i WinRTVFS.obj
 0002:0003ac80       ??_Eruntime_error@std@@UAEPAXI@Z 10078c80 f i WinRTVFS.obj
 0002:0003acf0       ??_Gtask_canceled@Concurrency@@UAEPAXI@Z 10078cf0 f i WinRTVFS.obj
 0002:0003acf0       ??_Etask_canceled@Concurrency@@UAEPAXI@Z 10078cf0 f i WinRTVFS.obj
 0002:0003ad60       ?Allocate@Heap@Details@Platform@@SAPAXIIPAX@Z 10078d60 f i WinRTVFS.obj
 0002:0003ada0       ?Allocate@Heap@Details@Platform@@SAPAXIPAX@Z 10078da0 f i WinRTVFS.obj
 0002:0003ade0       ?Cancel@?QIAsyncInfo@Foundation@Windows@@?$_AsyncInfoImpl@P$AAU?$IAsyncOperationWithProgress@II@Foundation@Windows@@V?$AsyncOperationWithProgressCompletedHandler@II@23@I@details@Concurrency@@U$AAAXXZ 10078de0 f i WinRTVFS.obj
 0002:0003aedf       ?Cancel@?QIAsyncInfo@Foundation@Windows@@?$_AsyncInfoImpl@P$AAU?$IAsyncOperationWithProgress@II@Foundation@Windows@@V?$AsyncOperationWithProgressCompletedHandler@II@23@I@details@Concurrency@@W7$AAAXXZ 10078edf f i WinRTVFS.obj
 0002:0003aef0       ?Cancel@?QIAsyncInfo@Foundation@Windows@@?$_AsyncInfoImpl@P$AAU?$IAsyncOperationWithProgress@P$AAUIBuffer@Streams@Storage@Windows@@I@Foundation@Windows@@V?$AsyncOperationWithProgressCompletedHandler@P$AAUIBuffer@Streams@Storage@Windows@@I@23@P$AAUIBuffer@Streams@Storage@3@@details@Concurrency@@U$AAAXXZ 10078ef0 f i WinRTVFS.obj
 0002:0003afef       ?Cancel@?QIAsyncInfo@Foundation@Windows@@?$_AsyncInfoImpl@P$AAU?$IAsyncOperationWithProgress@P$AAUIBuffer@Streams@Storage@Windows@@I@Foundation@Windows@@V?$AsyncOperationWithProgressCompletedHandler@P$AAUIBuffer@Streams@Storage@Windows@@I@23@P$AAUIBuffer@Streams@Storage@3@@details@Concurrency@@W7$AAAXXZ 10078fef f i WinRTVFS.obj
 0002:0003b000       ?Cancel@?QIAsyncInfo@Foundation@Windows@@?$_AsyncInfoImpl@P$AAUIAsyncAction@Foundation@Windows@@VAsyncActionCompletedHandler@23@E@details@Concurrency@@U$AAAXXZ 10079000 f i WinRTVFS.obj
 0002:0003b0ff       ?Cancel@?QIAsyncInfo@Foundation@Windows@@?$_AsyncInfoImpl@P$AAUIAsyncAction@Foundation@Windows@@VAsyncActionCompletedHandler@23@E@details@Concurrency@@W7$AAAXXZ 100790ff f i WinRTVFS.obj
 0002:0003b110       ?Cancel@IAsyncInfo@Foundation@Windows@@U$AAAXXZ 10079110 f i WinRTVFS.obj
 0002:0003b180       ?CaptureContext@?$Agile@P$AAU?$IAsyncOperationWithProgress@II@Foundation@Windows@@$00@Platform@@AAEXXZ 10079180 f i WinRTVFS.obj
 0002:0003b210       ?CaptureContext@?$Agile@P$AAU?$IAsyncOperationWithProgress@P$AAUIBuffer@Streams@Storage@Windows@@I@Foundation@Windows@@$00@Platform@@AAEXXZ 10079210 f i WinRTVFS.obj
 0002:0003b2a0       ?CaptureContext@?$Agile@P$AAUIAsyncAction@Foundation@Windows@@$00@Platform@@AAEXXZ 100792a0 f i WinRTVFS.obj
 0002:0003b330       ?CaptureContext@?$Agile@P$AAUIBuffer@Streams@Storage@Windows@@$00@Platform@@AAEXXZ 10079330 f i WinRTVFS.obj
 0002:0003b3c0       ?CaptureContext@?$Agile@P$AAUIRandomAccessStream@Streams@Storage@Windows@@$00@Platform@@AAEXXZ 100793c0 f i WinRTVFS.obj
 0002:0003b450       ?Close@?QIAsyncInfo@Foundation@Windows@@?$_AsyncInfoImpl@P$AAU?$IAsyncOperationWithProgress@II@Foundation@Windows@@V?$AsyncOperationWithProgressCompletedHandler@II@23@I@details@Concurrency@@U$AAAXXZ 10079450 f i WinRTVFS.obj
 0002:0003b54f       ?Close@?QIAsyncInfo@Foundation@Windows@@?$_AsyncInfoImpl@P$AAU?$IAsyncOperationWithProgress@II@Foundation@Windows@@V?$AsyncOperationWithProgressCompletedHandler@II@23@I@details@Concurrency@@W7$AAAXXZ 1007954f f i WinRTVFS.obj
 0002:0003b560       ?Close@?QIAsyncInfo@Foundation@Windows@@?$_AsyncInfoImpl@P$AAU?$IAsyncOperationWithProgress@P$AAUIBuffer@Streams@Storage@Windows@@I@Foundation@Windows@@V?$AsyncOperationWithProgressCompletedHandler@P$AAUIBuffer@Streams@Storage@Windows@@I@23@P$AAUIBuffer@Streams@Storage@3@@details@Concurrency@@U$AAAXXZ 10079560 f i WinRTVFS.obj
 0002:0003b65f       ?Close@?QIAsyncInfo@Foundation@Windows@@?$_AsyncInfoImpl@P$AAU?$IAsyncOperationWithProgress@P$AAUIBuffer@Streams@Storage@Windows@@I@Foundation@Windows@@V?$AsyncOperationWithProgressCompletedHandler@P$AAUIBuffer@Streams@Storage@Windows@@I@23@P$AAUIBuffer@Streams@Storage@3@@details@Concurrency@@W7$AAAXXZ 1007965f f i WinRTVFS.obj
 0002:0003b670       ?Close@?QIAsyncInfo@Foundation@Windows@@?$_AsyncInfoImpl@P$AAUIAsyncAction@Foundation@Windows@@VAsyncActionCompletedHandler@23@E@details@Concurrency@@U$AAAXXZ 10079670 f i WinRTVFS.obj
 0002:0003b76f       ?Close@?QIAsyncInfo@Foundation@Windows@@?$_AsyncInfoImpl@P$AAUIAsyncAction@Foundation@Windows@@VAsyncActionCompletedHandler@23@E@details@Concurrency@@W7$AAAXXZ 1007976f f i WinRTVFS.obj
 0002:0003b780       ?Close@IAsyncInfo@Foundation@Windows@@U$AAAXXZ 10079780 f i WinRTVFS.obj
 0002:0003b7f0       ?Create@IBufferFactory@Streams@Storage@Windows@@U$AAAP$AAVBuffer@234@I@Z 100797f0 f i WinRTVFS.obj
 0002:0003b940       ?CreateFileAsync@IStorageFolder@Storage@Windows@@U$AAAP$AAU?$IAsyncOperation@P$AAVStorageFile@Storage@Windows@@@Foundation@3@P$AAVString@Platform@@W4CreationCollisionOption@23@@Z 10079940 f i WinRTVFS.obj
 0002:0003baa0       ?CreateString@Details@Platform@@YAXPB_WIPAPAUHSTRING__@@@Z 10079aa0 f i WinRTVFS.obj
 0002:0003bb00       ?CreateStringReference@Details@Platform@@YAXPB_WIPAU__Platform_Details_HSTRING_HEADER@@PAPAUHSTRING__@@@Z 10079b00 f i WinRTVFS.obj
 0002:0003bb70       ?Delete@__abi_CaptureBase@Details@Platform@@QAEXPAU123@PAX@Z 10079b70 f i WinRTVFS.obj
 0002:0003bbf0       ?DeleteAsync@IStorageItem@Storage@Windows@@U$AAAP$AAUIAsyncAction@Foundation@3@XZ 10079bf0 f i WinRTVFS.obj
 0002:0003bd40       ?DuplicateString@Details@Platform@@YAXPAUHSTRING__@@PAPAU3@@Z 10079d40 f i WinRTVFS.obj
 0002:0003bdb0       ?FlushAsync@IOutputStream@Streams@Storage@Windows@@U$AAAP$AAU?$IAsyncOperation@_N@Foundation@4@XZ 10079db0 f i WinRTVFS.obj
 0002:0003bf00       ?Get@?$Agile@P$AAU?$IAsyncOperationWithProgress@II@Foundation@Windows@@$00@Platform@@QBEP$AAU?$IAsyncOperationWithProgress@II@Foundation@Windows@@XZ 10079f00 f i WinRTVFS.obj
 0002:0003c220       ?Get@?$Agile@P$AAU?$IAsyncOperationWithProgress@P$AAUIBuffer@Streams@Storage@Windows@@I@Foundation@Windows@@$00@Platform@@QBEP$AAU?$IAsyncOperationWithProgress@P$AAUIBuffer@Streams@Storage@Windows@@I@Foundation@Windows@@XZ 1007a220 f i WinRTVFS.obj
 0002:0003c540       ?Get@?$Agile@P$AAUIAsyncAction@Foundation@Windows@@$00@Platform@@QBEP$AAUIAsyncAction@Foundation@Windows@@XZ 1007a540 f i WinRTVFS.obj
 0002:0003c860       ?Get@?$Agile@P$AAUIBuffer@Streams@Storage@Windows@@$00@Platform@@QBEP$AAUIBuffer@Streams@Storage@Windows@@XZ 1007a860 f i WinRTVFS.obj
 0002:0003cb80       ?Get@?$Agile@P$AAUIRandomAccessStream@Streams@Storage@Windows@@$00@Platform@@QBEP$AAUIRandomAccessStream@Streams@Storage@Windows@@XZ 1007ab80 f i WinRTVFS.obj
 0002:0003cea0       ?Get@?$Agile@P$AAVStorageFile@Storage@Windows@@$0A@@Platform@@QBEP$AAVStorageFile@Storage@Windows@@XZ 1007aea0 f i WinRTVFS.obj
 0002:0003cf00       ?Get@?$Agile@P$AAVStorageFolder@Storage@Windows@@$0A@@Platform@@QBEP$AAVStorageFolder@Storage@Windows@@XZ 1007af00 f i WinRTVFS.obj
 0002:0003cf60       ?Get@?$ComPtr@UIUnknown@@@WRL@Microsoft@@QBEPAUIUnknown@@XZ 1007af60 f i WinRTVFS.obj
 0002:0003cfa0       ?Get@?$_ResultHolder@E@details@Concurrency@@QAEEXZ 1007afa0 f i WinRTVFS.obj
 0002:0003cfe0       ?Get@?$_ResultHolder@P$AAUIBuffer@Streams@Storage@Windows@@@details@Concurrency@@QAEP$AAUIBuffer@Streams@Storage@Windows@@XZ 1007afe0 f i WinRTVFS.obj
 0002:0003d0b0       ?Get@?$_ResultHolder@P$AAUIRandomAccessStream@Streams@Storage@Windows@@@details@Concurrency@@QAEP$AAUIRandomAccessStream@Streams@Storage@Windows@@XZ 1007b0b0 f i WinRTVFS.obj
 0002:0003d180       ?Get@?$_ResultHolder@P$AAVStorageFile@Storage@Windows@@@details@Concurrency@@QAEP$AAVStorageFile@Storage@Windows@@XZ 1007b180 f i WinRTVFS.obj
 0002:0003d250       ?Get@?$_ResultHolder@P$AAVStorageFolder@Storage@Windows@@@details@Concurrency@@QAEP$AAVStorageFolder@Storage@Windows@@XZ 1007b250 f i WinRTVFS.obj
 0002:0003d320       ?GetFolderFromPathAsync@IStorageFolderStatics@Storage@Windows@@U$AAAP$AAU?$IAsyncOperation@P$AAVStorageFolder@Storage@Windows@@@Foundation@3@P$AAVString@Platform@@@Z 1007b320 f i WinRTVFS.obj
 0002:0003d470       ?GetFolderFromPathAsync@StorageFolder@Storage@Windows@@SAP$AAU?$IAsyncOperation@P$AAVStorageFolder@Storage@Windows@@@Foundation@3@P$AAVString@Platform@@@Z 1007b470 f i WinRTVFS.obj
 0002:0003d670       ?GetInputStreamAt@IRandomAccessStream@Streams@Storage@Windows@@U$AAAP$AAUIInputStream@234@_K@Z 1007b670 f i WinRTVFS.obj
 0002:0003d7d0       ?GetOutputStreamAt@IRandomAccessStream@Streams@Storage@Windows@@U$AAAP$AAUIOutputStream@234@_K@Z 1007b7d0 f i WinRTVFS.obj
 0002:0003d930       ?GetResults@?$IAsyncOperation@E@Foundation@Windows@@U$AAAEXZ 1007b930 f i WinRTVFS.obj
 0002:0003da10       ?GetResults@?$IAsyncOperation@I@Foundation@Windows@@U$AAAIXZ 1007ba10 f i WinRTVFS.obj
 0002:0003daf0       ?GetResults@?$IAsyncOperation@P$AAUIBuffer@Streams@Storage@Windows@@@Foundation@Windows@@U$AAAP$AAUIBuffer@Streams@Storage@3@XZ 1007baf0 f i WinRTVFS.obj
 0002:0003dc40       ?GetResults@?$IAsyncOperation@P$AAUIRandomAccessStream@Streams@Storage@Windows@@@Foundation@Windows@@U$AAAP$AAUIRandomAccessStream@Streams@Storage@3@XZ 1007bc40 f i WinRTVFS.obj
 0002:0003dd90       ?GetResults@?$IAsyncOperation@P$AAVStorageFile@Storage@Windows@@@Foundation@Windows@@U$AAAP$AAVStorageFile@Storage@3@XZ 1007bd90 f i WinRTVFS.obj
 0002:0003dee0       ?GetResults@?$IAsyncOperation@P$AAVStorageFolder@Storage@Windows@@@Foundation@Windows@@U$AAAP$AAVStorageFolder@Storage@3@XZ 1007bee0 f i WinRTVFS.obj
 0002:0003e030       ?GetResults@?$IAsyncOperation@_N@Foundation@Windows@@U$AAA_NXZ 1007c030 f i WinRTVFS.obj
 0002:0003e110       ?GetResults@?$IAsyncOperationWithProgress@II@Foundation@Windows@@U$AAAIXZ 1007c110 f i WinRTVFS.obj
 0002:0003e1f0       ?GetResults@?$IAsyncOperationWithProgress@P$AAUIBuffer@Streams@Storage@Windows@@I@Foundation@Windows@@U$AAAP$AAUIBuffer@Streams@Storage@3@XZ 1007c1f0 f i WinRTVFS.obj
 0002:0003e340       ?GetResults@?Q?$IAsyncOperation@E@Foundation@Windows@@?$_AsyncInfoImpl@P$AAUIAsyncAction@Foundation@Windows@@VAsyncActionCompletedHandler@23@E@details@Concurrency@@U$AAAEXZ 1007c340 f i WinRTVFS.obj
 0002:0003e3a7       ?GetResults@?Q?$IAsyncOperation@E@Foundation@Windows@@?$_AsyncInfoImpl@P$AAUIAsyncAction@Foundation@Windows@@VAsyncActionCompletedHandler@23@E@details@Concurrency@@W3$AAAEXZ 1007c3a7 f i WinRTVFS.obj
 0002:0003e3c0       ?GetResults@?Q?$IAsyncOperation@E@Foundation@Windows@@_IAsyncActionToAsyncOperationConverter@details@Concurrency@@U$AAAEXZ 1007c3c0 f i WinRTVFS.obj
 0002:0003e481       ?GetResults@?Q?$IAsyncOperation@E@Foundation@Windows@@_IAsyncActionToAsyncOperationConverter@details@Concurrency@@W7$AAAEXZ 1007c481 f i WinRTVFS.obj
 0002:0003e490       ?GetResults@?Q?$IAsyncOperation@I@Foundation@Windows@@?$_AsyncInfoImpl@P$AAU?$IAsyncOperationWithProgress@II@Foundation@Windows@@V?$AsyncOperationWithProgressCompletedHandler@II@23@I@details@Concurrency@@U$AAAIXZ 1007c490 f i WinRTVFS.obj
 0002:0003e4f7       ?GetResults@?Q?$IAsyncOperation@I@Foundation@Windows@@?$_AsyncInfoImpl@P$AAU?$IAsyncOperationWithProgress@II@Foundation@Windows@@V?$AsyncOperationWithProgressCompletedHandler@II@23@I@details@Concurrency@@W3$AAAIXZ 1007c4f7 f i WinRTVFS.obj
 0002:0003e510       ?GetResults@?Q?$IAsyncOperation@I@Foundation@Windows@@?$_IAsyncOperationWithProgressToAsyncOperationConverter@II@details@Concurrency@@U$AAAIXZ 1007c510 f i WinRTVFS.obj
 0002:0003e5de       ?GetResults@?Q?$IAsyncOperation@I@Foundation@Windows@@?$_IAsyncOperationWithProgressToAsyncOperationConverter@II@details@Concurrency@@W7$AAAIXZ 1007c5de f i WinRTVFS.obj
 0002:0003e5f0       ?GetResults@?Q?$IAsyncOperation@P$AAUIBuffer@Streams@Storage@Windows@@@Foundation@Windows@@?$_AsyncInfoImpl@P$AAU?$IAsyncOperationWithProgress@P$AAUIBuffer@Streams@Storage@Windows@@I@Foundation@Windows@@V?$AsyncOperationWithProgressCompletedHandler@P$AAUIBuffer@Streams@Storage@Windows@@I@23@P$AAUIBuffer@Streams@Storage@3@@details@Concurrency@@U$AAAP$AAUIBuffer@Streams@Storage@3@XZ 1007c5f0 f i WinRTVFS.obj
 0002:0003e657       ?GetResults@?Q?$IAsyncOperation@P$AAUIBuffer@Streams@Storage@Windows@@@Foundation@Windows@@?$_AsyncInfoImpl@P$AAU?$IAsyncOperationWithProgress@P$AAUIBuffer@Streams@Storage@Windows@@I@Foundation@Windows@@V?$AsyncOperationWithProgressCompletedHandler@P$AAUIBuffer@Streams@Storage@Windows@@I@23@P$AAUIBuffer@Streams@Storage@3@@details@Concurrency@@W3$AAAP$AAUIBuffer@Streams@Storage@3@XZ 1007c657 f i WinRTVFS.obj
 0002:0003e670       ?GetResults@?Q?$IAsyncOperation@P$AAUIBuffer@Streams@Storage@Windows@@@Foundation@Windows@@?$_IAsyncOperationWithProgressToAsyncOperationConverter@P$AAUIBuffer@Streams@Storage@Windows@@I@details@Concurrency@@U$AAAP$AAUIBuffer@Streams@Storage@3@XZ 1007c670 f i WinRTVFS.obj
 0002:0003e775       ?GetResults@?Q?$IAsyncOperation@P$AAUIBuffer@Streams@Storage@Windows@@@Foundation@Windows@@?$_IAsyncOperationWithProgressToAsyncOperationConverter@P$AAUIBuffer@Streams@Storage@Windows@@I@details@Concurrency@@W7$AAAP$AAUIBuffer@Streams@Storage@3@XZ 1007c775 f i WinRTVFS.obj
 0002:0003e790       ?GetResults@IAsyncAction@Foundation@Windows@@U$AAAXXZ 1007c790 f i WinRTVFS.obj
 0002:0003e800       ?GetStorageFileFromPath@@YAP$AAVStorageFile@Storage@Windows@@PBD@Z 1007c800 f   WinRTVFS.obj
 0002:0003ef90       ?GetVFunction@__abi_CaptureBase@Details@Platform@@QAEPAXH@Z 1007cf90 f i WinRTVFS.obj
 0002:0003efe0       ?GetWeakReference@?QIWeakReferenceSource@Details@Platform@@?$_IAsyncOperationWithProgressToAsyncOperationConverter@II@details@Concurrency@@U$AAAP$AAUIWeakReference@23@XZ 1007cfe0 f i WinRTVFS.obj
 0002:0003f0ae       ?GetWeakReference@?QIWeakReferenceSource@Details@Platform@@?$_IAsyncOperationWithProgressToAsyncOperationConverter@II@details@Concurrency@@WCM@$AAAP$AAUIWeakReference@23@XZ 1007d0ae f i WinRTVFS.obj
 0002:0003f0c0       ?GetWeakReference@?QIWeakReferenceSource@Details@Platform@@?$_IAsyncOperationWithProgressToAsyncOperationConverter@P$AAUIBuffer@Streams@Storage@Windows@@I@details@Concurrency@@U$AAAP$AAUIWeakReference@23@XZ 1007d0c0 f i WinRTVFS.obj
 0002:0003f18e       ?GetWeakReference@?QIWeakReferenceSource@Details@Platform@@?$_IAsyncOperationWithProgressToAsyncOperationConverter@P$AAUIBuffer@Streams@Storage@Windows@@I@details@Concurrency@@WCM@$AAAP$AAUIWeakReference@23@XZ 1007d18e f i WinRTVFS.obj
 0002:0003f1a0       ?GetWeakReference@?QIWeakReferenceSource@Details@Platform@@_IAsyncActionToAsyncOperationConverter@details@Concurrency@@U$AAAP$AAUIWeakReference@23@XZ 1007d1a0 f i WinRTVFS.obj
 0002:0003f26e       ?GetWeakReference@?QIWeakReferenceSource@Details@Platform@@_IAsyncActionToAsyncOperationConverter@details@Concurrency@@WCM@$AAAP$AAUIWeakReference@23@XZ 1007d26e f i WinRTVFS.obj
 0002:0003f280       ?InternalAddRef@?$ComPtr@UIUnknown@@@WRL@Microsoft@@IBEXXZ 1007d280 f i WinRTVFS.obj
 0002:0003f2f0       ?InternalRelease@?$ComPtr@UIAgileObject@@@WRL@Microsoft@@IAEKXZ 1007d2f0 f i WinRTVFS.obj
 0002:0003f380       ?InternalRelease@?$ComPtr@UIBufferByteAccess@Streams@Storage@Windows@@@WRL@Microsoft@@IAEKXZ 1007d380 f i WinRTVFS.obj
 0002:0003f410       ?InternalRelease@?$ComPtr@UIUnknown@@@WRL@Microsoft@@IAEKXZ 1007d410 f i WinRTVFS.obj
 0002:0003f4a0       ?Invoke@?$AsyncOperationCompletedHandler@E@Foundation@Windows@@U$AAAXP$AAU?$IAsyncOperation@E@23@W4AsyncStatus@23@@Z 1007d4a0 f i WinRTVFS.obj
 0002:0003f570       ?Invoke@?$AsyncOperationCompletedHandler@I@Foundation@Windows@@U$AAAXP$AAU?$IAsyncOperation@I@23@W4AsyncStatus@23@@Z 1007d570 f i WinRTVFS.obj
 0002:0003f640       ?Invoke@?$AsyncOperationCompletedHandler@P$AAUIBuffer@Streams@Storage@Windows@@@Foundation@Windows@@U$AAAXP$AAU?$IAsyncOperation@P$AAUIBuffer@Streams@Storage@Windows@@@23@W4AsyncStatus@23@@Z 1007d640 f i WinRTVFS.obj
 0002:0003f710       ?Invoke@?$AsyncOperationCompletedHandler@P$AAUIRandomAccessStream@Streams@Storage@Windows@@@Foundation@Windows@@U$AAAXP$AAU?$IAsyncOperation@P$AAUIRandomAccessStream@Streams@Storage@Windows@@@23@W4AsyncStatus@23@@Z 1007d710 f i WinRTVFS.obj
 0002:0003f7e0       ?Invoke@?$AsyncOperationCompletedHandler@P$AAVStorageFile@Storage@Windows@@@Foundation@Windows@@U$AAAXP$AAU?$IAsyncOperation@P$AAVStorageFile@Storage@Windows@@@23@W4AsyncStatus@23@@Z 1007d7e0 f i WinRTVFS.obj
 0002:0003f8b0       ?Invoke@?$AsyncOperationCompletedHandler@P$AAVStorageFolder@Storage@Windows@@@Foundation@Windows@@U$AAAXP$AAU?$IAsyncOperation@P$AAVStorageFolder@Storage@Windows@@@23@W4AsyncStatus@23@@Z 1007d8b0 f i WinRTVFS.obj
 0002:0003f980       ?Invoke@?$AsyncOperationCompletedHandler@_N@Foundation@Windows@@U$AAAXP$AAU?$IAsyncOperation@_N@23@W4AsyncStatus@23@@Z 1007d980 f i WinRTVFS.obj
 0002:0003fa50       ?Invoke@?$AsyncOperationWithProgressCompletedHandler@II@Foundation@Windows@@U$AAAXP$AAU?$IAsyncOperationWithProgress@II@23@W4AsyncStatus@23@@Z 1007da50 f i WinRTVFS.obj
 0002:0003fb20       ?Invoke@?$AsyncOperationWithProgressCompletedHandler@P$AAUIBuffer@Streams@Storage@Windows@@I@Foundation@Windows@@U$AAAXP$AAU?$IAsyncOperationWithProgress@P$AAUIBuffer@Streams@Storage@Windows@@I@23@W4AsyncStatus@23@@Z 1007db20 f i WinRTVFS.obj
 0002:0003fbf0       ?Invoke@?$__abi_FunctorCapture@V<lambda_06940b0a4178dd98f799c96a43aa5761>@@XP$AAUIAsyncAction@Foundation@Windows@@W4AsyncStatus@34@@Details@Platform@@UAGXP$AAUIAsyncAction@Foundation@Windows@@W4AsyncStatus@56@@Z 1007dbf0 f i WinRTVFS.obj
 0002:0003fc50       ?Invoke@?$__abi_FunctorCapture@V<lambda_3e0d823744565aaa3c572230ef0680e7>@@XP$AAU?$IAsyncOperationWithProgress@P$AAUIBuffer@Streams@Storage@Windows@@I@Foundation@Windows@@W4AsyncStatus@34@@Details@Platform@@UAGXP$AAU?$IAsyncOperationWithProgress@P$AAUIBuffer@Streams@Storage@Windows@@I@Foundation@Windows@@W4AsyncStatus@56@@Z 1007dc50 f i WinRTVFS.obj
 0002:0003fcb0       ?Invoke@?$__abi_FunctorCapture@V<lambda_50a95a3b918e2a131c7de197f9d43680>@@XP$AAU?$IAsyncOperation@I@Foundation@Windows@@W4AsyncStatus@34@@Details@Platform@@UAGXP$AAU?$IAsyncOperation@I@Foundation@Windows@@W4AsyncStatus@56@@Z 1007dcb0 f i WinRTVFS.obj
 0002:0003fd10       ?Invoke@?$__abi_FunctorCapture@V<lambda_58b35b2c39cebe76475502e8be1fa050>@@XP$AAU?$IAsyncOperation@P$AAUIRandomAccessStream@Streams@Storage@Windows@@@Foundation@Windows@@W4AsyncStatus@34@@Details@Platform@@UAGXP$AAU?$IAsyncOperation@P$AAUIRandomAccessStream@Streams@Storage@Windows@@@Foundation@Windows@@W4AsyncStatus@56@@Z 1007dd10 f i WinRTVFS.obj
 0002:0003fd70       ?Invoke@?$__abi_FunctorCapture@V<lambda_78c8bde34479949ab00939bfc3c21b9e>@@XP$AAU?$IAsyncOperation@_N@Foundation@Windows@@W4AsyncStatus@34@@Details@Platform@@UAGXP$AAU?$IAsyncOperation@_N@Foundation@Windows@@W4AsyncStatus@56@@Z 1007dd70 f i WinRTVFS.obj
 0002:0003fdd0       ?Invoke@?$__abi_FunctorCapture@V<lambda_7a641106db6b220fc1bd53009e5e1b6e>@@XP$AAU?$IAsyncOperationWithProgress@II@Foundation@Windows@@W4AsyncStatus@34@@Details@Platform@@UAGXP$AAU?$IAsyncOperationWithProgress@II@Foundation@Windows@@W4AsyncStatus@56@@Z 1007ddd0 f i WinRTVFS.obj
 0002:0003fe30       ?Invoke@?$__abi_FunctorCapture@V<lambda_8b35f48eeaabe3dd7cb14b365c80a64b>@@XP$AAU?$IAsyncOperation@P$AAUIBuffer@Streams@Storage@Windows@@@Foundation@Windows@@W4AsyncStatus@34@@Details@Platform@@UAGXP$AAU?$IAsyncOperation@P$AAUIBuffer@Streams@Storage@Windows@@@Foundation@Windows@@W4AsyncStatus@56@@Z 1007de30 f i WinRTVFS.obj
 0002:0003fe90       ?Invoke@?$__abi_FunctorCapture@V<lambda_b5ec294d64b7ae7d96b9bd52c133d46d>@@XP$AAU?$IAsyncOperation@E@Foundation@Windows@@W4AsyncStatus@34@@Details@Platform@@UAGXP$AAU?$IAsyncOperation@E@Foundation@Windows@@W4AsyncStatus@56@@Z 1007de90 f i WinRTVFS.obj
 0002:0003fef0       ?Invoke@?$__abi_FunctorCapture@V<lambda_c124a470bc399dc48f76de2d0d06ac02>@@XP$AAU?$IAsyncOperation@P$AAVStorageFolder@Storage@Windows@@@Foundation@Windows@@W4AsyncStatus@34@@Details@Platform@@UAGXP$AAU?$IAsyncOperation@P$AAVStorageFolder@Storage@Windows@@@Foundation@Windows@@W4AsyncStatus@56@@Z 1007def0 f i WinRTVFS.obj
 0002:0003ff50       ?Invoke@?$__abi_FunctorCapture@V<lambda_f0a7c2b0a64e3b533e4acd91ff29d36c>@@XP$AAU?$IAsyncOperation@P$AAVStorageFile@Storage@Windows@@@Foundation@Windows@@W4AsyncStatus@34@@Details@Platform@@UAGXP$AAU?$IAsyncOperation@P$AAVStorageFile@Storage@Windows@@@Foundation@Windows@@W4AsyncStatus@56@@Z 1007df50 f i WinRTVFS.obj
 0002:0003ffb0       ?Invoke@AsyncActionCompletedHandler@Foundation@Windows@@U$AAAXP$AAUIAsyncAction@23@W4AsyncStatus@23@@Z 1007dfb0 f i WinRTVFS.obj
 0002:00040080       ?Invoke@__abi_IDelegate@?$AsyncOperationCompletedHandler@E@Foundation@Windows@@U$AAAXP$AAU?$IAsyncOperation@E@34@W4AsyncStatus@34@@Z 1007e080 f i WinRTVFS.obj
 0002:00040100       ?Invoke@__abi_IDelegate@?$AsyncOperationCompletedHandler@I@Foundation@Windows@@U$AAAXP$AAU?$IAsyncOperation@I@34@W4AsyncStatus@34@@Z 1007e100 f i WinRTVFS.obj
 0002:00040180       ?Invoke@__abi_IDelegate@?$AsyncOperationCompletedHandler@P$AAUIBuffer@Streams@Storage@Windows@@@Foundation@Windows@@U$AAAXP$AAU?$IAsyncOperation@P$AAUIBuffer@Streams@Storage@Windows@@@34@W4AsyncStatus@34@@Z 1007e180 f i WinRTVFS.obj
 0002:00040200       ?Invoke@__abi_IDelegate@?$AsyncOperationCompletedHandler@P$AAUIRandomAccessStream@Streams@Storage@Windows@@@Foundation@Windows@@U$AAAXP$AAU?$IAsyncOperation@P$AAUIRandomAccessStream@Streams@Storage@Windows@@@34@W4AsyncStatus@34@@Z 1007e200 f i WinRTVFS.obj
 0002:00040280       ?Invoke@__abi_IDelegate@?$AsyncOperationCompletedHandler@P$AAVStorageFile@Storage@Windows@@@Foundation@Windows@@U$AAAXP$AAU?$IAsyncOperation@P$AAVStorageFile@Storage@Windows@@@34@W4AsyncStatus@34@@Z 1007e280 f i WinRTVFS.obj
 0002:00040300       ?Invoke@__abi_IDelegate@?$AsyncOperationCompletedHandler@P$AAVStorageFolder@Storage@Windows@@@Foundation@Windows@@U$AAAXP$AAU?$IAsyncOperation@P$AAVStorageFolder@Storage@Windows@@@34@W4AsyncStatus@34@@Z 1007e300 f i WinRTVFS.obj
 0002:00040380       ?Invoke@__abi_IDelegate@?$AsyncOperationCompletedHandler@_N@Foundation@Windows@@U$AAAXP$AAU?$IAsyncOperation@_N@34@W4AsyncStatus@34@@Z 1007e380 f i WinRTVFS.obj
 0002:00040400       ?Invoke@__abi_IDelegate@?$AsyncOperationWithProgressCompletedHandler@II@Foundation@Windows@@U$AAAXP$AAU?$IAsyncOperationWithProgress@II@34@W4AsyncStatus@34@@Z 1007e400 f i WinRTVFS.obj
 0002:00040480       ?Invoke@__abi_IDelegate@?$AsyncOperationWithProgressCompletedHandler@P$AAUIBuffer@Streams@Storage@Windows@@I@Foundation@Windows@@U$AAAXP$AAU?$IAsyncOperationWithProgress@P$AAUIBuffer@Streams@Storage@Windows@@I@34@W4AsyncStatus@34@@Z 1007e480 f i WinRTVFS.obj
 0002:00040500       ?Invoke@__abi_IDelegate@AsyncActionCompletedHandler@Foundation@Windows@@U$AAAXP$AAUIAsyncAction@34@W4AsyncStatus@34@@Z 1007e500 f i WinRTVFS.obj
 0002:00040580       ?OpenAsync@IStorageFile@Storage@Windows@@U$AAAP$AAU?$IAsyncOperation@P$AAUIRandomAccessStream@Streams@Storage@Windows@@@Foundation@3@W4FileAccessMode@23@@Z 1007e580 f i WinRTVFS.obj
 0002:000406d0       ?ReadAsync@IInputStream@Streams@Storage@Windows@@U$AAAP$AAU?$IAsyncOperationWithProgress@P$AAUIBuffer@Streams@Storage@Windows@@I@Foundation@4@P$AAUIBuffer@234@IW4InputStreamOptions@234@@Z 1007e6d0 f i WinRTVFS.obj
 0002:00040830       ?Release@?$Agile@P$AAU?$IAsyncOperationWithProgress@II@Foundation@Windows@@$00@Platform@@QAEXXZ 1007e830 f i WinRTVFS.obj
 0002:000409c0       ?Release@?$Agile@P$AAU?$IAsyncOperationWithProgress@P$AAUIBuffer@Streams@Storage@Windows@@I@Foundation@Windows@@$00@Platform@@QAEXXZ 1007e9c0 f i WinRTVFS.obj
 0002:00040b50       ?Release@?$Agile@P$AAUIAsyncAction@Foundation@Windows@@$00@Platform@@QAEXXZ 1007eb50 f i WinRTVFS.obj
 0002:00040ce0       ?Release@?$Agile@P$AAUIBuffer@Streams@Storage@Windows@@$00@Platform@@QAEXXZ 1007ece0 f i WinRTVFS.obj
 0002:00040e70       ?Release@?$Agile@P$AAUIRandomAccessStream@Streams@Storage@Windows@@$00@Platform@@QAEXXZ 1007ee70 f i WinRTVFS.obj
 0002:00041000       ?Release@?$Agile@P$AAVStorageFile@Storage@Windows@@$0A@@Platform@@QAEXXZ 1007f000 f i WinRTVFS.obj
 0002:00041060       ?Release@?$Agile@P$AAVStorageFolder@Storage@Windows@@$0A@@Platform@@QAEXXZ 1007f060 f i WinRTVFS.obj
 0002:000410c0       ?ReleaseAndGetAddressOf@?$ComPtr@UIAgileObject@@@WRL@Microsoft@@QAEPAPAUIAgileObject@@XZ 1007f0c0 f i WinRTVFS.obj
 0002:00041120       ?ReleaseAndGetAddressOf@?$ComPtr@UIBufferByteAccess@Streams@Storage@Windows@@@WRL@Microsoft@@QAEPAPAUIBufferByteAccess@Streams@Storage@Windows@@XZ 1007f120 f i WinRTVFS.obj
 0002:00041180       ?ReportUnhandledError@_ExceptionHolder@details@Concurrency@@AAEXXZ 1007f180 f i WinRTVFS.obj
 0002:000411f0       ?Set@?$_ResultHolder@E@details@Concurrency@@QAEXABE@Z 1007f1f0 f i WinRTVFS.obj
 0002:00041240       ?Set@?$_ResultHolder@I@details@Concurrency@@QAEXABI@Z 1007f240 f i WinRTVFS.obj
 0002:00041290       ?Set@?$_ResultHolder@P$AAUIBuffer@Streams@Storage@Windows@@@details@Concurrency@@QAEXABQ$AAUIBuffer@Streams@Storage@Windows@@@Z 1007f290 f i WinRTVFS.obj
 0002:000412f0       ?Set@?$_ResultHolder@P$AAUIRandomAccessStream@Streams@Storage@Windows@@@details@Concurrency@@QAEXABQ$AAUIRandomAccessStream@Streams@Storage@Windows@@@Z 1007f2f0 f i WinRTVFS.obj
 0002:00041350       ?Set@?$_ResultHolder@P$AAVStorageFile@Storage@Windows@@@details@Concurrency@@QAEXABQ$AAVStorageFile@Storage@Windows@@@Z 1007f350 f i WinRTVFS.obj
 0002:000413b0       ?Set@?$_ResultHolder@P$AAVStorageFolder@Storage@Windows@@@details@Concurrency@@QAEXABQ$AAVStorageFolder@Storage@Windows@@@Z 1007f3b0 f i WinRTVFS.obj
 0002:00041410       ?Set@?$_ResultHolder@_N@details@Concurrency@@QAEXAB_N@Z 1007f410 f i WinRTVFS.obj
 0002:00041460       ?SetObject@?$Agile@P$AAU?$IAsyncOperationWithProgress@II@Foundation@Windows@@$00@Platform@@AAEXP$AAU?$IAsyncOperationWithProgress@II@Foundation@Windows@@@Z 1007f460 f i WinRTVFS.obj
 0002:00041600       ?SetObject@?$Agile@P$AAU?$IAsyncOperationWithProgress@P$AAUIBuffer@Streams@Storage@Windows@@I@Foundation@Windows@@$00@Platform@@AAEXP$AAU?$IAsyncOperationWithProgress@P$AAUIBuffer@Streams@Storage@Windows@@I@Foundation@Windows@@@Z 1007f600 f i WinRTVFS.obj
 0002:000417a0       ?SetObject@?$Agile@P$AAUIAsyncAction@Foundation@Windows@@$00@Platform@@AAEXP$AAUIAsyncAction@Foundation@Windows@@@Z 1007f7a0 f i WinRTVFS.obj
 0002:00041940       ?SetObject@?$Agile@P$AAUIBuffer@Streams@Storage@Windows@@$00@Platform@@AAEXP$AAUIBuffer@Streams@Storage@Windows@@@Z 1007f940 f i WinRTVFS.obj
 0002:00041ae0       ?SetObject@?$Agile@P$AAUIRandomAccessStream@Streams@Storage@Windows@@$00@Platform@@AAEXP$AAUIRandomAccessStream@Streams@Storage@Windows@@@Z 1007fae0 f i WinRTVFS.obj
 0002:00041c80       ?Swap@?$Agile@P$AAUIBuffer@Streams@Storage@Windows@@$00@Platform@@QAEXAAV12@@Z 1007fc80 f i WinRTVFS.obj
 0002:00041d30       ?Swap@?$Agile@P$AAUIRandomAccessStream@Streams@Storage@Windows@@$00@Platform@@QAEXAAV12@@Z 1007fd30 f i WinRTVFS.obj
 0002:00041de0       ?Swap@?$ComPtr@UIUnknown@@@WRL@Microsoft@@QAEXAAV123@@Z 1007fde0 f i WinRTVFS.obj
 0002:00041e40       ?TraceOperationCompletion@AsyncCausalityTracer@Diagnostics@Foundation@Windows@@SAXW4CausalityTraceLevel@234@W4CausalitySource@234@VGuid@Platform@@_KW4AsyncStatus@34@@Z 1007fe40 f i WinRTVFS.obj
 0002:00042010       ?TraceOperationCompletion@IAsyncCausalityTracerStatics@Diagnostics@Foundation@Windows@@U$AAAXW4CausalityTraceLevel@234@W4CausalitySource@234@VGuid@Platform@@_KW4AsyncStatus@34@@Z 10080010 f i WinRTVFS.obj
 0002:000420c0       ?TraceOperationCreation@AsyncCausalityTracer@Diagnostics@Foundation@Windows@@SAXW4CausalityTraceLevel@234@W4CausalitySource@234@VGuid@Platform@@_KP$AAVString@8@3@Z 100800c0 f i WinRTVFS.obj
 0002:00042290       ?TraceOperationCreation@IAsyncCausalityTracerStatics@Diagnostics@Foundation@Windows@@U$AAAXW4CausalityTraceLevel@234@W4CausalitySource@234@VGuid@Platform@@_KP$AAVString@8@3@Z 10080290 f i WinRTVFS.obj
 0002:00042350       ?TraceOperationRelation@AsyncCausalityTracer@Diagnostics@Foundation@Windows@@SAXW4CausalityTraceLevel@234@W4CausalitySource@234@VGuid@Platform@@_KW4CausalityRelation@234@@Z 10080350 f i WinRTVFS.obj
 0002:00042520       ?TraceOperationRelation@IAsyncCausalityTracerStatics@Diagnostics@Foundation@Windows@@U$AAAXW4CausalityTraceLevel@234@W4CausalitySource@234@VGuid@Platform@@_KW4CausalityRelation@234@@Z 10080520 f i WinRTVFS.obj
 0002:000425d0       ?TraceSynchronousWorkCompletion@AsyncCausalityTracer@Diagnostics@Foundation@Windows@@SAXW4CausalityTraceLevel@234@W4CausalitySource@234@W4CausalitySynchronousWork@234@@Z 100805d0 f i WinRTVFS.obj
 0002:00042770       ?TraceSynchronousWorkCompletion@IAsyncCausalityTracerStatics@Diagnostics@Foundation@Windows@@U$AAAXW4CausalityTraceLevel@234@W4CausalitySource@234@W4CausalitySynchronousWork@234@@Z 10080770 f i WinRTVFS.obj
 0002:000427f0       ?TraceSynchronousWorkStart@AsyncCausalityTracer@Diagnostics@Foundation@Windows@@SAXW4CausalityTraceLevel@234@W4CausalitySource@234@VGuid@Platform@@_KW4CausalitySynchronousWork@234@@Z 100807f0 f i WinRTVFS.obj
 0002:000429c0       ?TraceSynchronousWorkStart@IAsyncCausalityTracerStatics@Diagnostics@Foundation@Windows@@U$AAAXW4CausalityTraceLevel@234@W4CausalitySource@234@VGuid@Platform@@_KW4CausalitySynchronousWork@234@@Z 100809c0 f i WinRTVFS.obj
 0002:00042a70       ?WinRTAccess@@YAHPAUsqlite3_vfs@@PBDHPAH@Z 10080a70 f   WinRTVFS.obj
 0002:00042ab0       ?WinRTCheckReservedLock@@YAHPAUsqlite3_file@@PAH@Z 10080ab0 f   WinRTVFS.obj
 0002:00042ae0       ?WinRTClose@@YAHPAUsqlite3_file@@@Z 10080ae0 f   WinRTVFS.obj
 0002:00042c70       ?WinRTCurrentTime@@YAHPAUsqlite3_vfs@@PAN@Z 10080c70 f   WinRTVFS.obj
 0002:00042cf0       ?WinRTDelete@@YAHPAUsqlite3_vfs@@PBDH@Z 10080cf0 f   WinRTVFS.obj
 0002:00042fa0       ?WinRTDeviceCharacteristics@@YAHPAUsqlite3_file@@@Z 10080fa0 f   WinRTVFS.obj
 0002:00042fd0       ?WinRTDlClose@@YAXPAUsqlite3_vfs@@PAX@Z 10080fd0 f   WinRTVFS.obj
 0002:00043000       ?WinRTDlError@@YAXPAUsqlite3_vfs@@HPAD@Z 10081000 f   WinRTVFS.obj
 0002:00043030       ?WinRTDlOpen@@YAPAXPAUsqlite3_vfs@@PBD@Z 10081030 f   WinRTVFS.obj
 0002:00043060       ?WinRTDlSym@@YAP6AXXZPAUsqlite3_vfs@@PAXPBD@Z 10081060 f   WinRTVFS.obj
 0002:00043090       ?WinRTFileControl@@YAHPAUsqlite3_file@@HPAX@Z 10081090 f   WinRTVFS.obj
 0002:000430d0       ?WinRTFileSize@@YAHPAUsqlite3_file@@PA_J@Z 100810d0 f   WinRTVFS.obj
 0002:00043240       ?WinRTFlush@@YAHPAUWinRTFile@@@Z 10081240 f   WinRTVFS.obj
 0002:00043590       ?WinRTFullPathname@@YAHPAUsqlite3_vfs@@PBDHPAD@Z 10081590 f   WinRTVFS.obj
 0002:00043600       ?WinRTLock@@YAHPAUsqlite3_file@@H@Z 10081600 f   WinRTVFS.obj
 0002:00043630       ?WinRTOpen@@YAHPAUsqlite3_vfs@@PBDPAUsqlite3_file@@HPAH@Z 10081630 f   WinRTVFS.obj
 0002:00043b20       ?WinRTRandomness@@YAHPAUsqlite3_vfs@@HPAD@Z 10081b20 f   WinRTVFS.obj
 0002:00043b50       ?WinRTRead@@YAHPAUsqlite3_file@@PAXH_J@Z 10081b50 f   WinRTVFS.obj
 0002:000443a0       ?WinRTSectorSize@@YAHPAUsqlite3_file@@@Z 100823a0 f   WinRTVFS.obj
 0002:000443d0       ?WinRTSleep@@YAHPAUsqlite3_vfs@@H@Z 100823d0 f   WinRTVFS.obj
 0002:000444b0       ?WinRTSync@@YAHPAUsqlite3_file@@H@Z 100824b0 f   WinRTVFS.obj
 0002:00044510       ?WinRTTruncate@@YAHPAUsqlite3_file@@_J@Z 10082510 f   WinRTVFS.obj
 0002:00044680       ?WinRTUnlock@@YAHPAUsqlite3_file@@H@Z 10082680 f   WinRTVFS.obj
 0002:000446b0       ?WinRTWrite@@YAHPAUsqlite3_file@@PBXH_J@Z 100826b0 f   WinRTVFS.obj
 0002:00044d10       ?WriteAsync@IOutputStream@Streams@Storage@Windows@@U$AAAP$AAU?$IAsyncOperationWithProgress@II@Foundation@4@P$AAUIBuffer@234@@Z 10082d10 f i WinRTVFS.obj
 0002:00044e60       ?_Add@?$multi_link_registry@V?$ISource@H@Concurrency@@@Concurrency@@AAEXPAV?$ISource@H@2@@Z 10082e60 f i WinRTVFS.obj
 0002:00045030       ?_Adopt@_Iterator_base12@std@@QAEXPBU_Container_base12@2@@Z 10083030 f i WinRTVFS.obj
 0002:000451f0       ?_Alloc_proxy@?$_Vector_alloc@$0A@U?$_Vec_base_types@PAXV?$allocator@PAX@std@@@std@@@std@@QAEXXZ 100831f0 f i WinRTVFS.obj
 0002:000452e0       ?_Alloc_proxy@?$_Vector_alloc@$0A@U?$_Vec_base_types@V?$shared_ptr@U?$_Task_impl@E@details@Concurrency@@@std@@V?$allocator@V?$shared_ptr@U?$_Task_impl@E@details@Concurrency@@@std@@@2@@std@@@std@@QAEXXZ 100832e0 f i WinRTVFS.obj
 0002:000453d0       ?_Allocate_page@?$concurrent_queue@PAV?$message@H@Concurrency@@V?$allocator@PAV?$message@H@Concurrency@@@std@@@Concurrency@@EAEPAU_Page@_Concurrent_queue_base_v4@details@2@XZ 100833d0 f i WinRTVFS.obj
 0002:00045470       ?_Assign@_ContextCallback@details@Concurrency@@AAEXPAUIContextCallback@@@Z 10083470 f i WinRTVFS.obj
 0002:00045500       ?_Assign@cancellation_token@Concurrency@@AAEXPAV_CancellationTokenState@details@2@@Z 10083500 f i WinRTVFS.obj
 0002:00045570       ?_Assign_and_destroy_item@?$concurrent_queue@PAV?$message@H@Concurrency@@V?$allocator@PAV?$message@H@Concurrency@@@std@@@Concurrency@@EAEXPAXAAU_Page@_Concurrent_queue_base_v4@details@2@I@Z 10083570 f i WinRTVFS.obj
 0002:00045660       ?_Assign_rv@?$_Ptr_base@U?$_Task_completion_event_impl@E@details@Concurrency@@@std@@QAEX$$QAV12@@Z 10083660 f i WinRTVFS.obj
 0002:000456c0       ?_Assign_rv@?$_Ptr_base@U?$_Task_impl@E@details@Concurrency@@@std@@QAEX$$QAV12@@Z 100836c0 f i WinRTVFS.obj
 0002:00045720       ?_Assign_rv@?$_Ptr_base@U?$_Task_impl@I@details@Concurrency@@@std@@QAEX$$QAV12@@Z 10083720 f i WinRTVFS.obj
 0002:00045780       ?_Assign_rv@?$_Ptr_base@U?$_Task_impl@P$AAUIBuffer@Streams@Storage@Windows@@@details@Concurrency@@@std@@QAEX$$QAV12@@Z 10083780 f i WinRTVFS.obj
 0002:000457e0       ?_Assign_rv@?$_Ptr_base@U?$_Task_impl@P$AAUIRandomAccessStream@Streams@Storage@Windows@@@details@Concurrency@@@std@@QAEX$$QAV12@@Z 100837e0 f i WinRTVFS.obj
 0002:00045840       ?_Assign_rv@?$_Ptr_base@U?$_Task_impl@P$AAVStorageFile@Storage@Windows@@@details@Concurrency@@@std@@QAEX$$QAV12@@Z 10083840 f i WinRTVFS.obj
 0002:000458a0       ?_Assign_rv@?$_Ptr_base@U?$_Task_impl@P$AAVStorageFolder@Storage@Windows@@@details@Concurrency@@@std@@QAEX$$QAV12@@Z 100838a0 f i WinRTVFS.obj
 0002:00045900       ?_Assign_rv@?$_Ptr_base@U?$_Task_impl@_N@details@Concurrency@@@std@@QAEX$$QAV12@@Z 10083900 f i WinRTVFS.obj
 0002:00045960       ?_Assign_rv@?$_Ptr_base@U_ExceptionHolder@details@Concurrency@@@std@@QAEX$$QAV12@@Z 10083960 f i WinRTVFS.obj
 0002:000459c0       ?_Assign_rv@?$_Ptr_base@Uscheduler_interface@Concurrency@@@std@@QAEX$$QAV12@@Z 100839c0 f i WinRTVFS.obj
 0002:00045a20       ?_Atomic_compare_exchange_strong_4@std@@YAHPCKPAKKW4memory_order@1@2@Z 10083a20 f i WinRTVFS.obj
 0002:00045c00       ?_Atomic_exchange_4@std@@YAKPCKKW4memory_order@1@@Z 10083c00 f i WinRTVFS.obj
 0002:00045db0       ?_Atomic_load_4@std@@YAKPCKW4memory_order@1@@Z 10083db0 f i WinRTVFS.obj
 0002:00045f40       ?_Atomic_store_4@std@@YAXPCKKW4memory_order@1@@Z 10083f40 f i WinRTVFS.obj
 0002:000460c0       ?_Bridge@_ContextCallback@details@Concurrency@@CGJPAUtagComCallData@@@Z 100840c0 f i WinRTVFS.obj
 0002:00046120       ?_Bridge@_TaskProcThunk@details@Concurrency@@SAXPAX@Z 10084120 f i WinRTVFS.obj
 0002:00046220       ?_Buy@?$vector@PAXV?$allocator@PAX@std@@@std@@IAE_NI@Z 10084220 f i WinRTVFS.obj
 0002:00046310       ?_CallInContext@_ContextCallback@details@Concurrency@@QBEXV?$function@$$A6AXXZ@std@@@Z 10084310 f i WinRTVFS.obj
 0002:000464e0       ?_Cancel@_AsyncTaskCollection@details@Concurrency@@QAEXXZ 100844e0 f i WinRTVFS.obj
 0002:00046540       ?_Cancel@_TaskCollectionImpl@details@Concurrency@@QAEXXZ 10084540 f i WinRTVFS.obj
 0002:000465b0       ?_Cancel@_Task_impl_base@details@Concurrency@@QAE_N_N@Z 100845b0 f i WinRTVFS.obj
 0002:00046630       ?_CancelAndRunContinuations@?$_Task_impl@E@details@Concurrency@@UAE_N_N00ABV?$shared_ptr@U_ExceptionHolder@details@Concurrency@@@std@@@Z 10084630 f i WinRTVFS.obj
 0002:00046bc0       ?_CancelAndRunContinuations@?$_Task_impl@I@details@Concurrency@@UAE_N_N00ABV?$shared_ptr@U_ExceptionHolder@details@Concurrency@@@std@@@Z 10084bc0 f i WinRTVFS.obj
 0002:00047150       ?_CancelAndRunContinuations@?$_Task_impl@P$AAUIBuffer@Streams@Storage@Windows@@@details@Concurrency@@UAE_N_N00ABV?$shared_ptr@U_ExceptionHolder@details@Concurrency@@@std@@@Z 10085150 f i WinRTVFS.obj
 0002:000476e0       ?_CancelAndRunContinuations@?$_Task_impl@P$AAUIRandomAccessStream@Streams@Storage@Windows@@@details@Concurrency@@UAE_N_N00ABV?$shared_ptr@U_ExceptionHolder@details@Concurrency@@@std@@@Z 100856e0 f i WinRTVFS.obj
 0002:00047c70       ?_CancelAndRunContinuations@?$_Task_impl@P$AAVStorageFile@Storage@Windows@@@details@Concurrency@@UAE_N_N00ABV?$shared_ptr@U_ExceptionHolder@details@Concurrency@@@std@@@Z 10085c70 f i WinRTVFS.obj
 0002:00048200       ?_CancelAndRunContinuations@?$_Task_impl@P$AAVStorageFolder@Storage@Windows@@@details@Concurrency@@UAE_N_N00ABV?$shared_ptr@U_ExceptionHolder@details@Concurrency@@@std@@@Z 10086200 f i WinRTVFS.obj
 0002:00048790       ?_CancelAndRunContinuations@?$_Task_impl@_N@details@Concurrency@@UAE_N_N00ABV?$shared_ptr@U_ExceptionHolder@details@Concurrency@@@std@@@Z 10086790 f i WinRTVFS.obj
 0002:00048d20       ?_CancelWithException@_Task_impl_base@details@Concurrency@@QAE_NABVexception_ptr@std@@@Z 10086d20 f i WinRTVFS.obj
 0002:00048ec0       ?_CancelWithException@_Task_impl_base@details@Concurrency@@QAE_NP$AAVException@Platform@@@Z 10086ec0 f i WinRTVFS.obj
 0002:00049090       ?_CancelWithExceptionHolder@_Task_impl_base@details@Concurrency@@QAE_NABV?$shared_ptr@U_ExceptionHolder@details@Concurrency@@@std@@_N@Z 10087090 f i WinRTVFS.obj
 0002:00049110       ?_Capture@_ContextCallback@details@Concurrency@@QAEXXZ 10087110 f i WinRTVFS.obj
 0002:00049190       ?_CaptureCurrent@_ContextCallback@details@Concurrency@@SA?AV123@XZ 10087190 f i WinRTVFS.obj
 0002:000492b0       ?_CaptureMultiFramesCallstack@_TaskCreationCallstack@details@Concurrency@@SA?AV123@I@Z 100872b0 f i WinRTVFS.obj
 0002:00049420       ?_Change_alloc@?$_Vector_alloc@$0A@U?$_Vec_base_types@PAXV?$allocator@PAX@std@@@std@@@std@@QAEXABU?$_Wrap_alloc@V?$allocator@PAX@std@@@2@@Z 10087420 f i WinRTVFS.obj
 0002:00049460       ?_Clear@?$_Dynamic_array@PAV?$ISource@H@Concurrency@@@details@Concurrency@@QAEXXZ 10087460 f i WinRTVFS.obj
 0002:000494e0       ?_Clear@cancellation_token@Concurrency@@AAEXXZ 100874e0 f i WinRTVFS.obj
 0002:00049550       ?_Clear_queued_messages@?$ordered_message_processor@H@Concurrency@@AAEXXZ 10087550 f i WinRTVFS.obj
 0002:00049670       ?_Clrcont@_Iterator_base12@std@@QAEXXZ 10087670 f i WinRTVFS.obj
 0002:000496b0       ?_Compare_exchange_acquire_4@std@@YAHPCKPAKK@Z 100876b0 f i WinRTVFS.obj
 0002:00049730       ?_Compare_exchange_relaxed_4@std@@YAHPCKPAKK@Z 10087730 f i WinRTVFS.obj
 0002:000497b0       ?_Compare_exchange_release_4@std@@YAHPCKPAKK@Z 100877b0 f i WinRTVFS.obj
 0002:00049830       ?_Compare_exchange_seq_cst_4@std@@YAHPCKPAKK@Z 10087830 f i WinRTVFS.obj
 0002:000498b0       ?_Compat@?$_Vector_const_iterator@V?$_Vector_val@U?$_Simple_types@V?$shared_ptr@U?$_Task_impl@E@details@Concurrency@@@std@@@std@@@std@@@std@@QBEXABV12@@Z 100878b0 f i WinRTVFS.obj
 0002:000499d0       ?_Complete@_TaskCollectionImpl@details@Concurrency@@QAEXXZ 100879d0 f i WinRTVFS.obj
 0002:00049a40       ?_Continue@?$_ContinuationTaskHandle@XXV<lambda_9fc58f08a03183e50e06176727aeb396>@@U?$integral_constant@_N$0A@@std@@U_TypeSelectorNoAsync@details@Concurrency@@@?$task@E@Concurrency@@QBEXU?$integral_constant@_N$0A@@std@@U_TypeSelectorNoAsync@details@3@@Z 10087a40 f i WinRTVFS.obj
 0002:00049b90       ?_Copy@?$_Func_impl@U?$_Callable_obj@V<lambda_02d862f9cfc639ff7c37ca52d43e6a8c>@@$0A@@std@@V?$allocator@V?$_Func_class@X$$$V@std@@@2@X$$$V@std@@UAEPAV?$_Func_base@X$$$V@2@PAX@Z 10087b90 f i WinRTVFS.obj
 0002:00049ca0       ?_Copy@?$_Func_impl@U?$_Callable_obj@V<lambda_095a938ce4c5765dcc6b67f548aeb9c7>@@$0A@@std@@V?$allocator@V?$_Func_class@X$$$V@std@@@2@X$$$V@std@@UAEPAV?$_Func_base@X$$$V@2@PAX@Z 10087ca0 f i WinRTVFS.obj
 0002:00049db0       ?_Copy@?$_Func_impl@U?$_Callable_obj@V<lambda_0b7f78ec4ced38495cec46e0d346e0b9>@@$0A@@std@@V?$allocator@V?$_Func_class@X$$$V@std@@@2@X$$$V@std@@UAEPAV?$_Func_base@X$$$V@2@PAX@Z 10087db0 f i WinRTVFS.obj
 0002:00049ec0       ?_Copy@?$_Func_impl@U?$_Callable_obj@V<lambda_0fe479da16d43edb8e9a254c493d643e>@@$0A@@std@@V?$allocator@V?$_Func_class@X$$$V@std@@@2@X$$$V@std@@UAEPAV?$_Func_base@X$$$V@2@PAX@Z 10087ec0 f i WinRTVFS.obj
 0002:00049fd0       ?_Copy@?$_Func_impl@U?$_Callable_obj@V<lambda_1a93da980d6fe77644a4eefc4e1ad756>@@$0A@@std@@V?$allocator@V?$_Func_class@XABH@std@@@2@XABH@std@@UAEPAV?$_Func_base@XABH@2@PAX@Z 10087fd0 f i WinRTVFS.obj
 0002:0004a0e0       ?_Copy@?$_Func_impl@U?$_Callable_obj@V<lambda_295bc5f846209cba149a5e74d0d63a72>@@$0A@@std@@V?$allocator@V?$_Func_class@XPAV?$message@H@Concurrency@@@std@@@2@XPAV?$message@H@Concurrency@@@std@@UAEPAV?$_Func_base@XPAV?$message@H@Concurrency@@@2@PAX@Z 100880e0 f i WinRTVFS.obj
 0002:0004a1f0       ?_Copy@?$_Func_impl@U?$_Callable_obj@V<lambda_364e75aa895e992ae8821732ca646aa2>@@$0A@@std@@V?$allocator@V?$_Func_class@X$$$V@std@@@2@X$$$V@std@@UAEPAV?$_Func_base@X$$$V@2@PAX@Z 100881f0 f i WinRTVFS.obj
 0002:0004a300       ?_Copy@?$_Func_impl@U?$_Callable_obj@V<lambda_39cde079c01d1b5b9307ff255a1ccdd9>@@$0A@@std@@V?$allocator@V?$_Func_class@EE@std@@@2@EE@std@@UAEPAV?$_Func_base@EE@2@PAX@Z 10088300 f i WinRTVFS.obj
 0002:0004a410       ?_Copy@?$_Func_impl@U?$_Callable_obj@V<lambda_528650821c608ced6534641e311542a5>@@$0A@@std@@V?$allocator@V?$_Func_class@X$$$V@std@@@2@X$$$V@std@@UAEPAV?$_Func_base@X$$$V@2@PAX@Z 10088410 f i WinRTVFS.obj
 0002:0004a520       ?_Copy@?$_Func_impl@U?$_Callable_obj@V<lambda_579ccd68d569251046038e8620afec85>@@$0A@@std@@V?$allocator@V?$_Func_class@XPAV?$message@H@Concurrency@@@std@@@2@XPAV?$message@H@Concurrency@@@std@@UAEPAV?$_Func_base@XPAV?$message@H@Concurrency@@@2@PAX@Z 10088520 f i WinRTVFS.obj
 0002:0004a630       ?_Copy@?$_Func_impl@U?$_Callable_obj@V<lambda_9fc58f08a03183e50e06176727aeb396>@@$0A@@std@@V?$allocator@V?$_Func_class@X$$$V@std@@@2@X$$$V@std@@UAEPAV?$_Func_base@X$$$V@2@PAX@Z 10088630 f i WinRTVFS.obj
 0002:0004a740       ?_Copy@?$_Func_impl@U?$_Callable_obj@V<lambda_a66b3ee15e662226a0b0b15ae647d32f>@@$0A@@std@@V?$allocator@V?$_Func_class@X$$$V@std@@@2@X$$$V@std@@UAEPAV?$_Func_base@X$$$V@2@PAX@Z 10088740 f i WinRTVFS.obj
 0002:0004a850       ?_Copy@?$_Func_impl@U?$_Callable_obj@V<lambda_c1a554f2383dae03f169289aed8c4103>@@$0A@@std@@V?$allocator@V?$_Func_class@X$$$V@std@@@2@X$$$V@std@@UAEPAV?$_Func_base@X$$$V@2@PAX@Z 10088850 f i WinRTVFS.obj
 0002:0004a960       ?_Copy@?$_Func_impl@U?$_Callable_obj@V<lambda_c28a53003ed51cdfe295a7d756f98c2f>@@$0A@@std@@V?$allocator@V?$_Func_class@XPAV?$message@H@Concurrency@@@std@@@2@XPAV?$message@H@Concurrency@@@std@@UAEPAV?$_Func_base@XPAV?$message@H@Concurrency@@@2@PAX@Z 10088960 f i WinRTVFS.obj
 0002:0004aa70       ?_Copy@?$_Func_impl@U?$_Callable_obj@V<lambda_e7ef5f1e4e1eca0ae8efc6086cf9f417>@@$0A@@std@@V?$allocator@V?$_Func_class@X$$$V@std@@@2@X$$$V@std@@UAEPAV?$_Func_base@X$$$V@2@PAX@Z 10088a70 f i WinRTVFS.obj
 0002:0004ab80       ?_Copy_item@?$concurrent_queue@PAV?$message@H@Concurrency@@V?$allocator@PAV?$message@H@Concurrency@@@std@@@Concurrency@@EAEXAAU_Page@_Concurrent_queue_base_v4@details@2@IPBX@Z 10088b80 f i WinRTVFS.obj
 0002:0004ac30       ?_Count@?$multi_link_registry@V?$ISource@H@Concurrency@@@Concurrency@@ABEIXZ 10088c30 f i WinRTVFS.obj
 0002:0004ace0       ?_CreateImpl@?$task@E@Concurrency@@QAEXPAV_CancellationTokenState@details@2@Uscheduler_ptr@2@@Z 10088ce0 f i WinRTVFS.obj
 0002:0004ae70       ?_CreateImpl@?$task@I@Concurrency@@QAEXPAV_CancellationTokenState@details@2@Uscheduler_ptr@2@@Z 10088e70 f i WinRTVFS.obj
 0002:0004b000       ?_CreateImpl@?$task@P$AAUIBuffer@Streams@Storage@Windows@@@Concurrency@@QAEXPAV_CancellationTokenState@details@2@Uscheduler_ptr@2@@Z 10089000 f i WinRTVFS.obj
 0002:0004b190       ?_CreateImpl@?$task@P$AAUIRandomAccessStream@Streams@Storage@Windows@@@Concurrency@@QAEXPAV_CancellationTokenState@details@2@Uscheduler_ptr@2@@Z 10089190 f i WinRTVFS.obj
 0002:0004b320       ?_CreateImpl@?$task@P$AAVStorageFile@Storage@Windows@@@Concurrency@@QAEXPAV_CancellationTokenState@details@2@Uscheduler_ptr@2@@Z 10089320 f i WinRTVFS.obj
 0002:0004b4b0       ?_CreateImpl@?$task@P$AAVStorageFolder@Storage@Windows@@@Concurrency@@QAEXPAV_CancellationTokenState@details@2@Uscheduler_ptr@2@@Z 100894b0 f i WinRTVFS.obj
 0002:0004b640       ?_CreateImpl@?$task@X@Concurrency@@QAEXPAV_CancellationTokenState@details@2@Uscheduler_ptr@2@@Z 10089640 f i WinRTVFS.obj
 0002:0004b710       ?_CreateImpl@?$task@_N@Concurrency@@QAEXPAV_CancellationTokenState@details@2@Uscheduler_ptr@2@@Z 10089710 f i WinRTVFS.obj
 0002:0004b8a0       ?_Current_exception@exception_ptr@std@@SA?AV12@XZ 100898a0 f i WinRTVFS.obj
 0002:0004b9e0       ?_Deallocate_page@?$concurrent_queue@PAV?$message@H@Concurrency@@V?$allocator@PAV?$message@H@Concurrency@@@std@@@Concurrency@@EAEXPAU_Page@_Concurrent_queue_base_v4@details@2@@Z 100899e0 f i WinRTVFS.obj
 0002:0004ba60       ?_Decref@?$_Ptr_base@U?$_Task_completion_event_impl@E@details@Concurrency@@@std@@QAEXXZ 10089a60 f i WinRTVFS.obj
 0002:0004bac0       ?_Decref@?$_Ptr_base@U?$_Task_impl@E@details@Concurrency@@@std@@QAEXXZ 10089ac0 f i WinRTVFS.obj
 0002:0004bb20       ?_Decref@?$_Ptr_base@U?$_Task_impl@I@details@Concurrency@@@std@@QAEXXZ 10089b20 f i WinRTVFS.obj
 0002:0004bb80       ?_Decref@?$_Ptr_base@U?$_Task_impl@P$AAUIBuffer@Streams@Storage@Windows@@@details@Concurrency@@@std@@QAEXXZ 10089b80 f i WinRTVFS.obj
 0002:0004bbe0       ?_Decref@?$_Ptr_base@U?$_Task_impl@P$AAUIRandomAccessStream@Streams@Storage@Windows@@@details@Concurrency@@@std@@QAEXXZ 10089be0 f i WinRTVFS.obj
 0002:0004bc40       ?_Decref@?$_Ptr_base@U?$_Task_impl@P$AAVStorageFile@Storage@Windows@@@details@Concurrency@@@std@@QAEXXZ 10089c40 f i WinRTVFS.obj
 0002:0004bca0       ?_Decref@?$_Ptr_base@U?$_Task_impl@P$AAVStorageFolder@Storage@Windows@@@details@Concurrency@@@std@@QAEXXZ 10089ca0 f i WinRTVFS.obj
 0002:0004bd00       ?_Decref@?$_Ptr_base@U?$_Task_impl@_N@details@Concurrency@@@std@@QAEXXZ 10089d00 f i WinRTVFS.obj
 0002:0004bd60       ?_Decref@?$_Ptr_base@U_ExceptionHolder@details@Concurrency@@@std@@QAEXXZ 10089d60 f i WinRTVFS.obj
 0002:0004bdc0       ?_Decref@?$_Ptr_base@U_Task_impl_base@details@Concurrency@@@std@@QAEXXZ 10089dc0 f i WinRTVFS.obj
 0002:0004be20       ?_Decref@?$_Ptr_base@Uscheduler_interface@Concurrency@@@std@@QAEXXZ 10089e20 f i WinRTVFS.obj
 0002:0004be80       ?_Decref@_Ref_count_base@std@@QAEXXZ 10089e80 f i WinRTVFS.obj
 0002:0004bf00       ?_Decwref@?$_Ptr_base@U_Task_impl_base@details@Concurrency@@@std@@QAEXXZ 10089f00 f i WinRTVFS.obj
 0002:0004bf60       ?_Decwref@_Ref_count_base@std@@QAEXXZ 10089f60 f i WinRTVFS.obj
 0002:0004bfe0       ?_Delete_stored_messages@?$timer@H@Concurrency@@AAEXXZ 10089fe0 f i WinRTVFS.obj
 0002:0004c0a0       ?_Delete_this@?$_Func_impl@U?$_Callable_obj@V<lambda_02d862f9cfc639ff7c37ca52d43e6a8c>@@$0A@@std@@V?$allocator@V?$_Func_class@X$$$V@std@@@2@X$$$V@std@@EAEX_N@Z 1008a0a0 f i WinRTVFS.obj
 0002:0004c180       ?_Delete_this@?$_Func_impl@U?$_Callable_obj@V<lambda_095a938ce4c5765dcc6b67f548aeb9c7>@@$0A@@std@@V?$allocator@V?$_Func_class@X$$$V@std@@@2@X$$$V@std@@EAEX_N@Z 1008a180 f i WinRTVFS.obj
 0002:0004c260       ?_Delete_this@?$_Func_impl@U?$_Callable_obj@V<lambda_0b7f78ec4ced38495cec46e0d346e0b9>@@$0A@@std@@V?$allocator@V?$_Func_class@X$$$V@std@@@2@X$$$V@std@@EAEX_N@Z 1008a260 f i WinRTVFS.obj
 0002:0004c340       ?_Delete_this@?$_Func_impl@U?$_Callable_obj@V<lambda_0fe479da16d43edb8e9a254c493d643e>@@$0A@@std@@V?$allocator@V?$_Func_class@X$$$V@std@@@2@X$$$V@std@@EAEX_N@Z 1008a340 f i WinRTVFS.obj
 0002:0004c420       ?_Delete_this@?$_Func_impl@U?$_Callable_obj@V<lambda_1a93da980d6fe77644a4eefc4e1ad756>@@$0A@@std@@V?$allocator@V?$_Func_class@XABH@std@@@2@XABH@std@@EAEX_N@Z 1008a420 f i WinRTVFS.obj
 0002:0004c500       ?_Delete_this@?$_Func_impl@U?$_Callable_obj@V<lambda_295bc5f846209cba149a5e74d0d63a72>@@$0A@@std@@V?$allocator@V?$_Func_class@XPAV?$message@H@Concurrency@@@std@@@2@XPAV?$message@H@Concurrency@@@std@@EAEX_N@Z 1008a500 f i WinRTVFS.obj
 0002:0004c5e0       ?_Delete_this@?$_Func_impl@U?$_Callable_obj@V<lambda_364e75aa895e992ae8821732ca646aa2>@@$0A@@std@@V?$allocator@V?$_Func_class@X$$$V@std@@@2@X$$$V@std@@EAEX_N@Z 1008a5e0 f i WinRTVFS.obj
 0002:0004c6c0       ?_Delete_this@?$_Func_impl@U?$_Callable_obj@V<lambda_39cde079c01d1b5b9307ff255a1ccdd9>@@$0A@@std@@V?$allocator@V?$_Func_class@EE@std@@@2@EE@std@@EAEX_N@Z 1008a6c0 f i WinRTVFS.obj
 0002:0004c7a0       ?_Delete_this@?$_Func_impl@U?$_Callable_obj@V<lambda_528650821c608ced6534641e311542a5>@@$0A@@std@@V?$allocator@V?$_Func_class@X$$$V@std@@@2@X$$$V@std@@EAEX_N@Z 1008a7a0 f i WinRTVFS.obj
 0002:0004c880       ?_Delete_this@?$_Func_impl@U?$_Callable_obj@V<lambda_579ccd68d569251046038e8620afec85>@@$0A@@std@@V?$allocator@V?$_Func_class@XPAV?$message@H@Concurrency@@@std@@@2@XPAV?$message@H@Concurrency@@@std@@EAEX_N@Z 1008a880 f i WinRTVFS.obj
 0002:0004c960       ?_Delete_this@?$_Func_impl@U?$_Callable_obj@V<lambda_9fc58f08a03183e50e06176727aeb396>@@$0A@@std@@V?$allocator@V?$_Func_class@X$$$V@std@@@2@X$$$V@std@@EAEX_N@Z 1008a960 f i WinRTVFS.obj
 0002:0004ca40       ?_Delete_this@?$_Func_impl@U?$_Callable_obj@V<lambda_a66b3ee15e662226a0b0b15ae647d32f>@@$0A@@std@@V?$allocator@V?$_Func_class@X$$$V@std@@@2@X$$$V@std@@EAEX_N@Z 1008aa40 f i WinRTVFS.obj
 0002:0004cb20       ?_Delete_this@?$_Func_impl@U?$_Callable_obj@V<lambda_c1a554f2383dae03f169289aed8c4103>@@$0A@@std@@V?$allocator@V?$_Func_class@X$$$V@std@@@2@X$$$V@std@@EAEX_N@Z 1008ab20 f i WinRTVFS.obj
 0002:0004cc00       ?_Delete_this@?$_Func_impl@U?$_Callable_obj@V<lambda_c28a53003ed51cdfe295a7d756f98c2f>@@$0A@@std@@V?$allocator@V?$_Func_class@XPAV?$message@H@Concurrency@@@std@@@2@XPAV?$message@H@Concurrency@@@std@@EAEX_N@Z 1008ac00 f i WinRTVFS.obj
 0002:0004cce0       ?_Delete_this@?$_Func_impl@U?$_Callable_obj@V<lambda_e7ef5f1e4e1eca0ae8efc6086cf9f417>@@$0A@@std@@V?$allocator@V?$_Func_class@X$$$V@std@@@2@X$$$V@std@@EAEX_N@Z 1008ace0 f i WinRTVFS.obj
 0002:0004cdc0       ?_Delete_this@?$_Ref_count_obj@U?$_Task_completion_event_impl@E@details@Concurrency@@@std@@EAEXXZ 1008adc0 f i WinRTVFS.obj
 0002:0004ce70       ?_Delete_this@?$_Ref_count_obj@U?$_Task_impl@E@details@Concurrency@@@std@@EAEXXZ 1008ae70 f i WinRTVFS.obj
 0002:0004cf20       ?_Delete_this@?$_Ref_count_obj@U?$_Task_impl@I@details@Concurrency@@@std@@EAEXXZ 1008af20 f i WinRTVFS.obj
 0002:0004cfd0       ?_Delete_this@?$_Ref_count_obj@U?$_Task_impl@P$AAUIBuffer@Streams@Storage@Windows@@@details@Concurrency@@@std@@EAEXXZ 1008afd0 f i WinRTVFS.obj
 0002:0004d080       ?_Delete_this@?$_Ref_count_obj@U?$_Task_impl@P$AAUIRandomAccessStream@Streams@Storage@Windows@@@details@Concurrency@@@std@@EAEXXZ 1008b080 f i WinRTVFS.obj
 0002:0004d130       ?_Delete_this@?$_Ref_count_obj@U?$_Task_impl@P$AAVStorageFile@Storage@Windows@@@details@Concurrency@@@std@@EAEXXZ 1008b130 f i WinRTVFS.obj
 0002:0004d1e0       ?_Delete_this@?$_Ref_count_obj@U?$_Task_impl@P$AAVStorageFolder@Storage@Windows@@@details@Concurrency@@@std@@EAEXXZ 1008b1e0 f i WinRTVFS.obj
 0002:0004d290       ?_Delete_this@?$_Ref_count_obj@U?$_Task_impl@_N@details@Concurrency@@@std@@EAEXXZ 1008b290 f i WinRTVFS.obj
 0002:0004d340       ?_Delete_this@?$_Ref_count_obj@U_ExceptionHolder@details@Concurrency@@@std@@EAEXXZ 1008b340 f i WinRTVFS.obj
 0002:0004d3f0       ?_DeregisterCallback@_CancellationTokenState@details@Concurrency@@QAEXPAV_CancellationTokenRegistration@23@@Z 1008b3f0 f i WinRTVFS.obj
 0002:0004d6f0       ?_DeregisterCancellation@_Task_impl_base@details@Concurrency@@QAEXXZ 1008b6f0 f i WinRTVFS.obj
 0002:0004d770       ?_Destroy@?$_Ref_count_obj@U?$_Task_completion_event_impl@E@details@Concurrency@@@std@@EAEXXZ 1008b770 f i WinRTVFS.obj
 0002:0004d7d0       ?_Destroy@?$_Ref_count_obj@U?$_Task_impl@E@details@Concurrency@@@std@@EAEXXZ 1008b7d0 f i WinRTVFS.obj
 0002:0004d850       ?_Destroy@?$_Ref_count_obj@U?$_Task_impl@I@details@Concurrency@@@std@@EAEXXZ 1008b850 f i WinRTVFS.obj
 0002:0004d8d0       ?_Destroy@?$_Ref_count_obj@U?$_Task_impl@P$AAUIBuffer@Streams@Storage@Windows@@@details@Concurrency@@@std@@EAEXXZ 1008b8d0 f i WinRTVFS.obj
 0002:0004d950       ?_Destroy@?$_Ref_count_obj@U?$_Task_impl@P$AAUIRandomAccessStream@Streams@Storage@Windows@@@details@Concurrency@@@std@@EAEXXZ 1008b950 f i WinRTVFS.obj
 0002:0004d9d0       ?_Destroy@?$_Ref_count_obj@U?$_Task_impl@P$AAVStorageFile@Storage@Windows@@@details@Concurrency@@@std@@EAEXXZ 1008b9d0 f i WinRTVFS.obj
 0002:0004da50       ?_Destroy@?$_Ref_count_obj@U?$_Task_impl@P$AAVStorageFolder@Storage@Windows@@@details@Concurrency@@@std@@EAEXXZ 1008ba50 f i WinRTVFS.obj
 0002:0004dad0       ?_Destroy@?$_Ref_count_obj@U?$_Task_impl@_N@details@Concurrency@@@std@@EAEXXZ 1008bad0 f i WinRTVFS.obj
 0002:0004db50       ?_Destroy@?$_Ref_count_obj@U_ExceptionHolder@details@Concurrency@@@std@@EAEXXZ 1008bb50 f i WinRTVFS.obj
 0002:0004dbb0       ?_Destroy@?$vector@PAXV?$allocator@PAX@std@@@std@@IAEXPAPAX0@Z 1008bbb0 f i WinRTVFS.obj
 0002:0004dc80       ?_Destroy@?$vector@V?$shared_ptr@U?$_Task_impl@E@details@Concurrency@@@std@@V?$allocator@V?$shared_ptr@U?$_Task_impl@E@details@Concurrency@@@std@@@2@@std@@IAEXPAV?$shared_ptr@U?$_Task_impl@E@details@Concurrency@@@2@0@Z 1008bc80 f i WinRTVFS.obj
 0002:0004dd50       ?_Destroy@_RefCounter@details@Concurrency@@MAEXXZ 1008bd50 f i WinRTVFS.obj
 0002:0004de00       ?_Do_call@?$_Func_impl@U?$_Callable_obj@V<lambda_02d862f9cfc639ff7c37ca52d43e6a8c>@@$0A@@std@@V?$allocator@V?$_Func_class@X$$$V@std@@@2@X$$$V@std@@UAEXXZ 1008be00 f i WinRTVFS.obj
 0002:0004de60       ?_Do_call@?$_Func_impl@U?$_Callable_obj@V<lambda_095a938ce4c5765dcc6b67f548aeb9c7>@@$0A@@std@@V?$allocator@V?$_Func_class@X$$$V@std@@@2@X$$$V@std@@UAEXXZ 1008be60 f i WinRTVFS.obj
 0002:0004dec0       ?_Do_call@?$_Func_impl@U?$_Callable_obj@V<lambda_0b7f78ec4ced38495cec46e0d346e0b9>@@$0A@@std@@V?$allocator@V?$_Func_class@X$$$V@std@@@2@X$$$V@std@@UAEXXZ 1008bec0 f i WinRTVFS.obj
 0002:0004df20       ?_Do_call@?$_Func_impl@U?$_Callable_obj@V<lambda_0fe479da16d43edb8e9a254c493d643e>@@$0A@@std@@V?$allocator@V?$_Func_class@X$$$V@std@@@2@X$$$V@std@@UAEXXZ 1008bf20 f i WinRTVFS.obj
 0002:0004df80       ?_Do_call@?$_Func_impl@U?$_Callable_obj@V<lambda_1a93da980d6fe77644a4eefc4e1ad756>@@$0A@@std@@V?$allocator@V?$_Func_class@XABH@std@@@2@XABH@std@@UAEXABH@Z 1008bf80 f i WinRTVFS.obj
 0002:0004dff0       ?_Do_call@?$_Func_impl@U?$_Callable_obj@V<lambda_295bc5f846209cba149a5e74d0d63a72>@@$0A@@std@@V?$allocator@V?$_Func_class@XPAV?$message@H@Concurrency@@@std@@@2@XPAV?$message@H@Concurrency@@@std@@UAEX$$QAPAV?$message@H@Concurrency@@@Z 1008bff0 f i WinRTVFS.obj
 0002:0004e060       ?_Do_call@?$_Func_impl@U?$_Callable_obj@V<lambda_364e75aa895e992ae8821732ca646aa2>@@$0A@@std@@V?$allocator@V?$_Func_class@X$$$V@std@@@2@X$$$V@std@@UAEXXZ 1008c060 f i WinRTVFS.obj
 0002:0004e0c0       ?_Do_call@?$_Func_impl@U?$_Callable_obj@V<lambda_39cde079c01d1b5b9307ff255a1ccdd9>@@$0A@@std@@V?$allocator@V?$_Func_class@EE@std@@@2@EE@std@@UAEE$$QAE@Z 1008c0c0 f i WinRTVFS.obj
 0002:0004e130       ?_Do_call@?$_Func_impl@U?$_Callable_obj@V<lambda_528650821c608ced6534641e311542a5>@@$0A@@std@@V?$allocator@V?$_Func_class@X$$$V@std@@@2@X$$$V@std@@UAEXXZ 1008c130 f i WinRTVFS.obj
 0002:0004e190       ?_Do_call@?$_Func_impl@U?$_Callable_obj@V<lambda_579ccd68d569251046038e8620afec85>@@$0A@@std@@V?$allocator@V?$_Func_class@XPAV?$message@H@Concurrency@@@std@@@2@XPAV?$message@H@Concurrency@@@std@@UAEX$$QAPAV?$message@H@Concurrency@@@Z 1008c190 f i WinRTVFS.obj
 0002:0004e200       ?_Do_call@?$_Func_impl@U?$_Callable_obj@V<lambda_9fc58f08a03183e50e06176727aeb396>@@$0A@@std@@V?$allocator@V?$_Func_class@X$$$V@std@@@2@X$$$V@std@@UAEXXZ 1008c200 f i WinRTVFS.obj
 0002:0004e260       ?_Do_call@?$_Func_impl@U?$_Callable_obj@V<lambda_a66b3ee15e662226a0b0b15ae647d32f>@@$0A@@std@@V?$allocator@V?$_Func_class@X$$$V@std@@@2@X$$$V@std@@UAEXXZ 1008c260 f i WinRTVFS.obj
 0002:0004e2c0       ?_Do_call@?$_Func_impl@U?$_Callable_obj@V<lambda_c1a554f2383dae03f169289aed8c4103>@@$0A@@std@@V?$allocator@V?$_Func_class@X$$$V@std@@@2@X$$$V@std@@UAEXXZ 1008c2c0 f i WinRTVFS.obj
 0002:0004e320       ?_Do_call@?$_Func_impl@U?$_Callable_obj@V<lambda_c28a53003ed51cdfe295a7d756f98c2f>@@$0A@@std@@V?$allocator@V?$_Func_class@XPAV?$message@H@Concurrency@@@std@@@2@XPAV?$message@H@Concurrency@@@std@@UAEX$$QAPAV?$message@H@Concurrency@@@Z 1008c320 f i WinRTVFS.obj
 0002:0004e390       ?_Do_call@?$_Func_impl@U?$_Callable_obj@V<lambda_e7ef5f1e4e1eca0ae8efc6086cf9f417>@@$0A@@std@@V?$allocator@V?$_Func_class@X$$$V@std@@@2@X$$$V@std@@UAEXXZ 1008c390 f i WinRTVFS.obj
 0002:0004e3f0       ?_Empty@?$_Func_class@X$$$V@std@@QBE_NXZ 1008c3f0 f i WinRTVFS.obj
 0002:0004e460       ?_Empty@?$_Func_class@XPAV?$message@H@Concurrency@@@std@@QBE_NXZ 1008c460 f i WinRTVFS.obj
 0002:0004e4d0       ?_Enable_shared@std@@YAXPDX0@Z 1008c4d0 f i WinRTVFS.obj
 0002:0004e500       ?_Exchange_acquire_4@std@@YAKPCKK@Z 1008c500 f i WinRTVFS.obj
 0002:0004e540       ?_Exchange_relaxed_4@std@@YAKPCKK@Z 1008c540 f i WinRTVFS.obj
 0002:0004e580       ?_Exchange_release_4@std@@YAKPCKK@Z 1008c580 f i WinRTVFS.obj
 0002:0004e5c0       ?_Exchange_seq_cst_4@std@@YAKPCKK@Z 1008c5c0 f i WinRTVFS.obj
 0002:0004e600       ?_Exec@?$_CancellationTokenCallback@V<lambda_17cb9174022a2677ccd4c777403439ce>@@@details@Concurrency@@MAEXXZ 1008c600 f i WinRTVFS.obj
 0002:0004e660       ?_FinalizeAndRunContinuations@?$_Task_impl@E@details@Concurrency@@QAEXE@Z 1008c660 f i WinRTVFS.obj
 0002:0004e850       ?_FinalizeAndRunContinuations@?$_Task_impl@I@details@Concurrency@@QAEXI@Z 1008c850 f i WinRTVFS.obj
 0002:0004ea40       ?_FinalizeAndRunContinuations@?$_Task_impl@P$AAUIBuffer@Streams@Storage@Windows@@@details@Concurrency@@QAEXP$AAUIBuffer@Streams@Storage@Windows@@@Z 1008ca40 f i WinRTVFS.obj
 0002:0004ec70       ?_FinalizeAndRunContinuations@?$_Task_impl@P$AAUIRandomAccessStream@Streams@Storage@Windows@@@details@Concurrency@@QAEXP$AAUIRandomAccessStream@Streams@Storage@Windows@@@Z 1008cc70 f i WinRTVFS.obj
 0002:0004eea0       ?_FinalizeAndRunContinuations@?$_Task_impl@P$AAVStorageFile@Storage@Windows@@@details@Concurrency@@QAEXP$AAVStorageFile@Storage@Windows@@@Z 1008cea0 f i WinRTVFS.obj
 0002:0004f0d0       ?_FinalizeAndRunContinuations@?$_Task_impl@P$AAVStorageFolder@Storage@Windows@@@details@Concurrency@@QAEXP$AAVStorageFolder@Storage@Windows@@@Z 1008d0d0 f i WinRTVFS.obj
 0002:0004f300       ?_FinalizeAndRunContinuations@?$_Task_impl@_N@details@Concurrency@@QAEX_N@Z 1008d300 f i WinRTVFS.obj
 0002:0004f4f0       ?_Find@?$multi_link_registry@V?$ISource@H@Concurrency@@@Concurrency@@EAEIPAV?$ISource@H@2@@Z 1008d4f0 f i WinRTVFS.obj
 0002:0004f590       ?_Fire@?$timer@H@Concurrency@@EAEXXZ 1008d590 f i WinRTVFS.obj
 0002:0004f600       ?_Free_proxy@?$_Vector_alloc@$0A@U?$_Vec_base_types@PAXV?$allocator@PAX@std@@@std@@@std@@QAEXXZ 1008d600 f i WinRTVFS.obj
 0002:0004f6f0       ?_Free_proxy@?$_Vector_alloc@$0A@U?$_Vec_base_types@V?$shared_ptr@U?$_Task_impl@E@details@Concurrency@@@std@@V?$allocator@V?$shared_ptr@U?$_Task_impl@E@details@Concurrency@@@std@@@2@@std@@@std@@QAEXXZ 1008d6f0 f i WinRTVFS.obj
 0002:0004f7e0       ?_Get@?$_Callable_base@V<lambda_02d862f9cfc639ff7c37ca52d43e6a8c>@@$0A@@std@@QAEAAV<lambda_02d862f9cfc639ff7c37ca52d43e6a8c>@@XZ 1008d7e0 f i WinRTVFS.obj
 0002:0004f820       ?_Get@?$_Callable_base@V<lambda_02d862f9cfc639ff7c37ca52d43e6a8c>@@$0A@@std@@QBEABV<lambda_02d862f9cfc639ff7c37ca52d43e6a8c>@@XZ 1008d820 f i WinRTVFS.obj
 0002:0004f860       ?_Get@?$_Callable_base@V<lambda_095a938ce4c5765dcc6b67f548aeb9c7>@@$0A@@std@@QAEAAV<lambda_095a938ce4c5765dcc6b67f548aeb9c7>@@XZ 1008d860 f i WinRTVFS.obj
 0002:0004f8a0       ?_Get@?$_Callable_base@V<lambda_095a938ce4c5765dcc6b67f548aeb9c7>@@$0A@@std@@QBEABV<lambda_095a938ce4c5765dcc6b67f548aeb9c7>@@XZ 1008d8a0 f i WinRTVFS.obj
 0002:0004f8e0       ?_Get@?$_Callable_base@V<lambda_0b7f78ec4ced38495cec46e0d346e0b9>@@$0A@@std@@QAEAAV<lambda_0b7f78ec4ced38495cec46e0d346e0b9>@@XZ 1008d8e0 f i WinRTVFS.obj
 0002:0004f920       ?_Get@?$_Callable_base@V<lambda_0b7f78ec4ced38495cec46e0d346e0b9>@@$0A@@std@@QBEABV<lambda_0b7f78ec4ced38495cec46e0d346e0b9>@@XZ 1008d920 f i WinRTVFS.obj
 0002:0004f960       ?_Get@?$_Callable_base@V<lambda_0fe479da16d43edb8e9a254c493d643e>@@$0A@@std@@QAEAAV<lambda_0fe479da16d43edb8e9a254c493d643e>@@XZ 1008d960 f i WinRTVFS.obj
 0002:0004f9a0       ?_Get@?$_Callable_base@V<lambda_0fe479da16d43edb8e9a254c493d643e>@@$0A@@std@@QBEABV<lambda_0fe479da16d43edb8e9a254c493d643e>@@XZ 1008d9a0 f i WinRTVFS.obj
 0002:0004f9e0       ?_Get@?$_Callable_base@V<lambda_1a93da980d6fe77644a4eefc4e1ad756>@@$0A@@std@@QAEAAV<lambda_1a93da980d6fe77644a4eefc4e1ad756>@@XZ 1008d9e0 f i WinRTVFS.obj
 0002:0004fa20       ?_Get@?$_Callable_base@V<lambda_1a93da980d6fe77644a4eefc4e1ad756>@@$0A@@std@@QBEABV<lambda_1a93da980d6fe77644a4eefc4e1ad756>@@XZ 1008da20 f i WinRTVFS.obj
 0002:0004fa60       ?_Get@?$_Callable_base@V<lambda_295bc5f846209cba149a5e74d0d63a72>@@$0A@@std@@QAEAAV<lambda_295bc5f846209cba149a5e74d0d63a72>@@XZ 1008da60 f i WinRTVFS.obj
 0002:0004faa0       ?_Get@?$_Callable_base@V<lambda_295bc5f846209cba149a5e74d0d63a72>@@$0A@@std@@QBEABV<lambda_295bc5f846209cba149a5e74d0d63a72>@@XZ 1008daa0 f i WinRTVFS.obj
 0002:0004fae0       ?_Get@?$_Callable_base@V<lambda_364e75aa895e992ae8821732ca646aa2>@@$0A@@std@@QAEAAV<lambda_364e75aa895e992ae8821732ca646aa2>@@XZ 1008dae0 f i WinRTVFS.obj
 0002:0004fb20       ?_Get@?$_Callable_base@V<lambda_364e75aa895e992ae8821732ca646aa2>@@$0A@@std@@QBEABV<lambda_364e75aa895e992ae8821732ca646aa2>@@XZ 1008db20 f i WinRTVFS.obj
 0002:0004fb60       ?_Get@?$_Callable_base@V<lambda_39cde079c01d1b5b9307ff255a1ccdd9>@@$0A@@std@@QAEAAV<lambda_39cde079c01d1b5b9307ff255a1ccdd9>@@XZ 1008db60 f i WinRTVFS.obj
 0002:0004fba0       ?_Get@?$_Callable_base@V<lambda_39cde079c01d1b5b9307ff255a1ccdd9>@@$0A@@std@@QBEABV<lambda_39cde079c01d1b5b9307ff255a1ccdd9>@@XZ 1008dba0 f i WinRTVFS.obj
 0002:0004fbe0       ?_Get@?$_Callable_base@V<lambda_528650821c608ced6534641e311542a5>@@$0A@@std@@QAEAAV<lambda_528650821c608ced6534641e311542a5>@@XZ 1008dbe0 f i WinRTVFS.obj
 0002:0004fc20       ?_Get@?$_Callable_base@V<lambda_528650821c608ced6534641e311542a5>@@$0A@@std@@QBEABV<lambda_528650821c608ced6534641e311542a5>@@XZ 1008dc20 f i WinRTVFS.obj
 0002:0004fc60       ?_Get@?$_Callable_base@V<lambda_579ccd68d569251046038e8620afec85>@@$0A@@std@@QAEAAV<lambda_579ccd68d569251046038e8620afec85>@@XZ 1008dc60 f i WinRTVFS.obj
 0002:0004fca0       ?_Get@?$_Callable_base@V<lambda_579ccd68d569251046038e8620afec85>@@$0A@@std@@QBEABV<lambda_579ccd68d569251046038e8620afec85>@@XZ 1008dca0 f i WinRTVFS.obj
 0002:0004fce0       ?_Get@?$_Callable_base@V<lambda_9fc58f08a03183e50e06176727aeb396>@@$0A@@std@@QAEAAV<lambda_9fc58f08a03183e50e06176727aeb396>@@XZ 1008dce0 f i WinRTVFS.obj
 0002:0004fd20       ?_Get@?$_Callable_base@V<lambda_9fc58f08a03183e50e06176727aeb396>@@$0A@@std@@QBEABV<lambda_9fc58f08a03183e50e06176727aeb396>@@XZ 1008dd20 f i WinRTVFS.obj
 0002:0004fd60       ?_Get@?$_Callable_base@V<lambda_a66b3ee15e662226a0b0b15ae647d32f>@@$0A@@std@@QAEAAV<lambda_a66b3ee15e662226a0b0b15ae647d32f>@@XZ 1008dd60 f i WinRTVFS.obj
 0002:0004fda0       ?_Get@?$_Callable_base@V<lambda_a66b3ee15e662226a0b0b15ae647d32f>@@$0A@@std@@QBEABV<lambda_a66b3ee15e662226a0b0b15ae647d32f>@@XZ 1008dda0 f i WinRTVFS.obj
 0002:0004fde0       ?_Get@?$_Callable_base@V<lambda_c1a554f2383dae03f169289aed8c4103>@@$0A@@std@@QAEAAV<lambda_c1a554f2383dae03f169289aed8c4103>@@XZ 1008dde0 f i WinRTVFS.obj
 0002:0004fe20       ?_Get@?$_Callable_base@V<lambda_c1a554f2383dae03f169289aed8c4103>@@$0A@@std@@QBEABV<lambda_c1a554f2383dae03f169289aed8c4103>@@XZ 1008de20 f i WinRTVFS.obj
 0002:0004fe60       ?_Get@?$_Callable_base@V<lambda_c28a53003ed51cdfe295a7d756f98c2f>@@$0A@@std@@QAEAAV<lambda_c28a53003ed51cdfe295a7d756f98c2f>@@XZ 1008de60 f i WinRTVFS.obj
 0002:0004fea0       ?_Get@?$_Callable_base@V<lambda_c28a53003ed51cdfe295a7d756f98c2f>@@$0A@@std@@QBEABV<lambda_c28a53003ed51cdfe295a7d756f98c2f>@@XZ 1008dea0 f i WinRTVFS.obj
 0002:0004fee0       ?_Get@?$_Callable_base@V<lambda_e7ef5f1e4e1eca0ae8efc6086cf9f417>@@$0A@@std@@QAEAAV<lambda_e7ef5f1e4e1eca0ae8efc6086cf9f417>@@XZ 1008dee0 f i WinRTVFS.obj
 0002:0004ff20       ?_Get@?$_Callable_base@V<lambda_e7ef5f1e4e1eca0ae8efc6086cf9f417>@@$0A@@std@@QBEABV<lambda_e7ef5f1e4e1eca0ae8efc6086cf9f417>@@XZ 1008df20 f i WinRTVFS.obj
 0002:0004ff60       ?_Get@?$_Func_impl@U?$_Callable_obj@V<lambda_02d862f9cfc639ff7c37ca52d43e6a8c>@@$0A@@std@@V?$allocator@V?$_Func_class@X$$$V@std@@@2@X$$$V@std@@EBEPBXXZ 1008df60 f i WinRTVFS.obj
 0002:0004ffc0       ?_Get@?$_Func_impl@U?$_Callable_obj@V<lambda_095a938ce4c5765dcc6b67f548aeb9c7>@@$0A@@std@@V?$allocator@V?$_Func_class@X$$$V@std@@@2@X$$$V@std@@EBEPBXXZ 1008dfc0 f i WinRTVFS.obj
 0002:00050020       ?_Get@?$_Func_impl@U?$_Callable_obj@V<lambda_0b7f78ec4ced38495cec46e0d346e0b9>@@$0A@@std@@V?$allocator@V?$_Func_class@X$$$V@std@@@2@X$$$V@std@@EBEPBXXZ 1008e020 f i WinRTVFS.obj
 0002:00050080       ?_Get@?$_Func_impl@U?$_Callable_obj@V<lambda_0fe479da16d43edb8e9a254c493d643e>@@$0A@@std@@V?$allocator@V?$_Func_class@X$$$V@std@@@2@X$$$V@std@@EBEPBXXZ 1008e080 f i WinRTVFS.obj
 0002:000500e0       ?_Get@?$_Func_impl@U?$_Callable_obj@V<lambda_1a93da980d6fe77644a4eefc4e1ad756>@@$0A@@std@@V?$allocator@V?$_Func_class@XABH@std@@@2@XABH@std@@EBEPBXXZ 1008e0e0 f i WinRTVFS.obj
 0002:00050140       ?_Get@?$_Func_impl@U?$_Callable_obj@V<lambda_295bc5f846209cba149a5e74d0d63a72>@@$0A@@std@@V?$allocator@V?$_Func_class@XPAV?$message@H@Concurrency@@@std@@@2@XPAV?$message@H@Concurrency@@@std@@EBEPBXXZ 1008e140 f i WinRTVFS.obj
 0002:000501a0       ?_Get@?$_Func_impl@U?$_Callable_obj@V<lambda_364e75aa895e992ae8821732ca646aa2>@@$0A@@std@@V?$allocator@V?$_Func_class@X$$$V@std@@@2@X$$$V@std@@EBEPBXXZ 1008e1a0 f i WinRTVFS.obj
 0002:00050200       ?_Get@?$_Func_impl@U?$_Callable_obj@V<lambda_39cde079c01d1b5b9307ff255a1ccdd9>@@$0A@@std@@V?$allocator@V?$_Func_class@EE@std@@@2@EE@std@@EBEPBXXZ 1008e200 f i WinRTVFS.obj
 0002:00050260       ?_Get@?$_Func_impl@U?$_Callable_obj@V<lambda_528650821c608ced6534641e311542a5>@@$0A@@std@@V?$allocator@V?$_Func_class@X$$$V@std@@@2@X$$$V@std@@EBEPBXXZ 1008e260 f i WinRTVFS.obj
 0002:000502c0       ?_Get@?$_Func_impl@U?$_Callable_obj@V<lambda_579ccd68d569251046038e8620afec85>@@$0A@@std@@V?$allocator@V?$_Func_class@XPAV?$message@H@Concurrency@@@std@@@2@XPAV?$message@H@Concurrency@@@std@@EBEPBXXZ 1008e2c0 f i WinRTVFS.obj
 0002:00050320       ?_Get@?$_Func_impl@U?$_Callable_obj@V<lambda_9fc58f08a03183e50e06176727aeb396>@@$0A@@std@@V?$allocator@V?$_Func_class@X$$$V@std@@@2@X$$$V@std@@EBEPBXXZ 1008e320 f i WinRTVFS.obj
 0002:00050380       ?_Get@?$_Func_impl@U?$_Callable_obj@V<lambda_a66b3ee15e662226a0b0b15ae647d32f>@@$0A@@std@@V?$allocator@V?$_Func_class@X$$$V@std@@@2@X$$$V@std@@EBEPBXXZ 1008e380 f i WinRTVFS.obj
 0002:000503e0       ?_Get@?$_Func_impl@U?$_Callable_obj@V<lambda_c1a554f2383dae03f169289aed8c4103>@@$0A@@std@@V?$allocator@V?$_Func_class@X$$$V@std@@@2@X$$$V@std@@EBEPBXXZ 1008e3e0 f i WinRTVFS.obj
 0002:00050440       ?_Get@?$_Func_impl@U?$_Callable_obj@V<lambda_c28a53003ed51cdfe295a7d756f98c2f>@@$0A@@std@@V?$allocator@V?$_Func_class@XPAV?$message@H@Concurrency@@@std@@@2@XPAV?$message@H@Concurrency@@@std@@EBEPBXXZ 1008e440 f i WinRTVFS.obj
 0002:000504a0       ?_Get@?$_Func_impl@U?$_Callable_obj@V<lambda_e7ef5f1e4e1eca0ae8efc6086cf9f417>@@$0A@@std@@V?$allocator@V?$_Func_class@X$$$V@std@@@2@X$$$V@std@@EBEPBXXZ 1008e4a0 f i WinRTVFS.obj
 0002:00050500       ?_Get@?$_Ptr_base@U?$_Task_completion_event_impl@E@details@Concurrency@@@std@@QBEPAU?$_Task_completion_event_impl@E@details@Concurrency@@XZ 1008e500 f i WinRTVFS.obj
 0002:00050540       ?_Get@?$_Ptr_base@U?$_Task_impl@E@details@Concurrency@@@std@@QBEPAU?$_Task_impl@E@details@Concurrency@@XZ 1008e540 f i WinRTVFS.obj
 0002:00050580       ?_Get@?$_Ptr_base@U?$_Task_impl@I@details@Concurrency@@@std@@QBEPAU?$_Task_impl@I@details@Concurrency@@XZ 1008e580 f i WinRTVFS.obj
 0002:000505c0       ?_Get@?$_Ptr_base@U?$_Task_impl@P$AAUIBuffer@Streams@Storage@Windows@@@details@Concurrency@@@std@@QBEPAU?$_Task_impl@P$AAUIBuffer@Streams@Storage@Windows@@@details@Concurrency@@XZ 1008e5c0 f i WinRTVFS.obj
 0002:00050600       ?_Get@?$_Ptr_base@U?$_Task_impl@P$AAUIRandomAccessStream@Streams@Storage@Windows@@@details@Concurrency@@@std@@QBEPAU?$_Task_impl@P$AAUIRandomAccessStream@Streams@Storage@Windows@@@details@Concurrency@@XZ 1008e600 f i WinRTVFS.obj
 0002:00050640       ?_Get@?$_Ptr_base@U?$_Task_impl@P$AAVStorageFile@Storage@Windows@@@details@Concurrency@@@std@@QBEPAU?$_Task_impl@P$AAVStorageFile@Storage@Windows@@@details@Concurrency@@XZ 1008e640 f i WinRTVFS.obj
 0002:00050680       ?_Get@?$_Ptr_base@U?$_Task_impl@P$AAVStorageFolder@Storage@Windows@@@details@Concurrency@@@std@@QBEPAU?$_Task_impl@P$AAVStorageFolder@Storage@Windows@@@details@Concurrency@@XZ 1008e680 f i WinRTVFS.obj
 0002:000506c0       ?_Get@?$_Ptr_base@U?$_Task_impl@_N@details@Concurrency@@@std@@QBEPAU?$_Task_impl@_N@details@Concurrency@@XZ 1008e6c0 f i WinRTVFS.obj
 0002:00050700       ?_Get@?$_Ptr_base@U_ExceptionHolder@details@Concurrency@@@std@@QBEPAU_ExceptionHolder@details@Concurrency@@XZ 1008e700 f i WinRTVFS.obj
 0002:00050740       ?_Get@?$_Ptr_base@U_Task_impl_base@details@Concurrency@@@std@@QBEPAU_Task_impl_base@details@Concurrency@@XZ 1008e740 f i WinRTVFS.obj
 0002:00050780       ?_Get@?$_Ptr_base@Uscheduler_interface@Concurrency@@@std@@QBEPAUscheduler_interface@Concurrency@@XZ 1008e780 f i WinRTVFS.obj
 0002:000507c0       ?_Get@?$_Source_link_iterator@V?$multi_link_registry@V?$ISource@H@Concurrency@@@Concurrency@@@Concurrency@@ABEABQAV?$ISource@H@2@I@Z 1008e7c0 f i WinRTVFS.obj
 0002:00050850       ?_GetExceptionHolder@_Task_impl_base@details@Concurrency@@QAEABV?$shared_ptr@U_ExceptionHolder@details@Concurrency@@@std@@XZ 1008e850 f i WinRTVFS.obj
 0002:000508f0       ?_GetId@_Runtime_object@details@Concurrency@@UBEHXZ 1008e8f0 f i WinRTVFS.obj
 0002:00050930       ?_GetImpl@?$task@E@Concurrency@@QBEABV?$shared_ptr@U?$_Task_impl@E@details@Concurrency@@@std@@XZ 1008e930 f i WinRTVFS.obj
 0002:00050970       ?_GetImpl@?$task@I@Concurrency@@QBEABV?$shared_ptr@U?$_Task_impl@I@details@Concurrency@@@std@@XZ 1008e970 f i WinRTVFS.obj
 0002:000509b0       ?_GetImpl@?$task@P$AAUIBuffer@Streams@Storage@Windows@@@Concurrency@@QBEABV?$shared_ptr@U?$_Task_impl@P$AAUIBuffer@Streams@Storage@Windows@@@details@Concurrency@@@std@@XZ 1008e9b0 f i WinRTVFS.obj
 0002:000509f0       ?_GetImpl@?$task@P$AAUIRandomAccessStream@Streams@Storage@Windows@@@Concurrency@@QBEABV?$shared_ptr@U?$_Task_impl@P$AAUIRandomAccessStream@Streams@Storage@Windows@@@details@Concurrency@@@std@@XZ 1008e9f0 f i WinRTVFS.obj
 0002:00050a30       ?_GetImpl@?$task@P$AAVStorageFile@Storage@Windows@@@Concurrency@@QBEABV?$shared_ptr@U?$_Task_impl@P$AAVStorageFile@Storage@Windows@@@details@Concurrency@@@std@@XZ 1008ea30 f i WinRTVFS.obj
 0002:00050a70       ?_GetImpl@?$task@P$AAVStorageFolder@Storage@Windows@@@Concurrency@@QBEABV?$shared_ptr@U?$_Task_impl@P$AAVStorageFolder@Storage@Windows@@@details@Concurrency@@@std@@XZ 1008ea70 f i WinRTVFS.obj
 0002:00050ab0       ?_GetImpl@?$task@X@Concurrency@@QBEABV?$shared_ptr@U?$_Task_impl@E@details@Concurrency@@@std@@XZ 1008eab0 f i WinRTVFS.obj
 0002:00050af0       ?_GetImpl@?$task@_N@Concurrency@@QBEABV?$shared_ptr@U?$_Task_impl@_N@details@Concurrency@@@std@@XZ 1008eaf0 f i WinRTVFS.obj
 0002:00050b30       ?_GetImplValue@cancellation_token@Concurrency@@QBEPAV_CancellationTokenState@details@2@XZ 1008eb30 f i WinRTVFS.obj
 0002:00050bb0       ?_GetResult@?$_Task_impl@E@details@Concurrency@@QAEEXZ 1008ebb0 f i WinRTVFS.obj
 0002:00050c10       ?_GetResult@?$_Task_impl@P$AAUIBuffer@Streams@Storage@Windows@@@details@Concurrency@@QAEP$AAUIBuffer@Streams@Storage@Windows@@XZ 1008ec10 f i WinRTVFS.obj
 0002:00050cf0       ?_GetResult@?$_Task_impl@P$AAUIRandomAccessStream@Streams@Storage@Windows@@@details@Concurrency@@QAEP$AAUIRandomAccessStream@Streams@Storage@Windows@@XZ 1008ecf0 f i WinRTVFS.obj
 0002:00050dd0       ?_GetResult@?$_Task_impl@P$AAVStorageFile@Storage@Windows@@@details@Concurrency@@QAEP$AAVStorageFile@Storage@Windows@@XZ 1008edd0 f i WinRTVFS.obj
 0002:00050eb0       ?_GetResult@?$_Task_impl@P$AAVStorageFolder@Storage@Windows@@@details@Concurrency@@QAEP$AAVStorageFolder@Storage@Windows@@XZ 1008eeb0 f i WinRTVFS.obj
 0002:00050f90       ?_GetScheduler@_TaskCollectionImpl@details@Concurrency@@QBE?AUscheduler_ptr@3@XZ 1008ef90 f i WinRTVFS.obj
 0002:00051010       ?_GetScheduler@_Task_impl_base@details@Concurrency@@QBE?AUscheduler_ptr@3@XZ 1008f010 f i WinRTVFS.obj
 0002:00051090       ?_GetTaskCreationCallstack@_Task_impl_base@details@Concurrency@@QAE?AV_TaskCreationCallstack@23@XZ 1008f090 f i WinRTVFS.obj
 0002:00051110       ?_GetTaskImplBase@?$_PPLTaskHandle@EU?$_ContinuationTaskHandle@XXV<lambda_9fc58f08a03183e50e06176727aeb396>@@U?$integral_constant@_N$0A@@std@@U_TypeSelectorNoAsync@details@Concurrency@@@?$task@E@Concurrency@@U_ContinuationTaskHandleBase@details@3@@details@Concurrency@@UBE?AV?$shared_ptr@U_Task_impl_base@details@Concurrency@@@std@@XZ 1008f110 f i WinRTVFS.obj
 0002:00051190       ?_Get_deleter@_Ref_count_base@std@@UBEPAXABVtype_info@@@Z 1008f190 f i WinRTVFS.obj
 0002:000511d0       ?_Get_element@?$multi_link_registry@V?$ISource@H@Concurrency@@@Concurrency@@MBEPAV?$ISource@H@2@I@Z 1008f1d0 f i WinRTVFS.obj
 0002:00051250       ?_Get_element@?$single_link_registry@V?$ITarget@H@Concurrency@@@Concurrency@@MBEPAV?$ITarget@H@2@I@Z 1008f250 f i WinRTVFS.obj
 0002:000512a0       ?_Get_ref@?$concurrent_queue@PAV?$message@H@Concurrency@@V?$allocator@PAV?$message@H@Concurrency@@@std@@@Concurrency@@AAEAAPAV?$message@H@2@AAU_Page@_Concurrent_queue_base_v4@details@2@I@Z 1008f2a0 f i WinRTVFS.obj
 0002:00051350       ?_Getal@?$_Vector_alloc@$0A@U?$_Vec_base_types@PAXV?$allocator@PAX@std@@@std@@@std@@QBE?AU?$_Wrap_alloc@V?$allocator@PAX@std@@@2@XZ 1008f350 f i WinRTVFS.obj
 0002:000513b0       ?_Getal@?$_Vector_alloc@$0A@U?$_Vec_base_types@V?$shared_ptr@U?$_Task_impl@E@details@Concurrency@@@std@@V?$allocator@V?$shared_ptr@U?$_Task_impl@E@details@Concurrency@@@std@@@2@@std@@@std@@QBE?AU?$_Wrap_alloc@V?$allocator@V?$shared_ptr@U?$_Task_impl@E@details@Concurrency@@@std@@@std@@@2@XZ 1008f3b0 f i WinRTVFS.obj
 0002:00051410       ?_Getcont@_Iterator_base12@std@@QBEPBU_Container_base12@2@XZ 1008f410 f i WinRTVFS.obj
 0002:00051480       ?_Getpnext@_Iterator_base12@std@@QAEPAPAU12@XZ 1008f480 f i WinRTVFS.obj
 0002:000514c0       ?_Getptr@?$_Ref_count_obj@U?$_Task_completion_event_impl@E@details@Concurrency@@@std@@QBEPAU?$_Task_completion_event_impl@E@details@Concurrency@@XZ 1008f4c0 f i WinRTVFS.obj
 0002:00051500       ?_Getptr@?$_Ref_count_obj@U?$_Task_impl@E@details@Concurrency@@@std@@QBEPAU?$_Task_impl@E@details@Concurrency@@XZ 1008f500 f i WinRTVFS.obj
 0002:00051540       ?_Getptr@?$_Ref_count_obj@U?$_Task_impl@I@details@Concurrency@@@std@@QBEPAU?$_Task_impl@I@details@Concurrency@@XZ 1008f540 f i WinRTVFS.obj
 0002:00051580       ?_Getptr@?$_Ref_count_obj@U?$_Task_impl@P$AAUIBuffer@Streams@Storage@Windows@@@details@Concurrency@@@std@@QBEPAU?$_Task_impl@P$AAUIBuffer@Streams@Storage@Windows@@@details@Concurrency@@XZ 1008f580 f i WinRTVFS.obj
 0002:000515c0       ?_Getptr@?$_Ref_count_obj@U?$_Task_impl@P$AAUIRandomAccessStream@Streams@Storage@Windows@@@details@Concurrency@@@std@@QBEPAU?$_Task_impl@P$AAUIRandomAccessStream@Streams@Storage@Windows@@@details@Concurrency@@XZ 1008f5c0 f i WinRTVFS.obj
 0002:00051600       ?_Getptr@?$_Ref_count_obj@U?$_Task_impl@P$AAVStorageFile@Storage@Windows@@@details@Concurrency@@@std@@QBEPAU?$_Task_impl@P$AAVStorageFile@Storage@Windows@@@details@Concurrency@@XZ 1008f600 f i WinRTVFS.obj
 0002:00051640       ?_Getptr@?$_Ref_count_obj@U?$_Task_impl@P$AAVStorageFolder@Storage@Windows@@@details@Concurrency@@@std@@QBEPAU?$_Task_impl@P$AAVStorageFolder@Storage@Windows@@@details@Concurrency@@XZ 1008f640 f i WinRTVFS.obj
 0002:00051680       ?_Getptr@?$_Ref_count_obj@U?$_Task_impl@_N@details@Concurrency@@@std@@QBEPAU?$_Task_impl@_N@details@Concurrency@@XZ 1008f680 f i WinRTVFS.obj
 0002:000516c0       ?_Getptr@?$_Ref_count_obj@U_ExceptionHolder@details@Concurrency@@@std@@QBEPAU_ExceptionHolder@details@Concurrency@@XZ 1008f6c0 f i WinRTVFS.obj
 0002:00051700       ?_Grow@?$_Dynamic_array@PAV?$ISource@H@Concurrency@@@details@Concurrency@@AAEXI@Z 1008f700 f i WinRTVFS.obj
 0002:00051850       ?_Grow_to@?$vector@PAXV?$allocator@PAX@std@@@std@@IBEII@Z 1008f850 f i WinRTVFS.obj
 0002:00051900       ?_Grow_to@?$vector@V?$shared_ptr@U?$_Task_impl@E@details@Concurrency@@@std@@V?$allocator@V?$shared_ptr@U?$_Task_impl@E@details@Concurrency@@@std@@@2@@std@@IBEII@Z 1008f900 f i WinRTVFS.obj
 0002:000519b0       ?_Handle_message@?$source_block@V?$single_link_registry@V?$ITarget@H@Concurrency@@@Concurrency@@V?$ordered_message_processor@H@2@@Concurrency@@AAEXPAV?$message@H@2@@Z 1008f9b0 f i WinRTVFS.obj
 0002:00051ae0       ?_HasCapturedContext@_ContextCallback@details@Concurrency@@QBE_NXZ 1008fae0 f i WinRTVFS.obj
 0002:00051ba0       ?_HasUserException@?$_Task_completion_event_impl@E@details@Concurrency@@QAE_NXZ 1008fba0 f i WinRTVFS.obj
 0002:00051c00       ?_HasUserException@_Task_impl_base@details@Concurrency@@QAE_NXZ 1008fc00 f i WinRTVFS.obj
 0002:00051c60       ?_Incref@_Ref_count_base@std@@QAEXXZ 1008fc60 f i WinRTVFS.obj
 0002:00051cb0       ?_Incref_nz@_Ref_count_base@std@@QAE_NXZ 1008fcb0 f i WinRTVFS.obj
 0002:00051d30       ?_Incwref@_Ref_count_base@std@@QAEXXZ 1008fd30 f i WinRTVFS.obj
 0002:00051d80       ?_Init@?$_Dynamic_array@PAV?$ISource@H@Concurrency@@@details@Concurrency@@AAEXXZ 1008fd80 f i WinRTVFS.obj
 0002:00051de0       ?_Init_atomic_counter@std@@YAXAAKK@Z 1008fde0 f i WinRTVFS.obj
 0002:00051e20       ?_Initialize@?$timer@H@Concurrency@@AAEXABHPAV?$ITarget@H@2@_NPAVScheduler@2@PAVScheduleGroup@2@@Z 1008fe20 f i WinRTVFS.obj
 0002:00051fd0       ?_Inside@?$vector@V?$shared_ptr@U?$_Task_impl@E@details@Concurrency@@@std@@V?$allocator@V?$shared_ptr@U?$_Task_impl@E@details@Concurrency@@@std@@@2@@std@@IBE_NPBV?$shared_ptr@U?$_Task_impl@E@details@Concurrency@@@2@@Z 1008ffd0 f i WinRTVFS.obj
 0002:00052050       ?_Invoke@_CancellationTokenRegistration@details@Concurrency@@AAEXXZ 10090050 f i WinRTVFS.obj
 0002:00052180       ?_Invoke_handler@?$ordered_message_processor@H@Concurrency@@AAEXJ@Z 10090180 f i WinRTVFS.obj
 0002:00052340       ?_Invoke_handler@?$ordered_message_processor@H@Concurrency@@AAEXPAV?$message@H@2@@Z 10090340 f i WinRTVFS.obj
 0002:00052460       ?_Invoke_link_source@?$ISource@H@Concurrency@@IAEXPAV?$ITarget@H@2@@Z 10090460 f i WinRTVFS.obj
 0002:000524d0       ?_Invoke_unlink_source@?$ISource@H@Concurrency@@IAEXPAV?$ITarget@H@2@@Z 100904d0 f i WinRTVFS.obj
 0002:00052540       ?_IsApartmentAware@_Task_impl_base@details@Concurrency@@QAE_NXZ 10090540 f i WinRTVFS.obj
 0002:00052580       ?_IsCanceled@_CancellationTokenState@details@Concurrency@@QBE_NXZ 10090580 f i WinRTVFS.obj
 0002:00052600       ?_IsCanceled@_Task_impl_base@details@Concurrency@@QAE_NXZ 10090600 f i WinRTVFS.obj
 0002:00052670       ?_IsCausalitySupported@details@Concurrency@@YA_NXZ 10090670 f i WinRTVFS.obj
 0002:000526a0       ?_IsCompleted@_Task_impl_base@details@Concurrency@@QAE_NXZ 100906a0 f i WinRTVFS.obj
 0002:00052710       ?_IsCreated@_Task_impl_base@details@Concurrency@@QAE_NXZ 10090710 f i WinRTVFS.obj
 0002:00052780       ?_IsCurrentOriginSTA@_ContextCallback@details@Concurrency@@CA_NXZ 10090780 f i WinRTVFS.obj
 0002:00052890       ?_IsNonBlockingThread@_Task_impl_base@details@Concurrency@@SA_NXZ 10090890 f i WinRTVFS.obj
 0002:000529e0       ?_IsPendingCancel@_Task_impl_base@details@Concurrency@@QAE_NXZ 100909e0 f i WinRTVFS.obj
 0002:00052a50       ?_IsStarted@_Task_impl_base@details@Concurrency@@QAE_NXZ 10090a50 f i WinRTVFS.obj
 0002:00052ac0       ?_IsTriggered@?$task_completion_event@E@Concurrency@@QBE_NXZ 10090ac0 f i WinRTVFS.obj
 0002:00052b50       ?_IsValid@_CancellationTokenState@details@Concurrency@@SA_NPAV123@@Z 10090b50 f i WinRTVFS.obj
 0002:00052bd0       ?_Load_acquire_4@std@@YAKPCK@Z 10090bd0 f i WinRTVFS.obj
 0002:00052c20       ?_Load_relaxed_4@std@@YAKPCK@Z 10090c20 f i WinRTVFS.obj
 0002:00052c60       ?_Load_seq_cst_4@std@@YAKPCK@Z 10090c60 f i WinRTVFS.obj
 0002:00052ca0       ?_Local@?$_Func_class@EE@std@@ABE_NXZ 10090ca0 f i WinRTVFS.obj
 0002:00052d10       ?_Local@?$_Func_class@X$$$V@std@@ABE_NXZ 10090d10 f i WinRTVFS.obj
 0002:00052d80       ?_Local@?$_Func_class@XABH@std@@ABE_NXZ 10090d80 f i WinRTVFS.obj
 0002:00052df0       ?_Local@?$_Func_class@XPAV?$message@H@Concurrency@@@std@@ABE_NXZ 10090df0 f i WinRTVFS.obj
 0002:00052e60       ?_Local@?$_Func_class@_NABH@std@@ABE_NXZ 10090e60 f i WinRTVFS.obj
 0002:00052ed0       ?_LogCancelTask@_TaskEventLogger@details@Concurrency@@QAEXXZ 10090ed0 f i WinRTVFS.obj
 0002:00052f70       ?_LogScheduleTask@_TaskEventLogger@details@Concurrency@@QAEX_N@Z 10090f70 f i WinRTVFS.obj
 0002:00053080       ?_LogTaskCompleted@_TaskEventLogger@details@Concurrency@@QAEXXZ 10091080 f i WinRTVFS.obj
 0002:00053180       ?_LogTaskExecutionCompleted@_TaskEventLogger@details@Concurrency@@QAEXXZ 10091180 f i WinRTVFS.obj
 0002:00053200       ?_LogTaskExecutionStarted@_TaskEventLogger@details@Concurrency@@QAEXXZ 10091200 f i WinRTVFS.obj
 0002:00053240       ?_LogWorkItemCompleted@_TaskEventLogger@details@Concurrency@@QAEXXZ 10091240 f i WinRTVFS.obj
 0002:00053300       ?_LogWorkItemStarted@_TaskEventLogger@details@Concurrency@@QAEXXZ 10091300 f i WinRTVFS.obj
 0002:000533a0       ?_Make@?$_Task_ptr@E@details@Concurrency@@SA?AV?$shared_ptr@U?$_Task_impl@E@details@Concurrency@@@std@@PAV_CancellationTokenState@23@Uscheduler_ptr@3@@Z 100913a0 f i WinRTVFS.obj
 0002:00053470       ?_Make@?$_Task_ptr@I@details@Concurrency@@SA?AV?$shared_ptr@U?$_Task_impl@I@details@Concurrency@@@std@@PAV_CancellationTokenState@23@Uscheduler_ptr@3@@Z 10091470 f i WinRTVFS.obj
 0002:00053540       ?_Make@?$_Task_ptr@P$AAUIBuffer@Streams@Storage@Windows@@@details@Concurrency@@SA?AV?$shared_ptr@U?$_Task_impl@P$AAUIBuffer@Streams@Storage@Windows@@@details@Concurrency@@@std@@PAV_CancellationTokenState@23@Uscheduler_ptr@3@@Z 10091540 f i WinRTVFS.obj
 0002:00053610       ?_Make@?$_Task_ptr@P$AAUIRandomAccessStream@Streams@Storage@Windows@@@details@Concurrency@@SA?AV?$shared_ptr@U?$_Task_impl@P$AAUIRandomAccessStream@Streams@Storage@Windows@@@details@Concurrency@@@std@@PAV_CancellationTokenState@23@Uscheduler_ptr@3@@Z 10091610 f i WinRTVFS.obj
 0002:000536e0       ?_Make@?$_Task_ptr@P$AAVStorageFile@Storage@Windows@@@details@Concurrency@@SA?AV?$shared_ptr@U?$_Task_impl@P$AAVStorageFile@Storage@Windows@@@details@Concurrency@@@std@@PAV_CancellationTokenState@23@Uscheduler_ptr@3@@Z 100916e0 f i WinRTVFS.obj
 0002:000537b0       ?_Make@?$_Task_ptr@P$AAVStorageFolder@Storage@Windows@@@details@Concurrency@@SA?AV?$shared_ptr@U?$_Task_impl@P$AAVStorageFolder@Storage@Windows@@@details@Concurrency@@@std@@PAV_CancellationTokenState@23@Uscheduler_ptr@3@@Z 100917b0 f i WinRTVFS.obj
 0002:00053880       ?_Make@?$_Task_ptr@_N@details@Concurrency@@SA?AV?$shared_ptr@U?$_Task_impl@_N@details@Concurrency@@@std@@PAV_CancellationTokenState@23@Uscheduler_ptr@3@@Z 10091880 f i WinRTVFS.obj
 0002:00053950       ?_MakeUnitToUnitFunc@details@Concurrency@@YA?AV?$function@$$A6AEE@Z@std@@ABV?$function@$$A6AXXZ@4@@Z 10091950 f i WinRTVFS.obj
 0002:00053a50       ?_Memory_order_upper_bound@std@@YA?AW4memory_order@1@W421@0@Z 10091a50 f i WinRTVFS.obj
 0002:00053b90       ?_Move@?$_Func_impl@U?$_Callable_obj@V<lambda_02d862f9cfc639ff7c37ca52d43e6a8c>@@$0A@@std@@V?$allocator@V?$_Func_class@X$$$V@std@@@2@X$$$V@std@@UAEPAV?$_Func_base@X$$$V@2@PAX@Z 10091b90 f i WinRTVFS.obj
 0002:00053cb0       ?_Move@?$_Func_impl@U?$_Callable_obj@V<lambda_095a938ce4c5765dcc6b67f548aeb9c7>@@$0A@@std@@V?$allocator@V?$_Func_class@X$$$V@std@@@2@X$$$V@std@@UAEPAV?$_Func_base@X$$$V@2@PAX@Z 10091cb0 f i WinRTVFS.obj
 0002:00053dd0       ?_Move@?$_Func_impl@U?$_Callable_obj@V<lambda_0b7f78ec4ced38495cec46e0d346e0b9>@@$0A@@std@@V?$allocator@V?$_Func_class@X$$$V@std@@@2@X$$$V@std@@UAEPAV?$_Func_base@X$$$V@2@PAX@Z 10091dd0 f i WinRTVFS.obj
 0002:00053ef0       ?_Move@?$_Func_impl@U?$_Callable_obj@V<lambda_0fe479da16d43edb8e9a254c493d643e>@@$0A@@std@@V?$allocator@V?$_Func_class@X$$$V@std@@@2@X$$$V@std@@UAEPAV?$_Func_base@X$$$V@2@PAX@Z 10091ef0 f i WinRTVFS.obj
 0002:00054010       ?_Move@?$_Func_impl@U?$_Callable_obj@V<lambda_1a93da980d6fe77644a4eefc4e1ad756>@@$0A@@std@@V?$allocator@V?$_Func_class@XABH@std@@@2@XABH@std@@UAEPAV?$_Func_base@XABH@2@PAX@Z 10092010 f i WinRTVFS.obj
 0002:00054130       ?_Move@?$_Func_impl@U?$_Callable_obj@V<lambda_295bc5f846209cba149a5e74d0d63a72>@@$0A@@std@@V?$allocator@V?$_Func_class@XPAV?$message@H@Concurrency@@@std@@@2@XPAV?$message@H@Concurrency@@@std@@UAEPAV?$_Func_base@XPAV?$message@H@Concurrency@@@2@PAX@Z 10092130 f i WinRTVFS.obj
 0002:00054250       ?_Move@?$_Func_impl@U?$_Callable_obj@V<lambda_364e75aa895e992ae8821732ca646aa2>@@$0A@@std@@V?$allocator@V?$_Func_class@X$$$V@std@@@2@X$$$V@std@@UAEPAV?$_Func_base@X$$$V@2@PAX@Z 10092250 f i WinRTVFS.obj
 0002:00054370       ?_Move@?$_Func_impl@U?$_Callable_obj@V<lambda_39cde079c01d1b5b9307ff255a1ccdd9>@@$0A@@std@@V?$allocator@V?$_Func_class@EE@std@@@2@EE@std@@UAEPAV?$_Func_base@EE@2@PAX@Z 10092370 f i WinRTVFS.obj
 0002:00054490       ?_Move@?$_Func_impl@U?$_Callable_obj@V<lambda_528650821c608ced6534641e311542a5>@@$0A@@std@@V?$allocator@V?$_Func_class@X$$$V@std@@@2@X$$$V@std@@UAEPAV?$_Func_base@X$$$V@2@PAX@Z 10092490 f i WinRTVFS.obj
 0002:000545b0       ?_Move@?$_Func_impl@U?$_Callable_obj@V<lambda_579ccd68d569251046038e8620afec85>@@$0A@@std@@V?$allocator@V?$_Func_class@XPAV?$message@H@Concurrency@@@std@@@2@XPAV?$message@H@Concurrency@@@std@@UAEPAV?$_Func_base@XPAV?$message@H@Concurrency@@@2@PAX@Z 100925b0 f i WinRTVFS.obj
 0002:000546d0       ?_Move@?$_Func_impl@U?$_Callable_obj@V<lambda_9fc58f08a03183e50e06176727aeb396>@@$0A@@std@@V?$allocator@V?$_Func_class@X$$$V@std@@@2@X$$$V@std@@UAEPAV?$_Func_base@X$$$V@2@PAX@Z 100926d0 f i WinRTVFS.obj
 0002:000547f0       ?_Move@?$_Func_impl@U?$_Callable_obj@V<lambda_a66b3ee15e662226a0b0b15ae647d32f>@@$0A@@std@@V?$allocator@V?$_Func_class@X$$$V@std@@@2@X$$$V@std@@UAEPAV?$_Func_base@X$$$V@2@PAX@Z 100927f0 f i WinRTVFS.obj
 0002:00054910       ?_Move@?$_Func_impl@U?$_Callable_obj@V<lambda_c1a554f2383dae03f169289aed8c4103>@@$0A@@std@@V?$allocator@V?$_Func_class@X$$$V@std@@@2@X$$$V@std@@UAEPAV?$_Func_base@X$$$V@2@PAX@Z 10092910 f i WinRTVFS.obj
 0002:00054a30       ?_Move@?$_Func_impl@U?$_Callable_obj@V<lambda_c28a53003ed51cdfe295a7d756f98c2f>@@$0A@@std@@V?$allocator@V?$_Func_class@XPAV?$message@H@Concurrency@@@std@@@2@XPAV?$message@H@Concurrency@@@std@@UAEPAV?$_Func_base@XPAV?$message@H@Concurrency@@@2@PAX@Z 10092a30 f i WinRTVFS.obj
 0002:00054b50       ?_Move@?$_Func_impl@U?$_Callable_obj@V<lambda_e7ef5f1e4e1eca0ae8efc6086cf9f417>@@$0A@@std@@V?$allocator@V?$_Func_class@X$$$V@std@@@2@X$$$V@std@@UAEPAV?$_Func_base@X$$$V@2@PAX@Z 10092b50 f i WinRTVFS.obj
 0002:00054c70       ?_Move_item@?$concurrent_queue@PAV?$message@H@Concurrency@@V?$allocator@PAV?$message@H@Concurrency@@@std@@@Concurrency@@EAEXAAU_Page@_Concurrent_queue_base_v4@details@2@IPAX@Z 10092c70 f i WinRTVFS.obj
 0002:00054d30       ?_NewMessage@?$timer@H@Concurrency@@ABEPAV?$message@H@2@XZ 10092d30 f i WinRTVFS.obj
 0002:00054e30       ?_Next_index@?$multi_link_registry@V?$ISource@H@Concurrency@@@Concurrency@@MAEXAAI@Z 10092e30 f i WinRTVFS.obj
 0002:00054ed0       ?_Next_index@?$single_link_registry@V?$ITarget@H@Concurrency@@@Concurrency@@MAEXAAI@Z 10092ed0 f i WinRTVFS.obj
 0002:00054f30       ?_None@_CancellationTokenState@details@Concurrency@@SAPAV123@XZ 10092f30 f i WinRTVFS.obj
 0002:00054f70       ?_Orphan_me@_Iterator_base12@std@@QAEXXZ 10092f70 f i WinRTVFS.obj
 0002:00055040       ?_Orphan_range@?$vector@PAXV?$allocator@PAX@std@@@std@@IBEXPAPAX0@Z 10093040 f i WinRTVFS.obj
 0002:000551d0       ?_Orphan_range@?$vector@V?$shared_ptr@U?$_Task_impl@E@details@Concurrency@@@std@@V?$allocator@V?$shared_ptr@U?$_Task_impl@E@details@Concurrency@@@std@@@2@@std@@IBEXPAV?$shared_ptr@U?$_Task_impl@E@details@Concurrency@@@2@0@Z 100931d0 f i WinRTVFS.obj
 0002:00055360       ?_Perform@?$_ContinuationTaskHandle@XXV<lambda_9fc58f08a03183e50e06176727aeb396>@@U?$integral_constant@_N$0A@@std@@U_TypeSelectorNoAsync@details@Concurrency@@@?$task@E@Concurrency@@QBEXXZ 10093360 f i WinRTVFS.obj
 0002:000553e0       ?_Perform@?$_Continuation_func_transformer@XX@Concurrency@@SA?AV?$function@$$A6AEE@Z@std@@V?$function@$$A6AXXZ@4@@Z 100933e0 f i WinRTVFS.obj
 0002:000554b0       ?_Pop_back_n@?$vector@PAXV?$allocator@PAX@std@@@std@@QAEXI@Z 100934b0 f i WinRTVFS.obj
 0002:00055550       ?_Process_incoming_message_wrapper@?$message_processor@H@Concurrency@@KAXPAX@Z 10093550 f i WinRTVFS.obj
 0002:000555c0       ?_Process_message_helper@?$ordered_message_processor@H@Concurrency@@AAEJXZ 100935c0 f i WinRTVFS.obj
 0002:000557d0       ?_Push_back@?$_Dynamic_array@PAV?$ISource@H@Concurrency@@@details@Concurrency@@QAEXABQAV?$ISource@H@3@@Z 100937d0 f i WinRTVFS.obj
 0002:000558d0       ?_Reallocate@?$vector@PAXV?$allocator@PAX@std@@@std@@IAEXI@Z 100938d0 f i WinRTVFS.obj
 0002:00055ab0       ?_Reallocate@?$vector@V?$shared_ptr@U?$_Task_impl@E@details@Concurrency@@@std@@V?$allocator@V?$shared_ptr@U?$_Task_impl@E@details@Concurrency@@@std@@@2@@std@@IAEXI@Z 10093ab0 f i WinRTVFS.obj
 0002:00055c90       ?_Reference@_RefCounter@details@Concurrency@@QAEJXZ 10093c90 f i WinRTVFS.obj
 0002:00055d30       ?_Reference@_RefCounterBase@details@Concurrency@@QAEJXZ 10093d30 f i WinRTVFS.obj
 0002:00055de0       ?_RegisterCallback@_CancellationTokenState@details@Concurrency@@QAEXPAV_CancellationTokenRegistration@23@@Z 10093de0 f i WinRTVFS.obj
 0002:00055f70       ?_RegisterCancellation@_Task_impl_base@details@Concurrency@@QAEXV?$weak_ptr@U_Task_impl_base@details@Concurrency@@@std@@@Z 10093f70 f i WinRTVFS.obj
 0002:00056180       ?_RegisterTask@?$task_completion_event@E@Concurrency@@AAEXABV?$shared_ptr@U?$_Task_impl@E@details@Concurrency@@@std@@@Z 10094180 f i WinRTVFS.obj
 0002:00056340       ?_Release@_RefCounter@details@Concurrency@@QAEJXZ 10094340 f i WinRTVFS.obj
 0002:00056400       ?_Release@_RefCounterBase@details@Concurrency@@QAEJXZ 10094400 f i WinRTVFS.obj
 0002:000564d0       ?_Remove@?$multi_link_registry@V?$ISource@H@Concurrency@@@Concurrency@@AAE_NPAV?$ISource@H@2@@Z 100944d0 f i WinRTVFS.obj
 0002:000565f0       ?_Reserve@?$vector@PAXV?$allocator@PAX@std@@@std@@IAEXI@Z 100945f0 f i WinRTVFS.obj
 0002:000566a0       ?_Reserve@?$vector@V?$shared_ptr@U?$_Task_impl@E@details@Concurrency@@@std@@V?$allocator@V?$shared_ptr@U?$_Task_impl@E@details@Concurrency@@@std@@@2@@std@@IAEXI@Z 100946a0 f i WinRTVFS.obj
 0002:00056750       ?_Reset0@?$_Ptr_base@U?$_Task_completion_event_impl@E@details@Concurrency@@@std@@QAEXPAU?$_Task_completion_event_impl@E@details@Concurrency@@PAV_Ref_count_base@2@@Z 10094750 f i WinRTVFS.obj
 0002:000567d0       ?_Reset0@?$_Ptr_base@U?$_Task_impl@E@details@Concurrency@@@std@@QAEXPAU?$_Task_impl@E@details@Concurrency@@PAV_Ref_count_base@2@@Z 100947d0 f i WinRTVFS.obj
 0002:00056850       ?_Reset0@?$_Ptr_base@U?$_Task_impl@I@details@Concurrency@@@std@@QAEXPAU?$_Task_impl@I@details@Concurrency@@PAV_Ref_count_base@2@@Z 10094850 f i WinRTVFS.obj
 0002:000568d0       ?_Reset0@?$_Ptr_base@U?$_Task_impl@P$AAUIBuffer@Streams@Storage@Windows@@@details@Concurrency@@@std@@QAEXPAU?$_Task_impl@P$AAUIBuffer@Streams@Storage@Windows@@@details@Concurrency@@PAV_Ref_count_base@2@@Z 100948d0 f i WinRTVFS.obj
 0002:00056950       ?_Reset0@?$_Ptr_base@U?$_Task_impl@P$AAUIRandomAccessStream@Streams@Storage@Windows@@@details@Concurrency@@@std@@QAEXPAU?$_Task_impl@P$AAUIRandomAccessStream@Streams@Storage@Windows@@@details@Concurrency@@PAV_Ref_count_base@2@@Z 10094950 f i WinRTVFS.obj
 0002:000569d0       ?_Reset0@?$_Ptr_base@U?$_Task_impl@P$AAVStorageFile@Storage@Windows@@@details@Concurrency@@@std@@QAEXPAU?$_Task_impl@P$AAVStorageFile@Storage@Windows@@@details@Concurrency@@PAV_Ref_count_base@2@@Z 100949d0 f i WinRTVFS.obj
 0002:00056a50       ?_Reset0@?$_Ptr_base@U?$_Task_impl@P$AAVStorageFolder@Storage@Windows@@@details@Concurrency@@@std@@QAEXPAU?$_Task_impl@P$AAVStorageFolder@Storage@Windows@@@details@Concurrency@@PAV_Ref_count_base@2@@Z 10094a50 f i WinRTVFS.obj
 0002:00056ad0       ?_Reset0@?$_Ptr_base@U?$_Task_impl@_N@details@Concurrency@@@std@@QAEXPAU?$_Task_impl@_N@details@Concurrency@@PAV_Ref_count_base@2@@Z 10094ad0 f i WinRTVFS.obj
 0002:00056b50       ?_Reset0@?$_Ptr_base@U_ExceptionHolder@details@Concurrency@@@std@@QAEXPAU_ExceptionHolder@details@Concurrency@@PAV_Ref_count_base@2@@Z 10094b50 f i WinRTVFS.obj
 0002:00056bd0       ?_Reset0@?$_Ptr_base@U_Task_impl_base@details@Concurrency@@@std@@QAEXPAU_Task_impl_base@details@Concurrency@@PAV_Ref_count_base@2@@Z 10094bd0 f i WinRTVFS.obj
 0002:00056c50       ?_Reset0@?$_Ptr_base@Uscheduler_interface@Concurrency@@@std@@QAEXPAUscheduler_interface@Concurrency@@PAV_Ref_count_base@2@@Z 10094c50 f i WinRTVFS.obj
 0002:00056cd0       ?_Reset@?$_Func_class@X$$$V@std@@IAEXABV12@@Z 10094cd0 f i WinRTVFS.obj
 0002:00056db0       ?_Reset@?$_Func_class@X$$$V@std@@IAEXXZ 10094db0 f i WinRTVFS.obj
 0002:00056e10       ?_Reset@?$_Func_class@XABH@std@@IAEXABV12@@Z 10094e10 f i WinRTVFS.obj
 0002:00056ef0       ?_Reset@?$_Func_class@XPAV?$message@H@Concurrency@@@std@@IAEXABV12@@Z 10094ef0 f i WinRTVFS.obj
 0002:00056fd0       ?_Reset@?$_Func_class@XPAV?$message@H@Concurrency@@@std@@IAEXXZ 10094fd0 f i WinRTVFS.obj
 0002:00057030       ?_Reset@?$_Ptr_base@U?$_Task_completion_event_impl@E@details@Concurrency@@@std@@QAEXPAU?$_Task_completion_event_impl@E@details@Concurrency@@PAV_Ref_count_base@2@@Z 10095030 f i WinRTVFS.obj
 0002:000570a0       ?_Reset@?$_Ptr_base@U?$_Task_impl@E@details@Concurrency@@@std@@QAEXPAU?$_Task_impl@E@details@Concurrency@@PAV_Ref_count_base@2@@Z 100950a0 f i WinRTVFS.obj
 0002:00057110       ?_Reset@?$_Ptr_base@U?$_Task_impl@I@details@Concurrency@@@std@@QAEXPAU?$_Task_impl@I@details@Concurrency@@PAV_Ref_count_base@2@@Z 10095110 f i WinRTVFS.obj
 0002:00057180       ?_Reset@?$_Ptr_base@U?$_Task_impl@P$AAUIBuffer@Streams@Storage@Windows@@@details@Concurrency@@@std@@QAEXPAU?$_Task_impl@P$AAUIBuffer@Streams@Storage@Windows@@@details@Concurrency@@PAV_Ref_count_base@2@@Z 10095180 f i WinRTVFS.obj
 0002:000571f0       ?_Reset@?$_Ptr_base@U?$_Task_impl@P$AAUIRandomAccessStream@Streams@Storage@Windows@@@details@Concurrency@@@std@@QAEXPAU?$_Task_impl@P$AAUIRandomAccessStream@Streams@Storage@Windows@@@details@Concurrency@@PAV_Ref_count_base@2@@Z 100951f0 f i WinRTVFS.obj
 0002:00057260       ?_Reset@?$_Ptr_base@U?$_Task_impl@P$AAVStorageFile@Storage@Windows@@@details@Concurrency@@@std@@QAEXPAU?$_Task_impl@P$AAVStorageFile@Storage@Windows@@@details@Concurrency@@PAV_Ref_count_base@2@@Z 10095260 f i WinRTVFS.obj
 0002:000572d0       ?_Reset@?$_Ptr_base@U?$_Task_impl@P$AAVStorageFolder@Storage@Windows@@@details@Concurrency@@@std@@QAEXPAU?$_Task_impl@P$AAVStorageFolder@Storage@Windows@@@details@Concurrency@@PAV_Ref_count_base@2@@Z 100952d0 f i WinRTVFS.obj
 0002:00057340       ?_Reset@?$_Ptr_base@U?$_Task_impl@_N@details@Concurrency@@@std@@QAEXPAU?$_Task_impl@_N@details@Concurrency@@PAV_Ref_count_base@2@@Z 10095340 f i WinRTVFS.obj
 0002:000573b0       ?_Reset@?$_Ptr_base@U_ExceptionHolder@details@Concurrency@@@std@@QAEXPAU_ExceptionHolder@details@Concurrency@@PAV_Ref_count_base@2@@Z 100953b0 f i WinRTVFS.obj
 0002:00057420       ?_Reset@?$_Ptr_base@U_Task_impl_base@details@Concurrency@@@std@@QAEXPAU_Task_impl_base@details@Concurrency@@PAV_Ref_count_base@2@@Z 10095420 f i WinRTVFS.obj
 0002:00057490       ?_Reset@?$_Ptr_base@U_Task_impl_base@details@Concurrency@@@std@@QAEXPAU_Task_impl_base@details@Concurrency@@PAV_Ref_count_base@2@_N@Z 10095490 f i WinRTVFS.obj
 0002:00057540       ?_Reset@?$_Ptr_base@Uscheduler_interface@Concurrency@@@std@@QAEXPAUscheduler_interface@Concurrency@@PAV_Ref_count_base@2@@Z 10095540 f i WinRTVFS.obj
 0002:000575b0       ?_Reset@_ContextCallback@details@Concurrency@@AAEXXZ 100955b0 f i WinRTVFS.obj
 0002:00057630       ?_Resolve@_ContextCallback@details@Concurrency@@QAEX_N@Z 10095630 f i WinRTVFS.obj
 0002:000576b0       ?_RethrowException@exception_ptr@std@@QBEXXZ 100956b0 f i WinRTVFS.obj
 0002:00057710       ?_RethrowUserException@_ExceptionHolder@details@Concurrency@@QAEXXZ 10095710 f i WinRTVFS.obj
 0002:000577e0       ?_RunAndWait@_AsyncTaskCollection@details@Concurrency@@QAE?AW4_TaskCollectionStatus@23@XZ 100957e0 f i WinRTVFS.obj
 0002:00057900       ?_RunAndWait@_TaskCollectionImpl@details@Concurrency@@QAEXXZ 10095900 f i WinRTVFS.obj
 0002:000579a0       ?_RunChoreBridge@_TaskProcHandle@details@Concurrency@@SAXPAX@Z 100959a0 f i WinRTVFS.obj
 0002:00057ab0       ?_RunContinuation@_Task_impl_base@details@Concurrency@@QAEXPAU_ContinuationTaskHandleBase@23@@Z 10095ab0 f i WinRTVFS.obj
 0002:00057d80       ?_RunTask@_TaskCollectionImpl@details@Concurrency@@SAXP6AXPAX@Z0W4_TaskInliningMode@23@@Z 10095d80 f i WinRTVFS.obj
 0002:00057ec0       ?_RunTaskContinuations@_Task_impl_base@details@Concurrency@@QAEXXZ 10095ec0 f i WinRTVFS.obj
 0002:00057f50       ?_ScheduleContinuation@_Task_impl_base@details@Concurrency@@QAEXPAU_ContinuationTaskHandleBase@23@@Z 10095f50 f i WinRTVFS.obj
 0002:00058370       ?_ScheduleContinuationTask@_Task_impl_base@details@Concurrency@@QAEXPAU_ContinuationTaskHandleBase@23@@Z 10096370 f i WinRTVFS.obj
 0002:000585b0       ?_ScheduleTask@_TaskCollectionImpl@details@Concurrency@@QAEXPAU_TaskProcHandle@23@W4_TaskInliningMode@23@@Z 100965b0 f i WinRTVFS.obj
 0002:00058750       ?_ScheduleTask@_Task_impl_base@details@Concurrency@@QAEXPAU_TaskProcHandle@23@W4_TaskInliningMode@23@@Z 10096750 f i WinRTVFS.obj
 0002:00058920       ?_ScheduleWithAutoInline@_AsyncTaskCollection@details@Concurrency@@QAE?AW4_TaskCollectionStatus@23@PAV_UnrealizedChore@23@W4_TaskInliningMode@23@@Z 10096920 f i WinRTVFS.obj
 0002:00058b40       ?_Set@?$_Func_class@EE@std@@AAEXPAV?$_Func_base@EE@2@@Z 10096b40 f i WinRTVFS.obj
 0002:00058b90       ?_Set@?$_Func_class@X$$$V@std@@AAEXPAV?$_Func_base@X$$$V@2@@Z 10096b90 f i WinRTVFS.obj
 0002:00058be0       ?_Set@?$_Func_class@XABH@std@@AAEXPAV?$_Func_base@XABH@2@@Z 10096be0 f i WinRTVFS.obj
 0002:00058c30       ?_Set@?$_Func_class@XPAV?$message@H@Concurrency@@@std@@AAEXPAV?$_Func_base@XPAV?$message@H@Concurrency@@@2@@Z 10096c30 f i WinRTVFS.obj
 0002:00058c80       ?_SetRuntimeOwnsLifetime@_UnrealizedChore@details@Concurrency@@QAEX_N@Z 10096c80 f i WinRTVFS.obj
 0002:00058cd0       ?_SetScheduled@_TaskCollectionImpl@details@Concurrency@@AAEXXZ 10096cd0 f i WinRTVFS.obj
 0002:00058d30       ?_SetTaskCreationCallstack@?$task@E@Concurrency@@QAEXABV_TaskCreationCallstack@details@2@@Z 10096d30 f i WinRTVFS.obj
 0002:00058da0       ?_SetTaskCreationCallstack@?$task@I@Concurrency@@QAEXABV_TaskCreationCallstack@details@2@@Z 10096da0 f i WinRTVFS.obj
 0002:00058e10       ?_SetTaskCreationCallstack@?$task@P$AAUIBuffer@Streams@Storage@Windows@@@Concurrency@@QAEXABV_TaskCreationCallstack@details@2@@Z 10096e10 f i WinRTVFS.obj
 0002:00058e80       ?_SetTaskCreationCallstack@?$task@P$AAUIRandomAccessStream@Streams@Storage@Windows@@@Concurrency@@QAEXABV_TaskCreationCallstack@details@2@@Z 10096e80 f i WinRTVFS.obj
 0002:00058ef0       ?_SetTaskCreationCallstack@?$task@P$AAVStorageFile@Storage@Windows@@@Concurrency@@QAEXABV_TaskCreationCallstack@details@2@@Z 10096ef0 f i WinRTVFS.obj
 0002:00058f60       ?_SetTaskCreationCallstack@?$task@P$AAVStorageFolder@Storage@Windows@@@Concurrency@@QAEXABV_TaskCreationCallstack@details@2@@Z 10096f60 f i WinRTVFS.obj
 0002:00058fd0       ?_SetTaskCreationCallstack@?$task@X@Concurrency@@QAEXABV_TaskCreationCallstack@details@2@@Z 10096fd0 f i WinRTVFS.obj
 0002:00059030       ?_SetTaskCreationCallstack@?$task@_N@Concurrency@@QAEXABV_TaskCreationCallstack@details@2@@Z 10097030 f i WinRTVFS.obj
 0002:000590a0       ?_SetTaskCreationCallstack@_Task_impl_base@details@Concurrency@@QAEXABV_TaskCreationCallstack@23@@Z 100970a0 f i WinRTVFS.obj
 0002:00059100       ?_SetUnwrappedAsyncOp@?$_Task_impl@E@details@Concurrency@@QAEXP$AAU?$IAsyncOperation@E@Foundation@Windows@@@Z 10097100 f i WinRTVFS.obj
 0002:000592f0       ?_SetUnwrappedAsyncOp@?$_Task_impl@I@details@Concurrency@@QAEXP$AAU?$IAsyncOperation@I@Foundation@Windows@@@Z 100972f0 f i WinRTVFS.obj
 0002:000594e0       ?_SetUnwrappedAsyncOp@?$_Task_impl@P$AAUIBuffer@Streams@Storage@Windows@@@details@Concurrency@@QAEXP$AAU?$IAsyncOperation@P$AAUIBuffer@Streams@Storage@Windows@@@Foundation@Windows@@@Z 100974e0 f i WinRTVFS.obj
 0002:000596d0       ?_SetUnwrappedAsyncOp@?$_Task_impl@P$AAUIRandomAccessStream@Streams@Storage@Windows@@@details@Concurrency@@QAEXP$AAU?$IAsyncOperation@P$AAUIRandomAccessStream@Streams@Storage@Windows@@@Foundation@Windows@@@Z 100976d0 f i WinRTVFS.obj
 0002:000598c0       ?_SetUnwrappedAsyncOp@?$_Task_impl@P$AAVStorageFile@Storage@Windows@@@details@Concurrency@@QAEXP$AAU?$IAsyncOperation@P$AAVStorageFile@Storage@Windows@@@Foundation@Windows@@@Z 100978c0 f i WinRTVFS.obj
 0002:00059ab0       ?_SetUnwrappedAsyncOp@?$_Task_impl@P$AAVStorageFolder@Storage@Windows@@@details@Concurrency@@QAEXP$AAU?$IAsyncOperation@P$AAVStorageFolder@Storage@Windows@@@Foundation@Windows@@@Z 10097ab0 f i WinRTVFS.obj
 0002:00059ca0       ?_SetUnwrappedAsyncOp@?$_Task_impl@_N@details@Concurrency@@QAEXP$AAU?$IAsyncOperation@_N@Foundation@Windows@@@Z 10097ca0 f i WinRTVFS.obj
 0002:00059e90       ?_ShouldInline@_StackGuard@details@Concurrency@@QBE_NW4_TaskInliningMode@23@@Z 10097e90 f i WinRTVFS.obj
 0002:00059f00       ?_Size@?$_Dynamic_array@PAV?$ISource@H@Concurrency@@@details@Concurrency@@QBEIXZ 10097f00 f i WinRTVFS.obj
 0002:00059f40       ?_Store_relaxed_4@std@@YAXPCKK@Z 10097f40 f i WinRTVFS.obj
 0002:00059f80       ?_Store_release_4@std@@YAXPCKK@Z 10097f80 f i WinRTVFS.obj
 0002:00059fc0       ?_Store_seq_cst_4@std@@YAXPCKK@Z 10097fc0 f i WinRTVFS.obj
 0002:0005a000       ?_Swap@?$_Dynamic_array@PAV?$ISource@H@Concurrency@@@details@Concurrency@@QAEXAAV123@@Z 10098000 f i WinRTVFS.obj
 0002:0005a0b0       ?_Swap@?$_Ptr_base@U?$_Task_completion_event_impl@E@details@Concurrency@@@std@@QAEXAAV12@@Z 100980b0 f i WinRTVFS.obj
 0002:0005a130       ?_Swap@?$_Ptr_base@U?$_Task_impl@E@details@Concurrency@@@std@@QAEXAAV12@@Z 10098130 f i WinRTVFS.obj
 0002:0005a1b0       ?_Swap@?$_Ptr_base@U?$_Task_impl@I@details@Concurrency@@@std@@QAEXAAV12@@Z 100981b0 f i WinRTVFS.obj
 0002:0005a230       ?_Swap@?$_Ptr_base@U?$_Task_impl@P$AAUIBuffer@Streams@Storage@Windows@@@details@Concurrency@@@std@@QAEXAAV12@@Z 10098230 f i WinRTVFS.obj
 0002:0005a2b0       ?_Swap@?$_Ptr_base@U?$_Task_impl@P$AAUIRandomAccessStream@Streams@Storage@Windows@@@details@Concurrency@@@std@@QAEXAAV12@@Z 100982b0 f i WinRTVFS.obj
 0002:0005a330       ?_Swap@?$_Ptr_base@U?$_Task_impl@P$AAVStorageFile@Storage@Windows@@@details@Concurrency@@@std@@QAEXAAV12@@Z 10098330 f i WinRTVFS.obj
 0002:0005a3b0       ?_Swap@?$_Ptr_base@U?$_Task_impl@P$AAVStorageFolder@Storage@Windows@@@details@Concurrency@@@std@@QAEXAAV12@@Z 100983b0 f i WinRTVFS.obj
 0002:0005a430       ?_Swap@?$_Ptr_base@U?$_Task_impl@_N@details@Concurrency@@@std@@QAEXAAV12@@Z 10098430 f i WinRTVFS.obj
 0002:0005a4b0       ?_Swap@?$_Ptr_base@U_ExceptionHolder@details@Concurrency@@@std@@QAEXAAV12@@Z 100984b0 f i WinRTVFS.obj
 0002:0005a530       ?_Swap@?$_Ptr_base@Uscheduler_interface@Concurrency@@@std@@QAEXAAV12@@Z 10098530 f i WinRTVFS.obj
 0002:0005a5b0       ?_Swap_alloc@?$_Vector_alloc@$0A@U?$_Vec_base_types@V?$shared_ptr@U?$_Task_impl@E@details@Concurrency@@@std@@V?$allocator@V?$shared_ptr@U?$_Task_impl@E@details@Concurrency@@@std@@@2@@std@@@std@@QAEXAAV12@@Z 100985b0 f i WinRTVFS.obj
 0002:0005a610       ?_SyncCancelAndPropagateException@?$_ContinuationTaskHandle@XXV<lambda_9fc58f08a03183e50e06176727aeb396>@@U?$integral_constant@_N$0A@@std@@U_TypeSelectorNoAsync@details@Concurrency@@@?$task@E@Concurrency@@QBEXXZ 10098610 f i WinRTVFS.obj
 0002:0005a6c0       ?_Sync_send_helper@?$ordered_message_processor@H@Concurrency@@AAEXPAV?$message@H@2@@Z 100986c0 f i WinRTVFS.obj
 0002:0005a880       ?_Target_type@?$_Func_impl@U?$_Callable_obj@V<lambda_02d862f9cfc639ff7c37ca52d43e6a8c>@@$0A@@std@@V?$allocator@V?$_Func_class@X$$$V@std@@@2@X$$$V@std@@UBEABVtype_info@@XZ 10098880 f i WinRTVFS.obj
 0002:0005a8c0       ?_Target_type@?$_Func_impl@U?$_Callable_obj@V<lambda_095a938ce4c5765dcc6b67f548aeb9c7>@@$0A@@std@@V?$allocator@V?$_Func_class@X$$$V@std@@@2@X$$$V@std@@UBEABVtype_info@@XZ 100988c0 f i WinRTVFS.obj
 0002:0005a900       ?_Target_type@?$_Func_impl@U?$_Callable_obj@V<lambda_0b7f78ec4ced38495cec46e0d346e0b9>@@$0A@@std@@V?$allocator@V?$_Func_class@X$$$V@std@@@2@X$$$V@std@@UBEABVtype_info@@XZ 10098900 f i WinRTVFS.obj
 0002:0005a940       ?_Target_type@?$_Func_impl@U?$_Callable_obj@V<lambda_0fe479da16d43edb8e9a254c493d643e>@@$0A@@std@@V?$allocator@V?$_Func_class@X$$$V@std@@@2@X$$$V@std@@UBEABVtype_info@@XZ 10098940 f i WinRTVFS.obj
 0002:0005a980       ?_Target_type@?$_Func_impl@U?$_Callable_obj@V<lambda_1a93da980d6fe77644a4eefc4e1ad756>@@$0A@@std@@V?$allocator@V?$_Func_class@XABH@std@@@2@XABH@std@@UBEABVtype_info@@XZ 10098980 f i WinRTVFS.obj
 0002:0005a9c0       ?_Target_type@?$_Func_impl@U?$_Callable_obj@V<lambda_295bc5f846209cba149a5e74d0d63a72>@@$0A@@std@@V?$allocator@V?$_Func_class@XPAV?$message@H@Concurrency@@@std@@@2@XPAV?$message@H@Concurrency@@@std@@UBEABVtype_info@@XZ 100989c0 f i WinRTVFS.obj
 0002:0005aa00       ?_Target_type@?$_Func_impl@U?$_Callable_obj@V<lambda_364e75aa895e992ae8821732ca646aa2>@@$0A@@std@@V?$allocator@V?$_Func_class@X$$$V@std@@@2@X$$$V@std@@UBEABVtype_info@@XZ 10098a00 f i WinRTVFS.obj
 0002:0005aa40       ?_Target_type@?$_Func_impl@U?$_Callable_obj@V<lambda_39cde079c01d1b5b9307ff255a1ccdd9>@@$0A@@std@@V?$allocator@V?$_Func_class@EE@std@@@2@EE@std@@UBEABVtype_info@@XZ 10098a40 f i WinRTVFS.obj
 0002:0005aa80       ?_Target_type@?$_Func_impl@U?$_Callable_obj@V<lambda_528650821c608ced6534641e311542a5>@@$0A@@std@@V?$allocator@V?$_Func_class@X$$$V@std@@@2@X$$$V@std@@UBEABVtype_info@@XZ 10098a80 f i WinRTVFS.obj
 0002:0005aac0       ?_Target_type@?$_Func_impl@U?$_Callable_obj@V<lambda_579ccd68d569251046038e8620afec85>@@$0A@@std@@V?$allocator@V?$_Func_class@XPAV?$message@H@Concurrency@@@std@@@2@XPAV?$message@H@Concurrency@@@std@@UBEABVtype_info@@XZ 10098ac0 f i WinRTVFS.obj
 0002:0005ab00       ?_Target_type@?$_Func_impl@U?$_Callable_obj@V<lambda_9fc58f08a03183e50e06176727aeb396>@@$0A@@std@@V?$allocator@V?$_Func_class@X$$$V@std@@@2@X$$$V@std@@UBEABVtype_info@@XZ 10098b00 f i WinRTVFS.obj
 0002:0005ab40       ?_Target_type@?$_Func_impl@U?$_Callable_obj@V<lambda_a66b3ee15e662226a0b0b15ae647d32f>@@$0A@@std@@V?$allocator@V?$_Func_class@X$$$V@std@@@2@X$$$V@std@@UBEABVtype_info@@XZ 10098b40 f i WinRTVFS.obj
 0002:0005ab80       ?_Target_type@?$_Func_impl@U?$_Callable_obj@V<lambda_c1a554f2383dae03f169289aed8c4103>@@$0A@@std@@V?$allocator@V?$_Func_class@X$$$V@std@@@2@X$$$V@std@@UBEABVtype_info@@XZ 10098b80 f i WinRTVFS.obj
 0002:0005abc0       ?_Target_type@?$_Func_impl@U?$_Callable_obj@V<lambda_c28a53003ed51cdfe295a7d756f98c2f>@@$0A@@std@@V?$allocator@V?$_Func_class@XPAV?$message@H@Concurrency@@@std@@@2@XPAV?$message@H@Concurrency@@@std@@UBEABVtype_info@@XZ 10098bc0 f i WinRTVFS.obj
 0002:0005ac00       ?_Target_type@?$_Func_impl@U?$_Callable_obj@V<lambda_e7ef5f1e4e1eca0ae8efc6086cf9f417>@@$0A@@std@@V?$allocator@V?$_Func_class@X$$$V@std@@@2@X$$$V@std@@UBEABVtype_info@@XZ 10098c00 f i WinRTVFS.obj
 0002:0005ac40       ?_TaskInitAsyncOp@?$task@E@Concurrency@@AAEXP$AAU?$IAsyncOperation@E@Foundation@Windows@@@Z 10098c40 f i WinRTVFS.obj
 0002:0005acc0       ?_TaskInitAsyncOp@?$task@I@Concurrency@@AAEXP$AAU?$IAsyncOperation@I@Foundation@Windows@@@Z 10098cc0 f i WinRTVFS.obj
 0002:0005ad40       ?_TaskInitAsyncOp@?$task@P$AAUIBuffer@Streams@Storage@Windows@@@Concurrency@@AAEXP$AAU?$IAsyncOperation@P$AAUIBuffer@Streams@Storage@Windows@@@Foundation@Windows@@@Z 10098d40 f i WinRTVFS.obj
 0002:0005adc0       ?_TaskInitAsyncOp@?$task@P$AAUIRandomAccessStream@Streams@Storage@Windows@@@Concurrency@@AAEXP$AAU?$IAsyncOperation@P$AAUIRandomAccessStream@Streams@Storage@Windows@@@Foundation@Windows@@@Z 10098dc0 f i WinRTVFS.obj
 0002:0005ae40       ?_TaskInitAsyncOp@?$task@P$AAVStorageFile@Storage@Windows@@@Concurrency@@AAEXP$AAU?$IAsyncOperation@P$AAVStorageFile@Storage@Windows@@@Foundation@Windows@@@Z 10098e40 f i WinRTVFS.obj
 0002:0005aec0       ?_TaskInitAsyncOp@?$task@P$AAVStorageFolder@Storage@Windows@@@Concurrency@@AAEXP$AAU?$IAsyncOperation@P$AAVStorageFolder@Storage@Windows@@@Foundation@Windows@@@Z 10098ec0 f i WinRTVFS.obj
 0002:0005af40       ?_TaskInitAsyncOp@?$task@_N@Concurrency@@AAEXP$AAU?$IAsyncOperation@_N@Foundation@Windows@@@Z 10098f40 f i WinRTVFS.obj
 0002:0005afc0       ?_TaskInitNoFunctor@?$task@E@Concurrency@@AAEXAAV?$task_completion_event@E@2@@Z 10098fc0 f i WinRTVFS.obj
 0002:0005b020       ?_TaskInitNoFunctor@?$task@P$AAUIRandomAccessStream@Streams@Storage@Windows@@@Concurrency@@AAEXP$AAU?$IAsyncOperation@P$AAUIRandomAccessStream@Streams@Storage@Windows@@@Foundation@Windows@@@Z 10099020 f i WinRTVFS.obj
 0002:0005b080       ?_TaskInitNoFunctor@?$task@P$AAVStorageFile@Storage@Windows@@@Concurrency@@AAEXP$AAU?$IAsyncOperation@P$AAVStorageFile@Storage@Windows@@@Foundation@Windows@@@Z 10099080 f i WinRTVFS.obj
 0002:0005b0e0       ?_TaskInitNoFunctor@?$task@P$AAVStorageFolder@Storage@Windows@@@Concurrency@@AAEXP$AAU?$IAsyncOperation@P$AAVStorageFolder@Storage@Windows@@@Foundation@Windows@@@Z 100990e0 f i WinRTVFS.obj
 0002:0005b140       ?_TaskInitNoFunctor@?$task@X@Concurrency@@AAEXAAV?$task_completion_event@X@2@@Z 10099140 f i WinRTVFS.obj
 0002:0005b1a0       ?_TaskInitNoFunctor@?$task@X@Concurrency@@AAEXP$AAUIAsyncAction@Foundation@Windows@@@Z 100991a0 f i WinRTVFS.obj
 0002:0005b2d0       ?_TaskInitNoFunctor@?$task@_N@Concurrency@@AAEXP$AAU?$IAsyncOperation@_N@Foundation@Windows@@@Z 100992d0 f i WinRTVFS.obj
 0002:0005b330       ?_Tidy@?$_Func_class@EE@std@@IAEXXZ 10099330 f i WinRTVFS.obj
 0002:0005b3e0       ?_Tidy@?$_Func_class@X$$$V@std@@IAEXXZ 100993e0 f i WinRTVFS.obj
 0002:0005b490       ?_Tidy@?$_Func_class@XABH@std@@IAEXXZ 10099490 f i WinRTVFS.obj
 0002:0005b540       ?_Tidy@?$_Func_class@XPAV?$message@H@Concurrency@@@std@@IAEXXZ 10099540 f i WinRTVFS.obj
 0002:0005b5f0       ?_Tidy@?$_Func_class@_NABH@std@@IAEXXZ 100995f0 f i WinRTVFS.obj
 0002:0005b6a0       ?_Tidy@?$vector@PAXV?$allocator@PAX@std@@@std@@IAEXXZ 100996a0 f i WinRTVFS.obj
 0002:0005b780       ?_Tidy@?$vector@V?$shared_ptr@U?$_Task_impl@E@details@Concurrency@@@std@@V?$allocator@V?$shared_ptr@U?$_Task_impl@E@details@Concurrency@@@std@@@2@@std@@IAEXXZ 10099780 f i WinRTVFS.obj
 0002:0005b860       ?_To_array@?$source_link_manager@V?$multi_link_registry@V?$ISource@H@Concurrency@@@Concurrency@@@Concurrency@@AAEXAAV?$_Dynamic_array@PAV?$ISource@H@Concurrency@@@details@2@@Z 10099860 f i WinRTVFS.obj
 0002:0005ba10       ?_TransitionedToStarted@?$_Task_impl@E@details@Concurrency@@QAE_NXZ 10099a10 f i WinRTVFS.obj
 0002:0005bc20       ?_Unchecked@?$_Vector_const_iterator@V?$_Vector_val@U?$_Simple_types@PAX@std@@@std@@@std@@QBEPBQAXXZ 10099c20 f i WinRTVFS.obj
 0002:0005bc60       ?_Unused_capacity@?$vector@PAXV?$allocator@PAX@std@@@std@@QBEIXZ 10099c60 f i WinRTVFS.obj
 0002:0005bcb0       ?_Unused_capacity@?$vector@V?$shared_ptr@U?$_Task_impl@E@details@Concurrency@@@std@@V?$allocator@V?$shared_ptr@U?$_Task_impl@E@details@Concurrency@@@std@@@2@@std@@QBEIXZ 10099cb0 f i WinRTVFS.obj
 0002:0005bd00       ?_Validate_compare_exchange_memory_order@std@@YAXW4memory_order@1@0@Z 10099d00 f i WinRTVFS.obj
 0002:0005c0c0       ?_Wait@_TaskCollectionImpl@details@Concurrency@@QAEXXZ 1009a0c0 f i WinRTVFS.obj
 0002:0005c130       ?_Wait@_Task_impl_base@details@Concurrency@@QAE?AW4task_group_status@3@XZ 1009a130 f i WinRTVFS.obj
 0002:0005c500       ?_Wait_on_ref@?$source_block@V?$single_link_registry@V?$ITarget@H@Concurrency@@@Concurrency@@V?$ordered_message_processor@H@2@@Concurrency@@AAEXJ@Z 1009a500 f i WinRTVFS.obj
 0002:0005c5f0       ?_Xlen@?$vector@PAXV?$allocator@PAX@std@@@std@@IBEXXZ 1009a5f0 f i WinRTVFS.obj
 0002:0005c650       ?_Xlen@?$vector@V?$shared_ptr@U?$_Task_impl@E@details@Concurrency@@@std@@V?$allocator@V?$shared_ptr@U?$_Task_impl@E@details@Concurrency@@@std@@@2@@std@@IBEXXZ 1009a650 f i WinRTVFS.obj
 0002:0005c6b0       ?__abi_AddRef@?$AsyncOperationCompletedHandler@E@Foundation@Windows@@U$AAGKXZ 1009a6b0 f i WinRTVFS.obj
 0002:0005c707       ?__abi_AddRef@?$AsyncOperationCompletedHandler@E@Foundation@Windows@@W3$AAGKXZ 1009a707 f i WinRTVFS.obj
 0002:0005c713       ?__abi_AddRef@?$AsyncOperationCompletedHandler@E@Foundation@Windows@@W7$AAGKXZ 1009a713 f i WinRTVFS.obj
 0002:0005c720       ?__abi_AddRef@?$AsyncOperationCompletedHandler@I@Foundation@Windows@@U$AAGKXZ 1009a720 f i WinRTVFS.obj
 0002:0005c777       ?__abi_AddRef@?$AsyncOperationCompletedHandler@I@Foundation@Windows@@W3$AAGKXZ 1009a777 f i WinRTVFS.obj
 0002:0005c783       ?__abi_AddRef@?$AsyncOperationCompletedHandler@I@Foundation@Windows@@W7$AAGKXZ 1009a783 f i WinRTVFS.obj
 0002:0005c790       ?__abi_AddRef@?$AsyncOperationCompletedHandler@P$AAUIBuffer@Streams@Storage@Windows@@@Foundation@Windows@@U$AAGKXZ 1009a790 f i WinRTVFS.obj
 0002:0005c7e7       ?__abi_AddRef@?$AsyncOperationCompletedHandler@P$AAUIBuffer@Streams@Storage@Windows@@@Foundation@Windows@@W3$AAGKXZ 1009a7e7 f i WinRTVFS.obj
 0002:0005c7f3       ?__abi_AddRef@?$AsyncOperationCompletedHandler@P$AAUIBuffer@Streams@Storage@Windows@@@Foundation@Windows@@W7$AAGKXZ 1009a7f3 f i WinRTVFS.obj
 0002:0005c800       ?__abi_AddRef@?$AsyncOperationCompletedHandler@P$AAUIRandomAccessStream@Streams@Storage@Windows@@@Foundation@Windows@@U$AAGKXZ 1009a800 f i WinRTVFS.obj
 0002:0005c857       ?__abi_AddRef@?$AsyncOperationCompletedHandler@P$AAUIRandomAccessStream@Streams@Storage@Windows@@@Foundation@Windows@@W3$AAGKXZ 1009a857 f i WinRTVFS.obj
 0002:0005c863       ?__abi_AddRef@?$AsyncOperationCompletedHandler@P$AAUIRandomAccessStream@Streams@Storage@Windows@@@Foundation@Windows@@W7$AAGKXZ 1009a863 f i WinRTVFS.obj
 0002:0005c870       ?__abi_AddRef@?$AsyncOperationCompletedHandler@P$AAVStorageFile@Storage@Windows@@@Foundation@Windows@@U$AAGKXZ 1009a870 f i WinRTVFS.obj
 0002:0005c8c7       ?__abi_AddRef@?$AsyncOperationCompletedHandler@P$AAVStorageFile@Storage@Windows@@@Foundation@Windows@@W3$AAGKXZ 1009a8c7 f i WinRTVFS.obj
 0002:0005c8d3       ?__abi_AddRef@?$AsyncOperationCompletedHandler@P$AAVStorageFile@Storage@Windows@@@Foundation@Windows@@W7$AAGKXZ 1009a8d3 f i WinRTVFS.obj
 0002:0005c8e0       ?__abi_AddRef@?$AsyncOperationCompletedHandler@P$AAVStorageFolder@Storage@Windows@@@Foundation@Windows@@U$AAGKXZ 1009a8e0 f i WinRTVFS.obj
 0002:0005c937       ?__abi_AddRef@?$AsyncOperationCompletedHandler@P$AAVStorageFolder@Storage@Windows@@@Foundation@Windows@@W3$AAGKXZ 1009a937 f i WinRTVFS.obj
 0002:0005c943       ?__abi_AddRef@?$AsyncOperationCompletedHandler@P$AAVStorageFolder@Storage@Windows@@@Foundation@Windows@@W7$AAGKXZ 1009a943 f i WinRTVFS.obj
 0002:0005c950       ?__abi_AddRef@?$AsyncOperationCompletedHandler@_N@Foundation@Windows@@U$AAGKXZ 1009a950 f i WinRTVFS.obj
 0002:0005c9a7       ?__abi_AddRef@?$AsyncOperationCompletedHandler@_N@Foundation@Windows@@W3$AAGKXZ 1009a9a7 f i WinRTVFS.obj
 0002:0005c9b3       ?__abi_AddRef@?$AsyncOperationCompletedHandler@_N@Foundation@Windows@@W7$AAGKXZ 1009a9b3 f i WinRTVFS.obj
 0002:0005c9c0       ?__abi_AddRef@?$AsyncOperationWithProgressCompletedHandler@II@Foundation@Windows@@U$AAGKXZ 1009a9c0 f i WinRTVFS.obj
 0002:0005ca17       ?__abi_AddRef@?$AsyncOperationWithProgressCompletedHandler@II@Foundation@Windows@@W3$AAGKXZ 1009aa17 f i WinRTVFS.obj
 0002:0005ca23       ?__abi_AddRef@?$AsyncOperationWithProgressCompletedHandler@II@Foundation@Windows@@W7$AAGKXZ 1009aa23 f i WinRTVFS.obj
 0002:0005ca30       ?__abi_AddRef@?$AsyncOperationWithProgressCompletedHandler@P$AAUIBuffer@Streams@Storage@Windows@@I@Foundation@Windows@@U$AAGKXZ 1009aa30 f i WinRTVFS.obj
 0002:0005ca87       ?__abi_AddRef@?$AsyncOperationWithProgressCompletedHandler@P$AAUIBuffer@Streams@Storage@Windows@@I@Foundation@Windows@@W3$AAGKXZ 1009aa87 f i WinRTVFS.obj
 0002:0005ca93       ?__abi_AddRef@?$AsyncOperationWithProgressCompletedHandler@P$AAUIBuffer@Streams@Storage@Windows@@I@Foundation@Windows@@W7$AAGKXZ 1009aa93 f i WinRTVFS.obj
 0002:0005caa0       ?__abi_AddRef@?QObject@Platform@@?$_IAsyncOperationWithProgressToAsyncOperationConverter@II@details@Concurrency@@U$AAGKXZ 1009aaa0 f i WinRTVFS.obj
 0002:0005caf7       ?__abi_AddRef@?QObject@Platform@@?$_IAsyncOperationWithProgressToAsyncOperationConverter@II@details@Concurrency@@W3$AAGKXZ 1009aaf7 f i WinRTVFS.obj
 0002:0005cb03       ?__abi_AddRef@?QObject@Platform@@?$_IAsyncOperationWithProgressToAsyncOperationConverter@II@details@Concurrency@@W7$AAGKXZ 1009ab03 f i WinRTVFS.obj
 0002:0005cb0f       ?__abi_AddRef@?QObject@Platform@@?$_IAsyncOperationWithProgressToAsyncOperationConverter@II@details@Concurrency@@WBA@$AAGKXZ 1009ab0f f i WinRTVFS.obj
 0002:0005cb1b       ?__abi_AddRef@?QObject@Platform@@?$_IAsyncOperationWithProgressToAsyncOperationConverter@II@details@Concurrency@@WCM@$AAGKXZ 1009ab1b f i WinRTVFS.obj
 0002:0005cb27       ?__abi_AddRef@?QObject@Platform@@?$_IAsyncOperationWithProgressToAsyncOperationConverter@II@details@Concurrency@@WDA@$AAGKXZ 1009ab27 f i WinRTVFS.obj
 0002:0005cb33       ?__abi_AddRef@?QObject@Platform@@?$_IAsyncOperationWithProgressToAsyncOperationConverter@II@details@Concurrency@@WM@$AAGKXZ 1009ab33 f i WinRTVFS.obj
 0002:0005cb40       ?__abi_AddRef@?QObject@Platform@@?$_IAsyncOperationWithProgressToAsyncOperationConverter@P$AAUIBuffer@Streams@Storage@Windows@@I@details@Concurrency@@U$AAGKXZ 1009ab40 f i WinRTVFS.obj
 0002:0005cb97       ?__abi_AddRef@?QObject@Platform@@?$_IAsyncOperationWithProgressToAsyncOperationConverter@P$AAUIBuffer@Streams@Storage@Windows@@I@details@Concurrency@@W3$AAGKXZ 1009ab97 f i WinRTVFS.obj
 0002:0005cba3       ?__abi_AddRef@?QObject@Platform@@?$_IAsyncOperationWithProgressToAsyncOperationConverter@P$AAUIBuffer@Streams@Storage@Windows@@I@details@Concurrency@@W7$AAGKXZ 1009aba3 f i WinRTVFS.obj
 0002:0005cbaf       ?__abi_AddRef@?QObject@Platform@@?$_IAsyncOperationWithProgressToAsyncOperationConverter@P$AAUIBuffer@Streams@Storage@Windows@@I@details@Concurrency@@WBA@$AAGKXZ 1009abaf f i WinRTVFS.obj
 0002:0005cbbb       ?__abi_AddRef@?QObject@Platform@@?$_IAsyncOperationWithProgressToAsyncOperationConverter@P$AAUIBuffer@Streams@Storage@Windows@@I@details@Concurrency@@WCM@$AAGKXZ 1009abbb f i WinRTVFS.obj
 0002:0005cbc7       ?__abi_AddRef@?QObject@Platform@@?$_IAsyncOperationWithProgressToAsyncOperationConverter@P$AAUIBuffer@Streams@Storage@Windows@@I@details@Concurrency@@WDA@$AAGKXZ 1009abc7 f i WinRTVFS.obj
 0002:0005cbd3       ?__abi_AddRef@?QObject@Platform@@?$_IAsyncOperationWithProgressToAsyncOperationConverter@P$AAUIBuffer@Streams@Storage@Windows@@I@details@Concurrency@@WM@$AAGKXZ 1009abd3 f i WinRTVFS.obj
 0002:0005cbe0       ?__abi_AddRef@?QObject@Platform@@_IAsyncActionToAsyncOperationConverter@details@Concurrency@@U$AAGKXZ 1009abe0 f i WinRTVFS.obj
 0002:0005cc37       ?__abi_AddRef@?QObject@Platform@@_IAsyncActionToAsyncOperationConverter@details@Concurrency@@W3$AAGKXZ 1009ac37 f i WinRTVFS.obj
 0002:0005cc43       ?__abi_AddRef@?QObject@Platform@@_IAsyncActionToAsyncOperationConverter@details@Concurrency@@W7$AAGKXZ 1009ac43 f i WinRTVFS.obj
 0002:0005cc4f       ?__abi_AddRef@?QObject@Platform@@_IAsyncActionToAsyncOperationConverter@details@Concurrency@@WBA@$AAGKXZ 1009ac4f f i WinRTVFS.obj
 0002:0005cc5b       ?__abi_AddRef@?QObject@Platform@@_IAsyncActionToAsyncOperationConverter@details@Concurrency@@WCM@$AAGKXZ 1009ac5b f i WinRTVFS.obj
 0002:0005cc67       ?__abi_AddRef@?QObject@Platform@@_IAsyncActionToAsyncOperationConverter@details@Concurrency@@WDA@$AAGKXZ 1009ac67 f i WinRTVFS.obj
 0002:0005cc73       ?__abi_AddRef@?QObject@Platform@@_IAsyncActionToAsyncOperationConverter@details@Concurrency@@WM@$AAGKXZ 1009ac73 f i WinRTVFS.obj
 0002:0005cc80       ?__abi_AddRef@AsyncActionCompletedHandler@Foundation@Windows@@U$AAGKXZ 1009ac80 f i WinRTVFS.obj
 0002:0005ccd7       ?__abi_AddRef@AsyncActionCompletedHandler@Foundation@Windows@@W3$AAGKXZ 1009acd7 f i WinRTVFS.obj
 0002:0005cce3       ?__abi_AddRef@AsyncActionCompletedHandler@Foundation@Windows@@W7$AAGKXZ 1009ace3 f i WinRTVFS.obj
 0002:0005ccf0       ?__abi_GetIids@?$AsyncOperationCompletedHandler@E@Foundation@Windows@@U$AAGJPAKPAPAVGuid@Platform@@@Z 1009acf0 f i WinRTVFS.obj
 0002:0005cdef       ?__abi_GetIids@?$AsyncOperationCompletedHandler@E@Foundation@Windows@@W3$AAGJPAKPAPAVGuid@Platform@@@Z 1009adef f i WinRTVFS.obj
 0002:0005cdfb       ?__abi_GetIids@?$AsyncOperationCompletedHandler@E@Foundation@Windows@@W7$AAGJPAKPAPAVGuid@Platform@@@Z 1009adfb f i WinRTVFS.obj
 0002:0005ce10       ?__abi_GetIids@?$AsyncOperationCompletedHandler@I@Foundation@Windows@@U$AAGJPAKPAPAVGuid@Platform@@@Z 1009ae10 f i WinRTVFS.obj
 0002:0005cf0f       ?__abi_GetIids@?$AsyncOperationCompletedHandler@I@Foundation@Windows@@W3$AAGJPAKPAPAVGuid@Platform@@@Z 1009af0f f i WinRTVFS.obj
 0002:0005cf1b       ?__abi_GetIids@?$AsyncOperationCompletedHandler@I@Foundation@Windows@@W7$AAGJPAKPAPAVGuid@Platform@@@Z 1009af1b f i WinRTVFS.obj
 0002:0005cf30       ?__abi_GetIids@?$AsyncOperationCompletedHandler@P$AAUIBuffer@Streams@Storage@Windows@@@Foundation@Windows@@U$AAGJPAKPAPAVGuid@Platform@@@Z 1009af30 f i WinRTVFS.obj
 0002:0005d02f       ?__abi_GetIids@?$AsyncOperationCompletedHandler@P$AAUIBuffer@Streams@Storage@Windows@@@Foundation@Windows@@W3$AAGJPAKPAPAVGuid@Platform@@@Z 1009b02f f i WinRTVFS.obj
 0002:0005d03b       ?__abi_GetIids@?$AsyncOperationCompletedHandler@P$AAUIBuffer@Streams@Storage@Windows@@@Foundation@Windows@@W7$AAGJPAKPAPAVGuid@Platform@@@Z 1009b03b f i WinRTVFS.obj
 0002:0005d050       ?__abi_GetIids@?$AsyncOperationCompletedHandler@P$AAUIRandomAccessStream@Streams@Storage@Windows@@@Foundation@Windows@@U$AAGJPAKPAPAVGuid@Platform@@@Z 1009b050 f i WinRTVFS.obj
 0002:0005d14f       ?__abi_GetIids@?$AsyncOperationCompletedHandler@P$AAUIRandomAccessStream@Streams@Storage@Windows@@@Foundation@Windows@@W3$AAGJPAKPAPAVGuid@Platform@@@Z 1009b14f f i WinRTVFS.obj
 0002:0005d15b       ?__abi_GetIids@?$AsyncOperationCompletedHandler@P$AAUIRandomAccessStream@Streams@Storage@Windows@@@Foundation@Windows@@W7$AAGJPAKPAPAVGuid@Platform@@@Z 1009b15b f i WinRTVFS.obj
 0002:0005d170       ?__abi_GetIids@?$AsyncOperationCompletedHandler@P$AAVStorageFile@Storage@Windows@@@Foundation@Windows@@U$AAGJPAKPAPAVGuid@Platform@@@Z 1009b170 f i WinRTVFS.obj
 0002:0005d26f       ?__abi_GetIids@?$AsyncOperationCompletedHandler@P$AAVStorageFile@Storage@Windows@@@Foundation@Windows@@W3$AAGJPAKPAPAVGuid@Platform@@@Z 1009b26f f i WinRTVFS.obj
 0002:0005d27b       ?__abi_GetIids@?$AsyncOperationCompletedHandler@P$AAVStorageFile@Storage@Windows@@@Foundation@Windows@@W7$AAGJPAKPAPAVGuid@Platform@@@Z 1009b27b f i WinRTVFS.obj
 0002:0005d290       ?__abi_GetIids@?$AsyncOperationCompletedHandler@P$AAVStorageFolder@Storage@Windows@@@Foundation@Windows@@U$AAGJPAKPAPAVGuid@Platform@@@Z 1009b290 f i WinRTVFS.obj
 0002:0005d38f       ?__abi_GetIids@?$AsyncOperationCompletedHandler@P$AAVStorageFolder@Storage@Windows@@@Foundation@Windows@@W3$AAGJPAKPAPAVGuid@Platform@@@Z 1009b38f f i WinRTVFS.obj
 0002:0005d39b       ?__abi_GetIids@?$AsyncOperationCompletedHandler@P$AAVStorageFolder@Storage@Windows@@@Foundation@Windows@@W7$AAGJPAKPAPAVGuid@Platform@@@Z 1009b39b f i WinRTVFS.obj
 0002:0005d3b0       ?__abi_GetIids@?$AsyncOperationCompletedHandler@_N@Foundation@Windows@@U$AAGJPAKPAPAVGuid@Platform@@@Z 1009b3b0 f i WinRTVFS.obj
 0002:0005d4af       ?__abi_GetIids@?$AsyncOperationCompletedHandler@_N@Foundation@Windows@@W3$AAGJPAKPAPAVGuid@Platform@@@Z 1009b4af f i WinRTVFS.obj
 0002:0005d4bb       ?__abi_GetIids@?$AsyncOperationCompletedHandler@_N@Foundation@Windows@@W7$AAGJPAKPAPAVGuid@Platform@@@Z 1009b4bb f i WinRTVFS.obj
 0002:0005d4d0       ?__abi_GetIids@?$AsyncOperationWithProgressCompletedHandler@II@Foundation@Windows@@U$AAGJPAKPAPAVGuid@Platform@@@Z 1009b4d0 f i WinRTVFS.obj
 0002:0005d5cf       ?__abi_GetIids@?$AsyncOperationWithProgressCompletedHandler@II@Foundation@Windows@@W3$AAGJPAKPAPAVGuid@Platform@@@Z 1009b5cf f i WinRTVFS.obj
 0002:0005d5db       ?__abi_GetIids@?$AsyncOperationWithProgressCompletedHandler@II@Foundation@Windows@@W7$AAGJPAKPAPAVGuid@Platform@@@Z 1009b5db f i WinRTVFS.obj
 0002:0005d5f0       ?__abi_GetIids@?$AsyncOperationWithProgressCompletedHandler@P$AAUIBuffer@Streams@Storage@Windows@@I@Foundation@Windows@@U$AAGJPAKPAPAVGuid@Platform@@@Z 1009b5f0 f i WinRTVFS.obj
 0002:0005d6ef       ?__abi_GetIids@?$AsyncOperationWithProgressCompletedHandler@P$AAUIBuffer@Streams@Storage@Windows@@I@Foundation@Windows@@W3$AAGJPAKPAPAVGuid@Platform@@@Z 1009b6ef f i WinRTVFS.obj
 0002:0005d6fb       ?__abi_GetIids@?$AsyncOperationWithProgressCompletedHandler@P$AAUIBuffer@Streams@Storage@Windows@@I@Foundation@Windows@@W7$AAGJPAKPAPAVGuid@Platform@@@Z 1009b6fb f i WinRTVFS.obj
 0002:0005d710       ?__abi_GetIids@?QObject@Platform@@?$_IAsyncOperationWithProgressToAsyncOperationConverter@II@details@Concurrency@@U$AAGJPAKPAPAVGuid@2@@Z 1009b710 f i WinRTVFS.obj
 0002:0005d84b       ?__abi_GetIids@?QObject@Platform@@?$_IAsyncOperationWithProgressToAsyncOperationConverter@II@details@Concurrency@@W3$AAGJPAKPAPAVGuid@2@@Z 1009b84b f i WinRTVFS.obj
 0002:0005d857       ?__abi_GetIids@?QObject@Platform@@?$_IAsyncOperationWithProgressToAsyncOperationConverter@II@details@Concurrency@@W7$AAGJPAKPAPAVGuid@2@@Z 1009b857 f i WinRTVFS.obj
 0002:0005d863       ?__abi_GetIids@?QObject@Platform@@?$_IAsyncOperationWithProgressToAsyncOperationConverter@II@details@Concurrency@@WBA@$AAGJPAKPAPAVGuid@2@@Z 1009b863 f i WinRTVFS.obj
 0002:0005d86f       ?__abi_GetIids@?QObject@Platform@@?$_IAsyncOperationWithProgressToAsyncOperationConverter@II@details@Concurrency@@WDA@$AAGJPAKPAPAVGuid@2@@Z 1009b86f f i WinRTVFS.obj
 0002:0005d87b       ?__abi_GetIids@?QObject@Platform@@?$_IAsyncOperationWithProgressToAsyncOperationConverter@II@details@Concurrency@@WM@$AAGJPAKPAPAVGuid@2@@Z 1009b87b f i WinRTVFS.obj
 0002:0005d890       ?__abi_GetIids@?QObject@Platform@@?$_IAsyncOperationWithProgressToAsyncOperationConverter@P$AAUIBuffer@Streams@Storage@Windows@@I@details@Concurrency@@U$AAGJPAKPAPAVGuid@2@@Z 1009b890 f i WinRTVFS.obj
 0002:0005d9cb       ?__abi_GetIids@?QObject@Platform@@?$_IAsyncOperationWithProgressToAsyncOperationConverter@P$AAUIBuffer@Streams@Storage@Windows@@I@details@Concurrency@@W3$AAGJPAKPAPAVGuid@2@@Z 1009b9cb f i WinRTVFS.obj
 0002:0005d9d7       ?__abi_GetIids@?QObject@Platform@@?$_IAsyncOperationWithProgressToAsyncOperationConverter@P$AAUIBuffer@Streams@Storage@Windows@@I@details@Concurrency@@W7$AAGJPAKPAPAVGuid@2@@Z 1009b9d7 f i WinRTVFS.obj
 0002:0005d9e3       ?__abi_GetIids@?QObject@Platform@@?$_IAsyncOperationWithProgressToAsyncOperationConverter@P$AAUIBuffer@Streams@Storage@Windows@@I@details@Concurrency@@WBA@$AAGJPAKPAPAVGuid@2@@Z 1009b9e3 f i WinRTVFS.obj
 0002:0005d9ef       ?__abi_GetIids@?QObject@Platform@@?$_IAsyncOperationWithProgressToAsyncOperationConverter@P$AAUIBuffer@Streams@Storage@Windows@@I@details@Concurrency@@WDA@$AAGJPAKPAPAVGuid@2@@Z 1009b9ef f i WinRTVFS.obj
 0002:0005d9fb       ?__abi_GetIids@?QObject@Platform@@?$_IAsyncOperationWithProgressToAsyncOperationConverter@P$AAUIBuffer@Streams@Storage@Windows@@I@details@Concurrency@@WM@$AAGJPAKPAPAVGuid@2@@Z 1009b9fb f i WinRTVFS.obj
 0002:0005da10       ?__abi_GetIids@?QObject@Platform@@_IAsyncActionToAsyncOperationConverter@details@Concurrency@@U$AAGJPAKPAPAVGuid@2@@Z 1009ba10 f i WinRTVFS.obj
 0002:0005db4b       ?__abi_GetIids@?QObject@Platform@@_IAsyncActionToAsyncOperationConverter@details@Concurrency@@W3$AAGJPAKPAPAVGuid@2@@Z 1009bb4b f i WinRTVFS.obj
 0002:0005db57       ?__abi_GetIids@?QObject@Platform@@_IAsyncActionToAsyncOperationConverter@details@Concurrency@@W7$AAGJPAKPAPAVGuid@2@@Z 1009bb57 f i WinRTVFS.obj
 0002:0005db63       ?__abi_GetIids@?QObject@Platform@@_IAsyncActionToAsyncOperationConverter@details@Concurrency@@WBA@$AAGJPAKPAPAVGuid@2@@Z 1009bb63 f i WinRTVFS.obj
 0002:0005db6f       ?__abi_GetIids@?QObject@Platform@@_IAsyncActionToAsyncOperationConverter@details@Concurrency@@WDA@$AAGJPAKPAPAVGuid@2@@Z 1009bb6f f i WinRTVFS.obj
 0002:0005db7b       ?__abi_GetIids@?QObject@Platform@@_IAsyncActionToAsyncOperationConverter@details@Concurrency@@WM@$AAGJPAKPAPAVGuid@2@@Z 1009bb7b f i WinRTVFS.obj
 0002:0005db90       ?__abi_GetIids@AsyncActionCompletedHandler@Foundation@Windows@@U$AAGJPAKPAPAVGuid@Platform@@@Z 1009bb90 f i WinRTVFS.obj
 0002:0005dc8f       ?__abi_GetIids@AsyncActionCompletedHandler@Foundation@Windows@@W3$AAGJPAKPAPAVGuid@Platform@@@Z 1009bc8f f i WinRTVFS.obj
 0002:0005dc9b       ?__abi_GetIids@AsyncActionCompletedHandler@Foundation@Windows@@W7$AAGJPAKPAPAVGuid@Platform@@@Z 1009bc9b f i WinRTVFS.obj
 0002:0005dcb0       ?__abi_GetRuntimeClassName@?$AsyncOperationCompletedHandler@E@Foundation@Windows@@U$AAGJPAPAUHSTRING__@@@Z 1009bcb0 f i WinRTVFS.obj
 0002:0005dd05       ?__abi_GetRuntimeClassName@?$AsyncOperationCompletedHandler@E@Foundation@Windows@@W3$AAGJPAPAUHSTRING__@@@Z 1009bd05 f i WinRTVFS.obj
 0002:0005dd11       ?__abi_GetRuntimeClassName@?$AsyncOperationCompletedHandler@E@Foundation@Windows@@W7$AAGJPAPAUHSTRING__@@@Z 1009bd11 f i WinRTVFS.obj
 0002:0005dd20       ?__abi_GetRuntimeClassName@?$AsyncOperationCompletedHandler@I@Foundation@Windows@@U$AAGJPAPAUHSTRING__@@@Z 1009bd20 f i WinRTVFS.obj
 0002:0005dd75       ?__abi_GetRuntimeClassName@?$AsyncOperationCompletedHandler@I@Foundation@Windows@@W3$AAGJPAPAUHSTRING__@@@Z 1009bd75 f i WinRTVFS.obj
 0002:0005dd81       ?__abi_GetRuntimeClassName@?$AsyncOperationCompletedHandler@I@Foundation@Windows@@W7$AAGJPAPAUHSTRING__@@@Z 1009bd81 f i WinRTVFS.obj
 0002:0005dd90       ?__abi_GetRuntimeClassName@?$AsyncOperationCompletedHandler@P$AAUIBuffer@Streams@Storage@Windows@@@Foundation@Windows@@U$AAGJPAPAUHSTRING__@@@Z 1009bd90 f i WinRTVFS.obj
 0002:0005dde5       ?__abi_GetRuntimeClassName@?$AsyncOperationCompletedHandler@P$AAUIBuffer@Streams@Storage@Windows@@@Foundation@Windows@@W3$AAGJPAPAUHSTRING__@@@Z 1009bde5 f i WinRTVFS.obj
 0002:0005ddf1       ?__abi_GetRuntimeClassName@?$AsyncOperationCompletedHandler@P$AAUIBuffer@Streams@Storage@Windows@@@Foundation@Windows@@W7$AAGJPAPAUHSTRING__@@@Z 1009bdf1 f i WinRTVFS.obj
 0002:0005de00       ?__abi_GetRuntimeClassName@?$AsyncOperationCompletedHandler@P$AAUIRandomAccessStream@Streams@Storage@Windows@@@Foundation@Windows@@U$AAGJPAPAUHSTRING__@@@Z 1009be00 f i WinRTVFS.obj
 0002:0005de55       ?__abi_GetRuntimeClassName@?$AsyncOperationCompletedHandler@P$AAUIRandomAccessStream@Streams@Storage@Windows@@@Foundation@Windows@@W3$AAGJPAPAUHSTRING__@@@Z 1009be55 f i WinRTVFS.obj
 0002:0005de61       ?__abi_GetRuntimeClassName@?$AsyncOperationCompletedHandler@P$AAUIRandomAccessStream@Streams@Storage@Windows@@@Foundation@Windows@@W7$AAGJPAPAUHSTRING__@@@Z 1009be61 f i WinRTVFS.obj
 0002:0005de70       ?__abi_GetRuntimeClassName@?$AsyncOperationCompletedHandler@P$AAVStorageFile@Storage@Windows@@@Foundation@Windows@@U$AAGJPAPAUHSTRING__@@@Z 1009be70 f i WinRTVFS.obj
 0002:0005dec5       ?__abi_GetRuntimeClassName@?$AsyncOperationCompletedHandler@P$AAVStorageFile@Storage@Windows@@@Foundation@Windows@@W3$AAGJPAPAUHSTRING__@@@Z 1009bec5 f i WinRTVFS.obj
 0002:0005ded1       ?__abi_GetRuntimeClassName@?$AsyncOperationCompletedHandler@P$AAVStorageFile@Storage@Windows@@@Foundation@Windows@@W7$AAGJPAPAUHSTRING__@@@Z 1009bed1 f i WinRTVFS.obj
 0002:0005dee0       ?__abi_GetRuntimeClassName@?$AsyncOperationCompletedHandler@P$AAVStorageFolder@Storage@Windows@@@Foundation@Windows@@U$AAGJPAPAUHSTRING__@@@Z 1009bee0 f i WinRTVFS.obj
 0002:0005df35       ?__abi_GetRuntimeClassName@?$AsyncOperationCompletedHandler@P$AAVStorageFolder@Storage@Windows@@@Foundation@Windows@@W3$AAGJPAPAUHSTRING__@@@Z 1009bf35 f i WinRTVFS.obj
 0002:0005df41       ?__abi_GetRuntimeClassName@?$AsyncOperationCompletedHandler@P$AAVStorageFolder@Storage@Windows@@@Foundation@Windows@@W7$AAGJPAPAUHSTRING__@@@Z 1009bf41 f i WinRTVFS.obj
 0002:0005df50       ?__abi_GetRuntimeClassName@?$AsyncOperationCompletedHandler@_N@Foundation@Windows@@U$AAGJPAPAUHSTRING__@@@Z 1009bf50 f i WinRTVFS.obj
 0002:0005dfa5       ?__abi_GetRuntimeClassName@?$AsyncOperationCompletedHandler@_N@Foundation@Windows@@W3$AAGJPAPAUHSTRING__@@@Z 1009bfa5 f i WinRTVFS.obj
 0002:0005dfb1       ?__abi_GetRuntimeClassName@?$AsyncOperationCompletedHandler@_N@Foundation@Windows@@W7$AAGJPAPAUHSTRING__@@@Z 1009bfb1 f i WinRTVFS.obj
 0002:0005dfc0       ?__abi_GetRuntimeClassName@?$AsyncOperationWithProgressCompletedHandler@II@Foundation@Windows@@U$AAGJPAPAUHSTRING__@@@Z 1009bfc0 f i WinRTVFS.obj
 0002:0005e015       ?__abi_GetRuntimeClassName@?$AsyncOperationWithProgressCompletedHandler@II@Foundation@Windows@@W3$AAGJPAPAUHSTRING__@@@Z 1009c015 f i WinRTVFS.obj
 0002:0005e021       ?__abi_GetRuntimeClassName@?$AsyncOperationWithProgressCompletedHandler@II@Foundation@Windows@@W7$AAGJPAPAUHSTRING__@@@Z 1009c021 f i WinRTVFS.obj
 0002:0005e030       ?__abi_GetRuntimeClassName@?$AsyncOperationWithProgressCompletedHandler@P$AAUIBuffer@Streams@Storage@Windows@@I@Foundation@Windows@@U$AAGJPAPAUHSTRING__@@@Z 1009c030 f i WinRTVFS.obj
 0002:0005e085       ?__abi_GetRuntimeClassName@?$AsyncOperationWithProgressCompletedHandler@P$AAUIBuffer@Streams@Storage@Windows@@I@Foundation@Windows@@W3$AAGJPAPAUHSTRING__@@@Z 1009c085 f i WinRTVFS.obj
 0002:0005e091       ?__abi_GetRuntimeClassName@?$AsyncOperationWithProgressCompletedHandler@P$AAUIBuffer@Streams@Storage@Windows@@I@Foundation@Windows@@W7$AAGJPAPAUHSTRING__@@@Z 1009c091 f i WinRTVFS.obj
 0002:0005e0a0       ?__abi_GetRuntimeClassName@?QObject@Platform@@?$_IAsyncOperationWithProgressToAsyncOperationConverter@II@details@Concurrency@@U$AAGJPAPAUHSTRING__@@@Z 1009c0a0 f i WinRTVFS.obj
 0002:0005e0f5       ?__abi_GetRuntimeClassName@?QObject@Platform@@?$_IAsyncOperationWithProgressToAsyncOperationConverter@II@details@Concurrency@@W3$AAGJPAPAUHSTRING__@@@Z 1009c0f5 f i WinRTVFS.obj
 0002:0005e101       ?__abi_GetRuntimeClassName@?QObject@Platform@@?$_IAsyncOperationWithProgressToAsyncOperationConverter@II@details@Concurrency@@W7$AAGJPAPAUHSTRING__@@@Z 1009c101 f i WinRTVFS.obj
 0002:0005e10d       ?__abi_GetRuntimeClassName@?QObject@Platform@@?$_IAsyncOperationWithProgressToAsyncOperationConverter@II@details@Concurrency@@WBA@$AAGJPAPAUHSTRING__@@@Z 1009c10d f i WinRTVFS.obj
 0002:0005e119       ?__abi_GetRuntimeClassName@?QObject@Platform@@?$_IAsyncOperationWithProgressToAsyncOperationConverter@II@details@Concurrency@@WDA@$AAGJPAPAUHSTRING__@@@Z 1009c119 f i WinRTVFS.obj
 0002:0005e125       ?__abi_GetRuntimeClassName@?QObject@Platform@@?$_IAsyncOperationWithProgressToAsyncOperationConverter@II@details@Concurrency@@WM@$AAGJPAPAUHSTRING__@@@Z 1009c125 f i WinRTVFS.obj
 0002:0005e140       ?__abi_GetRuntimeClassName@?QObject@Platform@@?$_IAsyncOperationWithProgressToAsyncOperationConverter@P$AAUIBuffer@Streams@Storage@Windows@@I@details@Concurrency@@U$AAGJPAPAUHSTRING__@@@Z 1009c140 f i WinRTVFS.obj
 0002:0005e195       ?__abi_GetRuntimeClassName@?QObject@Platform@@?$_IAsyncOperationWithProgressToAsyncOperationConverter@P$AAUIBuffer@Streams@Storage@Windows@@I@details@Concurrency@@W3$AAGJPAPAUHSTRING__@@@Z 1009c195 f i WinRTVFS.obj
 0002:0005e1a1       ?__abi_GetRuntimeClassName@?QObject@Platform@@?$_IAsyncOperationWithProgressToAsyncOperationConverter@P$AAUIBuffer@Streams@Storage@Windows@@I@details@Concurrency@@W7$AAGJPAPAUHSTRING__@@@Z 1009c1a1 f i WinRTVFS.obj
 0002:0005e1ad       ?__abi_GetRuntimeClassName@?QObject@Platform@@?$_IAsyncOperationWithProgressToAsyncOperationConverter@P$AAUIBuffer@Streams@Storage@Windows@@I@details@Concurrency@@WBA@$AAGJPAPAUHSTRING__@@@Z 1009c1ad f i WinRTVFS.obj
 0002:0005e1b9       ?__abi_GetRuntimeClassName@?QObject@Platform@@?$_IAsyncOperationWithProgressToAsyncOperationConverter@P$AAUIBuffer@Streams@Storage@Windows@@I@details@Concurrency@@WDA@$AAGJPAPAUHSTRING__@@@Z 1009c1b9 f i WinRTVFS.obj
 0002:0005e1c5       ?__abi_GetRuntimeClassName@?QObject@Platform@@?$_IAsyncOperationWithProgressToAsyncOperationConverter@P$AAUIBuffer@Streams@Storage@Windows@@I@details@Concurrency@@WM@$AAGJPAPAUHSTRING__@@@Z 1009c1c5 f i WinRTVFS.obj
 0002:0005e1e0       ?__abi_GetRuntimeClassName@?QObject@Platform@@_IAsyncActionToAsyncOperationConverter@details@Concurrency@@U$AAGJPAPAUHSTRING__@@@Z 1009c1e0 f i WinRTVFS.obj
 0002:0005e235       ?__abi_GetRuntimeClassName@?QObject@Platform@@_IAsyncActionToAsyncOperationConverter@details@Concurrency@@W3$AAGJPAPAUHSTRING__@@@Z 1009c235 f i WinRTVFS.obj
 0002:0005e241       ?__abi_GetRuntimeClassName@?QObject@Platform@@_IAsyncActionToAsyncOperationConverter@details@Concurrency@@W7$AAGJPAPAUHSTRING__@@@Z 1009c241 f i WinRTVFS.obj
 0002:0005e24d       ?__abi_GetRuntimeClassName@?QObject@Platform@@_IAsyncActionToAsyncOperationConverter@details@Concurrency@@WBA@$AAGJPAPAUHSTRING__@@@Z 1009c24d f i WinRTVFS.obj
 0002:0005e259       ?__abi_GetRuntimeClassName@?QObject@Platform@@_IAsyncActionToAsyncOperationConverter@details@Concurrency@@WDA@$AAGJPAPAUHSTRING__@@@Z 1009c259 f i WinRTVFS.obj
 0002:0005e265       ?__abi_GetRuntimeClassName@?QObject@Platform@@_IAsyncActionToAsyncOperationConverter@details@Concurrency@@WM@$AAGJPAPAUHSTRING__@@@Z 1009c265 f i WinRTVFS.obj
 0002:0005e280       ?__abi_GetRuntimeClassName@AsyncActionCompletedHandler@Foundation@Windows@@U$AAGJPAPAUHSTRING__@@@Z 1009c280 f i WinRTVFS.obj
 0002:0005e2d5       ?__abi_GetRuntimeClassName@AsyncActionCompletedHandler@Foundation@Windows@@W3$AAGJPAPAUHSTRING__@@@Z 1009c2d5 f i WinRTVFS.obj
 0002:0005e2e1       ?__abi_GetRuntimeClassName@AsyncActionCompletedHandler@Foundation@Windows@@W7$AAGJPAPAUHSTRING__@@@Z 1009c2e1 f i WinRTVFS.obj
 0002:0005e2f0       ?__abi_GetTrustLevel@?$AsyncOperationCompletedHandler@E@Foundation@Windows@@U$AAGJPAW4__abi_TrustLevel@@@Z 1009c2f0 f i WinRTVFS.obj
 0002:0005e32e       ?__abi_GetTrustLevel@?$AsyncOperationCompletedHandler@E@Foundation@Windows@@W3$AAGJPAW4__abi_TrustLevel@@@Z 1009c32e f i WinRTVFS.obj
 0002:0005e33a       ?__abi_GetTrustLevel@?$AsyncOperationCompletedHandler@E@Foundation@Windows@@W7$AAGJPAW4__abi_TrustLevel@@@Z 1009c33a f i WinRTVFS.obj
 0002:0005e350       ?__abi_GetTrustLevel@?$AsyncOperationCompletedHandler@I@Foundation@Windows@@U$AAGJPAW4__abi_TrustLevel@@@Z 1009c350 f i WinRTVFS.obj
 0002:0005e38e       ?__abi_GetTrustLevel@?$AsyncOperationCompletedHandler@I@Foundation@Windows@@W3$AAGJPAW4__abi_TrustLevel@@@Z 1009c38e f i WinRTVFS.obj
 0002:0005e39a       ?__abi_GetTrustLevel@?$AsyncOperationCompletedHandler@I@Foundation@Windows@@W7$AAGJPAW4__abi_TrustLevel@@@Z 1009c39a f i WinRTVFS.obj
 0002:0005e3b0       ?__abi_GetTrustLevel@?$AsyncOperationCompletedHandler@P$AAUIBuffer@Streams@Storage@Windows@@@Foundation@Windows@@U$AAGJPAW4__abi_TrustLevel@@@Z 1009c3b0 f i WinRTVFS.obj
 0002:0005e3ee       ?__abi_GetTrustLevel@?$AsyncOperationCompletedHandler@P$AAUIBuffer@Streams@Storage@Windows@@@Foundation@Windows@@W3$AAGJPAW4__abi_TrustLevel@@@Z 1009c3ee f i WinRTVFS.obj
 0002:0005e3fa       ?__abi_GetTrustLevel@?$AsyncOperationCompletedHandler@P$AAUIBuffer@Streams@Storage@Windows@@@Foundation@Windows@@W7$AAGJPAW4__abi_TrustLevel@@@Z 1009c3fa f i WinRTVFS.obj
 0002:0005e410       ?__abi_GetTrustLevel@?$AsyncOperationCompletedHandler@P$AAUIRandomAccessStream@Streams@Storage@Windows@@@Foundation@Windows@@U$AAGJPAW4__abi_TrustLevel@@@Z 1009c410 f i WinRTVFS.obj
 0002:0005e44e       ?__abi_GetTrustLevel@?$AsyncOperationCompletedHandler@P$AAUIRandomAccessStream@Streams@Storage@Windows@@@Foundation@Windows@@W3$AAGJPAW4__abi_TrustLevel@@@Z 1009c44e f i WinRTVFS.obj
 0002:0005e45a       ?__abi_GetTrustLevel@?$AsyncOperationCompletedHandler@P$AAUIRandomAccessStream@Streams@Storage@Windows@@@Foundation@Windows@@W7$AAGJPAW4__abi_TrustLevel@@@Z 1009c45a f i WinRTVFS.obj
 0002:0005e470       ?__abi_GetTrustLevel@?$AsyncOperationCompletedHandler@P$AAVStorageFile@Storage@Windows@@@Foundation@Windows@@U$AAGJPAW4__abi_TrustLevel@@@Z 1009c470 f i WinRTVFS.obj
 0002:0005e4ae       ?__abi_GetTrustLevel@?$AsyncOperationCompletedHandler@P$AAVStorageFile@Storage@Windows@@@Foundation@Windows@@W3$AAGJPAW4__abi_TrustLevel@@@Z 1009c4ae f i WinRTVFS.obj
 0002:0005e4ba       ?__abi_GetTrustLevel@?$AsyncOperationCompletedHandler@P$AAVStorageFile@Storage@Windows@@@Foundation@Windows@@W7$AAGJPAW4__abi_TrustLevel@@@Z 1009c4ba f i WinRTVFS.obj
 0002:0005e4d0       ?__abi_GetTrustLevel@?$AsyncOperationCompletedHandler@P$AAVStorageFolder@Storage@Windows@@@Foundation@Windows@@U$AAGJPAW4__abi_TrustLevel@@@Z 1009c4d0 f i WinRTVFS.obj
 0002:0005e50e       ?__abi_GetTrustLevel@?$AsyncOperationCompletedHandler@P$AAVStorageFolder@Storage@Windows@@@Foundation@Windows@@W3$AAGJPAW4__abi_TrustLevel@@@Z 1009c50e f i WinRTVFS.obj
 0002:0005e51a       ?__abi_GetTrustLevel@?$AsyncOperationCompletedHandler@P$AAVStorageFolder@Storage@Windows@@@Foundation@Windows@@W7$AAGJPAW4__abi_TrustLevel@@@Z 1009c51a f i WinRTVFS.obj
 0002:0005e530       ?__abi_GetTrustLevel@?$AsyncOperationCompletedHandler@_N@Foundation@Windows@@U$AAGJPAW4__abi_TrustLevel@@@Z 1009c530 f i WinRTVFS.obj
 0002:0005e56e       ?__abi_GetTrustLevel@?$AsyncOperationCompletedHandler@_N@Foundation@Windows@@W3$AAGJPAW4__abi_TrustLevel@@@Z 1009c56e f i WinRTVFS.obj
 0002:0005e57a       ?__abi_GetTrustLevel@?$AsyncOperationCompletedHandler@_N@Foundation@Windows@@W7$AAGJPAW4__abi_TrustLevel@@@Z 1009c57a f i WinRTVFS.obj
 0002:0005e590       ?__abi_GetTrustLevel@?$AsyncOperationWithProgressCompletedHandler@II@Foundation@Windows@@U$AAGJPAW4__abi_TrustLevel@@@Z 1009c590 f i WinRTVFS.obj
 0002:0005e5ce       ?__abi_GetTrustLevel@?$AsyncOperationWithProgressCompletedHandler@II@Foundation@Windows@@W3$AAGJPAW4__abi_TrustLevel@@@Z 1009c5ce f i WinRTVFS.obj
 0002:0005e5da       ?__abi_GetTrustLevel@?$AsyncOperationWithProgressCompletedHandler@II@Foundation@Windows@@W7$AAGJPAW4__abi_TrustLevel@@@Z 1009c5da f i WinRTVFS.obj
 0002:0005e5f0       ?__abi_GetTrustLevel@?$AsyncOperationWithProgressCompletedHandler@P$AAUIBuffer@Streams@Storage@Windows@@I@Foundation@Windows@@U$AAGJPAW4__abi_TrustLevel@@@Z 1009c5f0 f i WinRTVFS.obj
 0002:0005e62e       ?__abi_GetTrustLevel@?$AsyncOperationWithProgressCompletedHandler@P$AAUIBuffer@Streams@Storage@Windows@@I@Foundation@Windows@@W3$AAGJPAW4__abi_TrustLevel@@@Z 1009c62e f i WinRTVFS.obj
 0002:0005e63a       ?__abi_GetTrustLevel@?$AsyncOperationWithProgressCompletedHandler@P$AAUIBuffer@Streams@Storage@Windows@@I@Foundation@Windows@@W7$AAGJPAW4__abi_TrustLevel@@@Z 1009c63a f i WinRTVFS.obj
 0002:0005e650       ?__abi_GetTrustLevel@?QObject@Platform@@?$_IAsyncOperationWithProgressToAsyncOperationConverter@II@details@Concurrency@@U$AAGJPAW4__abi_TrustLevel@@@Z 1009c650 f i WinRTVFS.obj
 0002:0005e68e       ?__abi_GetTrustLevel@?QObject@Platform@@?$_IAsyncOperationWithProgressToAsyncOperationConverter@II@details@Concurrency@@W3$AAGJPAW4__abi_TrustLevel@@@Z 1009c68e f i WinRTVFS.obj
 0002:0005e69a       ?__abi_GetTrustLevel@?QObject@Platform@@?$_IAsyncOperationWithProgressToAsyncOperationConverter@II@details@Concurrency@@W7$AAGJPAW4__abi_TrustLevel@@@Z 1009c69a f i WinRTVFS.obj
 0002:0005e6a6       ?__abi_GetTrustLevel@?QObject@Platform@@?$_IAsyncOperationWithProgressToAsyncOperationConverter@II@details@Concurrency@@WBA@$AAGJPAW4__abi_TrustLevel@@@Z 1009c6a6 f i WinRTVFS.obj
 0002:0005e6b2       ?__abi_GetTrustLevel@?QObject@Platform@@?$_IAsyncOperationWithProgressToAsyncOperationConverter@II@details@Concurrency@@WDA@$AAGJPAW4__abi_TrustLevel@@@Z 1009c6b2 f i WinRTVFS.obj
 0002:0005e6be       ?__abi_GetTrustLevel@?QObject@Platform@@?$_IAsyncOperationWithProgressToAsyncOperationConverter@II@details@Concurrency@@WM@$AAGJPAW4__abi_TrustLevel@@@Z 1009c6be f i WinRTVFS.obj
 0002:0005e6d0       ?__abi_GetTrustLevel@?QObject@Platform@@?$_IAsyncOperationWithProgressToAsyncOperationConverter@P$AAUIBuffer@Streams@Storage@Windows@@I@details@Concurrency@@U$AAGJPAW4__abi_TrustLevel@@@Z 1009c6d0 f i WinRTVFS.obj
 0002:0005e70e       ?__abi_GetTrustLevel@?QObject@Platform@@?$_IAsyncOperationWithProgressToAsyncOperationConverter@P$AAUIBuffer@Streams@Storage@Windows@@I@details@Concurrency@@W3$AAGJPAW4__abi_TrustLevel@@@Z 1009c70e f i WinRTVFS.obj
 0002:0005e71a       ?__abi_GetTrustLevel@?QObject@Platform@@?$_IAsyncOperationWithProgressToAsyncOperationConverter@P$AAUIBuffer@Streams@Storage@Windows@@I@details@Concurrency@@W7$AAGJPAW4__abi_TrustLevel@@@Z 1009c71a f i WinRTVFS.obj
 0002:0005e726       ?__abi_GetTrustLevel@?QObject@Platform@@?$_IAsyncOperationWithProgressToAsyncOperationConverter@P$AAUIBuffer@Streams@Storage@Windows@@I@details@Concurrency@@WBA@$AAGJPAW4__abi_TrustLevel@@@Z 1009c726 f i WinRTVFS.obj
 0002:0005e732       ?__abi_GetTrustLevel@?QObject@Platform@@?$_IAsyncOperationWithProgressToAsyncOperationConverter@P$AAUIBuffer@Streams@Storage@Windows@@I@details@Concurrency@@WDA@$AAGJPAW4__abi_TrustLevel@@@Z 1009c732 f i WinRTVFS.obj
 0002:0005e73e       ?__abi_GetTrustLevel@?QObject@Platform@@?$_IAsyncOperationWithProgressToAsyncOperationConverter@P$AAUIBuffer@Streams@Storage@Windows@@I@details@Concurrency@@WM@$AAGJPAW4__abi_TrustLevel@@@Z 1009c73e f i WinRTVFS.obj
 0002:0005e750       ?__abi_GetTrustLevel@?QObject@Platform@@_IAsyncActionToAsyncOperationConverter@details@Concurrency@@U$AAGJPAW4__abi_TrustLevel@@@Z 1009c750 f i WinRTVFS.obj
 0002:0005e78e       ?__abi_GetTrustLevel@?QObject@Platform@@_IAsyncActionToAsyncOperationConverter@details@Concurrency@@W3$AAGJPAW4__abi_TrustLevel@@@Z 1009c78e f i WinRTVFS.obj
 0002:0005e79a       ?__abi_GetTrustLevel@?QObject@Platform@@_IAsyncActionToAsyncOperationConverter@details@Concurrency@@W7$AAGJPAW4__abi_TrustLevel@@@Z 1009c79a f i WinRTVFS.obj
 0002:0005e7a6       ?__abi_GetTrustLevel@?QObject@Platform@@_IAsyncActionToAsyncOperationConverter@details@Concurrency@@WBA@$AAGJPAW4__abi_TrustLevel@@@Z 1009c7a6 f i WinRTVFS.obj
 0002:0005e7b2       ?__abi_GetTrustLevel@?QObject@Platform@@_IAsyncActionToAsyncOperationConverter@details@Concurrency@@WDA@$AAGJPAW4__abi_TrustLevel@@@Z 1009c7b2 f i WinRTVFS.obj
 0002:0005e7be       ?__abi_GetTrustLevel@?QObject@Platform@@_IAsyncActionToAsyncOperationConverter@details@Concurrency@@WM@$AAGJPAW4__abi_TrustLevel@@@Z 1009c7be f i WinRTVFS.obj
 0002:0005e7d0       ?__abi_GetTrustLevel@AsyncActionCompletedHandler@Foundation@Windows@@U$AAGJPAW4__abi_TrustLevel@@@Z 1009c7d0 f i WinRTVFS.obj
 0002:0005e80e       ?__abi_GetTrustLevel@AsyncActionCompletedHandler@Foundation@Windows@@W3$AAGJPAW4__abi_TrustLevel@@@Z 1009c80e f i WinRTVFS.obj
 0002:0005e81a       ?__abi_GetTrustLevel@AsyncActionCompletedHandler@Foundation@Windows@@W7$AAGJPAW4__abi_TrustLevel@@@Z 1009c81a f i WinRTVFS.obj
 0002:0005e830       ?__abi_Platform_Details_IWeakReferenceSource____abi_GetWeakReference@?QIWeakReferenceSource@Details@Platform@@?$_IAsyncOperationWithProgressToAsyncOperationConverter@II@details@Concurrency@@U$AAGJPAP$AAUIWeakReference@23@@Z 1009c830 f i WinRTVFS.obj
 0002:0005e941       ?__abi_Platform_Details_IWeakReferenceSource____abi_GetWeakReference@?QIWeakReferenceSource@Details@Platform@@?$_IAsyncOperationWithProgressToAsyncOperationConverter@II@details@Concurrency@@WCM@$AAGJPAP$AAUIWeakReference@23@@Z 1009c941 f i WinRTVFS.obj
 0002:0005e950       ?__abi_Platform_Details_IWeakReferenceSource____abi_GetWeakReference@?QIWeakReferenceSource@Details@Platform@@?$_IAsyncOperationWithProgressToAsyncOperationConverter@P$AAUIBuffer@Streams@Storage@Windows@@I@details@Concurrency@@U$AAGJPAP$AAUIWeakReference@23@@Z 1009c950 f i WinRTVFS.obj
 0002:0005ea61       ?__abi_Platform_Details_IWeakReferenceSource____abi_GetWeakReference@?QIWeakReferenceSource@Details@Platform@@?$_IAsyncOperationWithProgressToAsyncOperationConverter@P$AAUIBuffer@Streams@Storage@Windows@@I@details@Concurrency@@WCM@$AAGJPAP$AAUIWeakReference@23@@Z 1009ca61 f i WinRTVFS.obj
 0002:0005ea70       ?__abi_Platform_Details_IWeakReferenceSource____abi_GetWeakReference@?QIWeakReferenceSource@Details@Platform@@_IAsyncActionToAsyncOperationConverter@details@Concurrency@@U$AAGJPAP$AAUIWeakReference@23@@Z 1009ca70 f i WinRTVFS.obj
 0002:0005eb81       ?__abi_Platform_Details_IWeakReferenceSource____abi_GetWeakReference@?QIWeakReferenceSource@Details@Platform@@_IAsyncActionToAsyncOperationConverter@details@Concurrency@@WCM@$AAGJPAP$AAUIWeakReference@23@@Z 1009cb81 f i WinRTVFS.obj
 0002:0005eb90       ?__abi_QueryInterface@?$AsyncOperationCompletedHandler@E@Foundation@Windows@@U$AAGJAAVGuid@Platform@@PAPAX@Z 1009cb90 f i WinRTVFS.obj
 0002:0005ece6       ?__abi_QueryInterface@?$AsyncOperationCompletedHandler@E@Foundation@Windows@@W3$AAGJAAVGuid@Platform@@PAPAX@Z 1009cce6 f i WinRTVFS.obj
 0002:0005ecf2       ?__abi_QueryInterface@?$AsyncOperationCompletedHandler@E@Foundation@Windows@@W7$AAGJAAVGuid@Platform@@PAPAX@Z 1009ccf2 f i WinRTVFS.obj
 0002:0005ed00       ?__abi_QueryInterface@?$AsyncOperationCompletedHandler@I@Foundation@Windows@@U$AAGJAAVGuid@Platform@@PAPAX@Z 1009cd00 f i WinRTVFS.obj
 0002:0005ee56       ?__abi_QueryInterface@?$AsyncOperationCompletedHandler@I@Foundation@Windows@@W3$AAGJAAVGuid@Platform@@PAPAX@Z 1009ce56 f i WinRTVFS.obj
 0002:0005ee62       ?__abi_QueryInterface@?$AsyncOperationCompletedHandler@I@Foundation@Windows@@W7$AAGJAAVGuid@Platform@@PAPAX@Z 1009ce62 f i WinRTVFS.obj
 0002:0005ee70       ?__abi_QueryInterface@?$AsyncOperationCompletedHandler@P$AAUIBuffer@Streams@Storage@Windows@@@Foundation@Windows@@U$AAGJAAVGuid@Platform@@PAPAX@Z 1009ce70 f i WinRTVFS.obj
 0002:0005efc6       ?__abi_QueryInterface@?$AsyncOperationCompletedHandler@P$AAUIBuffer@Streams@Storage@Windows@@@Foundation@Windows@@W3$AAGJAAVGuid@Platform@@PAPAX@Z 1009cfc6 f i WinRTVFS.obj
 0002:0005efd2       ?__abi_QueryInterface@?$AsyncOperationCompletedHandler@P$AAUIBuffer@Streams@Storage@Windows@@@Foundation@Windows@@W7$AAGJAAVGuid@Platform@@PAPAX@Z 1009cfd2 f i WinRTVFS.obj
 0002:0005efe0       ?__abi_QueryInterface@?$AsyncOperationCompletedHandler@P$AAUIRandomAccessStream@Streams@Storage@Windows@@@Foundation@Windows@@U$AAGJAAVGuid@Platform@@PAPAX@Z 1009cfe0 f i WinRTVFS.obj
 0002:0005f136       ?__abi_QueryInterface@?$AsyncOperationCompletedHandler@P$AAUIRandomAccessStream@Streams@Storage@Windows@@@Foundation@Windows@@W3$AAGJAAVGuid@Platform@@PAPAX@Z 1009d136 f i WinRTVFS.obj
 0002:0005f142       ?__abi_QueryInterface@?$AsyncOperationCompletedHandler@P$AAUIRandomAccessStream@Streams@Storage@Windows@@@Foundation@Windows@@W7$AAGJAAVGuid@Platform@@PAPAX@Z 1009d142 f i WinRTVFS.obj
 0002:0005f150       ?__abi_QueryInterface@?$AsyncOperationCompletedHandler@P$AAVStorageFile@Storage@Windows@@@Foundation@Windows@@U$AAGJAAVGuid@Platform@@PAPAX@Z 1009d150 f i WinRTVFS.obj
 0002:0005f2a6       ?__abi_QueryInterface@?$AsyncOperationCompletedHandler@P$AAVStorageFile@Storage@Windows@@@Foundation@Windows@@W3$AAGJAAVGuid@Platform@@PAPAX@Z 1009d2a6 f i WinRTVFS.obj
 0002:0005f2b2       ?__abi_QueryInterface@?$AsyncOperationCompletedHandler@P$AAVStorageFile@Storage@Windows@@@Foundation@Windows@@W7$AAGJAAVGuid@Platform@@PAPAX@Z 1009d2b2 f i WinRTVFS.obj
 0002:0005f2c0       ?__abi_QueryInterface@?$AsyncOperationCompletedHandler@P$AAVStorageFolder@Storage@Windows@@@Foundation@Windows@@U$AAGJAAVGuid@Platform@@PAPAX@Z 1009d2c0 f i WinRTVFS.obj
 0002:0005f416       ?__abi_QueryInterface@?$AsyncOperationCompletedHandler@P$AAVStorageFolder@Storage@Windows@@@Foundation@Windows@@W3$AAGJAAVGuid@Platform@@PAPAX@Z 1009d416 f i WinRTVFS.obj
 0002:0005f422       ?__abi_QueryInterface@?$AsyncOperationCompletedHandler@P$AAVStorageFolder@Storage@Windows@@@Foundation@Windows@@W7$AAGJAAVGuid@Platform@@PAPAX@Z 1009d422 f i WinRTVFS.obj
 0002:0005f430       ?__abi_QueryInterface@?$AsyncOperationCompletedHandler@_N@Foundation@Windows@@U$AAGJAAVGuid@Platform@@PAPAX@Z 1009d430 f i WinRTVFS.obj
 0002:0005f586       ?__abi_QueryInterface@?$AsyncOperationCompletedHandler@_N@Foundation@Windows@@W3$AAGJAAVGuid@Platform@@PAPAX@Z 1009d586 f i WinRTVFS.obj
 0002:0005f592       ?__abi_QueryInterface@?$AsyncOperationCompletedHandler@_N@Foundation@Windows@@W7$AAGJAAVGuid@Platform@@PAPAX@Z 1009d592 f i WinRTVFS.obj
 0002:0005f5a0       ?__abi_QueryInterface@?$AsyncOperationWithProgressCompletedHandler@II@Foundation@Windows@@U$AAGJAAVGuid@Platform@@PAPAX@Z 1009d5a0 f i WinRTVFS.obj
 0002:0005f6f6       ?__abi_QueryInterface@?$AsyncOperationWithProgressCompletedHandler@II@Foundation@Windows@@W3$AAGJAAVGuid@Platform@@PAPAX@Z 1009d6f6 f i WinRTVFS.obj
 0002:0005f702       ?__abi_QueryInterface@?$AsyncOperationWithProgressCompletedHandler@II@Foundation@Windows@@W7$AAGJAAVGuid@Platform@@PAPAX@Z 1009d702 f i WinRTVFS.obj
 0002:0005f710       ?__abi_QueryInterface@?$AsyncOperationWithProgressCompletedHandler@P$AAUIBuffer@Streams@Storage@Windows@@I@Foundation@Windows@@U$AAGJAAVGuid@Platform@@PAPAX@Z 1009d710 f i WinRTVFS.obj
 0002:0005f866       ?__abi_QueryInterface@?$AsyncOperationWithProgressCompletedHandler@P$AAUIBuffer@Streams@Storage@Windows@@I@Foundation@Windows@@W3$AAGJAAVGuid@Platform@@PAPAX@Z 1009d866 f i WinRTVFS.obj
 0002:0005f872       ?__abi_QueryInterface@?$AsyncOperationWithProgressCompletedHandler@P$AAUIBuffer@Streams@Storage@Windows@@I@Foundation@Windows@@W7$AAGJAAVGuid@Platform@@PAPAX@Z 1009d872 f i WinRTVFS.obj
 0002:0005f880       ?__abi_QueryInterface@?QObject@Platform@@?$_IAsyncOperationWithProgressToAsyncOperationConverter@II@details@Concurrency@@U$AAGJAAVGuid@2@PAPAX@Z 1009d880 f i WinRTVFS.obj
 0002:0005fb73       ?__abi_QueryInterface@?QObject@Platform@@?$_IAsyncOperationWithProgressToAsyncOperationConverter@II@details@Concurrency@@W3$AAGJAAVGuid@2@PAPAX@Z 1009db73 f i WinRTVFS.obj
 0002:0005fb7f       ?__abi_QueryInterface@?QObject@Platform@@?$_IAsyncOperationWithProgressToAsyncOperationConverter@II@details@Concurrency@@W7$AAGJAAVGuid@2@PAPAX@Z 1009db7f f i WinRTVFS.obj
 0002:0005fb8b       ?__abi_QueryInterface@?QObject@Platform@@?$_IAsyncOperationWithProgressToAsyncOperationConverter@II@details@Concurrency@@WBA@$AAGJAAVGuid@2@PAPAX@Z 1009db8b f i WinRTVFS.obj
 0002:0005fb97       ?__abi_QueryInterface@?QObject@Platform@@?$_IAsyncOperationWithProgressToAsyncOperationConverter@II@details@Concurrency@@WCM@$AAGJAAVGuid@2@PAPAX@Z 1009db97 f i WinRTVFS.obj
 0002:0005fba3       ?__abi_QueryInterface@?QObject@Platform@@?$_IAsyncOperationWithProgressToAsyncOperationConverter@II@details@Concurrency@@WDA@$AAGJAAVGuid@2@PAPAX@Z 1009dba3 f i WinRTVFS.obj
 0002:0005fbaf       ?__abi_QueryInterface@?QObject@Platform@@?$_IAsyncOperationWithProgressToAsyncOperationConverter@II@details@Concurrency@@WM@$AAGJAAVGuid@2@PAPAX@Z 1009dbaf f i WinRTVFS.obj
 0002:0005fbc0       ?__abi_QueryInterface@?QObject@Platform@@?$_IAsyncOperationWithProgressToAsyncOperationConverter@P$AAUIBuffer@Streams@Storage@Windows@@I@details@Concurrency@@U$AAGJAAVGuid@2@PAPAX@Z 1009dbc0 f i WinRTVFS.obj
 0002:0005feb3       ?__abi_QueryInterface@?QObject@Platform@@?$_IAsyncOperationWithProgressToAsyncOperationConverter@P$AAUIBuffer@Streams@Storage@Windows@@I@details@Concurrency@@W3$AAGJAAVGuid@2@PAPAX@Z 1009deb3 f i WinRTVFS.obj
 0002:0005febf       ?__abi_QueryInterface@?QObject@Platform@@?$_IAsyncOperationWithProgressToAsyncOperationConverter@P$AAUIBuffer@Streams@Storage@Windows@@I@details@Concurrency@@W7$AAGJAAVGuid@2@PAPAX@Z 1009debf f i WinRTVFS.obj
 0002:0005fecb       ?__abi_QueryInterface@?QObject@Platform@@?$_IAsyncOperationWithProgressToAsyncOperationConverter@P$AAUIBuffer@Streams@Storage@Windows@@I@details@Concurrency@@WBA@$AAGJAAVGuid@2@PAPAX@Z 1009decb f i WinRTVFS.obj
 0002:0005fed7       ?__abi_QueryInterface@?QObject@Platform@@?$_IAsyncOperationWithProgressToAsyncOperationConverter@P$AAUIBuffer@Streams@Storage@Windows@@I@details@Concurrency@@WCM@$AAGJAAVGuid@2@PAPAX@Z 1009ded7 f i WinRTVFS.obj
 0002:0005fee3       ?__abi_QueryInterface@?QObject@Platform@@?$_IAsyncOperationWithProgressToAsyncOperationConverter@P$AAUIBuffer@Streams@Storage@Windows@@I@details@Concurrency@@WDA@$AAGJAAVGuid@2@PAPAX@Z 1009dee3 f i WinRTVFS.obj
 0002:0005feef       ?__abi_QueryInterface@?QObject@Platform@@?$_IAsyncOperationWithProgressToAsyncOperationConverter@P$AAUIBuffer@Streams@Storage@Windows@@I@details@Concurrency@@WM@$AAGJAAVGuid@2@PAPAX@Z 1009deef f i WinRTVFS.obj
 0002:0005ff00       ?__abi_QueryInterface@?QObject@Platform@@_IAsyncActionToAsyncOperationConverter@details@Concurrency@@U$AAGJAAVGuid@2@PAPAX@Z 1009df00 f i WinRTVFS.obj
 0002:000601f3       ?__abi_QueryInterface@?QObject@Platform@@_IAsyncActionToAsyncOperationConverter@details@Concurrency@@W3$AAGJAAVGuid@2@PAPAX@Z 1009e1f3 f i WinRTVFS.obj
 0002:000601ff       ?__abi_QueryInterface@?QObject@Platform@@_IAsyncActionToAsyncOperationConverter@details@Concurrency@@W7$AAGJAAVGuid@2@PAPAX@Z 1009e1ff f i WinRTVFS.obj
 0002:0006020b       ?__abi_QueryInterface@?QObject@Platform@@_IAsyncActionToAsyncOperationConverter@details@Concurrency@@WBA@$AAGJAAVGuid@2@PAPAX@Z 1009e20b f i WinRTVFS.obj
 0002:00060217       ?__abi_QueryInterface@?QObject@Platform@@_IAsyncActionToAsyncOperationConverter@details@Concurrency@@WCM@$AAGJAAVGuid@2@PAPAX@Z 1009e217 f i WinRTVFS.obj
 0002:00060223       ?__abi_QueryInterface@?QObject@Platform@@_IAsyncActionToAsyncOperationConverter@details@Concurrency@@WDA@$AAGJAAVGuid@2@PAPAX@Z 1009e223 f i WinRTVFS.obj
 0002:0006022f       ?__abi_QueryInterface@?QObject@Platform@@_IAsyncActionToAsyncOperationConverter@details@Concurrency@@WM@$AAGJAAVGuid@2@PAPAX@Z 1009e22f f i WinRTVFS.obj
 0002:00060240       ?__abi_QueryInterface@AsyncActionCompletedHandler@Foundation@Windows@@U$AAGJAAVGuid@Platform@@PAPAX@Z 1009e240 f i WinRTVFS.obj
 0002:00060396       ?__abi_QueryInterface@AsyncActionCompletedHandler@Foundation@Windows@@W3$AAGJAAVGuid@Platform@@PAPAX@Z 1009e396 f i WinRTVFS.obj
 0002:000603a2       ?__abi_QueryInterface@AsyncActionCompletedHandler@Foundation@Windows@@W7$AAGJAAVGuid@Platform@@PAPAX@Z 1009e3a2 f i WinRTVFS.obj
 0002:000603b0       ?__abi_Release@?$AsyncOperationCompletedHandler@E@Foundation@Windows@@U$AAGKXZ 1009e3b0 f i WinRTVFS.obj
 0002:0006042d       ?__abi_Release@?$AsyncOperationCompletedHandler@E@Foundation@Windows@@W3$AAGKXZ 1009e42d f i WinRTVFS.obj
 0002:00060439       ?__abi_Release@?$AsyncOperationCompletedHandler@E@Foundation@Windows@@W7$AAGKXZ 1009e439 f i WinRTVFS.obj
 0002:00060450       ?__abi_Release@?$AsyncOperationCompletedHandler@I@Foundation@Windows@@U$AAGKXZ 1009e450 f i WinRTVFS.obj
 0002:000604cd       ?__abi_Release@?$AsyncOperationCompletedHandler@I@Foundation@Windows@@W3$AAGKXZ 1009e4cd f i WinRTVFS.obj
 0002:000604d9       ?__abi_Release@?$AsyncOperationCompletedHandler@I@Foundation@Windows@@W7$AAGKXZ 1009e4d9 f i WinRTVFS.obj
 0002:000604f0       ?__abi_Release@?$AsyncOperationCompletedHandler@P$AAUIBuffer@Streams@Storage@Windows@@@Foundation@Windows@@U$AAGKXZ 1009e4f0 f i WinRTVFS.obj
 0002:0006056d       ?__abi_Release@?$AsyncOperationCompletedHandler@P$AAUIBuffer@Streams@Storage@Windows@@@Foundation@Windows@@W3$AAGKXZ 1009e56d f i WinRTVFS.obj
 0002:00060579       ?__abi_Release@?$AsyncOperationCompletedHandler@P$AAUIBuffer@Streams@Storage@Windows@@@Foundation@Windows@@W7$AAGKXZ 1009e579 f i WinRTVFS.obj
 0002:00060590       ?__abi_Release@?$AsyncOperationCompletedHandler@P$AAUIRandomAccessStream@Streams@Storage@Windows@@@Foundation@Windows@@U$AAGKXZ 1009e590 f i WinRTVFS.obj
 0002:0006060d       ?__abi_Release@?$AsyncOperationCompletedHandler@P$AAUIRandomAccessStream@Streams@Storage@Windows@@@Foundation@Windows@@W3$AAGKXZ 1009e60d f i WinRTVFS.obj
 0002:00060619       ?__abi_Release@?$AsyncOperationCompletedHandler@P$AAUIRandomAccessStream@Streams@Storage@Windows@@@Foundation@Windows@@W7$AAGKXZ 1009e619 f i WinRTVFS.obj
 0002:00060630       ?__abi_Release@?$AsyncOperationCompletedHandler@P$AAVStorageFile@Storage@Windows@@@Foundation@Windows@@U$AAGKXZ 1009e630 f i WinRTVFS.obj
 0002:000606ad       ?__abi_Release@?$AsyncOperationCompletedHandler@P$AAVStorageFile@Storage@Windows@@@Foundation@Windows@@W3$AAGKXZ 1009e6ad f i WinRTVFS.obj
 0002:000606b9       ?__abi_Release@?$AsyncOperationCompletedHandler@P$AAVStorageFile@Storage@Windows@@@Foundation@Windows@@W7$AAGKXZ 1009e6b9 f i WinRTVFS.obj
 0002:000606d0       ?__abi_Release@?$AsyncOperationCompletedHandler@P$AAVStorageFolder@Storage@Windows@@@Foundation@Windows@@U$AAGKXZ 1009e6d0 f i WinRTVFS.obj
 0002:0006074d       ?__abi_Release@?$AsyncOperationCompletedHandler@P$AAVStorageFolder@Storage@Windows@@@Foundation@Windows@@W3$AAGKXZ 1009e74d f i WinRTVFS.obj
 0002:00060759       ?__abi_Release@?$AsyncOperationCompletedHandler@P$AAVStorageFolder@Storage@Windows@@@Foundation@Windows@@W7$AAGKXZ 1009e759 f i WinRTVFS.obj
 0002:00060770       ?__abi_Release@?$AsyncOperationCompletedHandler@_N@Foundation@Windows@@U$AAGKXZ 1009e770 f i WinRTVFS.obj
 0002:000607ed       ?__abi_Release@?$AsyncOperationCompletedHandler@_N@Foundation@Windows@@W3$AAGKXZ 1009e7ed f i WinRTVFS.obj
 0002:000607f9       ?__abi_Release@?$AsyncOperationCompletedHandler@_N@Foundation@Windows@@W7$AAGKXZ 1009e7f9 f i WinRTVFS.obj
 0002:00060810       ?__abi_Release@?$AsyncOperationWithProgressCompletedHandler@II@Foundation@Windows@@U$AAGKXZ 1009e810 f i WinRTVFS.obj
 0002:0006088d       ?__abi_Release@?$AsyncOperationWithProgressCompletedHandler@II@Foundation@Windows@@W3$AAGKXZ 1009e88d f i WinRTVFS.obj
 0002:00060899       ?__abi_Release@?$AsyncOperationWithProgressCompletedHandler@II@Foundation@Windows@@W7$AAGKXZ 1009e899 f i WinRTVFS.obj
 0002:000608b0       ?__abi_Release@?$AsyncOperationWithProgressCompletedHandler@P$AAUIBuffer@Streams@Storage@Windows@@I@Foundation@Windows@@U$AAGKXZ 1009e8b0 f i WinRTVFS.obj
 0002:0006092d       ?__abi_Release@?$AsyncOperationWithProgressCompletedHandler@P$AAUIBuffer@Streams@Storage@Windows@@I@Foundation@Windows@@W3$AAGKXZ 1009e92d f i WinRTVFS.obj
 0002:00060939       ?__abi_Release@?$AsyncOperationWithProgressCompletedHandler@P$AAUIBuffer@Streams@Storage@Windows@@I@Foundation@Windows@@W7$AAGKXZ 1009e939 f i WinRTVFS.obj
 0002:00060950       ?__abi_Release@?QObject@Platform@@?$_IAsyncOperationWithProgressToAsyncOperationConverter@II@details@Concurrency@@U$AAGKXZ 1009e950 f i WinRTVFS.obj
 0002:000609da       ?__abi_Release@?QObject@Platform@@?$_IAsyncOperationWithProgressToAsyncOperationConverter@II@details@Concurrency@@W3$AAGKXZ 1009e9da f i WinRTVFS.obj
 0002:000609e6       ?__abi_Release@?QObject@Platform@@?$_IAsyncOperationWithProgressToAsyncOperationConverter@II@details@Concurrency@@W7$AAGKXZ 1009e9e6 f i WinRTVFS.obj
 0002:000609f2       ?__abi_Release@?QObject@Platform@@?$_IAsyncOperationWithProgressToAsyncOperationConverter@II@details@Concurrency@@WBA@$AAGKXZ 1009e9f2 f i WinRTVFS.obj
 0002:000609fe       ?__abi_Release@?QObject@Platform@@?$_IAsyncOperationWithProgressToAsyncOperationConverter@II@details@Concurrency@@WCM@$AAGKXZ 1009e9fe f i WinRTVFS.obj
 0002:00060a0a       ?__abi_Release@?QObject@Platform@@?$_IAsyncOperationWithProgressToAsyncOperationConverter@II@details@Concurrency@@WDA@$AAGKXZ 1009ea0a f i WinRTVFS.obj
 0002:00060a16       ?__abi_Release@?QObject@Platform@@?$_IAsyncOperationWithProgressToAsyncOperationConverter@II@details@Concurrency@@WM@$AAGKXZ 1009ea16 f i WinRTVFS.obj
 0002:00060a30       ?__abi_Release@?QObject@Platform@@?$_IAsyncOperationWithProgressToAsyncOperationConverter@P$AAUIBuffer@Streams@Storage@Windows@@I@details@Concurrency@@U$AAGKXZ 1009ea30 f i WinRTVFS.obj
 0002:00060aba       ?__abi_Release@?QObject@Platform@@?$_IAsyncOperationWithProgressToAsyncOperationConverter@P$AAUIBuffer@Streams@Storage@Windows@@I@details@Concurrency@@W3$AAGKXZ 1009eaba f i WinRTVFS.obj
 0002:00060ac6       ?__abi_Release@?QObject@Platform@@?$_IAsyncOperationWithProgressToAsyncOperationConverter@P$AAUIBuffer@Streams@Storage@Windows@@I@details@Concurrency@@W7$AAGKXZ 1009eac6 f i WinRTVFS.obj
 0002:00060ad2       ?__abi_Release@?QObject@Platform@@?$_IAsyncOperationWithProgressToAsyncOperationConverter@P$AAUIBuffer@Streams@Storage@Windows@@I@details@Concurrency@@WBA@$AAGKXZ 1009ead2 f i WinRTVFS.obj
 0002:00060ade       ?__abi_Release@?QObject@Platform@@?$_IAsyncOperationWithProgressToAsyncOperationConverter@P$AAUIBuffer@Streams@Storage@Windows@@I@details@Concurrency@@WCM@$AAGKXZ 1009eade f i WinRTVFS.obj
 0002:00060aea       ?__abi_Release@?QObject@Platform@@?$_IAsyncOperationWithProgressToAsyncOperationConverter@P$AAUIBuffer@Streams@Storage@Windows@@I@details@Concurrency@@WDA@$AAGKXZ 1009eaea f i WinRTVFS.obj
 0002:00060af6       ?__abi_Release@?QObject@Platform@@?$_IAsyncOperationWithProgressToAsyncOperationConverter@P$AAUIBuffer@Streams@Storage@Windows@@I@details@Concurrency@@WM@$AAGKXZ 1009eaf6 f i WinRTVFS.obj
 0002:00060b10       ?__abi_Release@?QObject@Platform@@_IAsyncActionToAsyncOperationConverter@details@Concurrency@@U$AAGKXZ 1009eb10 f i WinRTVFS.obj
 0002:00060b9a       ?__abi_Release@?QObject@Platform@@_IAsyncActionToAsyncOperationConverter@details@Concurrency@@W3$AAGKXZ 1009eb9a f i WinRTVFS.obj
 0002:00060ba6       ?__abi_Release@?QObject@Platform@@_IAsyncActionToAsyncOperationConverter@details@Concurrency@@W7$AAGKXZ 1009eba6 f i WinRTVFS.obj
 0002:00060bb2       ?__abi_Release@?QObject@Platform@@_IAsyncActionToAsyncOperationConverter@details@Concurrency@@WBA@$AAGKXZ 1009ebb2 f i WinRTVFS.obj
 0002:00060bbe       ?__abi_Release@?QObject@Platform@@_IAsyncActionToAsyncOperationConverter@details@Concurrency@@WCM@$AAGKXZ 1009ebbe f i WinRTVFS.obj
 0002:00060bca       ?__abi_Release@?QObject@Platform@@_IAsyncActionToAsyncOperationConverter@details@Concurrency@@WDA@$AAGKXZ 1009ebca f i WinRTVFS.obj
 0002:00060bd6       ?__abi_Release@?QObject@Platform@@_IAsyncActionToAsyncOperationConverter@details@Concurrency@@WM@$AAGKXZ 1009ebd6 f i WinRTVFS.obj
 0002:00060bf0       ?__abi_Release@AsyncActionCompletedHandler@Foundation@Windows@@U$AAGKXZ 1009ebf0 f i WinRTVFS.obj
 0002:00060c6d       ?__abi_Release@AsyncActionCompletedHandler@Foundation@Windows@@W3$AAGKXZ 1009ec6d f i WinRTVFS.obj
 0002:00060c79       ?__abi_Release@AsyncActionCompletedHandler@Foundation@Windows@@W7$AAGKXZ 1009ec79 f i WinRTVFS.obj
 0002:00060c90       ?__abi_Windows_Foundation_?$AsyncOperationCompletedHandler@E___abi_IDelegate____abi_Invoke@?Q__abi_IDelegate@?$AsyncOperationCompletedHandler@E@Foundation@Windows@@234@U$AAGJP$AAU?$IAsyncOperation@E@34@W4AsyncStatus@34@@Z 1009ec90 f i WinRTVFS.obj
 0002:00060d70       ?__abi_Windows_Foundation_?$AsyncOperationCompletedHandler@I___abi_IDelegate____abi_Invoke@?Q__abi_IDelegate@?$AsyncOperationCompletedHandler@I@Foundation@Windows@@234@U$AAGJP$AAU?$IAsyncOperation@I@34@W4AsyncStatus@34@@Z 1009ed70 f i WinRTVFS.obj
 0002:00060e50       ?__abi_Windows_Foundation_?$AsyncOperationCompletedHandler@P$AAUIBuffer@Streams@Storage@Windows@@___abi_IDelegate____abi_Invoke@?Q__abi_IDelegate@?$AsyncOperationCompletedHandler@P$AAUIBuffer@Streams@Storage@Windows@@@Foundation@Windows@@234@U$AAGJP$AAU?$IAsyncOperation@P$AAUIBuffer@Streams@Storage@Windows@@@34@W4AsyncStatus@34@@Z 1009ee50 f i WinRTVFS.obj
 0002:00060f30       ?__abi_Windows_Foundation_?$AsyncOperationCompletedHandler@P$AAUIRandomAccessStream@Streams@Storage@Windows@@___abi_IDelegate____abi_Invoke@?Q__abi_IDelegate@?$AsyncOperationCompletedHandler@P$AAUIRandomAccessStream@Streams@Storage@Windows@@@Foundation@Windows@@234@U$AAGJP$AAU?$IAsyncOperation@P$AAUIRandomAccessStream@Streams@Storage@Windows@@@34@W4AsyncStatus@34@@Z 1009ef30 f i WinRTVFS.obj
 0002:00061010       ?__abi_Windows_Foundation_?$AsyncOperationCompletedHandler@P$AAVStorageFile@Storage@Windows@@___abi_IDelegate____abi_Invoke@?Q__abi_IDelegate@?$AsyncOperationCompletedHandler@P$AAVStorageFile@Storage@Windows@@@Foundation@Windows@@234@U$AAGJP$AAU?$IAsyncOperation@P$AAVStorageFile@Storage@Windows@@@34@W4AsyncStatus@34@@Z 1009f010 f i WinRTVFS.obj
 0002:000610f0       ?__abi_Windows_Foundation_?$AsyncOperationCompletedHandler@P$AAVStorageFolder@Storage@Windows@@___abi_IDelegate____abi_Invoke@?Q__abi_IDelegate@?$AsyncOperationCompletedHandler@P$AAVStorageFolder@Storage@Windows@@@Foundation@Windows@@234@U$AAGJP$AAU?$IAsyncOperation@P$AAVStorageFolder@Storage@Windows@@@34@W4AsyncStatus@34@@Z 1009f0f0 f i WinRTVFS.obj
 0002:000611d0       ?__abi_Windows_Foundation_?$AsyncOperationCompletedHandler@_N___abi_IDelegate____abi_Invoke@?Q__abi_IDelegate@?$AsyncOperationCompletedHandler@_N@Foundation@Windows@@234@U$AAGJP$AAU?$IAsyncOperation@_N@34@W4AsyncStatus@34@@Z 1009f1d0 f i WinRTVFS.obj
 0002:000612b0       ?__abi_Windows_Foundation_?$AsyncOperationWithProgressCompletedHandler@II___abi_IDelegate____abi_Invoke@?Q__abi_IDelegate@?$AsyncOperationWithProgressCompletedHandler@II@Foundation@Windows@@234@U$AAGJP$AAU?$IAsyncOperationWithProgress@II@34@W4AsyncStatus@34@@Z 1009f2b0 f i WinRTVFS.obj
 0002:00061390       ?__abi_Windows_Foundation_?$AsyncOperationWithProgressCompletedHandler@P$AAUIBuffer@Streams@Storage@Windows@@I___abi_IDelegate____abi_Invoke@?Q__abi_IDelegate@?$AsyncOperationWithProgressCompletedHandler@P$AAUIBuffer@Streams@Storage@Windows@@I@Foundation@Windows@@234@U$AAGJP$AAU?$IAsyncOperationWithProgress@P$AAUIBuffer@Streams@Storage@Windows@@I@34@W4AsyncStatus@34@@Z 1009f390 f i WinRTVFS.obj
 0002:00061470       ?__abi_Windows_Foundation_?$IAsyncOperation@E____abi_GetResults@?Q?$IAsyncOperation@E@Foundation@Windows@@?$_AsyncInfoImpl@P$AAUIAsyncAction@Foundation@Windows@@VAsyncActionCompletedHandler@23@E@details@Concurrency@@U$AAGJPAE@Z 1009f470 f i WinRTVFS.obj
 0002:00061594       ?__abi_Windows_Foundation_?$IAsyncOperation@E____abi_GetResults@?Q?$IAsyncOperation@E@Foundation@Windows@@?$_AsyncInfoImpl@P$AAUIAsyncAction@Foundation@Windows@@VAsyncActionCompletedHandler@23@E@details@Concurrency@@W3$AAGJPAE@Z 1009f594 f i WinRTVFS.obj
 0002:000615a0       ?__abi_Windows_Foundation_?$IAsyncOperation@E____abi_get_Completed@?Q?$IAsyncOperation@E@Foundation@Windows@@?$_AsyncInfoImpl@P$AAUIAsyncAction@Foundation@Windows@@VAsyncActionCompletedHandler@23@E@details@Concurrency@@U$AAGJPAP$AAV?$AsyncOperationCompletedHandler@E@23@@Z 1009f5a0 f i WinRTVFS.obj
 0002:000616c8       ?__abi_Windows_Foundation_?$IAsyncOperation@E____abi_get_Completed@?Q?$IAsyncOperation@E@Foundation@Windows@@?$_AsyncInfoImpl@P$AAUIAsyncAction@Foundation@Windows@@VAsyncActionCompletedHandler@23@E@details@Concurrency@@W3$AAGJPAP$AAV?$AsyncOperationCompletedHandler@E@23@@Z 1009f6c8 f i WinRTVFS.obj
 0002:000616e0       ?__abi_Windows_Foundation_?$IAsyncOperation@E____abi_set_Completed@?Q?$IAsyncOperation@E@Foundation@Windows@@?$_AsyncInfoImpl@P$AAUIAsyncAction@Foundation@Windows@@VAsyncActionCompletedHandler@23@E@details@Concurrency@@U$AAGJP$AAV?$AsyncOperationCompletedHandler@E@23@@Z 1009f6e0 f i WinRTVFS.obj
 0002:000617e5       ?__abi_Windows_Foundation_?$IAsyncOperation@E____abi_set_Completed@?Q?$IAsyncOperation@E@Foundation@Windows@@?$_AsyncInfoImpl@P$AAUIAsyncAction@Foundation@Windows@@VAsyncActionCompletedHandler@23@E@details@Concurrency@@W3$AAGJP$AAV?$AsyncOperationCompletedHandler@E@23@@Z 1009f7e5 f i WinRTVFS.obj
 0002:00061800       ?__abi_Windows_Foundation_?$IAsyncOperation@I____abi_GetResults@?Q?$IAsyncOperation@I@Foundation@Windows@@?$_AsyncInfoImpl@P$AAU?$IAsyncOperationWithProgress@II@Foundation@Windows@@V?$AsyncOperationWithProgressCompletedHandler@II@23@I@details@Concurrency@@U$AAGJPAI@Z 1009f800 f i WinRTVFS.obj
 0002:00061928       ?__abi_Windows_Foundation_?$IAsyncOperation@I____abi_GetResults@?Q?$IAsyncOperation@I@Foundation@Windows@@?$_AsyncInfoImpl@P$AAU?$IAsyncOperationWithProgress@II@Foundation@Windows@@V?$AsyncOperationWithProgressCompletedHandler@II@23@I@details@Concurrency@@W3$AAGJPAI@Z 1009f928 f i WinRTVFS.obj
 0002:00061940       ?__abi_Windows_Foundation_?$IAsyncOperation@I____abi_get_Completed@?Q?$IAsyncOperation@I@Foundation@Windows@@?$_AsyncInfoImpl@P$AAU?$IAsyncOperationWithProgress@II@Foundation@Windows@@V?$AsyncOperationWithProgressCompletedHandler@II@23@I@details@Concurrency@@U$AAGJPAP$AAV?$AsyncOperationCompletedHandler@I@23@@Z 1009f940 f i WinRTVFS.obj
 0002:00061a68       ?__abi_Windows_Foundation_?$IAsyncOperation@I____abi_get_Completed@?Q?$IAsyncOperation@I@Foundation@Windows@@?$_AsyncInfoImpl@P$AAU?$IAsyncOperationWithProgress@II@Foundation@Windows@@V?$AsyncOperationWithProgressCompletedHandler@II@23@I@details@Concurrency@@W3$AAGJPAP$AAV?$AsyncOperationCompletedHandler@I@23@@Z 1009fa68 f i WinRTVFS.obj
 0002:00061a80       ?__abi_Windows_Foundation_?$IAsyncOperation@I____abi_set_Completed@?Q?$IAsyncOperation@I@Foundation@Windows@@?$_AsyncInfoImpl@P$AAU?$IAsyncOperationWithProgress@II@Foundation@Windows@@V?$AsyncOperationWithProgressCompletedHandler@II@23@I@details@Concurrency@@U$AAGJP$AAV?$AsyncOperationCompletedHandler@I@23@@Z 1009fa80 f i WinRTVFS.obj
 0002:00061b85       ?__abi_Windows_Foundation_?$IAsyncOperation@I____abi_set_Completed@?Q?$IAsyncOperation@I@Foundation@Windows@@?$_AsyncInfoImpl@P$AAU?$IAsyncOperationWithProgress@II@Foundation@Windows@@V?$AsyncOperationWithProgressCompletedHandler@II@23@I@details@Concurrency@@W3$AAGJP$AAV?$AsyncOperationCompletedHandler@I@23@@Z 1009fb85 f i WinRTVFS.obj
 0002:00061ba0       ?__abi_Windows_Foundation_?$IAsyncOperation@P$AAUIBuffer@Streams@Storage@Windows@@____abi_GetResults@?Q?$IAsyncOperation@P$AAUIBuffer@Streams@Storage@Windows@@@Foundation@Windows@@?$_AsyncInfoImpl@P$AAU?$IAsyncOperationWithProgress@P$AAUIBuffer@Streams@Storage@Windows@@I@Foundation@Windows@@V?$AsyncOperationWithProgressCompletedHandler@P$AAUIBuffer@Streams@Storage@Windows@@I@23@P$AAUIBuffer@Streams@Storage@3@@details@Concurrency@@U$AAGJPAP$AAUIBuffer@Streams@Storage@3@@Z 1009fba0 f i WinRTVFS.obj
 0002:00061cc8       ?__abi_Windows_Foundation_?$IAsyncOperation@P$AAUIBuffer@Streams@Storage@Windows@@____abi_GetResults@?Q?$IAsyncOperation@P$AAUIBuffer@Streams@Storage@Windows@@@Foundation@Windows@@?$_AsyncInfoImpl@P$AAU?$IAsyncOperationWithProgress@P$AAUIBuffer@Streams@Storage@Windows@@I@Foundation@Windows@@V?$AsyncOperationWithProgressCompletedHandler@P$AAUIBuffer@Streams@Storage@Windows@@I@23@P$AAUIBuffer@Streams@Storage@3@@details@Concurrency@@W3$AAGJPAP$AAUIBuffer@Streams@Storage@3@@Z 1009fcc8 f i WinRTVFS.obj
 0002:00061ce0       ?__abi_Windows_Foundation_?$IAsyncOperation@P$AAUIBuffer@Streams@Storage@Windows@@____abi_get_Completed@?Q?$IAsyncOperation@P$AAUIBuffer@Streams@Storage@Windows@@@Foundation@Windows@@?$_AsyncInfoImpl@P$AAU?$IAsyncOperationWithProgress@P$AAUIBuffer@Streams@Storage@Windows@@I@Foundation@Windows@@V?$AsyncOperationWithProgressCompletedHandler@P$AAUIBuffer@Streams@Storage@Windows@@I@23@P$AAUIBuffer@Streams@Storage@3@@details@Concurrency@@U$AAGJPAP$AAV?$AsyncOperationCompletedHandler@P$AAUIBuffer@Streams@Storage@Windows@@@23@@Z 1009fce0 f i WinRTVFS.obj
 0002:00061e08       ?__abi_Windows_Foundation_?$IAsyncOperation@P$AAUIBuffer@Streams@Storage@Windows@@____abi_get_Completed@?Q?$IAsyncOperation@P$AAUIBuffer@Streams@Storage@Windows@@@Foundation@Windows@@?$_AsyncInfoImpl@P$AAU?$IAsyncOperationWithProgress@P$AAUIBuffer@Streams@Storage@Windows@@I@Foundation@Windows@@V?$AsyncOperationWithProgressCompletedHandler@P$AAUIBuffer@Streams@Storage@Windows@@I@23@P$AAUIBuffer@Streams@Storage@3@@details@Concurrency@@W3$AAGJPAP$AAV?$AsyncOperationCompletedHandler@P$AAUIBuffer@Streams@Storage@Windows@@@23@@Z 1009fe08 f i WinRTVFS.obj
 0002:00061e20       ?__abi_Windows_Foundation_?$IAsyncOperation@P$AAUIBuffer@Streams@Storage@Windows@@____abi_set_Completed@?Q?$IAsyncOperation@P$AAUIBuffer@Streams@Storage@Windows@@@Foundation@Windows@@?$_AsyncInfoImpl@P$AAU?$IAsyncOperationWithProgress@P$AAUIBuffer@Streams@Storage@Windows@@I@Foundation@Windows@@V?$AsyncOperationWithProgressCompletedHandler@P$AAUIBuffer@Streams@Storage@Windows@@I@23@P$AAUIBuffer@Streams@Storage@3@@details@Concurrency@@U$AAGJP$AAV?$AsyncOperationCompletedHandler@P$AAUIBuffer@Streams@Storage@Windows@@@23@@Z 1009fe20 f i WinRTVFS.obj
 0002:00061f25       ?__abi_Windows_Foundation_?$IAsyncOperation@P$AAUIBuffer@Streams@Storage@Windows@@____abi_set_Completed@?Q?$IAsyncOperation@P$AAUIBuffer@Streams@Storage@Windows@@@Foundation@Windows@@?$_AsyncInfoImpl@P$AAU?$IAsyncOperationWithProgress@P$AAUIBuffer@Streams@Storage@Windows@@I@Foundation@Windows@@V?$AsyncOperationWithProgressCompletedHandler@P$AAUIBuffer@Streams@Storage@Windows@@I@23@P$AAUIBuffer@Streams@Storage@3@@details@Concurrency@@W3$AAGJP$AAV?$AsyncOperationCompletedHandler@P$AAUIBuffer@Streams@Storage@Windows@@@23@@Z 1009ff25 f i WinRTVFS.obj
 0002:00061f40       ?__abi_Windows_Foundation_AsyncActionCompletedHandler___abi_IDelegate____abi_Invoke@?Q__abi_IDelegate@AsyncActionCompletedHandler@Foundation@Windows@@234@U$AAGJP$AAUIAsyncAction@34@W4AsyncStatus@34@@Z 1009ff40 f i WinRTVFS.obj
 0002:00062020       ?__abi_Windows_Foundation_IAsyncInfo____abi_Cancel@?QIAsyncInfo@Foundation@Windows@@?$_AsyncInfoImpl@P$AAU?$IAsyncOperationWithProgress@II@Foundation@Windows@@V?$AsyncOperationWithProgressCompletedHandler@II@23@I@details@Concurrency@@U$AAGJXZ 100a0020 f i WinRTVFS.obj
 0002:00062120       ?__abi_Windows_Foundation_IAsyncInfo____abi_Cancel@?QIAsyncInfo@Foundation@Windows@@?$_AsyncInfoImpl@P$AAU?$IAsyncOperationWithProgress@II@Foundation@Windows@@V?$AsyncOperationWithProgressCompletedHandler@II@23@I@details@Concurrency@@W7$AAGJXZ 100a0120 f i WinRTVFS.obj
 0002:00062130       ?__abi_Windows_Foundation_IAsyncInfo____abi_Cancel@?QIAsyncInfo@Foundation@Windows@@?$_AsyncInfoImpl@P$AAU?$IAsyncOperationWithProgress@P$AAUIBuffer@Streams@Storage@Windows@@I@Foundation@Windows@@V?$AsyncOperationWithProgressCompletedHandler@P$AAUIBuffer@Streams@Storage@Windows@@I@23@P$AAUIBuffer@Streams@Storage@3@@details@Concurrency@@U$AAGJXZ 100a0130 f i WinRTVFS.obj
 0002:00062230       ?__abi_Windows_Foundation_IAsyncInfo____abi_Cancel@?QIAsyncInfo@Foundation@Windows@@?$_AsyncInfoImpl@P$AAU?$IAsyncOperationWithProgress@P$AAUIBuffer@Streams@Storage@Windows@@I@Foundation@Windows@@V?$AsyncOperationWithProgressCompletedHandler@P$AAUIBuffer@Streams@Storage@Windows@@I@23@P$AAUIBuffer@Streams@Storage@3@@details@Concurrency@@W7$AAGJXZ 100a0230 f i WinRTVFS.obj
 0002:00062240       ?__abi_Windows_Foundation_IAsyncInfo____abi_Cancel@?QIAsyncInfo@Foundation@Windows@@?$_AsyncInfoImpl@P$AAUIAsyncAction@Foundation@Windows@@VAsyncActionCompletedHandler@23@E@details@Concurrency@@U$AAGJXZ 100a0240 f i WinRTVFS.obj
 0002:00062340       ?__abi_Windows_Foundation_IAsyncInfo____abi_Cancel@?QIAsyncInfo@Foundation@Windows@@?$_AsyncInfoImpl@P$AAUIAsyncAction@Foundation@Windows@@VAsyncActionCompletedHandler@23@E@details@Concurrency@@W7$AAGJXZ 100a0340 f i WinRTVFS.obj
 0002:00062350       ?__abi_Windows_Foundation_IAsyncInfo____abi_Close@?QIAsyncInfo@Foundation@Windows@@?$_AsyncInfoImpl@P$AAU?$IAsyncOperationWithProgress@II@Foundation@Windows@@V?$AsyncOperationWithProgressCompletedHandler@II@23@I@details@Concurrency@@U$AAGJXZ 100a0350 f i WinRTVFS.obj
 0002:00062450       ?__abi_Windows_Foundation_IAsyncInfo____abi_Close@?QIAsyncInfo@Foundation@Windows@@?$_AsyncInfoImpl@P$AAU?$IAsyncOperationWithProgress@II@Foundation@Windows@@V?$AsyncOperationWithProgressCompletedHandler@II@23@I@details@Concurrency@@W7$AAGJXZ 100a0450 f i WinRTVFS.obj
 0002:00062460       ?__abi_Windows_Foundation_IAsyncInfo____abi_Close@?QIAsyncInfo@Foundation@Windows@@?$_AsyncInfoImpl@P$AAU?$IAsyncOperationWithProgress@P$AAUIBuffer@Streams@Storage@Windows@@I@Foundation@Windows@@V?$AsyncOperationWithProgressCompletedHandler@P$AAUIBuffer@Streams@Storage@Windows@@I@23@P$AAUIBuffer@Streams@Storage@3@@details@Concurrency@@U$AAGJXZ 100a0460 f i WinRTVFS.obj
 0002:00062560       ?__abi_Windows_Foundation_IAsyncInfo____abi_Close@?QIAsyncInfo@Foundation@Windows@@?$_AsyncInfoImpl@P$AAU?$IAsyncOperationWithProgress@P$AAUIBuffer@Streams@Storage@Windows@@I@Foundation@Windows@@V?$AsyncOperationWithProgressCompletedHandler@P$AAUIBuffer@Streams@Storage@Windows@@I@23@P$AAUIBuffer@Streams@Storage@3@@details@Concurrency@@W7$AAGJXZ 100a0560 f i WinRTVFS.obj
 0002:00062570       ?__abi_Windows_Foundation_IAsyncInfo____abi_Close@?QIAsyncInfo@Foundation@Windows@@?$_AsyncInfoImpl@P$AAUIAsyncAction@Foundation@Windows@@VAsyncActionCompletedHandler@23@E@details@Concurrency@@U$AAGJXZ 100a0570 f i WinRTVFS.obj
 0002:00062670       ?__abi_Windows_Foundation_IAsyncInfo____abi_Close@?QIAsyncInfo@Foundation@Windows@@?$_AsyncInfoImpl@P$AAUIAsyncAction@Foundation@Windows@@VAsyncActionCompletedHandler@23@E@details@Concurrency@@W7$AAGJXZ 100a0670 f i WinRTVFS.obj
 0002:00062680       ?__abi_Windows_Foundation_IAsyncInfo____abi_get_ErrorCode@?QIAsyncInfo@Foundation@Windows@@?$_AsyncInfoImpl@P$AAU?$IAsyncOperationWithProgress@II@Foundation@Windows@@V?$AsyncOperationWithProgressCompletedHandler@II@23@I@details@Concurrency@@U$AAGJPAVHResult@23@@Z 100a0680 f i WinRTVFS.obj
 0002:000627fc       ?__abi_Windows_Foundation_IAsyncInfo____abi_get_ErrorCode@?QIAsyncInfo@Foundation@Windows@@?$_AsyncInfoImpl@P$AAU?$IAsyncOperationWithProgress@II@Foundation@Windows@@V?$AsyncOperationWithProgressCompletedHandler@II@23@I@details@Concurrency@@W7$AAGJPAVHResult@23@@Z 100a07fc f i WinRTVFS.obj
 0002:00062810       ?__abi_Windows_Foundation_IAsyncInfo____abi_get_ErrorCode@?QIAsyncInfo@Foundation@Windows@@?$_AsyncInfoImpl@P$AAU?$IAsyncOperationWithProgress@P$AAUIBuffer@Streams@Storage@Windows@@I@Foundation@Windows@@V?$AsyncOperationWithProgressCompletedHandler@P$AAUIBuffer@Streams@Storage@Windows@@I@23@P$AAUIBuffer@Streams@Storage@3@@details@Concurrency@@U$AAGJPAVHResult@23@@Z 100a0810 f i WinRTVFS.obj
 0002:0006298c       ?__abi_Windows_Foundation_IAsyncInfo____abi_get_ErrorCode@?QIAsyncInfo@Foundation@Windows@@?$_AsyncInfoImpl@P$AAU?$IAsyncOperationWithProgress@P$AAUIBuffer@Streams@Storage@Windows@@I@Foundation@Windows@@V?$AsyncOperationWithProgressCompletedHandler@P$AAUIBuffer@Streams@Storage@Windows@@I@23@P$AAUIBuffer@Streams@Storage@3@@details@Concurrency@@W7$AAGJPAVHResult@23@@Z 100a098c f i WinRTVFS.obj
 0002:000629a0       ?__abi_Windows_Foundation_IAsyncInfo____abi_get_ErrorCode@?QIAsyncInfo@Foundation@Windows@@?$_AsyncInfoImpl@P$AAUIAsyncAction@Foundation@Windows@@VAsyncActionCompletedHandler@23@E@details@Concurrency@@U$AAGJPAVHResult@23@@Z 100a09a0 f i WinRTVFS.obj
 0002:00062b1c       ?__abi_Windows_Foundation_IAsyncInfo____abi_get_ErrorCode@?QIAsyncInfo@Foundation@Windows@@?$_AsyncInfoImpl@P$AAUIAsyncAction@Foundation@Windows@@VAsyncActionCompletedHandler@23@E@details@Concurrency@@W7$AAGJPAVHResult@23@@Z 100a0b1c f i WinRTVFS.obj
 0002:00062b30       ?__abi_Windows_Foundation_IAsyncInfo____abi_get_Id@?QIAsyncInfo@Foundation@Windows@@?$_AsyncInfoImpl@P$AAU?$IAsyncOperationWithProgress@II@Foundation@Windows@@V?$AsyncOperationWithProgressCompletedHandler@II@23@I@details@Concurrency@@U$AAGJPAI@Z 100a0b30 f i WinRTVFS.obj
 0002:00062c58       ?__abi_Windows_Foundation_IAsyncInfo____abi_get_Id@?QIAsyncInfo@Foundation@Windows@@?$_AsyncInfoImpl@P$AAU?$IAsyncOperationWithProgress@II@Foundation@Windows@@V?$AsyncOperationWithProgressCompletedHandler@II@23@I@details@Concurrency@@W7$AAGJPAI@Z 100a0c58 f i WinRTVFS.obj
 0002:00062c70       ?__abi_Windows_Foundation_IAsyncInfo____abi_get_Id@?QIAsyncInfo@Foundation@Windows@@?$_AsyncInfoImpl@P$AAU?$IAsyncOperationWithProgress@P$AAUIBuffer@Streams@Storage@Windows@@I@Foundation@Windows@@V?$AsyncOperationWithProgressCompletedHandler@P$AAUIBuffer@Streams@Storage@Windows@@I@23@P$AAUIBuffer@Streams@Storage@3@@details@Concurrency@@U$AAGJPAI@Z 100a0c70 f i WinRTVFS.obj
 0002:00062d98       ?__abi_Windows_Foundation_IAsyncInfo____abi_get_Id@?QIAsyncInfo@Foundation@Windows@@?$_AsyncInfoImpl@P$AAU?$IAsyncOperationWithProgress@P$AAUIBuffer@Streams@Storage@Windows@@I@Foundation@Windows@@V?$AsyncOperationWithProgressCompletedHandler@P$AAUIBuffer@Streams@Storage@Windows@@I@23@P$AAUIBuffer@Streams@Storage@3@@details@Concurrency@@W7$AAGJPAI@Z 100a0d98 f i WinRTVFS.obj
 0002:00062db0       ?__abi_Windows_Foundation_IAsyncInfo____abi_get_Id@?QIAsyncInfo@Foundation@Windows@@?$_AsyncInfoImpl@P$AAUIAsyncAction@Foundation@Windows@@VAsyncActionCompletedHandler@23@E@details@Concurrency@@U$AAGJPAI@Z 100a0db0 f i WinRTVFS.obj
 0002:00062ed8       ?__abi_Windows_Foundation_IAsyncInfo____abi_get_Id@?QIAsyncInfo@Foundation@Windows@@?$_AsyncInfoImpl@P$AAUIAsyncAction@Foundation@Windows@@VAsyncActionCompletedHandler@23@E@details@Concurrency@@W7$AAGJPAI@Z 100a0ed8 f i WinRTVFS.obj
 0002:00062ef0       ?__abi_Windows_Foundation_IAsyncInfo____abi_get_Status@?QIAsyncInfo@Foundation@Windows@@?$_AsyncInfoImpl@P$AAU?$IAsyncOperationWithProgress@II@Foundation@Windows@@V?$AsyncOperationWithProgressCompletedHandler@II@23@I@details@Concurrency@@U$AAGJPAW4AsyncStatus@23@@Z 100a0ef0 f i WinRTVFS.obj
 0002:00063018       ?__abi_Windows_Foundation_IAsyncInfo____abi_get_Status@?QIAsyncInfo@Foundation@Windows@@?$_AsyncInfoImpl@P$AAU?$IAsyncOperationWithProgress@II@Foundation@Windows@@V?$AsyncOperationWithProgressCompletedHandler@II@23@I@details@Concurrency@@W7$AAGJPAW4AsyncStatus@23@@Z 100a1018 f i WinRTVFS.obj
 0002:00063030       ?__abi_Windows_Foundation_IAsyncInfo____abi_get_Status@?QIAsyncInfo@Foundation@Windows@@?$_AsyncInfoImpl@P$AAU?$IAsyncOperationWithProgress@P$AAUIBuffer@Streams@Storage@Windows@@I@Foundation@Windows@@V?$AsyncOperationWithProgressCompletedHandler@P$AAUIBuffer@Streams@Storage@Windows@@I@23@P$AAUIBuffer@Streams@Storage@3@@details@Concurrency@@U$AAGJPAW4AsyncStatus@23@@Z 100a1030 f i WinRTVFS.obj
 0002:00063158       ?__abi_Windows_Foundation_IAsyncInfo____abi_get_Status@?QIAsyncInfo@Foundation@Windows@@?$_AsyncInfoImpl@P$AAU?$IAsyncOperationWithProgress@P$AAUIBuffer@Streams@Storage@Windows@@I@Foundation@Windows@@V?$AsyncOperationWithProgressCompletedHandler@P$AAUIBuffer@Streams@Storage@Windows@@I@23@P$AAUIBuffer@Streams@Storage@3@@details@Concurrency@@W7$AAGJPAW4AsyncStatus@23@@Z 100a1158 f i WinRTVFS.obj
 0002:00063170       ?__abi_Windows_Foundation_IAsyncInfo____abi_get_Status@?QIAsyncInfo@Foundation@Windows@@?$_AsyncInfoImpl@P$AAUIAsyncAction@Foundation@Windows@@VAsyncActionCompletedHandler@23@E@details@Concurrency@@U$AAGJPAW4AsyncStatus@23@@Z 100a1170 f i WinRTVFS.obj
 0002:00063298       ?__abi_Windows_Foundation_IAsyncInfo____abi_get_Status@?QIAsyncInfo@Foundation@Windows@@?$_AsyncInfoImpl@P$AAUIAsyncAction@Foundation@Windows@@VAsyncActionCompletedHandler@23@E@details@Concurrency@@W7$AAGJPAW4AsyncStatus@23@@Z 100a1298 f i WinRTVFS.obj
 0002:000632b0       ?__abi_delete_String@__abi_details@@YAXP$AAVString@Platform@@@Z 100a12b0 f i WinRTVFS.obj
 0002:00063300       ?__abi_dtor@__abi_FTMWeakRefData@@QAEXXZ 100a1300 f i WinRTVFS.obj
 0002:000633f0       ?__abi_winrt_CreateFastPassSystemStringFromLiteral@@YAP$AAVString@Platform@@PB_WIPAU__Platform_Details_HSTRING_HEADER@@@Z 100a13f0 f i WinRTVFS.obj
 0002:000634b0       ?__abi_winrt_ptr_assign@@YAPAXPAPAXP$ADVObject@Platform@@@Z 100a14b0 f i WinRTVFS.obj
 0002:00063570       ?__abi_winrt_ptrto_string_ctor@@YAPAXP$ADVString@Platform@@@Z 100a1570 f i WinRTVFS.obj
 0002:00063630       ?__abi_winrt_ptrto_string_dtor@@YAXQ$ADVString@Platform@@@Z 100a1630 f i WinRTVFS.obj
 0002:00063680       ?__abi_winrt_throw_on_disposed@@YAX_N@Z 100a1680 f i WinRTVFS.obj
 0002:00063740       ?__autoclassinit2@?$ComPtr@UIAgileObject@@@WRL@Microsoft@@QAEXI@Z 100a1740 f i WinRTVFS.obj
 0002:000637a0       ?__autoclassinit2@?$ComPtr@UIBufferByteAccess@Streams@Storage@Windows@@@WRL@Microsoft@@QAEXI@Z 100a17a0 f i WinRTVFS.obj
 0002:00063800       ?__autoclassinit2@?$ComPtr@UIUnknown@@@WRL@Microsoft@@QAEXI@Z 100a1800 f i WinRTVFS.obj
 0002:00063860       ?__autoclassinit2@?$_CancellationTokenCallback@V<lambda_17cb9174022a2677ccd4c777403439ce>@@@details@Concurrency@@QAEXI@Z 100a1860 f i WinRTVFS.obj
 0002:000638c0       ?__autoclassinit2@?$_Dynamic_array@PAV?$ISource@H@Concurrency@@@details@Concurrency@@QAEXI@Z 100a18c0 f i WinRTVFS.obj
 0002:00063920       ?__autoclassinit2@?$_Network_link_iterator@V?$ISource@H@Concurrency@@@Concurrency@@QAEXI@Z 100a1920 f i WinRTVFS.obj
 0002:00063980       ?__autoclassinit2@?$_Network_link_iterator@V?$ITarget@H@Concurrency@@@Concurrency@@QAEXI@Z 100a1980 f i WinRTVFS.obj
 0002:000639e0       ?__autoclassinit2@?$_Source_link_iterator@V?$multi_link_registry@V?$ISource@H@Concurrency@@@Concurrency@@@Concurrency@@QAEXI@Z 100a19e0 f i WinRTVFS.obj
 0002:00063a40       ?__autoclassinit2@?$_Vector_iterator@V?$_Vector_val@U?$_Simple_types@V?$shared_ptr@U?$_Task_impl@E@details@Concurrency@@@std@@@std@@@std@@@std@@QAEXI@Z 100a1a40 f i WinRTVFS.obj
 0002:00063aa0       ?__autoclassinit2@?$call@HV?$function@$$A6AXABH@Z@std@@@Concurrency@@QAEXI@Z 100a1aa0 f i WinRTVFS.obj
 0002:00063b00       ?__autoclassinit2@?$message@H@Concurrency@@QAEXI@Z 100a1b00 f i WinRTVFS.obj
 0002:00063b60       ?__autoclassinit2@?$shared_ptr@U?$_Task_completion_event_impl@E@details@Concurrency@@@std@@QAEXI@Z 100a1b60 f i WinRTVFS.obj
 0002:00063bc0       ?__autoclassinit2@?$shared_ptr@U?$_Task_impl@E@details@Concurrency@@@std@@QAEXI@Z 100a1bc0 f i WinRTVFS.obj
 0002:00063c20       ?__autoclassinit2@?$shared_ptr@U?$_Task_impl@I@details@Concurrency@@@std@@QAEXI@Z 100a1c20 f i WinRTVFS.obj
 0002:00063c80       ?__autoclassinit2@?$shared_ptr@U?$_Task_impl@P$AAUIBuffer@Streams@Storage@Windows@@@details@Concurrency@@@std@@QAEXI@Z 100a1c80 f i WinRTVFS.obj
 0002:00063ce0       ?__autoclassinit2@?$shared_ptr@U?$_Task_impl@P$AAUIRandomAccessStream@Streams@Storage@Windows@@@details@Concurrency@@@std@@QAEXI@Z 100a1ce0 f i WinRTVFS.obj
 0002:00063d40       ?__autoclassinit2@?$shared_ptr@U?$_Task_impl@P$AAVStorageFile@Storage@Windows@@@details@Concurrency@@@std@@QAEXI@Z 100a1d40 f i WinRTVFS.obj
 0002:00063da0       ?__autoclassinit2@?$shared_ptr@U?$_Task_impl@P$AAVStorageFolder@Storage@Windows@@@details@Concurrency@@@std@@QAEXI@Z 100a1da0 f i WinRTVFS.obj
 0002:00063e00       ?__autoclassinit2@?$shared_ptr@U?$_Task_impl@_N@details@Concurrency@@@std@@QAEXI@Z 100a1e00 f i WinRTVFS.obj
 0002:00063e60       ?__autoclassinit2@?$shared_ptr@U_ExceptionHolder@details@Concurrency@@@std@@QAEXI@Z 100a1e60 f i WinRTVFS.obj
 0002:00063ec0       ?__autoclassinit2@?$shared_ptr@U_Task_impl_base@details@Concurrency@@@std@@QAEXI@Z 100a1ec0 f i WinRTVFS.obj
 0002:00063f20       ?__autoclassinit2@?$task@I@Concurrency@@QAEXI@Z 100a1f20 f i WinRTVFS.obj
 0002:00063f80       ?__autoclassinit2@?$task@P$AAUIBuffer@Streams@Storage@Windows@@@Concurrency@@QAEXI@Z 100a1f80 f i WinRTVFS.obj
 0002:00063fe0       ?__autoclassinit2@?$task@P$AAUIRandomAccessStream@Streams@Storage@Windows@@@Concurrency@@QAEXI@Z 100a1fe0 f i WinRTVFS.obj
 0002:00064040       ?__autoclassinit2@?$task@P$AAVStorageFile@Storage@Windows@@@Concurrency@@QAEXI@Z 100a2040 f i WinRTVFS.obj
 0002:000640a0       ?__autoclassinit2@?$task@P$AAVStorageFolder@Storage@Windows@@@Concurrency@@QAEXI@Z 100a20a0 f i WinRTVFS.obj
 0002:00064100       ?__autoclassinit2@?$task@X@Concurrency@@QAEXI@Z 100a2100 f i WinRTVFS.obj
 0002:00064160       ?__autoclassinit2@?$task@_N@Concurrency@@QAEXI@Z 100a2160 f i WinRTVFS.obj
 0002:000641c0       ?__autoclassinit2@?$task_completion_event@X@Concurrency@@QAEXI@Z 100a21c0 f i WinRTVFS.obj
 0002:00064220       ?__autoclassinit2@?$timer@H@Concurrency@@QAEXI@Z 100a2220 f i WinRTVFS.obj
 0002:00064280       ?__autoclassinit2@?$vector@V?$shared_ptr@U?$_Task_impl@E@details@Concurrency@@@std@@V?$allocator@V?$shared_ptr@U?$_Task_impl@E@details@Concurrency@@@std@@@2@@std@@QAEXI@Z 100a2280 f i WinRTVFS.obj
 0002:000642e0       ?__autoclassinit2@_Scheduler@details@Concurrency@@QAEXI@Z 100a22e0 f i WinRTVFS.obj
 0002:00064340       ?__autoclassinit2@_TaskCreationCallstack@details@Concurrency@@QAEXI@Z 100a2340 f i WinRTVFS.obj
 0002:000643a0       ?__autoclassinit2@event@Concurrency@@QAEXI@Z 100a23a0 f i WinRTVFS.obj
 0002:00064400       ?__autoclassinit2@exception_ptr@std@@QAEXI@Z 100a2400 f i WinRTVFS.obj
 0002:00064460       ?_get_internal_task_options@details@Concurrency@@YAAAU_Internal_task_options@12@AAVtask_options@2@@Z 100a2460 f i WinRTVFS.obj
 0002:000644a0       ?_get_internal_task_options@details@Concurrency@@YAABU_Internal_task_options@12@ABVtask_options@2@@Z 100a24a0 f i WinRTVFS.obj
 0002:000644e0       ?_set_creation_callstack@_Internal_task_options@details@Concurrency@@QAEXABV_TaskCreationCallstack@23@@Z 100a24e0 f i WinRTVFS.obj
 0002:00064550       ?accept@?$source_block@V?$single_link_registry@V?$ITarget@H@Concurrency@@@Concurrency@@V?$ordered_message_processor@H@2@@Concurrency@@UAEPAV?$message@H@2@HPAV?$ITarget@H@2@@Z 100a2550 f i WinRTVFS.obj
 0002:00064660       ?accept_message@?$timer@H@Concurrency@@MAEPAV?$message@H@2@H@Z 100a2660 f i WinRTVFS.obj
 0002:00064700       ?acquire_ref@?$source_block@V?$single_link_registry@V?$ITarget@H@Concurrency@@@Concurrency@@V?$ordered_message_processor@H@2@@Concurrency@@UAEXPAV?$ITarget@H@2@@Z 100a2700 f i WinRTVFS.obj
 0002:00064750       ?add@?$multi_link_registry@V?$ISource@H@Concurrency@@@Concurrency@@UAEXPAV?$ISource@H@2@@Z 100a2750 f i WinRTVFS.obj
 0002:000647b0       ?add@?$single_link_registry@V?$ITarget@H@Concurrency@@@Concurrency@@UAEXPAV?$ITarget@H@2@@Z 100a27b0 f i WinRTVFS.obj
 0002:00064850       ?add@?$source_link_manager@V?$multi_link_registry@V?$ISource@H@Concurrency@@@Concurrency@@@Concurrency@@QAEXPAV?$ISource@H@2@@Z 100a2850 f i WinRTVFS.obj
 0002:000649d0       ?allocate@?$_Wrap_alloc@V?$allocator@PAX@std@@@std@@QAEPAPAXI@Z 100a29d0 f i WinRTVFS.obj
 0002:00064a30       ?allocate@?$_Wrap_alloc@V?$allocator@U_Container_proxy@std@@@std@@@std@@QAEPAU_Container_proxy@2@I@Z 100a2a30 f i WinRTVFS.obj
 0002:00064a90       ?allocate@?$_Wrap_alloc@V?$allocator@V?$shared_ptr@U?$_Task_impl@E@details@Concurrency@@@std@@@std@@@std@@QAEPAV?$shared_ptr@U?$_Task_impl@E@details@Concurrency@@@2@I@Z 100a2a90 f i WinRTVFS.obj
 0002:00064af0       ?allocate@?$allocator@PAX@std@@QAEPAPAXI@Z 100a2af0 f i WinRTVFS.obj
 0002:00064b50       ?allocate@?$allocator@V?$_Func_impl@U?$_Callable_obj@V<lambda_02d862f9cfc639ff7c37ca52d43e6a8c>@@$0A@@std@@V?$allocator@V?$_Func_class@X$$$V@std@@@2@X$$$V@std@@@std@@QAEPAV?$_Func_impl@U?$_Callable_obj@V<lambda_02d862f9cfc639ff7c37ca52d43e6a8c>@@$0A@@std@@V?$allocator@V?$_Func_class@X$$$V@std@@@2@X$$$V@2@I@Z 100a2b50 f i WinRTVFS.obj
 0002:00064bb0       ?allocate@?$allocator@V?$_Func_impl@U?$_Callable_obj@V<lambda_095a938ce4c5765dcc6b67f548aeb9c7>@@$0A@@std@@V?$allocator@V?$_Func_class@X$$$V@std@@@2@X$$$V@std@@@std@@QAEPAV?$_Func_impl@U?$_Callable_obj@V<lambda_095a938ce4c5765dcc6b67f548aeb9c7>@@$0A@@std@@V?$allocator@V?$_Func_class@X$$$V@std@@@2@X$$$V@2@I@Z 100a2bb0 f i WinRTVFS.obj
 0002:00064c10       ?allocate@?$allocator@V?$_Func_impl@U?$_Callable_obj@V<lambda_0b7f78ec4ced38495cec46e0d346e0b9>@@$0A@@std@@V?$allocator@V?$_Func_class@X$$$V@std@@@2@X$$$V@std@@@std@@QAEPAV?$_Func_impl@U?$_Callable_obj@V<lambda_0b7f78ec4ced38495cec46e0d346e0b9>@@$0A@@std@@V?$allocator@V?$_Func_class@X$$$V@std@@@2@X$$$V@2@I@Z 100a2c10 f i WinRTVFS.obj
 0002:00064c70       ?allocate@?$allocator@V?$_Func_impl@U?$_Callable_obj@V<lambda_0fe479da16d43edb8e9a254c493d643e>@@$0A@@std@@V?$allocator@V?$_Func_class@X$$$V@std@@@2@X$$$V@std@@@std@@QAEPAV?$_Func_impl@U?$_Callable_obj@V<lambda_0fe479da16d43edb8e9a254c493d643e>@@$0A@@std@@V?$allocator@V?$_Func_class@X$$$V@std@@@2@X$$$V@2@I@Z 100a2c70 f i WinRTVFS.obj
 0002:00064cd0       ?allocate@?$allocator@V?$_Func_impl@U?$_Callable_obj@V<lambda_1a93da980d6fe77644a4eefc4e1ad756>@@$0A@@std@@V?$allocator@V?$_Func_class@XABH@std@@@2@XABH@std@@@std@@QAEPAV?$_Func_impl@U?$_Callable_obj@V<lambda_1a93da980d6fe77644a4eefc4e1ad756>@@$0A@@std@@V?$allocator@V?$_Func_class@XABH@std@@@2@XABH@2@I@Z 100a2cd0 f i WinRTVFS.obj
 0002:00064d30       ?allocate@?$allocator@V?$_Func_impl@U?$_Callable_obj@V<lambda_295bc5f846209cba149a5e74d0d63a72>@@$0A@@std@@V?$allocator@V?$_Func_class@XPAV?$message@H@Concurrency@@@std@@@2@XPAV?$message@H@Concurrency@@@std@@@std@@QAEPAV?$_Func_impl@U?$_Callable_obj@V<lambda_295bc5f846209cba149a5e74d0d63a72>@@$0A@@std@@V?$allocator@V?$_Func_class@XPAV?$message@H@Concurrency@@@std@@@2@XPAV?$message@H@Concurrency@@@2@I@Z 100a2d30 f i WinRTVFS.obj
 0002:00064d90       ?allocate@?$allocator@V?$_Func_impl@U?$_Callable_obj@V<lambda_364e75aa895e992ae8821732ca646aa2>@@$0A@@std@@V?$allocator@V?$_Func_class@X$$$V@std@@@2@X$$$V@std@@@std@@QAEPAV?$_Func_impl@U?$_Callable_obj@V<lambda_364e75aa895e992ae8821732ca646aa2>@@$0A@@std@@V?$allocator@V?$_Func_class@X$$$V@std@@@2@X$$$V@2@I@Z 100a2d90 f i WinRTVFS.obj
 0002:00064df0       ?allocate@?$allocator@V?$_Func_impl@U?$_Callable_obj@V<lambda_39cde079c01d1b5b9307ff255a1ccdd9>@@$0A@@std@@V?$allocator@V?$_Func_class@EE@std@@@2@EE@std@@@std@@QAEPAV?$_Func_impl@U?$_Callable_obj@V<lambda_39cde079c01d1b5b9307ff255a1ccdd9>@@$0A@@std@@V?$allocator@V?$_Func_class@EE@std@@@2@EE@2@I@Z 100a2df0 f i WinRTVFS.obj
 0002:00064e50       ?allocate@?$allocator@V?$_Func_impl@U?$_Callable_obj@V<lambda_528650821c608ced6534641e311542a5>@@$0A@@std@@V?$allocator@V?$_Func_class@X$$$V@std@@@2@X$$$V@std@@@std@@QAEPAV?$_Func_impl@U?$_Callable_obj@V<lambda_528650821c608ced6534641e311542a5>@@$0A@@std@@V?$allocator@V?$_Func_class@X$$$V@std@@@2@X$$$V@2@I@Z 100a2e50 f i WinRTVFS.obj
 0002:00064eb0       ?allocate@?$allocator@V?$_Func_impl@U?$_Callable_obj@V<lambda_579ccd68d569251046038e8620afec85>@@$0A@@std@@V?$allocator@V?$_Func_class@XPAV?$message@H@Concurrency@@@std@@@2@XPAV?$message@H@Concurrency@@@std@@@std@@QAEPAV?$_Func_impl@U?$_Callable_obj@V<lambda_579ccd68d569251046038e8620afec85>@@$0A@@std@@V?$allocator@V?$_Func_class@XPAV?$message@H@Concurrency@@@std@@@2@XPAV?$message@H@Concurrency@@@2@I@Z 100a2eb0 f i WinRTVFS.obj
 0002:00064f10       ?allocate@?$allocator@V?$_Func_impl@U?$_Callable_obj@V<lambda_9fc58f08a03183e50e06176727aeb396>@@$0A@@std@@V?$allocator@V?$_Func_class@X$$$V@std@@@2@X$$$V@std@@@std@@QAEPAV?$_Func_impl@U?$_Callable_obj@V<lambda_9fc58f08a03183e50e06176727aeb396>@@$0A@@std@@V?$allocator@V?$_Func_class@X$$$V@std@@@2@X$$$V@2@I@Z 100a2f10 f i WinRTVFS.obj
 0002:00064f70       ?allocate@?$allocator@V?$_Func_impl@U?$_Callable_obj@V<lambda_a66b3ee15e662226a0b0b15ae647d32f>@@$0A@@std@@V?$allocator@V?$_Func_class@X$$$V@std@@@2@X$$$V@std@@@std@@QAEPAV?$_Func_impl@U?$_Callable_obj@V<lambda_a66b3ee15e662226a0b0b15ae647d32f>@@$0A@@std@@V?$allocator@V?$_Func_class@X$$$V@std@@@2@X$$$V@2@I@Z 100a2f70 f i WinRTVFS.obj
 0002:00064fd0       ?allocate@?$allocator@V?$_Func_impl@U?$_Callable_obj@V<lambda_c1a554f2383dae03f169289aed8c4103>@@$0A@@std@@V?$allocator@V?$_Func_class@X$$$V@std@@@2@X$$$V@std@@@std@@QAEPAV?$_Func_impl@U?$_Callable_obj@V<lambda_c1a554f2383dae03f169289aed8c4103>@@$0A@@std@@V?$allocator@V?$_Func_class@X$$$V@std@@@2@X$$$V@2@I@Z 100a2fd0 f i WinRTVFS.obj
 0002:00065030       ?allocate@?$allocator@V?$_Func_impl@U?$_Callable_obj@V<lambda_c28a53003ed51cdfe295a7d756f98c2f>@@$0A@@std@@V?$allocator@V?$_Func_class@XPAV?$message@H@Concurrency@@@std@@@2@XPAV?$message@H@Concurrency@@@std@@@std@@QAEPAV?$_Func_impl@U?$_Callable_obj@V<lambda_c28a53003ed51cdfe295a7d756f98c2f>@@$0A@@std@@V?$allocator@V?$_Func_class@XPAV?$message@H@Concurrency@@@std@@@2@XPAV?$message@H@Concurrency@@@2@I@Z 100a3030 f i WinRTVFS.obj
 0002:00065090       ?allocate@?$allocator@V?$_Func_impl@U?$_Callable_obj@V<lambda_e7ef5f1e4e1eca0ae8efc6086cf9f417>@@$0A@@std@@V?$allocator@V?$_Func_class@X$$$V@std@@@2@X$$$V@std@@@std@@QAEPAV?$_Func_impl@U?$_Callable_obj@V<lambda_e7ef5f1e4e1eca0ae8efc6086cf9f417>@@$0A@@std@@V?$allocator@V?$_Func_class@X$$$V@std@@@2@X$$$V@2@I@Z 100a3090 f i WinRTVFS.obj
 0002:000650f0       ?allocate@?$allocator@V?$shared_ptr@U?$_Task_impl@E@details@Concurrency@@@std@@@std@@QAEPAV?$shared_ptr@U?$_Task_impl@E@details@Concurrency@@@2@I@Z 100a30f0 f i WinRTVFS.obj
 0002:00065150       ?async_send@?$ordered_message_processor@H@Concurrency@@UAEXPAV?$message@H@2@@Z 100a3150 f i WinRTVFS.obj
 0002:00065300       ?async_send@?$source_block@V?$single_link_registry@V?$ITarget@H@Concurrency@@@Concurrency@@V?$ordered_message_processor@H@2@@Concurrency@@MAEXPAV?$message@H@2@@Z 100a3300 f i WinRTVFS.obj
 0002:00065370       ?async_send@?$target_block@V?$multi_link_registry@V?$ISource@H@Concurrency@@@Concurrency@@V?$ordered_message_processor@H@2@@Concurrency@@IAEXPAV?$message@H@2@@Z 100a3370 f i WinRTVFS.obj
 0002:000653e0       ?atomic_compare_exchange_strong_explicit@std@@YA_NPAUatomic_long@1@PAJJW4memory_order@1@2@Z 100a33e0 f i WinRTVFS.obj
 0002:00065510       ?atomic_exchange_explicit@std@@YAJPAUatomic_long@1@JW4memory_order@1@@Z 100a3510 f i WinRTVFS.obj
 0002:00065570       ?atomic_load@std@@YAJPBUatomic_long@1@@Z 100a3570 f i WinRTVFS.obj
 0002:000655c0       ?atomic_load_explicit@std@@YAJPBUatomic_long@1@W4memory_order@1@@Z 100a35c0 f i WinRTVFS.obj
 0002:00065620       ?atomic_store@std@@YAXPAUatomic_long@1@J@Z 100a3620 f i WinRTVFS.obj
 0002:00065680       ?atomic_store_explicit@std@@YAXPAUatomic_long@1@JW4memory_order@1@@Z 100a3680 f i WinRTVFS.obj
 0002:000656e0       ?begin@?$multi_link_registry@V?$ISource@H@Concurrency@@@Concurrency@@UAE?AV?$_Network_link_iterator@V?$ISource@H@Concurrency@@@2@XZ 100a36e0 f i WinRTVFS.obj
 0002:00065740       ?begin@?$single_link_registry@V?$ITarget@H@Concurrency@@@Concurrency@@UAE?AV?$_Network_link_iterator@V?$ITarget@H@Concurrency@@@2@XZ 100a3740 f i WinRTVFS.obj
 0002:000657a0       ?begin@?$source_link_manager@V?$multi_link_registry@V?$ISource@H@Concurrency@@@Concurrency@@@Concurrency@@QAE?AV?$_Source_link_iterator@V?$multi_link_registry@V?$ISource@H@Concurrency@@@Concurrency@@@2@XZ 100a37a0 f i WinRTVFS.obj
 0002:00065820       ?begin@?$vector@PAXV?$allocator@PAX@std@@@std@@QBE?AV?$_Vector_const_iterator@V?$_Vector_val@U?$_Simple_types@PAX@std@@@std@@@2@XZ 100a3820 f i WinRTVFS.obj
 0002:00065890       ?begin@?$vector@V?$shared_ptr@U?$_Task_impl@E@details@Concurrency@@@std@@V?$allocator@V?$shared_ptr@U?$_Task_impl@E@details@Concurrency@@@std@@@2@@std@@QAE?AV?$_Vector_iterator@V?$_Vector_val@U?$_Simple_types@V?$shared_ptr@U?$_Task_impl@E@details@Concurrency@@@std@@@std@@@std@@@2@XZ 100a3890 f i WinRTVFS.obj
 0002:00065900       ?capacity@?$vector@PAXV?$allocator@PAX@std@@@std@@QBEIXZ 100a3900 f i WinRTVFS.obj
 0002:00065950       ?capacity@?$vector@V?$shared_ptr@U?$_Task_impl@E@details@Concurrency@@@std@@V?$allocator@V?$shared_ptr@U?$_Task_impl@E@details@Concurrency@@@std@@@2@@std@@QBEIXZ 100a3950 f i WinRTVFS.obj
 0002:000659a0       ?clear@?$concurrent_queue@PAV?$message@H@Concurrency@@V?$allocator@PAV?$message@H@Concurrency@@@std@@@Concurrency@@QAEXXZ 100a39a0 f i WinRTVFS.obj
 0002:00065a80       ?clear@?$vector@PAXV?$allocator@PAX@std@@@std@@QAEXXZ 100a3a80 f i WinRTVFS.obj
 0002:00065b10       ?compare_exchange_strong@atomic_long@std@@QAE_NAAJJW4memory_order@2@@Z 100a3b10 f i WinRTVFS.obj
 0002:00065b80       ?complete_after@@YA?AV?$task@X@Concurrency@@I@Z 100a3b80 f   WinRTVFS.obj
 0002:00066000       ?construct@?$allocator@V?$shared_ptr@U?$_Task_impl@E@details@Concurrency@@@std@@@std@@QAEXPAV?$shared_ptr@U?$_Task_impl@E@details@Concurrency@@@2@ABV32@@Z 100a4000 f i WinRTVFS.obj
 0002:000660a0       ?consume@?$source_block@V?$single_link_registry@V?$ITarget@H@Concurrency@@@Concurrency@@V?$ordered_message_processor@H@2@@Concurrency@@UAEPAV?$message@H@2@HPAV?$ITarget@H@2@@Z 100a40a0 f i WinRTVFS.obj
 0002:00066290       ?consume_message@?$timer@H@Concurrency@@MAEPAV?$message@H@2@H@Z 100a4290 f i WinRTVFS.obj
 0002:00066300       ?contains@?$multi_link_registry@V?$ISource@H@Concurrency@@@Concurrency@@UAE_NPAV?$ISource@H@2@@Z 100a4300 f i WinRTVFS.obj
 0002:000663b0       ?contains@?$single_link_registry@V?$ITarget@H@Concurrency@@@Concurrency@@UAE_NPAV?$ITarget@H@2@@Z 100a43b0 f i WinRTVFS.obj
 0002:00066420       ?count@?$multi_link_registry@V?$ISource@H@Concurrency@@@Concurrency@@UAEIXZ 100a4420 f i WinRTVFS.obj
 0002:00066470       ?count@?$single_link_registry@V?$ITarget@H@Concurrency@@@Concurrency@@UAEIXZ 100a4470 f i WinRTVFS.obj
 0002:000664e0       ?count@?$source_link_manager@V?$multi_link_registry@V?$ISource@H@Concurrency@@@Concurrency@@@Concurrency@@QAEIXZ 100a44e0 f i WinRTVFS.obj
 0002:00066620       ?current_exception@std@@YA?AVexception_ptr@1@XZ 100a4620 f i WinRTVFS.obj
 0002:00066690       ?deallocate@?$_Wrap_alloc@V?$allocator@PAX@std@@@std@@QAEXPAPAXI@Z 100a4690 f i WinRTVFS.obj
 0002:000666f0       ?deallocate@?$_Wrap_alloc@V?$allocator@U_Container_proxy@std@@@std@@@std@@QAEXPAU_Container_proxy@2@I@Z 100a46f0 f i WinRTVFS.obj
 0002:00066750       ?deallocate@?$_Wrap_alloc@V?$allocator@V?$shared_ptr@U?$_Task_impl@E@details@Concurrency@@@std@@@std@@@std@@QAEXPAV?$shared_ptr@U?$_Task_impl@E@details@Concurrency@@@2@I@Z 100a4750 f i WinRTVFS.obj
 0002:000667b0       ?deallocate@?$allocator@PAX@std@@QAEXPAPAXI@Z 100a47b0 f i WinRTVFS.obj
 0002:00066810       ?deallocate@?$allocator@V?$_Func_impl@U?$_Callable_obj@V<lambda_02d862f9cfc639ff7c37ca52d43e6a8c>@@$0A@@std@@V?$allocator@V?$_Func_class@X$$$V@std@@@2@X$$$V@std@@@std@@QAEXPAV?$_Func_impl@U?$_Callable_obj@V<lambda_02d862f9cfc639ff7c37ca52d43e6a8c>@@$0A@@std@@V?$allocator@V?$_Func_class@X$$$V@std@@@2@X$$$V@2@I@Z 100a4810 f i WinRTVFS.obj
 0002:00066870       ?deallocate@?$allocator@V?$_Func_impl@U?$_Callable_obj@V<lambda_095a938ce4c5765dcc6b67f548aeb9c7>@@$0A@@std@@V?$allocator@V?$_Func_class@X$$$V@std@@@2@X$$$V@std@@@std@@QAEXPAV?$_Func_impl@U?$_Callable_obj@V<lambda_095a938ce4c5765dcc6b67f548aeb9c7>@@$0A@@std@@V?$allocator@V?$_Func_class@X$$$V@std@@@2@X$$$V@2@I@Z 100a4870 f i WinRTVFS.obj
 0002:000668d0       ?deallocate@?$allocator@V?$_Func_impl@U?$_Callable_obj@V<lambda_0b7f78ec4ced38495cec46e0d346e0b9>@@$0A@@std@@V?$allocator@V?$_Func_class@X$$$V@std@@@2@X$$$V@std@@@std@@QAEXPAV?$_Func_impl@U?$_Callable_obj@V<lambda_0b7f78ec4ced38495cec46e0d346e0b9>@@$0A@@std@@V?$allocator@V?$_Func_class@X$$$V@std@@@2@X$$$V@2@I@Z 100a48d0 f i WinRTVFS.obj
 0002:00066930       ?deallocate@?$allocator@V?$_Func_impl@U?$_Callable_obj@V<lambda_0fe479da16d43edb8e9a254c493d643e>@@$0A@@std@@V?$allocator@V?$_Func_class@X$$$V@std@@@2@X$$$V@std@@@std@@QAEXPAV?$_Func_impl@U?$_Callable_obj@V<lambda_0fe479da16d43edb8e9a254c493d643e>@@$0A@@std@@V?$allocator@V?$_Func_class@X$$$V@std@@@2@X$$$V@2@I@Z 100a4930 f i WinRTVFS.obj
 0002:00066990       ?deallocate@?$allocator@V?$_Func_impl@U?$_Callable_obj@V<lambda_1a93da980d6fe77644a4eefc4e1ad756>@@$0A@@std@@V?$allocator@V?$_Func_class@XABH@std@@@2@XABH@std@@@std@@QAEXPAV?$_Func_impl@U?$_Callable_obj@V<lambda_1a93da980d6fe77644a4eefc4e1ad756>@@$0A@@std@@V?$allocator@V?$_Func_class@XABH@std@@@2@XABH@2@I@Z 100a4990 f i WinRTVFS.obj
 0002:000669f0       ?deallocate@?$allocator@V?$_Func_impl@U?$_Callable_obj@V<lambda_295bc5f846209cba149a5e74d0d63a72>@@$0A@@std@@V?$allocator@V?$_Func_class@XPAV?$message@H@Concurrency@@@std@@@2@XPAV?$message@H@Concurrency@@@std@@@std@@QAEXPAV?$_Func_impl@U?$_Callable_obj@V<lambda_295bc5f846209cba149a5e74d0d63a72>@@$0A@@std@@V?$allocator@V?$_Func_class@XPAV?$message@H@Concurrency@@@std@@@2@XPAV?$message@H@Concurrency@@@2@I@Z 100a49f0 f i WinRTVFS.obj
 0002:00066a50       ?deallocate@?$allocator@V?$_Func_impl@U?$_Callable_obj@V<lambda_364e75aa895e992ae8821732ca646aa2>@@$0A@@std@@V?$allocator@V?$_Func_class@X$$$V@std@@@2@X$$$V@std@@@std@@QAEXPAV?$_Func_impl@U?$_Callable_obj@V<lambda_364e75aa895e992ae8821732ca646aa2>@@$0A@@std@@V?$allocator@V?$_Func_class@X$$$V@std@@@2@X$$$V@2@I@Z 100a4a50 f i WinRTVFS.obj
 0002:00066ab0       ?deallocate@?$allocator@V?$_Func_impl@U?$_Callable_obj@V<lambda_39cde079c01d1b5b9307ff255a1ccdd9>@@$0A@@std@@V?$allocator@V?$_Func_class@EE@std@@@2@EE@std@@@std@@QAEXPAV?$_Func_impl@U?$_Callable_obj@V<lambda_39cde079c01d1b5b9307ff255a1ccdd9>@@$0A@@std@@V?$allocator@V?$_Func_class@EE@std@@@2@EE@2@I@Z 100a4ab0 f i WinRTVFS.obj
 0002:00066b10       ?deallocate@?$allocator@V?$_Func_impl@U?$_Callable_obj@V<lambda_528650821c608ced6534641e311542a5>@@$0A@@std@@V?$allocator@V?$_Func_class@X$$$V@std@@@2@X$$$V@std@@@std@@QAEXPAV?$_Func_impl@U?$_Callable_obj@V<lambda_528650821c608ced6534641e311542a5>@@$0A@@std@@V?$allocator@V?$_Func_class@X$$$V@std@@@2@X$$$V@2@I@Z 100a4b10 f i WinRTVFS.obj
 0002:00066b70       ?deallocate@?$allocator@V?$_Func_impl@U?$_Callable_obj@V<lambda_579ccd68d569251046038e8620afec85>@@$0A@@std@@V?$allocator@V?$_Func_class@XPAV?$message@H@Concurrency@@@std@@@2@XPAV?$message@H@Concurrency@@@std@@@std@@QAEXPAV?$_Func_impl@U?$_Callable_obj@V<lambda_579ccd68d569251046038e8620afec85>@@$0A@@std@@V?$allocator@V?$_Func_class@XPAV?$message@H@Concurrency@@@std@@@2@XPAV?$message@H@Concurrency@@@2@I@Z 100a4b70 f i WinRTVFS.obj
 0002:00066bd0       ?deallocate@?$allocator@V?$_Func_impl@U?$_Callable_obj@V<lambda_9fc58f08a03183e50e06176727aeb396>@@$0A@@std@@V?$allocator@V?$_Func_class@X$$$V@std@@@2@X$$$V@std@@@std@@QAEXPAV?$_Func_impl@U?$_Callable_obj@V<lambda_9fc58f08a03183e50e06176727aeb396>@@$0A@@std@@V?$allocator@V?$_Func_class@X$$$V@std@@@2@X$$$V@2@I@Z 100a4bd0 f i WinRTVFS.obj
 0002:00066c30       ?deallocate@?$allocator@V?$_Func_impl@U?$_Callable_obj@V<lambda_a66b3ee15e662226a0b0b15ae647d32f>@@$0A@@std@@V?$allocator@V?$_Func_class@X$$$V@std@@@2@X$$$V@std@@@std@@QAEXPAV?$_Func_impl@U?$_Callable_obj@V<lambda_a66b3ee15e662226a0b0b15ae647d32f>@@$0A@@std@@V?$allocator@V?$_Func_class@X$$$V@std@@@2@X$$$V@2@I@Z 100a4c30 f i WinRTVFS.obj
 0002:00066c90       ?deallocate@?$allocator@V?$_Func_impl@U?$_Callable_obj@V<lambda_c1a554f2383dae03f169289aed8c4103>@@$0A@@std@@V?$allocator@V?$_Func_class@X$$$V@std@@@2@X$$$V@std@@@std@@QAEXPAV?$_Func_impl@U?$_Callable_obj@V<lambda_c1a554f2383dae03f169289aed8c4103>@@$0A@@std@@V?$allocator@V?$_Func_class@X$$$V@std@@@2@X$$$V@2@I@Z 100a4c90 f i WinRTVFS.obj
 0002:00066cf0       ?deallocate@?$allocator@V?$_Func_impl@U?$_Callable_obj@V<lambda_c28a53003ed51cdfe295a7d756f98c2f>@@$0A@@std@@V?$allocator@V?$_Func_class@XPAV?$message@H@Concurrency@@@std@@@2@XPAV?$message@H@Concurrency@@@std@@@std@@QAEXPAV?$_Func_impl@U?$_Callable_obj@V<lambda_c28a53003ed51cdfe295a7d756f98c2f>@@$0A@@std@@V?$allocator@V?$_Func_class@XPAV?$message@H@Concurrency@@@std@@@2@XPAV?$message@H@Concurrency@@@2@I@Z 100a4cf0 f i WinRTVFS.obj
 0002:00066d50       ?deallocate@?$allocator@V?$_Func_impl@U?$_Callable_obj@V<lambda_e7ef5f1e4e1eca0ae8efc6086cf9f417>@@$0A@@std@@V?$allocator@V?$_Func_class@X$$$V@std@@@2@X$$$V@std@@@std@@QAEXPAV?$_Func_impl@U?$_Callable_obj@V<lambda_e7ef5f1e4e1eca0ae8efc6086cf9f417>@@$0A@@std@@V?$allocator@V?$_Func_class@X$$$V@std@@@2@X$$$V@2@I@Z 100a4d50 f i WinRTVFS.obj
 0002:00066db0       ?deallocate@?$allocator@V?$shared_ptr@U?$_Task_impl@E@details@Concurrency@@@std@@@std@@QAEXPAV?$shared_ptr@U?$_Task_impl@E@details@Concurrency@@@2@I@Z 100a4db0 f i WinRTVFS.obj
 0002:00066e10       ?decline_incoming_messages@?$target_block@V?$multi_link_registry@V?$ISource@H@Concurrency@@@Concurrency@@V?$ordered_message_processor@H@2@@Concurrency@@IAEXXZ 100a4e10 f i WinRTVFS.obj
 0002:00066e50       ?empty@?$concurrent_queue@PAV?$message@H@Concurrency@@V?$allocator@PAV?$message@H@Concurrency@@@std@@@Concurrency@@QBE_NXZ 100a4e50 f i WinRTVFS.obj
 0002:00066eb0       ?empty@?$vector@PAXV?$allocator@PAX@std@@@std@@QBE_NXZ 100a4eb0 f i WinRTVFS.obj
 0002:00066f20       ?empty@TokenRegistrationContainer@_CancellationTokenState@details@Concurrency@@QAE_NXZ 100a4f20 f i WinRTVFS.obj
 0002:00066f90       ?enable_batched_processing@?$target_block@V?$multi_link_registry@V?$ISource@H@Concurrency@@@Concurrency@@V?$ordered_message_processor@H@2@@Concurrency@@IAEXXZ 100a4f90 f i WinRTVFS.obj
 0002:000670b0       ?end@?$vector@PAXV?$allocator@PAX@std@@@std@@QBE?AV?$_Vector_const_iterator@V?$_Vector_val@U?$_Simple_types@PAX@std@@@std@@@2@XZ 100a50b0 f i WinRTVFS.obj
 0002:00067120       ?end@?$vector@V?$shared_ptr@U?$_Task_impl@E@details@Concurrency@@@std@@V?$allocator@V?$shared_ptr@U?$_Task_impl@E@details@Concurrency@@@std@@@2@@std@@QAE?AV?$_Vector_iterator@V?$_Vector_val@U?$_Simple_types@V?$shared_ptr@U?$_Task_impl@E@details@Concurrency@@@std@@@std@@@std@@@2@XZ 100a5120 f i WinRTVFS.obj
 0002:00067190       ?exchange@atomic_long@std@@QAEJJW4memory_order@2@@Z 100a5190 f i WinRTVFS.obj
 0002:000671f0       ?get@?$shared_ptr@U_ExceptionHolder@details@Concurrency@@@std@@QBEPAU_ExceptionHolder@details@Concurrency@@XZ 100a51f0 f i WinRTVFS.obj
 0002:00067240       ?get@?$shared_ptr@U_Task_impl_base@details@Concurrency@@@std@@QBEPAU_Task_impl_base@details@Concurrency@@XZ 100a5240 f i WinRTVFS.obj
 0002:00067290       ?get@?$shared_ptr@Uscheduler_interface@Concurrency@@@std@@QBEPAUscheduler_interface@Concurrency@@XZ 100a5290 f i WinRTVFS.obj
 0002:000672e0       ?get@?$task@P$AAUIBuffer@Streams@Storage@Windows@@@Concurrency@@QBEP$AAUIBuffer@Streams@Storage@Windows@@XZ 100a52e0 f i WinRTVFS.obj
 0002:00067450       ?get@?$task@P$AAUIRandomAccessStream@Streams@Storage@Windows@@@Concurrency@@QBEP$AAUIRandomAccessStream@Streams@Storage@Windows@@XZ 100a5450 f i WinRTVFS.obj
 0002:000675c0       ?get@?$task@P$AAVStorageFile@Storage@Windows@@@Concurrency@@QBEP$AAVStorageFile@Storage@Windows@@XZ 100a55c0 f i WinRTVFS.obj
 0002:00067730       ?get@?$task@P$AAVStorageFolder@Storage@Windows@@@Concurrency@@QBEP$AAVStorageFolder@Storage@Windows@@XZ 100a5730 f i WinRTVFS.obj
 0002:000678a0       ?get@?Q?$IAsyncOperation@E@Foundation@Windows@@Completed@?$_AsyncInfoImpl@P$AAUIAsyncAction@Foundation@Windows@@VAsyncActionCompletedHandler@23@E@details@Concurrency@@U$AAAP$AAV?$AsyncOperationCompletedHandler@E@23@XZ 100a58a0 f i WinRTVFS.obj
 0002:000678f1       ?get@?Q?$IAsyncOperation@E@Foundation@Windows@@Completed@?$_AsyncInfoImpl@P$AAUIAsyncAction@Foundation@Windows@@VAsyncActionCompletedHandler@23@E@details@Concurrency@@W3$AAAP$AAV?$AsyncOperationCompletedHandler@E@23@XZ 100a58f1 f i WinRTVFS.obj
 0002:00067900       ?get@?Q?$IAsyncOperation@I@Foundation@Windows@@Completed@?$_AsyncInfoImpl@P$AAU?$IAsyncOperationWithProgress@II@Foundation@Windows@@V?$AsyncOperationWithProgressCompletedHandler@II@23@I@details@Concurrency@@U$AAAP$AAV?$AsyncOperationCompletedHandler@I@23@XZ 100a5900 f i WinRTVFS.obj
 0002:00067951       ?get@?Q?$IAsyncOperation@I@Foundation@Windows@@Completed@?$_AsyncInfoImpl@P$AAU?$IAsyncOperationWithProgress@II@Foundation@Windows@@V?$AsyncOperationWithProgressCompletedHandler@II@23@I@details@Concurrency@@W3$AAAP$AAV?$AsyncOperationCompletedHandler@I@23@XZ 100a5951 f i WinRTVFS.obj
 0002:00067960       ?get@?Q?$IAsyncOperation@P$AAUIBuffer@Streams@Storage@Windows@@@Foundation@Windows@@Completed@?$_AsyncInfoImpl@P$AAU?$IAsyncOperationWithProgress@P$AAUIBuffer@Streams@Storage@Windows@@I@Foundation@Windows@@V?$AsyncOperationWithProgressCompletedHandler@P$AAUIBuffer@Streams@Storage@Windows@@I@23@P$AAUIBuffer@Streams@Storage@3@@details@Concurrency@@U$AAAP$AAV?$AsyncOperationCompletedHandler@P$AAUIBuffer@Streams@Storage@Windows@@@23@XZ 100a5960 f i WinRTVFS.obj
 0002:000679b1       ?get@?Q?$IAsyncOperation@P$AAUIBuffer@Streams@Storage@Windows@@@Foundation@Windows@@Completed@?$_AsyncInfoImpl@P$AAU?$IAsyncOperationWithProgress@P$AAUIBuffer@Streams@Storage@Windows@@I@Foundation@Windows@@V?$AsyncOperationWithProgressCompletedHandler@P$AAUIBuffer@Streams@Storage@Windows@@I@23@P$AAUIBuffer@Streams@Storage@3@@details@Concurrency@@W3$AAAP$AAV?$AsyncOperationCompletedHandler@P$AAUIBuffer@Streams@Storage@Windows@@@23@XZ 100a59b1 f i WinRTVFS.obj
 0002:000679c0       ?get@?QIAsyncInfo@Foundation@Windows@@ErrorCode@?$_AsyncInfoImpl@P$AAU?$IAsyncOperationWithProgress@II@Foundation@Windows@@V?$AsyncOperationWithProgressCompletedHandler@II@23@I@details@Concurrency@@U$AAA?AVHResult@23@XZ 100a59c0 f i WinRTVFS.obj
 0002:00067ac7       ?get@?QIAsyncInfo@Foundation@Windows@@ErrorCode@?$_AsyncInfoImpl@P$AAU?$IAsyncOperationWithProgress@II@Foundation@Windows@@V?$AsyncOperationWithProgressCompletedHandler@II@23@I@details@Concurrency@@W7$AAA?AVHResult@23@XZ 100a5ac7 f i WinRTVFS.obj
 0002:00067ae0       ?get@?QIAsyncInfo@Foundation@Windows@@ErrorCode@?$_AsyncInfoImpl@P$AAU?$IAsyncOperationWithProgress@P$AAUIBuffer@Streams@Storage@Windows@@I@Foundation@Windows@@V?$AsyncOperationWithProgressCompletedHandler@P$AAUIBuffer@Streams@Storage@Windows@@I@23@P$AAUIBuffer@Streams@Storage@3@@details@Concurrency@@U$AAA?AVHResult@23@XZ 100a5ae0 f i WinRTVFS.obj
 0002:00067be7       ?get@?QIAsyncInfo@Foundation@Windows@@ErrorCode@?$_AsyncInfoImpl@P$AAU?$IAsyncOperationWithProgress@P$AAUIBuffer@Streams@Storage@Windows@@I@Foundation@Windows@@V?$AsyncOperationWithProgressCompletedHandler@P$AAUIBuffer@Streams@Storage@Windows@@I@23@P$AAUIBuffer@Streams@Storage@3@@details@Concurrency@@W7$AAA?AVHResult@23@XZ 100a5be7 f i WinRTVFS.obj
 0002:00067c00       ?get@?QIAsyncInfo@Foundation@Windows@@ErrorCode@?$_AsyncInfoImpl@P$AAUIAsyncAction@Foundation@Windows@@VAsyncActionCompletedHandler@23@E@details@Concurrency@@U$AAA?AVHResult@23@XZ 100a5c00 f i WinRTVFS.obj
 0002:00067d07       ?get@?QIAsyncInfo@Foundation@Windows@@ErrorCode@?$_AsyncInfoImpl@P$AAUIAsyncAction@Foundation@Windows@@VAsyncActionCompletedHandler@23@E@details@Concurrency@@W7$AAA?AVHResult@23@XZ 100a5d07 f i WinRTVFS.obj
 0002:00067d20       ?get@?QIAsyncInfo@Foundation@Windows@@Id@?$_AsyncInfoImpl@P$AAU?$IAsyncOperationWithProgress@II@Foundation@Windows@@V?$AsyncOperationWithProgressCompletedHandler@II@23@I@details@Concurrency@@U$AAAIXZ 100a5d20 f i WinRTVFS.obj
 0002:00067e2e       ?get@?QIAsyncInfo@Foundation@Windows@@Id@?$_AsyncInfoImpl@P$AAU?$IAsyncOperationWithProgress@II@Foundation@Windows@@V?$AsyncOperationWithProgressCompletedHandler@II@23@I@details@Concurrency@@W7$AAAIXZ 100a5e2e f i WinRTVFS.obj
 0002:00067e40       ?get@?QIAsyncInfo@Foundation@Windows@@Id@?$_AsyncInfoImpl@P$AAU?$IAsyncOperationWithProgress@P$AAUIBuffer@Streams@Storage@Windows@@I@Foundation@Windows@@V?$AsyncOperationWithProgressCompletedHandler@P$AAUIBuffer@Streams@Storage@Windows@@I@23@P$AAUIBuffer@Streams@Storage@3@@details@Concurrency@@U$AAAIXZ 100a5e40 f i WinRTVFS.obj
 0002:00067f4e       ?get@?QIAsyncInfo@Foundation@Windows@@Id@?$_AsyncInfoImpl@P$AAU?$IAsyncOperationWithProgress@P$AAUIBuffer@Streams@Storage@Windows@@I@Foundation@Windows@@V?$AsyncOperationWithProgressCompletedHandler@P$AAUIBuffer@Streams@Storage@Windows@@I@23@P$AAUIBuffer@Streams@Storage@3@@details@Concurrency@@W7$AAAIXZ 100a5f4e f i WinRTVFS.obj
 0002:00067f60       ?get@?QIAsyncInfo@Foundation@Windows@@Id@?$_AsyncInfoImpl@P$AAUIAsyncAction@Foundation@Windows@@VAsyncActionCompletedHandler@23@E@details@Concurrency@@U$AAAIXZ 100a5f60 f i WinRTVFS.obj
 0002:0006806e       ?get@?QIAsyncInfo@Foundation@Windows@@Id@?$_AsyncInfoImpl@P$AAUIAsyncAction@Foundation@Windows@@VAsyncActionCompletedHandler@23@E@details@Concurrency@@W7$AAAIXZ 100a606e f i WinRTVFS.obj
 0002:00068080       ?get@?QIAsyncInfo@Foundation@Windows@@Status@?$_AsyncInfoImpl@P$AAU?$IAsyncOperationWithProgress@II@Foundation@Windows@@V?$AsyncOperationWithProgressCompletedHandler@II@23@I@details@Concurrency@@U$AAA?AW4AsyncStatus@23@XZ 100a6080 f i WinRTVFS.obj
 0002:0006818e       ?get@?QIAsyncInfo@Foundation@Windows@@Status@?$_AsyncInfoImpl@P$AAU?$IAsyncOperationWithProgress@II@Foundation@Windows@@V?$AsyncOperationWithProgressCompletedHandler@II@23@I@details@Concurrency@@W7$AAA?AW4AsyncStatus@23@XZ 100a618e f i WinRTVFS.obj
 0002:000681a0       ?get@?QIAsyncInfo@Foundation@Windows@@Status@?$_AsyncInfoImpl@P$AAU?$IAsyncOperationWithProgress@P$AAUIBuffer@Streams@Storage@Windows@@I@Foundation@Windows@@V?$AsyncOperationWithProgressCompletedHandler@P$AAUIBuffer@Streams@Storage@Windows@@I@23@P$AAUIBuffer@Streams@Storage@3@@details@Concurrency@@U$AAA?AW4AsyncStatus@23@XZ 100a61a0 f i WinRTVFS.obj
 0002:000682ae       ?get@?QIAsyncInfo@Foundation@Windows@@Status@?$_AsyncInfoImpl@P$AAU?$IAsyncOperationWithProgress@P$AAUIBuffer@Streams@Storage@Windows@@I@Foundation@Windows@@V?$AsyncOperationWithProgressCompletedHandler@P$AAUIBuffer@Streams@Storage@Windows@@I@23@P$AAUIBuffer@Streams@Storage@3@@details@Concurrency@@W7$AAA?AW4AsyncStatus@23@XZ 100a62ae f i WinRTVFS.obj
 0002:000682c0       ?get@?QIAsyncInfo@Foundation@Windows@@Status@?$_AsyncInfoImpl@P$AAUIAsyncAction@Foundation@Windows@@VAsyncActionCompletedHandler@23@E@details@Concurrency@@U$AAA?AW4AsyncStatus@23@XZ 100a62c0 f i WinRTVFS.obj
 0002:000683ce       ?get@?QIAsyncInfo@Foundation@Windows@@Status@?$_AsyncInfoImpl@P$AAUIAsyncAction@Foundation@Windows@@VAsyncActionCompletedHandler@23@E@details@Concurrency@@W7$AAA?AW4AsyncStatus@23@XZ 100a63ce f i WinRTVFS.obj
 0002:000683e0       ?get@ErrorCode@IAsyncInfo@Foundation@Windows@@U$AAA?AVHResult@34@XZ 100a63e0 f i WinRTVFS.obj
 0002:000684c0       ?get@Id@IAsyncInfo@Foundation@Windows@@U$AAAIXZ 100a64c0 f i WinRTVFS.obj
 0002:000685a0       ?get@Length@IBuffer@Streams@Storage@Windows@@U$AAAIXZ 100a65a0 f i WinRTVFS.obj
 0002:00068680       ?get@Size@IRandomAccessStream@Streams@Storage@Windows@@U$AAA_KXZ 100a6680 f i WinRTVFS.obj
 0002:00068760       ?get@Status@IAsyncInfo@Foundation@Windows@@U$AAA?AW4AsyncStatus@34@XZ 100a6760 f i WinRTVFS.obj
 0002:00068840       ?get@scheduler_ptr@Concurrency@@QBEPAUscheduler_interface@2@XZ 100a6840 f i WinRTVFS.obj
 0002:00068880       ?get_ambient_scheduler@Concurrency@@YA?AV?$shared_ptr@Uscheduler_interface@Concurrency@@@std@@XZ 100a6880 f i WinRTVFS.obj
 0002:000688f0       ?get_cancellation_token@task_options@Concurrency@@QBE?AVcancellation_token@2@XZ 100a68f0 f i WinRTVFS.obj
 0002:00068970       ?get_continuation_context@task_options@Concurrency@@QBE?AVtask_continuation_context@2@XZ 100a6970 f i WinRTVFS.obj
 0002:000689f0       ?get_scheduler@task_options@Concurrency@@QBE?AUscheduler_ptr@2@XZ 100a69f0 f i WinRTVFS.obj
 0002:00068a70       ?has_cancellation_token@task_options@Concurrency@@QBE_NXZ 100a6a70 f i WinRTVFS.obj
 0002:00068ab0       ?has_scheduler@task_options@Concurrency@@QBE_NXZ 100a6ab0 f i WinRTVFS.obj
 0002:00068af0       ?initialize@?$ordered_message_processor@H@Concurrency@@QAEXPAVScheduler@2@PAVScheduleGroup@2@ABV?$function@$$A6AXPAV?$message@H@Concurrency@@@Z@std@@@Z 100a6af0 f i WinRTVFS.obj
 0002:00068b70       ?initialize_batched_processing@?$ordered_message_processor@H@Concurrency@@UAEXABV?$function@$$A6AXPAV?$message@H@Concurrency@@@Z@std@@ABV?$function@$$A6AXXZ@4@@Z 100a6b70 f i WinRTVFS.obj
 0002:00068be0       ?initialize_source@?$source_block@V?$single_link_registry@V?$ITarget@H@Concurrency@@@Concurrency@@V?$ordered_message_processor@H@2@@Concurrency@@IAEXPAVScheduler@2@PAVScheduleGroup@2@@Z 100a6be0 f i WinRTVFS.obj
 0002:00068cc0       ?initialize_target@?$target_block@V?$multi_link_registry@V?$ISource@H@Concurrency@@@Concurrency@@V?$ordered_message_processor@H@2@@Concurrency@@IAEXPAVScheduler@2@PAVScheduleGroup@2@@Z 100a6cc0 f i WinRTVFS.obj
 0002:00068db0       ?invoke@?$_PPLTaskHandle@EU?$_ContinuationTaskHandle@XXV<lambda_9fc58f08a03183e50e06176727aeb396>@@U?$integral_constant@_N$0A@@std@@U_TypeSelectorNoAsync@details@Concurrency@@@?$task@E@Concurrency@@U_ContinuationTaskHandleBase@details@3@@details@Concurrency@@UBEXXZ 100a6db0 f i WinRTVFS.obj
 0002:00069040       ?link_source@?$target_block@V?$multi_link_registry@V?$ISource@H@Concurrency@@@Concurrency@@V?$ordered_message_processor@H@2@@Concurrency@@MAEXPAV?$ISource@H@2@@Z 100a7040 f i WinRTVFS.obj
 0002:000690e0       ?link_target@?$source_block@V?$single_link_registry@V?$ITarget@H@Concurrency@@@Concurrency@@V?$ordered_message_processor@H@2@@Concurrency@@UAEXPAV?$ITarget@H@2@@Z 100a70e0 f i WinRTVFS.obj
 0002:00069280       ?link_target_notification@?$source_block@V?$single_link_registry@V?$ITarget@H@Concurrency@@@Concurrency@@V?$ordered_message_processor@H@2@@Concurrency@@MAEXPAV?$ITarget@H@2@@Z 100a7280 f i WinRTVFS.obj
 0002:000692f0       ?link_target_notification@?$timer@H@Concurrency@@MAEXPAV?$ITarget@H@2@@Z 100a72f0 f i WinRTVFS.obj
 0002:000693a0       ?lock@?$weak_ptr@U_Task_impl_base@details@Concurrency@@@std@@QBE?AV?$shared_ptr@U_Task_impl_base@details@Concurrency@@@2@XZ 100a73a0 f i WinRTVFS.obj
 0002:00069400       ?max_size@?$_Wrap_alloc@V?$allocator@PAX@std@@@std@@QBEIXZ 100a7400 f i WinRTVFS.obj
 0002:00069460       ?max_size@?$_Wrap_alloc@V?$allocator@V?$shared_ptr@U?$_Task_impl@E@details@Concurrency@@@std@@@std@@@std@@QBEIXZ 100a7460 f i WinRTVFS.obj
 0002:000694c0       ?max_size@?$allocator@PAX@std@@QBEIXZ 100a74c0 f i WinRTVFS.obj
 0002:00069500       ?max_size@?$allocator@V?$shared_ptr@U?$_Task_impl@E@details@Concurrency@@@std@@@std@@QBEIXZ 100a7500 f i WinRTVFS.obj
 0002:00069540       ?max_size@?$allocator_traits@V?$allocator@PAX@std@@@std@@SAIABV?$allocator@PAX@2@@Z 100a7540 f i WinRTVFS.obj
